 cgamex86

 Timestamp is 688bf40c (Fri Aug  1 00:54:04 2025)

 Preferred load address is 30000000

 Start         Length     Name                   Class
 0001:00000000 000b0db8H .text$mn                CODE
 0001:000b0db8 000000fcH .text$x                 CODE
 0002:00000000 00000120H .idata$5                DATA
 0002:00000120 00000008H .00cfg                  DATA
 0002:00000128 00000004H .CRT$XCA                DATA
 0002:0000012c 00000004H .CRT$XCZ                DATA
 0002:00000130 00000004H .CRT$XIA                DATA
 0002:00000134 0000000cH .CRT$XIC                DATA
 0002:00000140 00000004H .CRT$XIZ                DATA
 0002:00000144 00000004H .CRT$XPA                DATA
 0002:00000148 00000008H .CRT$XPX                DATA
 0002:00000150 00000004H .CRT$XPXA               DATA
 0002:00000154 00000004H .CRT$XPZ                DATA
 0002:00000158 00000004H .CRT$XTA                DATA
 0002:0000015c 00000004H .CRT$XTZ                DATA
 0002:00000160 00000000H .gfids$y                DATA
 0002:00000160 000278e0H .rdata                  DATA
 0002:00027a40 00000000H .rdata$CastGuardVftablesA DATA
 0002:00027a40 00000000H .rdata$CastGuardVftablesC DATA
 0002:00027a40 000000dcH .rdata$r                DATA
 0002:00027b1c 00000030H .rdata$sxdata           DATA
 0002:00027b4c 000000b8H .rdata$voltmd           DATA
 0002:00027c04 00000370H .rdata$zzzdbg           DATA
 0002:00027f74 00000004H .rtc$IAA                DATA
 0002:00027f78 00000004H .rtc$IZZ                DATA
 0002:00027f7c 00000004H .rtc$TAA                DATA
 0002:00027f80 00000008H .rtc$TZZ                DATA
 0002:00027f88 000005f8H .xdata$x                DATA
 0002:00028580 0000005cH .edata                  DATA
 0002:000285dc 00000014H .idata$2                DATA
 0002:000285f0 00000014H .idata$3                DATA
 0002:00028604 00000120H .idata$4                DATA
 0002:00028724 00000526H .idata$6                DATA
 0003:00000000 0000d820H .data                   DATA
 0003:0000d820 0000003cH .data$r                 DATA
 0003:0000d85c 00000024H .data$rs                DATA
 0003:0000d880 02f0de38H .bss                    DATA
 0004:00000000 00000080H .fptable                DATA
 0005:00000000 00000060H .rsrc$01                DATA
 0005:00000060 00000180H .rsrc$02                DATA

  Address         Publics by Value              Rva+Base       Lib:Object

 0000:00000000       ___AbsoluteZero            00000000     <absolute>
 0000:00000000       ___arm64x_extra_rfe_table  00000000     <absolute>
 0000:00000000       ___arm64x_extra_rfe_table_size 00000000     <absolute>
 0000:00000000       ___arm64x_native_entrypoint 00000000     <absolute>
 0000:00000000       ___arm64x_redirection_metadata 00000000     <absolute>
 0000:00000000       ___arm64x_redirection_metadata_count 00000000     <absolute>
 0000:00000000       ___dynamic_value_reloc_table 00000000     <absolute>
 0000:00000000       ___enclave_config          00000000     <absolute>
 0000:00000000       ___guard_check_icall_a64n_fptr 00000000     <absolute>
 0000:00000000       ___guard_eh_cont_count     00000000     <absolute>
 0000:00000000       ___guard_eh_cont_table     00000000     <absolute>
 0000:00000000       ___guard_fids_count        00000000     <absolute>
 0000:00000000       ___guard_fids_table        00000000     <absolute>
 0000:00000000       ___guard_iat_count         00000000     <absolute>
 0000:00000000       ___guard_iat_table         00000000     <absolute>
 0000:00000000       ___guard_longjmp_count     00000000     <absolute>
 0000:00000000       ___guard_longjmp_table     00000000     <absolute>
 0000:00000000       ___hybrid_auxiliary_delayload_iat 00000000     <absolute>
 0000:00000000       ___hybrid_auxiliary_delayload_iat_copy 00000000     <absolute>
 0000:00000000       ___hybrid_auxiliary_iat    00000000     <absolute>
 0000:00000000       ___hybrid_auxiliary_iat_copy 00000000     <absolute>
 0000:00000000       ___hybrid_code_map         00000000     <absolute>
 0000:00000000       ___hybrid_code_map_count   00000000     <absolute>
 0000:00000000       ___hybrid_image_info_bitfield 00000000     <absolute>
 0000:00000000       ___x64_code_ranges_to_entry_points 00000000     <absolute>
 0000:00000000       ___x64_code_ranges_to_entry_points_count 00000000     <absolute>
 0000:00000000       __except_list              00000000     <absolute>
 0000:0000000c       ___safe_se_handler_count   0000000c     <absolute>
 0000:00000100       ___guard_flags             00000100     <absolute>
 0000:00000000       ___ImageBase               30000000     <linker-defined>
 0001:00000000       _G_CreateAnimalNPC         30001000 f   AnimalNPC.obj
 0001:00000000       _G_CreateFighterNPC        30001000 f   FighterNPC.obj
 0001:00000000       _G_CreateSpeederNPC        30001000 f   SpeederNPC.obj
 0001:00000000       _G_CreateWalkerNPC         30001000 f   WalkerNPC.obj
 0001:00000050       _G_SetAnimalVehicleFunctions 30001050 f   AnimalNPC.obj
 0001:00000330       _BG_AttachToRancor         30001330 f   bg_g2_utils.obj
 0001:00000590       _BG_GetRootSurfNameWithVariant 30001590 f   bg_g2_utils.obj
 0001:00000620       _BG_AddPredictableEventToPlayerstate 30001620 f   bg_misc.obj
 0001:00000660       _BG_Alloc                  30001660 f   bg_misc.obj
 0001:000006b0       _BG_CanItemBeGrabbed       300016b0 f   bg_misc.obj
 0001:00000a20       _BG_CanUseFPNow            30001a20 f   bg_misc.obj
 0001:00000af0       _BG_CycleForce             30001af0 f   bg_misc.obj
 0001:00000bd0       _BG_CycleInven             30001bd0 f   bg_misc.obj
 0001:00000cb0       _BG_EmplacedView           30001cb0 f   bg_misc.obj
 0001:00000d80       _BG_EvaluateTrajectory     30001d80 f   bg_misc.obj
 0001:00000fd0       _BG_EvaluateTrajectoryDelta 30001fd0 f   bg_misc.obj
 0001:000011e0       _BG_FindItemForHoldable    300021e0 f   bg_misc.obj
 0001:00001240       _BG_FindItemForPowerup     30002240 f   bg_misc.obj
 0001:000012a0       _BG_FindItemForWeapon      300022a0 f   bg_misc.obj
 0001:000012e0       _BG_GetItemIndexByTag      300022e0 f   bg_misc.obj
 0001:00001320       _BG_HasYsalamiri           30002320 f   bg_misc.obj
 0001:00001360       _BG_IsItemSelectable       30002360 f   bg_misc.obj
 0001:00001380       _BG_IsValidCharacterModel  30002380 f   bg_misc.obj
 0001:00001400       _BG_IsWhiteSpace           30002400 f   bg_misc.obj
 0001:00001420       _BG_ModelCache             30002420 f   bg_misc.obj
 0001:00001450       _BG_ParseField             30002450 f   bg_misc.obj
 0001:000015a0       _BG_PlayerStateToEntityState 300025a0 f   bg_misc.obj
 0001:000019f0       _BG_PlayerTouchesItem      300029f0 f   bg_misc.obj
 0001:00001a80       _BG_ProperForceIndex       30002a80 f   bg_misc.obj
 0001:00001ab0       _BG_TempAlloc              30002ab0 f   bg_misc.obj
 0001:00001af0       _BG_TempFree               30002af0 f   bg_misc.obj
 0001:00001b40       _BG_TouchJumpPad           30002b40 f   bg_misc.obj
 0001:00001bc0       _BG_ValidateSkinForTeam    30002bc0 f   bg_misc.obj
 0001:00001bd0       ___local_stdio_scanf_options 30002bd0 f i bg_misc.obj
 0001:00001be0       _sscanf                    30002be0 f i bg_misc.obj
 0001:00001c10       _vectoyaw                  30002c10 f   bg_misc.obj
 0001:00001cd0       _BG_AnimLength             30002cd0 f   bg_panimate.obj
 0001:00001d30       _BG_AnimsetAlloc           30002d30 f   bg_panimate.obj
 0001:00001d60       _BG_BounceAnim             30002d60 f   bg_panimate.obj
 0001:00001de0       @_guard_check_icall_nop@4  30002de0 f   LIBCMT:guard_support.obj
 0001:00001de0       _BG_ClearAnimsets          30002de0 f   bg_panimate.obj
 0001:00001de0       _CG_OutOfAmmoChange        30002de0 f   cg_weapons.obj
 0001:00001de0       _CG_OwnerDraw              30002de0 f   cg_newDraw.obj
 0001:00001de0       _CG_RunMenuScript          30002de0 f   cg_newDraw.obj
 0001:00001df0       _BG_CrouchAnim             30002df0 f   bg_panimate.obj
 0001:00001f30       _BG_FlippingAnim           30002f30 f   bg_panimate.obj
 0001:00002020       _BG_FullBodyTauntAnim      30003020 f   bg_panimate.obj
 0001:00002160       _BG_GetLegsAnimPoint       30003160 f   bg_panimate.obj
 0001:00002240       _BG_GetTorsoAnimPoint      30003240 f   bg_panimate.obj
 0001:00002320       _BG_InBackFlip             30003320 f   bg_panimate.obj
 0001:00002350       _BG_InDeathAnim            30003350 f   bg_panimate.obj
 0001:00002410       _BG_InGrappleMove          30003410 f   bg_panimate.obj
 0001:00002460       _BG_InKataAnim             30003460 f   bg_panimate.obj
 0001:000024a0       _BG_InKnockDownOnly        300034a0 f   bg_panimate.obj
 0001:000024e0       _BG_InLedgeMove            300034e0 f   bg_panimate.obj
 0001:00002520       _BG_InReboundHold          30003520 f   bg_panimate.obj
 0001:00002560       _BG_InReboundJump          30003560 f   bg_panimate.obj
 0001:000025a0       _BG_InRoll                 300035a0 f   bg_panimate.obj
 0001:00002630       _BG_InSaberLock            30003630 f   bg_panimate.obj
 0001:000026f0       _BG_InSaberLockOld         300036f0 f   bg_panimate.obj
 0001:00002730       _BG_InSaberStandAnim       30003730 f   bg_panimate.obj
 0001:00002780       _BG_InSpecialJump          30003780 f   bg_panimate.obj
 0001:000028d0       _BG_InitAnimsets           300038d0 f   bg_panimate.obj
 0001:000028f0       _BG_KickMove               300038f0 f   bg_panimate.obj
 0001:00002940       _BG_KickingAnim            30003940 f   bg_panimate.obj
 0001:000029d0       _BG_ParseAnimationFile     300039d0 f   bg_panimate.obj
 0001:00002d20       _BG_SaberInAttack          30003d20 f   bg_panimate.obj
 0001:00002d90       _BG_SaberInAttackPure      30003d90 f   bg_panimate.obj
 0001:00002db0       _BG_SaberInIdle            30003db0 f   bg_panimate.obj
 0001:00002de0       _BG_SaberInKata            30003de0 f   bg_panimate.obj
 0001:00002e20       _BG_SaberInSpecial         30003e20 f   bg_panimate.obj
 0001:00002e80       _BG_SaberInSpecialAttack   30003e80 f   bg_panimate.obj
 0001:00003010       _BG_SaberInTransitionAny   30004010 f   bg_panimate.obj
 0001:00003040       _BG_SaberLockBreakAnim     30004040 f   bg_panimate.obj
 0001:000031d0       _BG_SaberStartTransAnim    300041d0 f   bg_panimate.obj
 0001:000035c0       _BG_SetAnimFinal           300045c0 f   bg_panimate.obj
 0001:000039a0       _BG_SpinningSaberAnim      300049a0 f   bg_panimate.obj
 0001:00003c50       _BG_SuperBreakLoseAnim     30004c50 f   bg_panimate.obj
 0001:00003ce0       _BG_SuperBreakWinAnim      30004ce0 f   bg_panimate.obj
 0001:00003d70       _PM_AnimLength             30004d70 f   bg_panimate.obj
 0001:00003de0       _PM_CanRollFromSoulCal     30004de0 f   bg_panimate.obj
 0001:00003e10       _PM_ContinueLegsAnim       30004e10 f   bg_panimate.obj
 0001:00003e40       _PM_ForceLegsAnim          30004e40 f   bg_panimate.obj
 0001:00003ee0       _PM_InCartwheel            30004ee0 f   bg_panimate.obj
 0001:00003f50       _PM_InForceGetUp           30004f50 f   bg_panimate.obj
 0001:00003fb0       _PM_InKnockDown            30004fb0 f   bg_panimate.obj
 0001:000040e0       _PM_InOnGroundAnim         300050e0 f   bg_panimate.obj
 0001:000041d0       _PM_InRollComplete         300051d0 f   bg_panimate.obj
 0001:00004210       _PM_InSaberAnim            30005210 f   bg_panimate.obj
 0001:00004230       _PM_JumpingAnim            30005230 f   bg_panimate.obj
 0001:00004280       _PM_KnockDownAnimExtended  30005280 f   bg_panimate.obj
 0001:00004320       _PM_LandingAnim            30005320 f   bg_panimate.obj
 0001:00004370       _PM_LockedAnim             30005370 f   bg_panimate.obj
 0001:000043c0       _PM_PainAnim               300053c0 f   bg_panimate.obj
 0001:00004400       _PM_SaberBounceForAttack   30005400 f   bg_panimate.obj
 0001:00004480       _PM_SaberInKnockaway       30005480 f   bg_panimate.obj
 0001:000044a0       _PM_SaberInParry           300054a0 f   bg_panimate.obj
 0001:000044c0       _PM_SaberInReflect         300054c0 f   bg_panimate.obj
 0001:000044e0       _PM_SaberInReturn          300054e0 f   bg_panimate.obj
 0001:00004500       _PM_SaberInStart           30005500 f   bg_panimate.obj
 0001:00004520       _PM_SaberInTransition      30005520 f   bg_panimate.obj
 0001:00004540       _PM_SaberReturnAnim        30005540 f   bg_panimate.obj
 0001:000045c0       _PM_SetAnim                300055c0 f   bg_panimate.obj
 0001:00004740       _PM_StartTorsoAnim         30005740 f   bg_panimate.obj
 0001:00004770       _BG_AdjustClientSpeed      30005770 f   bg_pmove.obj
 0001:00004ac0       _BG_BoneOrientationsForClass 30005ac0 f   bg_pmove.obj
 0001:00004c40       _BG_ClassHasBadBones       30005c40 f   bg_pmove.obj
 0001:00004c80       _BG_CmdForRoll             30005c80 f   bg_pmove.obj
 0001:00004ed0       _BG_G2ATSTAngles           30005ed0 f   bg_pmove.obj
 0001:00005940       _BG_G2PlayerAngles         30006940 f   bg_pmove.obj
 0001:00006950       _BG_IK_MoveArm             30007950 f   bg_pmove.obj
 0001:00006e30       _BG_InKnockDown            30007e30 f   bg_pmove.obj
 0001:00006e80       _BG_InSlopeAnim            30007e80 f   bg_pmove.obj
 0001:00006ef0       _BG_SabersOff              30007ef0 f   bg_pmove.obj
 0001:00007100       _BG_UnrestrainedPitchRoll  30008100 f   bg_pmove.obj
 0001:00007150       _BG_VehTraceFromCamPos     30008150 f   bg_pmove.obj
 0001:000073c0       _BG_VehicleAdjustBBoxForOrientation 300083c0 f   bg_pmove.obj
 0001:00007830       _BG_VehicleTurnRateForSpeed 30008830 f   bg_pmove.obj
 0001:000078f0       _LedgeGrabableEntity       300088f0 f   bg_pmove.obj
 0001:00007960       _LedgeTrace                30008960 f   bg_pmove.obj
 0001:00007cd0       _NumberOfWeapons           30008cd0 f   bg_pmove.obj
 0001:00007f40       _PM_AddEvent               30008f40 f   bg_pmove.obj
 0001:00007f60       _PM_AddEventWithParm       30008f60 f   bg_pmove.obj
 0001:00007f80       _PM_AddTouchEnt            30008f80 f   bg_pmove.obj
 0001:00007fd0       _PM_AdjustAngleForWallGrap 30008fd0 f   bg_pmove.obj
 0001:00008240       _PM_AdjustAngleForWallJump 30009240 f   bg_pmove.obj
 0001:000086c0       _PM_AdjustAttackStates     300096c0 f   bg_pmove.obj
 0001:00008a90       _PM_AdjustStandAnimForSlope 30009a90 f   bg_pmove.obj
 0001:000096a0       _PM_BGEntForNum            3000a6a0 f   bg_pmove.obj
 0001:000096d0       _PM_BeginWeaponChange      3000a6d0 f   bg_pmove.obj
 0001:000097b0       _PM_CanSetWeaponReadyAnim  3000a7b0 f   bg_pmove.obj
 0001:00009fb0       _PM_CheckGrab              3000afb0 f   bg_pmove.obj
 0001:0000c2b0       _PM_CheckRollGetup         3000d2b0 f   bg_pmove.obj
 0001:0000c5a0       _PM_CheckRollSafety        3000d5a0 f   bg_pmove.obj
 0001:0000c7a0       _PM_ClipVelocity           3000d7a0 f   bg_pmove.obj
 0001:0000d3d0       _PM_CrouchGetup            3000e3d0 f   bg_pmove.obj
 0001:0000dd70       _PM_DoPunch                3000ed70 f   bg_pmove.obj
 0001:0000de40       _PM_FinishWeaponChange     3000ee40 f   bg_pmove.obj
 0001:0000ef50       _PM_GetSaberStance         3000ff50 f   bg_pmove.obj
 0001:0000f150       _PM_GettingUpFromKnockDown 30010150 f   bg_pmove.obj
 0001:0000f540       _PM_GrabWallForJump        30010540 f   bg_pmove.obj
 0001:0000ff00       _PM_HoverTrace             30010f00 f   bg_pmove.obj
 0001:00010350       _PM_InForceFall            30011350 f   bg_pmove.obj
 0001:00010560       _PM_LegsSlopeBackTransition 30011560 f   bg_pmove.obj
 0001:00010610       _PM_MinGetUpTime           30011610 f   bg_pmove.obj
 0001:00010680       _PM_MoveForKata            30011680 f   bg_pmove.obj
 0001:00010ae0       _PM_RocketLock             30011ae0 f   bg_pmove.obj
 0001:00010ee0       _PM_RunningAnim            30011ee0 f   bg_pmove.obj
 0001:00010f30       _PM_SetForceJumpZStart     30011f30 f   bg_pmove.obj
 0001:00011050       _PM_SetPMViewAngle         30012050 f   bg_pmove.obj
 0001:00011450       _PM_SetVelocityforLedgeMove 30012450 f   bg_pmove.obj
 0001:00011b70       _PM_UpdateViewAngles       30012b70 f   bg_pmove.obj
 0001:00011d80       _PM_VehFaceHyperspacePoint 30012d80 f   bg_pmove.obj
 0001:00012060       _PM_VehicleViewAngles      30013060 f   bg_pmove.obj
 0001:00012200       _PM_VehicleWeaponAnimate   30013200 f   bg_pmove.obj
 0001:00012a70       _PM_WalkingAnim            30013a70 f   bg_pmove.obj
 0001:00015260       _PM_pitch_roll_for_slope   30016260 f   bg_pmove.obj
 0001:000155c0       _Pmove                     300165c0 f   bg_pmove.obj
 0001:00015690       _PmoveSingle               30016690 f   bg_pmove.obj
 0001:00017d50       _BG_AddFatigue             30018d50 f   bg_saber.obj
 0001:00017db0       _BG_CheckIncrementLockAnim 30018db0 f   bg_saber.obj
 0001:00017e60       _BG_EnoughForcePowerForMove 30018e60 f   bg_saber.obj
 0001:00017e90       _BG_ForcePowerDrain        30018e90 f   bg_saber.obj
 0001:00017f30       _BG_InSlowBounce           30018f30 f   bg_saber.obj
 0001:00017f70       _BG_MySaber                30018f70 f   bg_saber.obj
 0001:00018090       _PM_CheckStabDown          30019090 f   bg_saber.obj
 0001:000182b0       _PM_DoFake                 300192b0 f   bg_saber.obj
 0001:000183c0       _PM_DoKick                 300193c0 f   bg_saber.obj
 0001:000186b0       _PM_GroundDistance         300196b0 f   bg_saber.obj
 0001:000187b0       _PM_ReturnforQuad          300197b0 f   bg_saber.obj
 0001:00018820       _PM_SaberAttackForMovement 30019820 f   bg_saber.obj
 0001:00019ae0       _PM_SaberDroidWeapon       3001aae0 f   bg_saber.obj
 0001:00019c20       _PM_SaberFlipOverAttackMove 3001ac20 f   bg_saber.obj
 0001:00019df0       _PM_SaberInBounce          3001adf0 f   bg_saber.obj
 0001:00019e20       _PM_SaberInBrokenParry     3001ae20 f   bg_saber.obj
 0001:00019e60       _PM_SaberJumpAttackMove    3001ae60 f   bg_saber.obj
 0001:0001a000       _PM_SaberLockBreak         3001b000 f   bg_saber.obj
 0001:0001a3f0       _PM_SaberLockResultAnim    3001b3f0 f   bg_saber.obj
 0001:0001a4f0       _PM_SaberLocked            3001b4f0 f   bg_saber.obj
 0001:0001a8a0       _PM_SaberLungeAttackMove   3001b8a0 f   bg_saber.obj
 0001:0001aa80       _PM_SetSaberMove           3001ba80 f   bg_saber.obj
 0001:0001b3c0       _PM_WalkableGroundDistance 3001c3c0 f   bg_saber.obj
 0001:0001b4d0       _PM_WeaponLightsaber       3001c4d0 f   bg_saber.obj
 0001:0001c790       _PM_irand_timesync         3001d790 f   bg_saber.obj
 0001:0001c7f0       _BG_ParseLiteral           3001d7f0 f   bg_saberLoad.obj
 0001:0001c850       _BG_SI_SetDesiredLength    3001d850 f   bg_saberLoad.obj
 0001:0001c8b0       _BG_SI_SetLength           3001d8b0 f   bg_saberLoad.obj
 0001:0001c8f0       _BG_SI_SetLengthGradual    3001d8f0 f   bg_saberLoad.obj
 0001:0001ca10       _TranslateSaberColor       3001da10 f   bg_saberLoad.obj
 0001:0001caf0       _TranslateSaberStyle       3001daf0 f   bg_saberLoad.obj
 0001:0001cbb0       _WP_RemoveSaber            3001dbb0 f   bg_saberLoad.obj
 0001:0001cc40       _WP_SaberBladeUseSecondBladeStyle 3001dc40 f   bg_saberLoad.obj
 0001:0001cc70       _WP_SaberLoadParms         3001dc70 f   bg_saberLoad.obj
 0001:0001cdb0       _WP_SaberParseParms        3001ddb0 f   bg_saberLoad.obj
 0001:0001f2e0       _WP_SaberSetDefaults       300202e0 f   bg_saberLoad.obj
 0001:0001f7a0       _WP_SetSaber               300207a0 f   bg_saberLoad.obj
 0001:0001f9a0       _BG_GetNextValueGroup      300209a0 f   bg_saga.obj
 0001:0001fa50       _BG_PrecacheSabersForSiegeTeam 30020a50 f   bg_saga.obj
 0001:0001fb30       _BG_SiegeFindClassByName   30020b30 f   bg_saga.obj
 0001:0001fb80       _BG_SiegeFindClassIndexByName 30020b80 f   bg_saga.obj
 0001:0001fbd0       _BG_SiegeFindThemeForTeam  30020bd0 f   bg_saga.obj
 0001:0001fbf0       _BG_SiegeGetPairedValue    30020bf0 f   bg_saga.obj
 0001:0001fe30       _BG_SiegeGetValueGroup     30020e30 f   bg_saga.obj
 0001:00020140       _BG_SiegeLoadClasses       30021140 f   bg_saga.obj
 0001:00020290       _BG_SiegeLoadTeams         30021290 f   bg_saga.obj
 0001:000205b0       _BG_SiegeParseClassFile    300215b0 f   bg_saga.obj
 0001:00020ee0       _BG_SiegeSetTeamTheme      30021ee0 f   bg_saga.obj
 0001:00020f50       _BG_SiegeStripTabs         30021f50 f   bg_saga.obj
 0001:00020f90       _BG_SiegeTranslateForcePowers 30021f90 f   bg_saga.obj
 0001:000211b0       _BG_SiegeTranslateGenericTable 300221b0 f   bg_saga.obj
 0001:00021280       _BG_SiegeTranslateSkills   30022280 f   bg_saga.obj
 0001:000213e0       _PM_GroundSlideOkay        300223e0 f   bg_slidemove.obj
 0001:00021460       _PM_SlideMove              30022460 f   bg_slidemove.obj
 0001:00021cf0       _PM_StepSlideMove          30022cf0 f   bg_slidemove.obj
 0001:00022310       _PM_VehicleImpact          30023310 f   bg_slidemove.obj
 0001:00022950       _AttachRidersGeneric       30023950 f   bg_vehicleLoad.obj
 0001:00022a10       _BG_GetVehicleModelName    30023a10 f   bg_vehicleLoad.obj
 0001:00022a60       _BG_GetVehicleSkinName     30023a60 f   bg_vehicleLoad.obj
 0001:000231a0       _BG_SetSharedVehicleFunctions 300241a0 f   bg_vehicleLoad.obj
 0001:000231f0       _BG_VehicleClampData       300241f0 f   bg_vehicleLoad.obj
 0001:00023290       _BG_VehicleGetIndex        30024290 f   bg_vehicleLoad.obj
 0001:00023340       _BG_VehicleLoadParms       30024340 f   bg_vehicleLoad.obj
 0001:000237d0       _BG_VehicleSetDefaults     300247d0 f   bg_vehicleLoad.obj
 0001:00023880       _BG_VehicleUnloadParms     30024880 f   bg_vehicleLoad.obj
 0001:000238a0       _VEH_LoadVehWeapon         300248a0 f   bg_vehicleLoad.obj
 0001:00023a90       _VEH_LoadVehicle           30024a90 f   bg_vehicleLoad.obj
 0001:000242b0       _CGCam_Disable             300252b0 f   cg_camera.obj
 0001:00024370       _CGCam_DoFade              30025370 f   cg_camera.obj
 0001:000243f0       _CGCam_Fade                300253f0 f   cg_camera.obj
 0001:00024510       _CGCam_FollowUpdate        30025510 f   cg_camera.obj
 0001:00024970       _CGCam_RenderScene         30025970 f   cg_camera.obj
 0001:00024990       _CGCam_Shake               30025990 f   cg_camera.obj
 0001:000249c0       _CGCam_TrackUpdate         300259c0 f   cg_camera.obj
 0001:00024d90       _CGCam_Update              30025d90 f   cg_camera.obj
 0001:00025650       _CGCam_UpdateFade          30026650 f   cg_camera.obj
 0001:00025740       _CGCam_UpdateShake         30026740 f   cg_camera.obj
 0001:000258c0       _CGCam_UpdateSmooth        300268c0 f   cg_camera.obj
 0001:00025a20       _CGCam_Zoom                30026a20 f   cg_camera.obj
 0001:00025a80       _CG_CameraParse            30026a80 f   cg_camera.obj
 0001:000261e0       _CG_TargetCommand_f        300271e0 f   cg_consolecmds.obj
 0001:000266a0       _CG_ConsoleCommand         300276a0 f   cg_consolecmds.obj
 0001:000266e0       _CG_InitConsoleCommands    300276e0 f   cg_consolecmds.obj
 0001:000268e0       _CG_AddLagometerFrameInfo  300278e0 f   cg_draw.obj
 0001:00026910       _CG_AddLagometerSnapshotInfo 30027910 f   cg_draw.obj
 0001:00026970       _CG_BracketEntity          30027970 f   cg_draw.obj
 0001:00026fb0       _CG_CalcVehicleMuzzlePoint 30027fb0 f   cg_draw.obj
 0001:00027270       _CG_CenterPrint            30028270 f   cg_draw.obj
 0001:000272e0       _CG_ChatBox_AddString      300282e0 f   cg_draw.obj
 0001:00027460       _CG_ChatBox_ArrayInsert    30028460 f   cg_draw.obj
 0001:00027610       _CG_DottedLine             30028610 f   cg_draw.obj
 0001:00029c00       _CG_Draw3DModel            3002ac00 f   cg_draw.obj
 0001:00029d50       _CG_DrawActive             3002ad50 f   cg_draw.obj
 0001:0002a0f0       _CG_DrawArmor              3002b0f0 f   cg_draw.obj
 0001:0002b4a0       _CG_DrawDodge              3002c4a0 f   cg_draw.obj
 0001:0002b650       _CG_DrawDuelistHealth      3002c650 f   cg_draw.obj
 0001:0002bc70       _CG_DrawFlagModel          3002cc70 f   cg_draw.obj
 0001:0002bea0       _CG_DrawForcePower         3002cea0 f   cg_draw.obj
 0001:0002c060       _CG_DrawForceSelect        3002d060 f   cg_draw.obj
 0001:0002c1f0       _CG_DrawHUD                3002d1f0 f   cg_draw.obj
 0001:0002c6c0       _CG_DrawHealthBar          3002d6c0 f   cg_draw.obj
 0001:0002c850       _CG_DrawInvenSelect        3002d850 f   cg_draw.obj
 0001:0002d010       _CG_DrawRadar              3002e010 f   cg_draw.obj
 0001:0002e5f0       _CG_DrawSiegeInfo          3002f5f0 f   cg_draw.obj
 0001:0002e960       _CG_DrawSiegeMessage       3002f960 f   cg_draw.obj
 0001:0002e990       _CG_DrawSiegeMessageNonMenu 3002f990 f   cg_draw.obj
 0001:0002ee90       _CG_DrawTeamBackground     3002fe90 f   cg_draw.obj
 0001:0002fa20       _CG_DrawVehicleDamage      30030a20 f   cg_draw.obj
 0001:0002fb50       _CG_DrawVehicleDamageHUD   30030b50 f   cg_draw.obj
 0001:0002fe00       _CG_DrawVehicleHud         30030e00 f   cg_draw.obj
 0001:00031a90       _CG_InATST                 30032a90 f   cg_draw.obj
 0001:00031ad0       _CG_InFighter              30032ad0 f   cg_draw.obj
 0001:00031b10       _CG_SaberClashFlare        30032b10 f   cg_draw.obj
 0001:00032510       _CG_Text_Height            30033510 f   cg_draw.obj
 0001:00032560       _CG_Text_Paint             30033560 f   cg_draw.obj
 0001:00032610       _CG_Text_Width             30033610 f   cg_draw.obj
 0001:00032660       _CG_WorldCoordToScreenCoord 30033660 f   cg_draw.obj
 0001:000326a0       _CG_WorldCoordToScreenCoordFloat 300336a0 f   cg_draw.obj
 0001:000327d0       ___local_stdio_printf_options 300337d0 f i cg_draw.obj
 0001:000327e0       _sprintf                   300337e0 f i cg_draw.obj
 0001:00032820       _CG_ColorForHealth         30033820 f   cg_drawtools.obj
 0001:00032900       _CG_DrawBigString          30033900 f   cg_drawtools.obj
 0001:00032950       _CG_DrawChar               30033950 f   cg_drawtools.obj
 0001:00032a10       _CG_DrawNumField           30033a10 f   cg_drawtools.obj
 0001:00032d10       _CG_DrawPic                30033d10 f   cg_drawtools.obj
 0001:00032d70       _CG_DrawRect               30033d70 f   cg_drawtools.obj
 0001:00032f30       _CG_DrawRotatePic          30033f30 f   cg_drawtools.obj
 0001:00032fa0       _CG_DrawRotatePic2         30033fa0 f   cg_drawtools.obj
 0001:00033010       _CG_DrawSides              30034010 f   cg_drawtools.obj
 0001:000330f0       _CG_DrawSmallString        300340f0 f   cg_drawtools.obj
 0001:00033140       _CG_DrawStringExt          30034140 f   cg_drawtools.obj
 0001:000333c0       _CG_DrawStrlen             300343c0 f   cg_drawtools.obj
 0001:00033410       _CG_DrawTopBottom          30034410 f   cg_drawtools.obj
 0001:000334f0       _CG_FadeColor              300344f0 f   cg_drawtools.obj
 0001:00033570       _CG_FillRect               30034570 f   cg_drawtools.obj
 0001:000335f0       _CG_GetColorForHealth      300345f0 f   cg_drawtools.obj
 0001:000336c0       _CG_TileClear              300346c0 f   cg_drawtools.obj
 0001:00033950       _UI_DrawProportionalString 30034950 f   cg_drawtools.obj
 0001:00033a00       _UI_DrawScaledProportionalString 30034a00 f   cg_drawtools.obj
 0001:000341f0       _CG_Chunks                 300351f0 f   cg_effects.obj
 0001:000348c0       _CG_DoGlass                300358c0 f   cg_effects.obj
 0001:00034f10       _CG_GlassShatter           30035f10 f   cg_effects.obj
 0001:00034f70       _CG_InitGlass              30035f70 f   cg_effects.obj
 0001:00035030       _CG_MiscModelExplosion     30036030 f   cg_effects.obj
 0001:00035320       _CG_ScorePlum              30036320 f   cg_effects.obj
 0001:00035480       _CG_SmokePuff              30036480 f   cg_effects.obj
 0001:00035620       _CG_TestLine               30036620 f   cg_effects.obj
 0001:00035780       _CG_AddBracketedEnt        30036780 f   cg_ents.obj
 0001:00035e40       _CG_AddPacketEntities      30036e40 f   cg_ents.obj
 0001:00036190       _CG_AddRadarEnt            30037190 f   cg_ents.obj
 0001:000361c0       _CG_AdjustPositionForMover 300371c0 f   cg_ents.obj
 0001:000362b0       _CG_Beam                   300372b0 f   cg_ents.obj
 0001:00036360       _CG_CalcEntityLerpPositions 30037360 f   cg_ents.obj
 0001:00036580       _CG_Cube                   30037580 f   cg_ents.obj
 0001:00036760       _CG_Disintegration         30037760 f   cg_ents.obj
 0001:00038d90       _CG_GreyItem               30039d90 f   cg_ents.obj
 0001:00039a90       _CG_ManualEntityRender     3003aa90 f   cg_ents.obj
 0001:0003a960       _CG_PlayDoorLoopSound      3003b960 f   cg_ents.obj
 0001:0003aad0       _CG_PlayDoorSound          3003bad0 f   cg_ents.obj
 0001:0003ab20       _CG_PositionEntityOnTag    3003bb20 f   cg_ents.obj
 0001:0003ac50       _CG_PositionRotatedEntityOnTag 3003bc50 f   cg_ents.obj
 0001:0003ad80       _CG_ROFF_NotetrackCallback 3003bd80 f   cg_ents.obj
 0001:0003b190       _CG_S_AddRealLoopingSound  3003c190 f   cg_ents.obj
 0001:0003b250       _CG_S_StopLoopingSound     3003c250 f   cg_ents.obj
 0001:0003b2e0       _CG_S_UpdateLoopingSounds  3003c2e0 f   cg_ents.obj
 0001:0003b410       _CG_SetEntitySoundPosition 3003c410 f   cg_ents.obj
 0001:0003b4a0       _CG_SetGhoul2Info          3003c4a0 f   cg_ents.obj
 0001:0003b510       _FX_DrawPortableShield     3003c510 f   cg_ents.obj
 0001:0003b770       _ScaleModelAxis            3003c770 f   cg_ents.obj
 0001:0003b860       _CG_CalcVehMuzzle          3003c860 f   cg_event.obj
 0001:0003b980       _CG_CheckEvents            3003c980 f   cg_event.obj
 0001:0003ba00       _CG_EntityEvent            3003ca00 f   cg_event.obj
 0001:00040500       _CG_G2MarkEvent            30041500 f   cg_event.obj
 0001:000407c0       _CG_GetCTFMessageEvent     300417c0 f   cg_event.obj
 0001:00041590       _CG_PainEvent              30042590 f   cg_event.obj
 0001:00041610       _CG_PlaceString            30042610 f   cg_event.obj
 0001:000417b0       _CG_ReattachLimb           300427b0 f   cg_event.obj
 0001:000419b0       _DoFall                    300429b0 f   cg_event.obj
 0001:00041ad0       _CG_LoadHolsterData        30042ad0 f   cg_holster.obj
 0001:00041e50       _CG_DrawInformation        30042e50 f   cg_info.obj
 0001:000429d0       _CG_LoadingClient          300439d0 f   cg_info.obj
 0001:00042a60       _CG_LoadingItem            30043a60 f   cg_info.obj
 0001:00042b10       _CG_LoadingString          30043b10 f   cg_info.obj
 0001:00042b70       _CG_ClearLightStyles       30043b70 f   cg_light.obj
 0001:00042c60       _CG_RunLightStyles         30043c60 f   cg_light.obj
 0001:00042cf0       _CG_SetLightstyle          30043cf0 f   cg_light.obj
 0001:00042db0       _CG_AddFragment            30043db0 f   cg_localents.obj
 0001:000431e0       _CG_AddLocalEntities       300441e0 f   cg_localents.obj
 0001:00043c70       _CG_AddScorePlum           30044c70 f   cg_localents.obj
 0001:00044010       _CG_AllocLocalEntity       30045010 f   cg_localents.obj
 0001:000440e0       _CG_FreeLocalEntity        300450e0 f   cg_localents.obj
 0001:00044150       _CG_InitLocalEntities      30045150 f   cg_localents.obj
 0001:000441b0       _BG_GetTime                300451b0 f   cg_main.obj
 0001:000441c0       _CG_Argv                   300451c0 f   cg_main.obj
 0001:000441e0       _CG_Asset_Parse            300451e0 f   cg_main.obj
 0001:000446b0       _CG_BuildSpectatorString   300456b0 f   cg_main.obj
 0001:00044730       _CG_ConfigString           30045730 f   cg_main.obj
 0001:00044760       _CG_CreateModelFromSpawnEnt 30045760 f   cg_main.obj
 0001:000449d0       _CG_CrosshairPlayer        300459d0 f   cg_main.obj
 0001:00044d00       _CG_DrawMiscEnts           30045d00 f   cg_main.obj
 0001:00044e30       _CG_Error                  30045e30 f   cg_main.obj
 0001:000450d0       _CG_DeferMenuScript        300460d0 f   cg_newDraw.obj
 0001:000450d0       _ItemParse_isSaber         300460d0 f   ui_shared.obj
 0001:000450d0       _ItemParse_isSaber2        300460d0 f   ui_shared.obj
 0001:00045390       _CG_GetLocationString      30046390 f   cg_main.obj
 0001:000453c0       _CG_GetStringEdString      300463c0 f   cg_main.obj
 0001:00045470       _CG_Init                   30046470 f   cg_main.obj
 0001:000469f0       _CG_LastAttacker           300479f0 f   cg_main.obj
 0001:00046a10       _CG_LoadMenus              30047a10 f   cg_main.obj
 0001:00046c60       _CG_NewString              30047c60 f   cg_main.obj
 0001:00046d20       _CG_NextForcePower_f       30047d20 f   cg_main.obj
 0001:00046ea0       _CG_NextInventory_f        30047ea0 f   cg_main.obj
 0001:00046f40       _CG_NoUseableForce         30047f40 f   cg_main.obj
 0001:00047070       _CG_ParseSiegeState        30048070 f   cg_main.obj
 0001:00047130       _CG_ParseSpawnVars         30048130 f   cg_main.obj
 0001:00047310       _CG_ParseWeatherEffect     30048310 f   cg_main.obj
 0001:00047350       _CG_PrevForcePower_f       30048350 f   cg_main.obj
 0001:000474d0       _CG_PrevInventory_f        300484d0 f   cg_main.obj
 0001:00047570       _CG_Printf                 30048570 f   cg_main.obj
 0001:000475c0       _CG_RegisterCvars          300485c0 f   cg_main.obj
 0001:0004a1e0       _CG_SetScoreSelection      3004b1e0 f   cg_main.obj
 0001:0004a2a0       _CG_SiegeCountCvars        3004b2a0 f   cg_main.obj
 0001:0004a4e0       _CG_SpawnCGameEntFromVars  3004b4e0 f   cg_main.obj
 0001:0004a6a0       _CG_StartMusic             3004b6a0 f   cg_main.obj
 0001:0004a7a0       _CG_Text_PaintWithCursor   3004b7a0 f   cg_main.obj
 0001:0004a7f0       _CG_UpdateCvars            3004b7f0 f   cg_main.obj
 0001:0004a8e0       _Com_Error                 3004b8e0 f   cg_main.obj
 0001:0004a930       _Com_Printf                3004b930 f   cg_main.obj
 0001:0004a990       _vmMain                    3004b990 f   cg_main.obj
 0001:0004b430       _CG_AddMarks               3004c430 f   cg_marks.obj
 0001:0004b5c0       _CG_AddParticleToScene     3004c5c0 f   cg_marks.obj
 0001:0004d220       _CG_AddParticles           3004e220 f   cg_marks.obj
 0001:0004d620       _CG_AllocMark              3004e620 f   cg_marks.obj
 0001:0004d6e0       _CG_ClearParticles         3004e6e0 f   cg_marks.obj
 0001:0004d780       _CG_ImpactMark             3004e780 f   cg_marks.obj
 0001:0004dc90       _CG_InitMarkPolys          3004ec90 f   cg_marks.obj
 0001:0004dcf0       _CG_EventHandling          3004ecf0 f   cg_newDraw.obj
 0001:0004dd20       _CG_GameTypeString         3004ed20 f   cg_newDraw.obj
 0001:0004dd90       _CG_GetGameStatusText      3004ed90 f   cg_newDraw.obj
 0001:0004dea0       _CG_GetKillerText          3004eea0 f   cg_newDraw.obj
 0001:0004dee0       _CG_GetSelectedPlayer      3004eee0 f   cg_newDraw.obj
 0001:0004df00       _CG_GetTeamColor           3004ef00 f   cg_newDraw.obj
 0001:0004df70       _CG_GetValue               3004ef70 f   cg_newDraw.obj
 0001:0004e0e0       _CG_KeyEvent               3004f0e0 f   cg_newDraw.obj
 0001:0004e190       _CG_MouseEvent             3004f190 f   cg_newDraw.obj
 0001:0004e280       _CG_OtherTeamHasFlag       3004f280 f   cg_newDraw.obj
 0001:0004e2c0       _CG_OwnerDrawVisible       3004f2c0 f   cg_newDraw.obj
 0001:0004e470       _CG_StatusHandle           3004f470 f   cg_newDraw.obj
 0001:0004e4d0       _CG_YourTeamHasFlag        3004f4d0 f   cg_newDraw.obj
 0001:0004e510       _ApplyAxisRotation         3004f510 f   cg_players.obj
 0001:0004ea10       _CG_ActualLoadDeferredPlayers 3004fa10 f   cg_players.obj
 0001:0004edc0       _CG_AddGhoul2Mark          3004fdc0 f   cg_players.obj
 0001:0004efb0       _CG_AddRefEntityWithPowerups 3004ffb0 f   cg_players.obj
 0001:0004f030       _CG_AddSaberBlade          30050030 f   cg_players.obj
 0001:00050e10       _CG_CacheG2AnimInfo        30051e10 f   cg_players.obj
 0001:00050fe0       _CG_CheckThirdPersonAlpha  30051fe0 f   cg_players.obj
 0001:00051270       _CG_CleanJetpack2Ghoul2    30052270 f   cg_players.obj
 0001:000512a0       _CG_CleanJetpack3Ghoul2    300522a0 f   cg_players.obj
 0001:000512d0       _CG_CleanJetpack4Ghoul2    300522d0 f   cg_players.obj
 0001:00051300       _CG_CleanJetpack5Ghoul2    30052300 f   cg_players.obj
 0001:00051330       _CG_CleanJetpack6Ghoul2    30052330 f   cg_players.obj
 0001:00051360       _CG_CleanJetpack7Ghoul2    30052360 f   cg_players.obj
 0001:00051390       _CG_CleanJetpack8Ghoul2    30052390 f   cg_players.obj
 0001:000513c0       _CG_CleanJetpack9Ghoul2    300523c0 f   cg_players.obj
 0001:000513f0       _CG_CleanJetpackGhoul2     300523f0 f   cg_players.obj
 0001:00051720       _CG_CreateNPCClient        30052720 f   cg_players.obj
 0001:00051740       _CG_CreateSaberMarks       30052740 f   cg_players.obj
 0001:000522e0       _CG_CustomSound            300532e0 f   cg_players.obj
 0001:00052640       _CG_DestroyNPCClient       30053640 f   cg_players.obj
 0001:00052660       _CG_DoEp1Saber             30053660 f   cg_players.obj
 0001:00053dd0       _CG_DoEp2Saber             30054dd0 f   cg_players.obj
 0001:000556d0       _CG_DoEp3Saber             300566d0 f   cg_players.obj
 0001:00056f80       _CG_DoOTSaber              30057f80 f   cg_players.obj
 0001:00058710       _CG_DoSFXSaber             30059710 f   cg_players.obj
 0001:00059e30       _CG_DoSaber                3005ae30 f   cg_players.obj
 0001:0005a3f0       _CG_DoSaberLight           3005b3f0 f   cg_players.obj
 0001:0005a820       _CG_DrawPlayerSphere       3005b820 f   cg_players.obj
 0001:0005c1d0       _CG_G2AnimEntModelLoad     3005d1d0 f   cg_players.obj
 0001:0005c970       _CG_G2Animated             3005d970 f   cg_players.obj
 0001:0005d110       _CG_G2PlayerHeadAnims      3005e110 f   cg_players.obj
 0001:0005d4e0       _CG_G2ServerBoneAngles     3005e4e0 f   cg_players.obj
 0001:0005d720       _CG_G2SkelForModel         3005e720 f   cg_players.obj
 0001:0005d790       _CG_G2TraceCollide         3005e790 f   cg_players.obj
 0001:0005d950       _CG_HandleAppendedSkin     3005e950 f   cg_players.obj
 0001:0005da10       _CG_HolsteredWeaponRender  3005ea10 f   cg_players.obj
 0001:0005e040       _CG_InitJetpack2Ghoul2     3005f040 f   cg_players.obj
 0001:0005e0a0       _CG_InitJetpack3Ghoul2     3005f0a0 f   cg_players.obj
 0001:0005e100       _CG_InitJetpack4Ghoul2     3005f100 f   cg_players.obj
 0001:0005e160       _CG_InitJetpack5Ghoul2     3005f160 f   cg_players.obj
 0001:0005e1c0       _CG_InitJetpack6Ghoul2     3005f1c0 f   cg_players.obj
 0001:0005e220       _CG_InitJetpack7Ghoul2     3005f220 f   cg_players.obj
 0001:0005e280       _CG_InitJetpack8Ghoul2     3005f280 f   cg_players.obj
 0001:0005e2e0       _CG_InitJetpack9Ghoul2     3005f2e0 f   cg_players.obj
 0001:0005e340       _CG_InitJetpackGhoul2      3005f340 f   cg_players.obj
 0001:0005e3a0       _CG_IsMindTricked          3005f3a0 f   cg_players.obj
 0001:0005e410       _CG_LoadCISounds           3005f410 f   cg_players.obj
 0001:0005e820       _CG_LoadClientInfo         3005f820 f   cg_players.obj
 0001:0005eb60       _CG_LoadDeferredPlayers    3005fb60 f   cg_players.obj
 0001:0005eb70       _CG_NewClientInfo          3005fb70 f   cg_players.obj
 0001:0005fa00       _CG_ParseAnimationEvtFile  30060a00 f   cg_players.obj
 0001:0005fdc0       _CG_ParseScriptedSaber     30060dc0 f   cg_players.obj
 0001:0005fee0       _CG_ParseSurfsFile         30060ee0 f   cg_players.obj
 0001:00060110       _CG_Player                 30061110 f   cg_players.obj
 0001:00068190       _CG_PlayerAmbientEvents    30069190 f   cg_players.obj
 0001:000682e0       _CG_PlayerAnimEventDo      300692e0 f   cg_players.obj
 0001:00068810       _CG_PlayerAnimEvents       30069810 f   cg_players.obj
 0001:000690c0       _CG_PlayerShieldHit        3006a0c0 f   cg_players.obj
 0001:00069380       _CG_RadiusForCent          3006a380 f   cg_players.obj
 0001:00069400       _CG_RagDoll                3006a400 f   cg_players.obj
 0001:0006ad30       _CG_ResetPlayerEntity      3006bd30 f   cg_players.obj
 0001:0006b500       _CG_SaberCompWork          3006c500 f   cg_players.obj
 0001:0006c260       _CG_ThereIsAMaster         3006d260 f   cg_players.obj
 0001:0006cb60       _CG_VehicleShouldDrawShields 3006db60 f   cg_players.obj
 0001:0006cba0       _CG_VisualWeaponsUpdate    3006dba0 f   cg_players.obj
 0001:0006dca0       _FindGender                3006eca0 f   cg_players.obj
 0001:0006dd90       _ParseAnimationEvtBlock    3006ed90 f   cg_players.obj
 0001:0006e6d0       _ParseRGBSaber             3006f6d0 f   cg_players.obj
 0001:0006e720       _RGB_AdjustPimpSaberColor  3006f720 f   cg_players.obj
 0001:0006e8a0       _RGB_AdjustSciptedSaberColor 3006f8a0 f   cg_players.obj
 0001:0006e9f0       _RGB_RandomRGB             3006f9f0 f   cg_players.obj
 0001:0006ea50       _SmoothTrueView            3006fa50 f   cg_players.obj
 0001:0006f760       _CG_CheckLocalSounds       30070760 f   cg_playerstate.obj
 0001:0006f940       _CG_DamageFeedback         30070940 f   cg_playerstate.obj
 0001:0006fc70       _CG_Respawn                30070c70 f   cg_playerstate.obj
 0001:0006fcb0       _CG_TransitionPlayerState  30070cb0 f   cg_playerstate.obj
 0001:0006fed0       _CG_BuildSolidList         30070ed0 f   cg_predict.obj
 0001:000704e0       _CG_G2Trace                300714e0 f   cg_predict.obj
 0001:000708d0       _CG_PmoveClientPointerUpdate 300718d0 f   cg_predict.obj
 0001:00070960       _CG_PointContents          30071960 f   cg_predict.obj
 0001:000709e0       _CG_PredictPlayerState     300719e0 f   cg_predict.obj
 0001:00071e60       _CG_Trace                  30072e60 f   cg_predict.obj
 0001:00071ef0       _CG_UsingEWeb              30072ef0 f   cg_predict.obj
 0001:00071fc0       _CG_AdjustEyePos           30072fc0 f   cg_saga.obj
 0001:00072030       _CG_InitSiegeMode          30073030 f   cg_saga.obj
 0001:000726c0       _CG_ParseSiegeExtendedData 300736c0 f   cg_saga.obj
 0001:00072860       _CG_ParseSiegeObjectiveStatus 30073860 f   cg_saga.obj
 0001:00072af0       _CG_PrecachePlayersForSiegeTeam 30073af0 f   cg_saga.obj
 0001:00072c10       _CG_PrecacheSiegeObjectiveAssetsForTeam 30073c10 f   cg_saga.obj
 0001:00072de0       _CG_SetSiegeTimerCvar      30073de0 f   cg_saga.obj
 0001:00072e50       _CG_SiegeBriefingDisplay   30073e50 f   cg_saga.obj
 0001:00073280       _CG_SiegeGetObjectiveDescription 30074280 f   cg_saga.obj
 0001:00073320       _CG_SiegeGetObjectiveFinal 30074320 f   cg_saga.obj
 0001:000733d0       _CG_SiegeObjectiveCompleted 300743d0 f   cg_saga.obj
 0001:00073580       _CG_SiegeRoundOver         30074580 f   cg_saga.obj
 0001:000736d0       _CG_TrueViewInit           300746d0 f   cg_saga.obj
 0001:00073760       _siege_Cvar_Set            30074760 f   cg_saga.obj
 0001:000738a0       _siege_Cvar_VariableStringBuffer 300748a0 f   cg_saga.obj
 0001:00073970       _siegecvarlist             30074970 f   cg_saga.obj
 0001:00074030       _CG_DrawOldScoreboard      30075030 f   cg_scoreboard.obj
 0001:00074930       _CG_GetClassCount          30075930 f   cg_scoreboard.obj
 0001:00074990       _CG_GetTeamCount           30075990 f   cg_scoreboard.obj
 0001:000749e0       _CG_GetTeamNonScoreCount   300759e0 f   cg_scoreboard.obj
 0001:00074d40       _CG_CheckSVStringEdRef     30075d40 f   cg_servercmds.obj
 0001:00075710       _CG_ExecuteNewServerCommands 30076710 f   cg_servercmds.obj
 0001:00075750       _CG_HandleNPCSounds        30076750 f   cg_servercmds.obj
 0001:00075c00       _CG_KillCEntityG2          30076c00 f   cg_servercmds.obj
 0001:00075d90       _CG_KillCEntityInstances   30076d90 f   cg_servercmds.obj
 0001:000761e0       _CG_ParseServerinfo        300771e0 f   cg_servercmds.obj
 0001:000765e0       _CG_PrecacheNPCSounds      300775e0 f   cg_servercmds.obj
 0001:00077730       _CG_SetConfigValues        30078730 f   cg_servercmds.obj
 0001:00077860       _CG_ShaderStateChanged     30078860 f   cg_servercmds.obj
 0001:000779d0       _CG_ProcessSnapshots       300789d0 f   cg_snapshot.obj
 0001:000780a0       _strap_G2API_AnimateG2Models 300790a0 f   cg_strap.obj
 0001:000780b0       _strap_G2API_GetBoltMatrix 300790b0 f   cg_strap.obj
 0001:000780c0       _strap_G2API_GetBoltMatrix_NoRecNoRot 300790c0 f   cg_strap.obj
 0001:000780d0       _strap_G2API_GetBoneAnim   300790d0 f   cg_strap.obj
 0001:000780e0       _strap_G2API_IKMove        300790e0 f   cg_strap.obj
 0001:000780f0       _strap_G2API_SetBoneAngles 300790f0 f   cg_strap.obj
 0001:00078100       _strap_G2API_SetBoneAnim   30079100 f   cg_strap.obj
 0001:00078140       _strap_G2API_SetBoneIKState 30079140 f   cg_strap.obj
 0001:00078150       _dllEntry                  30079150 f   cg_syscalls.obj
 0001:00078160       _trap_AS_AddPrecacheEntry  30079160 f   cg_syscalls.obj
 0001:00078180       _trap_AS_GetBModelSound    30079180 f   cg_syscalls.obj
 0001:000781a0       _trap_AS_ParseSets         300791a0 f   cg_syscalls.obj
 0001:000781b0       _trap_AddCommand           300791b0 f   cg_syscalls.obj
 0001:000781d0       _trap_AnyLanguage_ReadCharFromString 300791d0 f   cg_syscalls.obj
 0001:000781f0       _trap_Argc                 300791f0 f   cg_syscalls.obj
 0001:00078200       _trap_Args                 30079200 f   cg_syscalls.obj
 0001:00078220       _trap_Argv                 30079220 f   cg_syscalls.obj
 0001:00078240       _trap_CG_RegisterSharedMemory 30079240 f   cg_syscalls.obj
 0001:00078260       _trap_CIN_DrawCinematic    30079260 f   cg_syscalls.obj
 0001:00078280       _trap_CIN_PlayCinematic    30079280 f   cg_syscalls.obj
 0001:000782b0       _trap_CIN_RunCinematic     300792b0 f   cg_syscalls.obj
 0001:000782d0       _trap_CIN_SetExtents       300792d0 f   cg_syscalls.obj
 0001:00078300       _trap_CIN_StopCinematic    30079300 f   cg_syscalls.obj
 0001:00078320       _trap_CM_BoxTrace          30079320 f   cg_syscalls.obj
 0001:00078350       _trap_CM_InlineModel       30079350 f   cg_syscalls.obj
 0001:00078370       _trap_CM_LoadMap           30079370 f   cg_syscalls.obj
 0001:00078390       _trap_CM_MarkFragments     30079390 f   cg_syscalls.obj
 0001:000783c0       _trap_CM_NumInlineModels   300793c0 f   cg_syscalls.obj
 0001:000783d0       _trap_CM_PointContents     300793d0 f   cg_syscalls.obj
 0001:000783f0       _trap_CM_RegisterTerrain   300793f0 f   cg_syscalls.obj
 0001:00078410       _trap_CM_TempBoxModel      30079410 f   cg_syscalls.obj
 0001:00078430       _trap_CM_TransformedBoxTrace 30079430 f   cg_syscalls.obj
 0001:00078460       _trap_CM_TransformedPointContents 30079460 f   cg_syscalls.obj
 0001:00078480       _trap_Cvar_Register        30079480 f   cg_syscalls.obj
 0001:000784a0       _trap_Cvar_Set             300794a0 f   cg_syscalls.obj
 0001:000784c0       _trap_Cvar_Update          300794c0 f   cg_syscalls.obj
 0001:000784e0       _trap_Cvar_VariableStringBuffer 300794e0 f   cg_syscalls.obj
 0001:00078500       _trap_Error                30079500 f   cg_syscalls.obj
 0001:00078520       _trap_FS_FCloseFile        30079520 f   cg_syscalls.obj
 0001:00078540       _trap_FS_FOpenFile         30079540 f   cg_syscalls.obj
 0001:00078560       _trap_FS_GetFileList       30079560 f   cg_syscalls.obj
 0001:00078580       _trap_FS_Read              30079580 f   cg_syscalls.obj
 0001:000785a0       _trap_FX_AddBezier         300795a0 f   cg_syscalls.obj
 0001:000785c0       _trap_FX_AddElectricity    300795c0 f   cg_syscalls.obj
 0001:000785e0       _trap_FX_AddLine           300795e0 f   cg_syscalls.obj
 0001:00078670       _trap_FX_AddPoly           30079670 f   cg_syscalls.obj
 0001:00078690       _trap_FX_AddPrimitive      30079690 f   cg_syscalls.obj
 0001:000786b0       _trap_FX_AddScheduledEffects 300796b0 f   cg_syscalls.obj
 0001:00078700       _trap_FX_AddSprite         30079700 f   cg_syscalls.obj
 0001:00078720       _trap_FX_AdjustTime        30079720 f   cg_syscalls.obj
 0001:00078740       _trap_FX_FreeSystem        30079740 f   cg_syscalls.obj
 0001:00078750       _trap_FX_InitSystem        30079750 f   cg_syscalls.obj
 0001:00078770       _trap_FX_PlayBoltedEffectID 30079770 f   cg_syscalls.obj
 0001:000787a0       _trap_FX_PlayEffectID      300797a0 f   cg_syscalls.obj
 0001:000787d0       _trap_FX_PlayEntityEffectID 300797d0 f   cg_syscalls.obj
 0001:00078800       _trap_FX_PlayPortalEffectID 30079800 f   cg_syscalls.obj
 0001:00078820       _trap_FX_RegisterEffect    30079820 f   cg_syscalls.obj
 0001:00078840       _trap_G2API_AbsurdSmoothing 30079840 f   cg_syscalls.obj
 0001:00078860       _trap_G2API_AddBolt        30079860 f   cg_syscalls.obj
 0001:00078880       _trap_G2API_AddSkinGore    30079880 f   cg_syscalls.obj
 0001:000788a0       _trap_G2API_AnimateG2Models 300798a0 f   cg_syscalls.obj
 0001:000788c0       _trap_G2API_AttachInstanceToEntNum 300798c0 f   cg_syscalls.obj
 0001:000788e0       _trap_G2API_CleanGhoul2Models 300798e0 f   cg_syscalls.obj
 0001:00078900       _trap_G2API_ClearAttachedInstance 30079900 f   cg_syscalls.obj
 0001:00078920       _trap_G2API_ClearSkinGore  30079920 f   cg_syscalls.obj
 0001:00078940       _trap_G2API_CollisionDetect 30079940 f   cg_syscalls.obj
 0001:00078990       _trap_G2API_CollisionDetectCache 30079990 f   cg_syscalls.obj
 0001:000789e0       _trap_G2API_CopySpecificGhoul2Model 300799e0 f   cg_syscalls.obj
 0001:00078a00       _trap_G2API_DuplicateGhoul2Instance 30079a00 f   cg_syscalls.obj
 0001:00078a20       _trap_G2API_GetBoltMatrix  30079a20 f   cg_syscalls.obj
 0001:00078a50       _trap_G2API_GetBoltMatrix_NoRecNoRot 30079a50 f   cg_syscalls.obj
 0001:00078a80       _trap_G2API_GetBoneAnim    30079a80 f   cg_syscalls.obj
 0001:00078ac0       _trap_G2API_GetBoneFrame   30079ac0 f   cg_syscalls.obj
 0001:00078af0       _trap_G2API_GetGLAName     30079af0 f   cg_syscalls.obj
 0001:00078b10       _trap_G2API_GetNumGoreMarks 30079b10 f   cg_syscalls.obj
 0001:00078b30       _trap_G2API_GetSurfaceRenderStatus 30079b30 f   cg_syscalls.obj
 0001:00078b50       _trap_G2API_HasGhoul2ModelOnIndex 30079b50 f   cg_syscalls.obj
 0001:00078b70       _trap_G2API_IKMove         30079b70 f   cg_syscalls.obj
 0001:00078b90       _trap_G2API_InitGhoul2Model 30079b90 f   cg_syscalls.obj
 0001:00078bc0       _trap_G2API_RagEffectorGoal 30079bc0 f   cg_syscalls.obj
 0001:00078be0       _trap_G2API_RagEffectorKick 30079be0 f   cg_syscalls.obj
 0001:00078c00       _trap_G2API_RagForceSolve  30079c00 f   cg_syscalls.obj
 0001:00078c20       _trap_G2API_RagPCJConstraint 30079c20 f   cg_syscalls.obj
 0001:00078c40       _trap_G2API_RagPCJGradientSpeed 30079c40 f   cg_syscalls.obj
 0001:00078c70       _trap_G2API_RemoveGhoul2Model 30079c70 f   cg_syscalls.obj
 0001:00078c90       _trap_G2API_SetBoltInfo    30079c90 f   cg_syscalls.obj
 0001:00078cb0       _trap_G2API_SetBoneAngles  30079cb0 f   cg_syscalls.obj
 0001:00078cf0       _trap_G2API_SetBoneAnim    30079cf0 f   cg_syscalls.obj
 0001:00078d40       _trap_G2API_SetBoneIKState 30079d40 f   cg_syscalls.obj
 0001:00078d70       _trap_G2API_SetNewOrigin   30079d70 f   cg_syscalls.obj
 0001:00078d90       _trap_G2API_SetRagDoll     30079d90 f   cg_syscalls.obj
 0001:00078db0       _trap_G2API_SetRootSurface 30079db0 f   cg_syscalls.obj
 0001:00078dd0       _trap_G2API_SetSkin        30079dd0 f   cg_syscalls.obj
 0001:00078df0       _trap_G2API_SetSurfaceOnOff 30079df0 f   cg_syscalls.obj
 0001:00078e10       _trap_G2API_SkinlessModel  30079e10 f   cg_syscalls.obj
 0001:00078e30       _trap_G2_HaveWeGhoul2Models 30079e30 f   cg_syscalls.obj
 0001:00078e50       _trap_GetCurrentCmdNumber  30079e50 f   cg_syscalls.obj
 0001:00078e60       _trap_GetCurrentSnapshotNumber 30079e60 f   cg_syscalls.obj
 0001:00078e80       _trap_GetDefaultState      30079e80 f   cg_syscalls.obj
 0001:00078ea0       _trap_GetEntityToken       30079ea0 f   cg_syscalls.obj
 0001:00078ec0       _trap_GetGameState         30079ec0 f   cg_syscalls.obj
 0001:00078ee0       _trap_GetGlconfig          30079ee0 f   cg_syscalls.obj
 0001:00078f00       _trap_GetServerCommand     30079f00 f   cg_syscalls.obj
 0001:00078f20       _trap_GetSnapshot          30079f20 f   cg_syscalls.obj
 0001:00078f40       _trap_GetUserCmd           30079f40 f   cg_syscalls.obj
 0001:00078f60       _trap_Key_GetCatcher       30079f60 f   cg_syscalls.obj
 0001:00078f70       _trap_Key_SetCatcher       30079f70 f   cg_syscalls.obj
 0001:00078f90       _trap_Language_IsAsian     30079f90 f   cg_syscalls.obj
 0001:00078fa0       _trap_Language_UsesSpaces  30079fa0 f   cg_syscalls.obj
 0001:00078fb0       _trap_Milliseconds         30079fb0 f   cg_syscalls.obj
 0001:00078fc0       _trap_OpenUIMenu           30079fc0 f   cg_syscalls.obj
 0001:00078fe0       _trap_PC_FreeSource        30079fe0 f   cg_syscalls.obj
 0001:00079000       _trap_PC_LoadSource        3007a000 f   cg_syscalls.obj
 0001:00079020       _trap_PC_ReadToken         3007a020 f   cg_syscalls.obj
 0001:00079040       _trap_PC_SourceFileAndLine 3007a040 f   cg_syscalls.obj
 0001:00079060       _trap_Print                3007a060 f   cg_syscalls.obj
 0001:00079080       _trap_RE_InitRendererTerrain 3007a080 f   cg_syscalls.obj
 0001:000790a0       _trap_RMG_Init             3007a0a0 f   cg_syscalls.obj
 0001:000790c0       _trap_ROFF_Clean           3007a0c0 f   cg_syscalls.obj
 0001:000790d0       _trap_ROFF_Play            3007a0d0 f   cg_syscalls.obj
 0001:000790f0       _trap_ROFF_UpdateEntities  3007a0f0 f   cg_syscalls.obj
 0001:00079100       _trap_R_AddDecalToScene    3007a100 f   cg_syscalls.obj
 0001:00079170       _trap_R_AddLightToScene    3007a170 f   cg_syscalls.obj
 0001:000791c0       _trap_R_AddPolyToScene     3007a1c0 f   cg_syscalls.obj
 0001:000791e0       _trap_R_AddRefEntityToScene 3007a1e0 f   cg_syscalls.obj
 0001:00079200       _trap_R_AutomapElevAdj     3007a200 f   cg_syscalls.obj
 0001:00079220       _trap_R_ClearDecals        3007a220 f   cg_syscalls.obj
 0001:00079230       _trap_R_ClearScene         3007a230 f   cg_syscalls.obj
 0001:00079240       _trap_R_DrawRotatePic      3007a240 f   cg_syscalls.obj
 0001:000792d0       _trap_R_DrawRotatePic2     3007a2d0 f   cg_syscalls.obj
 0001:00079360       _trap_R_DrawStretchPic     3007a360 f   cg_syscalls.obj
 0001:000793e0       _trap_R_Font_DrawString    3007a3e0 f   cg_syscalls.obj
 0001:00079410       _trap_R_Font_HeightPixels  3007a410 f   cg_syscalls.obj
 0001:00079430       _trap_R_Font_StrLenChars   3007a430 f   cg_syscalls.obj
 0001:00079450       _trap_R_Font_StrLenPixels  3007a450 f   cg_syscalls.obj
 0001:00079490       _trap_R_GetBModelVerts     3007a490 f   cg_syscalls.obj
 0001:000794b0       _trap_R_GetDistanceCull    3007a4b0 f   cg_syscalls.obj
 0001:000794d0       _trap_R_GetRealRes         3007a4d0 f   cg_syscalls.obj
 0001:000794f0       _trap_R_InitWireframeAutomap 3007a4f0 f   cg_syscalls.obj
 0001:00079500       _trap_R_LerpTag            3007a500 f   cg_syscalls.obj
 0001:00079530       _trap_R_LoadWorldMap       3007a530 f   cg_syscalls.obj
 0001:00079550       _trap_R_ModelBounds        3007a550 f   cg_syscalls.obj
 0001:00079570       _trap_R_RegisterFont       3007a570 f   cg_syscalls.obj
 0001:00079590       _trap_R_RegisterModel      3007a590 f   cg_syscalls.obj
 0001:000795b0       _trap_R_RegisterShader     3007a5b0 f   cg_syscalls.obj
 0001:000795d0       _trap_R_RegisterShaderNoMip 3007a5d0 f   cg_syscalls.obj
 0001:000795f0       _trap_R_RegisterSkin       3007a5f0 f   cg_syscalls.obj
 0001:00079610       _trap_R_RemapShader        3007a610 f   cg_syscalls.obj
 0001:00079630       _trap_R_RenderScene        3007a630 f   cg_syscalls.obj
 0001:00079650       _trap_R_SetColor           3007a650 f   cg_syscalls.obj
 0001:00079670       _trap_R_SetLightStyle      3007a670 f   cg_syscalls.obj
 0001:00079690       _trap_R_SetRangeFog        3007a690 f   cg_syscalls.obj
 0001:000796b0       _trap_R_SetRefractProp     3007a6b0 f   cg_syscalls.obj
 0001:000796f0       _trap_R_WeatherContentsOverride 3007a6f0 f   cg_syscalls.obj
 0001:00079710       _trap_R_WorldEffectCommand 3007a710 f   cg_syscalls.obj
 0001:00079730       _trap_R_inPVS              3007a730 f   cg_syscalls.obj
 0001:00079750       _trap_SP_GetStringTextString 3007a750 f   cg_syscalls.obj
 0001:00079770       _trap_S_AddLocalSet        3007a770 f   cg_syscalls.obj
 0001:00079790       _trap_S_AddLoopingSound    3007a790 f   cg_syscalls.obj
 0001:000797b0       _trap_S_AddRealLoopingSound 3007a7b0 f   cg_syscalls.obj
 0001:000797d0       _trap_S_ClearLoopingSounds 3007a7d0 f   cg_syscalls.obj
 0001:000797e0       _trap_S_GetVoiceVolume     3007a7e0 f   cg_syscalls.obj
 0001:00079800       _trap_S_MuteSound          3007a800 f   cg_syscalls.obj
 0001:00079820       _trap_S_RegisterSound      3007a820 f   cg_syscalls.obj
 0001:00079840       _trap_S_Respatialize       3007a840 f   cg_syscalls.obj
 0001:00079860       _trap_S_ShutUp             3007a860 f   cg_syscalls.obj
 0001:00079880       _trap_S_StartBackgroundTrack 3007a880 f   cg_syscalls.obj
 0001:000798a0       _trap_S_StartLocalSound    3007a8a0 f   cg_syscalls.obj
 0001:000798c0       _trap_S_StartSound         3007a8c0 f   cg_syscalls.obj
 0001:000798e0       _trap_S_StopBackgroundTrack 3007a8e0 f   cg_syscalls.obj
 0001:000798f0       _trap_S_UpdateAmbientSet   3007a8f0 f   cg_syscalls.obj
 0001:00079910       _trap_S_UpdateEntityPosition 3007a910 f   cg_syscalls.obj
 0001:00079930       _trap_SendClientCommand    3007a930 f   cg_syscalls.obj
 0001:00079950       _trap_SendConsoleCommand   3007a950 f   cg_syscalls.obj
 0001:00079970       _trap_SetClientForceAngle  3007a970 f   cg_syscalls.obj
 0001:00079990       _trap_SetUserCmdValue      3007a990 f   cg_syscalls.obj
 0001:000799f0       _trap_SnapVector           3007a9f0 f   cg_syscalls.obj
 0001:00079a10       _trap_TrueFree             3007aa10 f   cg_syscalls.obj
 0001:00079a30       _trap_TrueMalloc           3007aa30 f   cg_syscalls.obj
 0001:00079a50       _trap_UpdateScreen         3007aa50 f   cg_syscalls.obj
 0001:00079a60       _trap_WE_AddWeatherZone    3007aa60 f   cg_syscalls.obj
 0001:00079a80       _CreepToPosition           3007aa80 f   cg_turret.obj
 0001:00079c00       _TurretClientRun           3007ac00 f   cg_turret.obj
 0001:00079f90       _CGCam_SetMusicMult        3007af90 f   cg_view.obj
 0001:00079fd0       _CG_AddBufferedSound       3007afd0 f   cg_view.obj
 0001:0007a140       _CG_CalcFOVFromX           3007b140 f   cg_view.obj
 0001:0007ae30       _CG_CalcVrect              3007be30 f   cg_view.obj
 0001:0007af00       _CG_DoCameraShake          3007bf00 f   cg_view.obj
 0001:0007af90       _CG_DrawActiveFrame        3007bf90 f   cg_view.obj
 0001:0007bc30       _CG_DrawAutoMap            3007cc30 f   cg_view.obj
 0001:0007c1b0       _CG_DrawSkyBoxPortal       3007d1b0 f   cg_view.obj
 0001:0007c620       _CG_GetVehicleCamPos       3007d620 f   cg_view.obj
 0001:0007d550       _CG_TestGun_f              3007e550 f   cg_view.obj
 0001:0007d6a0       _CG_TestModelNextFrame_f   3007e6a0 f   cg_view.obj
 0001:0007d6c0       _CG_TestModelNextSkin_f    3007e6c0 f   cg_view.obj
 0001:0007d6e0       _CG_TestModelPrevFrame_f   3007e6e0 f   cg_view.obj
 0001:0007d720       _CG_TestModelPrevSkin_f    3007e720 f   cg_view.obj
 0001:0007d760       _CG_TestModel_f            3007e760 f   cg_view.obj
 0001:0007dfb0       _CheckCameraLocation       3007efb0 f   cg_view.obj
 0001:0007e030       _CG_RegisterWeapon         3007f030 f   cg_weaponinit.obj
 0001:00080540       _CG_AddPlayerWeapon        30081540 f   cg_weapons.obj
 0001:00081ef0       _CG_AddViewWeapon          30082ef0 f   cg_weapons.obj
 0001:00082470       _CG_CalcMuzzlePoint        30083470 f   cg_weapons.obj
 0001:000829e0       _CG_CheckPlayerG2Weapons   300839e0 f   cg_weapons.obj
 0001:00082cd0       _CG_CopyG2WeaponInstance   30083cd0 f   cg_weapons.obj
 0001:00082e70       _CG_DrawIconBackground     30083e70 f   cg_weapons.obj
 0001:00082fc0       _CG_DrawWeaponSelect       30083fc0 f   cg_weapons.obj
 0001:00083340       _CG_FireWeapon             30084340 f   cg_weapons.obj
 0001:000835f0       _CG_G2HolsterWeaponInstance 300845f0 f   cg_weapons.obj
 0001:00083660       _CG_G2WeaponInstance       30084660 f   cg_weapons.obj
 0001:00083720       _CG_G2WeaponInstance2      30084720 f   cg_weapons.obj
 0001:000837e0       _CG_GetClientWeaponMuzzleBoltPoint 300847e0 f   cg_weapons.obj
 0001:00083890       _CG_InitG2Weapons          30084890 f   cg_weapons.obj
 0001:00084460       _CG_MissileHitPlayer       30085460 f   cg_weapons.obj
 0001:000845f0       _CG_MissileHitPlayer2      300855f0 f   cg_weapons.obj
 0001:00084780       _CG_MissileHitPlayer3      30085780 f   cg_weapons.obj
 0001:00084910       _CG_MissileHitPlayer4      30085910 f   cg_weapons.obj
 0001:00084aa0       _CG_MissileHitPlayer5      30085aa0 f   cg_weapons.obj
 0001:00084c30       _CG_MissileHitPlayer6      30085c30 f   cg_weapons.obj
 0001:00084dc0       _CG_MissileHitWall         30085dc0 f   cg_weapons.obj
 0001:00084f70       _CG_MissileHitWall2        30085f70 f   cg_weapons.obj
 0001:00085100       _CG_MissileHitWall3        30086100 f   cg_weapons.obj
 0001:00085290       _CG_MissileHitWall4        30086290 f   cg_weapons.obj
 0001:00085420       _CG_MissileHitWall5        30086420 f   cg_weapons.obj
 0001:000855b0       _CG_MissileHitWall6        300865b0 f   cg_weapons.obj
 0001:00085740       _CG_NextWeapon_f           30086740 f   cg_weapons.obj
 0001:00085860       _CG_PrevWeapon_f           30086860 f   cg_weapons.obj
 0001:00085930       _CG_RegisterItemVisuals    30086930 f   cg_weapons.obj
 0001:00085ad0       _CG_ShutDownG2Weapons      30086ad0 f   cg_weapons.obj
 0001:00085b80       _CG_VehicleWeaponImpact    30086b80 f   cg_weapons.obj
 0001:00085bf0       _CG_WeaponClean_f          30086bf0 f   cg_weapons.obj
 0001:00085db0       _CG_Weapon_f               30086db0 f   cg_weapons.obj
 0001:00085f70       _BG_FighterUpdate          30086f70 f   FighterNPC.obj
 0001:000862d0       _FighterIsLanding          300872d0 f   FighterNPC.obj
 0001:00086410       _FighterOverValidLandingSurface 30087410 f   FighterNPC.obj
 0001:00086450       _FighterYawAdjust          30087450 f   FighterNPC.obj
 0001:00086510       _G_SetFighterVehicleFunctions 30087510 f   FighterNPC.obj
 0001:00087aa0       _FX_BlasterProjectileThink 30088aa0 f   fx_blaster.obj
 0001:00087aa0       _FX_BlasterProjectileThink6 30088aa0 f   fx_blaster.obj
 0001:00087aa0       _FX_BowcasterAltProjectileThink2 30088aa0 f   fx_bowcaster.obj
 0001:00087aa0       _FX_BowcasterProjectileThink2 30088aa0 f   fx_bowcaster.obj
 0001:00087aa0       _FX_BryarOldProjectileThink3 30088aa0 f   fx_bryarpistol.obj
 0001:00087aa0       _FX_BryarOldProjectileThink4 30088aa0 f   fx_bryarpistol.obj
 0001:00087aa0       _FX_BryarProjectileThink6  30088aa0 f   fx_bryarpistol.obj
 0001:00087b00       _FX_BlasterProjectileThink2 30088b00 f   fx_blaster.obj
 0001:00087b00       _FX_BowcasterAltProjectileThink 30088b00 f   fx_bowcaster.obj
 0001:00087b00       _FX_BowcasterProjectileThink 30088b00 f   fx_bowcaster.obj
 0001:00087b00       _FX_BryarOldProjectileThink 30088b00 f   fx_bryarpistol.obj
 0001:00087b00       _FX_BryarProjectileThink2  30088b00 f   fx_bryarpistol.obj
 0001:00087b60       _FX_BlasterProjectileThink3 30088b60 f   fx_blaster.obj
 0001:00087b60       _FX_BowcasterAltProjectileThink3 30088b60 f   fx_bowcaster.obj
 0001:00087b60       _FX_BowcasterProjectileThink3 30088b60 f   fx_bowcaster.obj
 0001:00087b60       _FX_BryarProjectileThink3  30088b60 f   fx_bryarpistol.obj
 0001:00087bc0       _FX_BlasterProjectileThink4 30088bc0 f   fx_blaster.obj
 0001:00087bc0       _FX_BowcasterAltProjectileThink6 30088bc0 f   fx_bowcaster.obj
 0001:00087bc0       _FX_BowcasterProjectileThink6 30088bc0 f   fx_bowcaster.obj
 0001:00087bc0       _FX_BryarOldProjectileThink2 30088bc0 f   fx_bryarpistol.obj
 0001:00087bc0       _FX_BryarOldProjectileThink6 30088bc0 f   fx_bryarpistol.obj
 0001:00087bc0       _FX_BryarProjectileThink   30088bc0 f   fx_bryarpistol.obj
 0001:00087bc0       _FX_ConcussionProjectileThink5 30088bc0 f   fx_bryarpistol.obj
 0001:00087c20       _FX_BlasterProjectileThink5 30088c20 f   fx_blaster.obj
 0001:00087c20       _FX_BowcasterAltProjectileThink5 30088c20 f   fx_bowcaster.obj
 0001:00087c20       _FX_BowcasterProjectileThink5 30088c20 f   fx_bowcaster.obj
 0001:00087c20       _FX_BryarProjectileThink5  30088c20 f   fx_bryarpistol.obj
 0001:00087c80       _FX_BlasterWeaponHitPlayer 30088c80 f   fx_blaster.obj
 0001:00087c80       _FX_BowcasterHitPlayer     30088c80 f   fx_bowcaster.obj
 0001:00087c80       _FX_BryarAltHitPlayer      30088c80 f   fx_bryarpistol.obj
 0001:00087c80       _FX_BryarHitPlayer         30088c80 f   fx_bryarpistol.obj
 0001:00087c80       _FX_BryarOldAltHitPlayer   30088c80 f   fx_bryarpistol.obj
 0001:00087c80       _FX_BryarOldHitPlayer      30088c80 f   fx_bryarpistol.obj
 0001:00087c80       _FX_TurretHitPlayer        30088c80 f   fx_bryarpistol.obj
 0001:00087ca0       _FX_BlasterWeaponHitWall   30088ca0 f   fx_blaster.obj
 0001:00087ca0       _FX_BowcasterHitWall       30088ca0 f   fx_bowcaster.obj
 0001:00087ca0       _FX_BryarAltHitWall        30088ca0 f   fx_bryarpistol.obj
 0001:00087ca0       _FX_BryarHitWall           30088ca0 f   fx_bryarpistol.obj
 0001:00087ca0       _FX_BryarOldAltHitWall     30088ca0 f   fx_bryarpistol.obj
 0001:00087ca0       _FX_BryarOldHitWall        30088ca0 f   fx_bryarpistol.obj
 0001:00087ca0       _FX_TurretHitWall          30088ca0 f   fx_bryarpistol.obj
 0001:00087cc0       _FX_BowcasterAltProjectileThink4 30088cc0 f   fx_bowcaster.obj
 0001:00087cc0       _FX_BowcasterProjectileThink4 30088cc0 f   fx_bowcaster.obj
 0001:00087cc0       _FX_BryarProjectileThink4  30088cc0 f   fx_bryarpistol.obj
 0001:00087d20       _FX_BryarAltProjectileThink 30088d20 f   fx_bryarpistol.obj
 0001:00087d20       _FX_BryarOldAltProjectileThink2 30088d20 f   fx_bryarpistol.obj
 0001:00087d20       _FX_BryarOldAltProjectileThink6 30088d20 f   fx_bryarpistol.obj
 0001:00087db0       _FX_BryarAltProjectileThink2 30088db0 f   fx_bryarpistol.obj
 0001:00087db0       _FX_BryarOldAltProjectileThink 30088db0 f   fx_bryarpistol.obj
 0001:00087e40       _FX_BryarAltProjectileThink3 30088e40 f   fx_bryarpistol.obj
 0001:00087ed0       _FX_BryarAltProjectileThink4 30088ed0 f   fx_bryarpistol.obj
 0001:00087f60       _FX_BryarAltProjectileThink5 30088f60 f   fx_bryarpistol.obj
 0001:00087ff0       _FX_BryarAltProjectileThink6 30088ff0 f   fx_bryarpistol.obj
 0001:00087ff0       _FX_BryarOldAltProjectileThink3 30088ff0 f   fx_bryarpistol.obj
 0001:00087ff0       _FX_BryarOldAltProjectileThink4 30088ff0 f   fx_bryarpistol.obj
 0001:00088080       _FX_BryarOldAltProjectileThink5 30089080 f   fx_bryarpistol.obj
 0001:00088110       _FX_BryarOldProjectileThink5 30089110 f   fx_bryarpistol.obj
 0001:00088170       _FX_ConcAltShot            30089170 f   fx_bryarpistol.obj
 0001:00088250       _FX_ConcussionHitPlayer    30089250 f   fx_bryarpistol.obj
 0001:00088250       _FX_ConcussionHitWall      30089250 f   fx_bryarpistol.obj
 0001:00088270       _FX_ConcussionHitPlayer2   30089270 f   fx_bryarpistol.obj
 0001:00088270       _FX_ConcussionHitWall2     30089270 f   fx_bryarpistol.obj
 0001:00088270       _FX_DestructionHitPlayer   30089270 f   fx_bryarpistol.obj
 0001:00088270       _FX_DestructionHitWall     30089270 f   fx_bryarpistol.obj
 0001:00088290       _FX_ConcussionHitPlayer3   30089290 f   fx_bryarpistol.obj
 0001:00088290       _FX_ConcussionHitWall3     30089290 f   fx_bryarpistol.obj
 0001:000882b0       _FX_ConcussionHitPlayer4   300892b0 f   fx_bryarpistol.obj
 0001:000882b0       _FX_ConcussionHitWall4     300892b0 f   fx_bryarpistol.obj
 0001:000882d0       _FX_ConcussionHitPlayer5   300892d0 f   fx_bryarpistol.obj
 0001:000882d0       _FX_ConcussionHitPlayer6   300892d0 f   fx_bryarpistol.obj
 0001:000882d0       _FX_ConcussionHitWall5     300892d0 f   fx_bryarpistol.obj
 0001:000882d0       _FX_ConcussionHitWall6     300892d0 f   fx_bryarpistol.obj
 0001:000882d0       _FX_RepeaterAltHitWall2    300892d0 f   fx_heavyrepeater.obj
 0001:000882d0       _FX_RepeaterAltHitWall4    300892d0 f   fx_heavyrepeater.obj
 0001:000882d0       _FX_RepeaterAltHitWall6    300892d0 f   fx_heavyrepeater.obj
 0001:000882d0       _FX_RepeaterHitWall        300892d0 f   fx_heavyrepeater.obj
 0001:000882f0       _FX_ConcussionProjectileThink 300892f0 f   fx_bryarpistol.obj
 0001:00088350       _FX_ConcussionProjectileThink2 30089350 f   fx_bryarpistol.obj
 0001:00088350       _FX_DestructionProjectileThink 30089350 f   fx_bryarpistol.obj
 0001:000883b0       _FX_ConcussionProjectileThink3 300893b0 f   fx_bryarpistol.obj
 0001:00088410       _FX_ConcussionProjectileThink4 30089410 f   fx_bryarpistol.obj
 0001:00088470       _FX_ConcussionProjectileThink6 30089470 f   fx_bryarpistol.obj
 0001:00088470       _FX_RepeaterProjectileThink 30089470 f   fx_heavyrepeater.obj
 0001:000884d0       _FX_TurretProjectileThink  300894d0 f   fx_bryarpistol.obj
 0001:00088530       _FX_DEMP2_AltDetonate      30089530 f   fx_demp2.obj
 0001:000885d0       _FX_DEMP2_HitPlayer        300895d0 f   fx_demp2.obj
 0001:000885d0       _FX_DEMP2_HitPlayer2       300895d0 f   fx_demp2.obj
 0001:000885d0       _FX_DEMP2_HitPlayer3       300895d0 f   fx_demp2.obj
 0001:000885f0       _FX_DEMP2_HitPlayer4       300895f0 f   fx_demp2.obj
 0001:00088610       _FX_DEMP2_HitPlayer5       30089610 f   fx_demp2.obj
 0001:00088630       _FX_DEMP2_HitPlayer6       30089630 f   fx_demp2.obj
 0001:00088650       _FX_DEMP2_HitWall          30089650 f   fx_demp2.obj
 0001:00088650       _FX_DEMP2_HitWall2         30089650 f   fx_demp2.obj
 0001:00088650       _FX_DEMP2_HitWall3         30089650 f   fx_demp2.obj
 0001:00088670       _FX_DEMP2_HitWall4         30089670 f   fx_demp2.obj
 0001:00088690       _FX_DEMP2_HitWall5         30089690 f   fx_demp2.obj
 0001:000886b0       _FX_DEMP2_HitWall6         300896b0 f   fx_demp2.obj
 0001:000886d0       _FX_DEMP2_ProjectileThink  300896d0 f   fx_demp2.obj
 0001:000886d0       _FX_DEMP2_ProjectileThink2 300896d0 f   fx_demp2.obj
 0001:000886d0       _FX_DEMP2_ProjectileThink3 300896d0 f   fx_demp2.obj
 0001:00088730       _FX_DEMP2_ProjectileThink4 30089730 f   fx_demp2.obj
 0001:00088790       _FX_DEMP2_ProjectileThink5 30089790 f   fx_demp2.obj
 0001:000887f0       _FX_DEMP2_ProjectileThink6 300897f0 f   fx_demp2.obj
 0001:00088850       _FX_DisruptorAltHit        30089850 f   fx_disruptor.obj
 0001:00088870       _FX_DisruptorAltMiss       30089870 f   fx_disruptor.obj
 0001:00088a00       _FX_DisruptorAltShot       30089a00 f   fx_disruptor.obj
 0001:00088b00       _FX_DisruptorAltShot2      30089b00 f   fx_disruptor.obj
 0001:00088c00       _FX_DisruptorAltShot3      30089c00 f   fx_disruptor.obj
 0001:00088d00       _FX_DisruptorAltShot4      30089d00 f   fx_disruptor.obj
 0001:00088d00       _FX_DisruptorAltShot6      30089d00 f   fx_disruptor.obj
 0001:00088e00       _FX_DisruptorAltShot5      30089e00 f   fx_disruptor.obj
 0001:00088f00       _FX_DisruptorHitPlayer     30089f00 f   fx_disruptor.obj
 0001:00088f20       _FX_DisruptorHitWall       30089f20 f   fx_disruptor.obj
 0001:00088f40       _FX_DisruptorMainShot      30089f40 f   fx_disruptor.obj
 0001:00088fb0       _FX_DisruptorMainShot2     30089fb0 f   fx_disruptor.obj
 0001:00089020       _FX_DisruptorMainShot3     3008a020 f   fx_disruptor.obj
 0001:00089090       _FX_DisruptorMainShot4     3008a090 f   fx_disruptor.obj
 0001:00089090       _FX_DisruptorMainShot6     3008a090 f   fx_disruptor.obj
 0001:00089100       _FX_DisruptorMainShot5     3008a100 f   fx_disruptor.obj
 0001:00089170       _FX_FlechetteAltProjectileThink 3008a170 f   fx_flechette.obj
 0001:000891d0       _FX_FlechetteAltProjectileThink2 3008a1d0 f   fx_flechette.obj
 0001:000891d0       _FX_FlechetteProjectileThink2 3008a1d0 f   fx_flechette.obj
 0001:00089230       _FX_FlechetteAltProjectileThink3 3008a230 f   fx_flechette.obj
 0001:00089230       _FX_FlechetteProjectileThink3 3008a230 f   fx_flechette.obj
 0001:00089290       _FX_FlechetteAltProjectileThink4 3008a290 f   fx_flechette.obj
 0001:000892f0       _FX_FlechetteAltProjectileThink5 3008a2f0 f   fx_flechette.obj
 0001:000892f0       _FX_FlechetteProjectileThink5 3008a2f0 f   fx_flechette.obj
 0001:00089350       _FX_FlechetteAltProjectileThink6 3008a350 f   fx_flechette.obj
 0001:000893b0       _FX_FlechetteProjectileThink 3008a3b0 f   fx_flechette.obj
 0001:00089410       _FX_FlechetteProjectileThink4 3008a410 f   fx_flechette.obj
 0001:00089470       _FX_FlechetteProjectileThink6 3008a470 f   fx_flechette.obj
 0001:000894d0       _FX_FlechetteWeaponHitPlayer 3008a4d0 f   fx_flechette.obj
 0001:000894f0       _FX_FlechetteWeaponHitWall 3008a4f0 f   fx_flechette.obj
 0001:00089510       _FX_Burned                 3008a510 f   fx_force.obj
 0001:00089580       _FX_ForceDrained           3008a580 f   fx_force.obj
 0001:000895f0       _FX_ForceHealed            3008a5f0 f   fx_force.obj
 0001:00089660       _FX_ForceRegenerated       3008a660 f   fx_force.obj
 0001:000896d0       _FX_ForceSevered           3008a6d0 f   fx_force.obj
 0001:00089740       _FX_Frozen                 3008a740 f   fx_force.obj
 0001:000899c0       _FX_RepeaterAltHitPlayer   3008a9c0 f   fx_heavyrepeater.obj
 0001:000899c0       _FX_RepeaterAltHitWall     3008a9c0 f   fx_heavyrepeater.obj
 0001:000899e0       _FX_RepeaterAltHitPlayer2  3008a9e0 f   fx_heavyrepeater.obj
 0001:000899e0       _FX_RepeaterAltHitPlayer4  3008a9e0 f   fx_heavyrepeater.obj
 0001:000899e0       _FX_RepeaterAltHitPlayer6  3008a9e0 f   fx_heavyrepeater.obj
 0001:000899e0       _FX_RepeaterHitPlayer      3008a9e0 f   fx_heavyrepeater.obj
 0001:00089a00       _FX_RepeaterAltHitPlayer3  3008aa00 f   fx_heavyrepeater.obj
 0001:00089a00       _FX_RepeaterAltHitWall3    3008aa00 f   fx_heavyrepeater.obj
 0001:00089a20       _FX_RepeaterAltHitPlayer5  3008aa20 f   fx_heavyrepeater.obj
 0001:00089a20       _FX_RepeaterAltHitWall5    3008aa20 f   fx_heavyrepeater.obj
 0001:00089a40       _FX_RepeaterAltProjectileThink 3008aa40 f   fx_heavyrepeater.obj
 0001:00089ab0       _FX_RepeaterAltProjectileThink2 3008aab0 f   fx_heavyrepeater.obj
 0001:00089b20       _FX_RepeaterAltProjectileThink3 3008ab20 f   fx_heavyrepeater.obj
 0001:00089b90       _FX_RepeaterAltProjectileThink4 3008ab90 f   fx_heavyrepeater.obj
 0001:00089c00       _FX_RepeaterAltProjectileThink5 3008ac00 f   fx_heavyrepeater.obj
 0001:00089c70       _FX_RepeaterAltProjectileThink6 3008ac70 f   fx_heavyrepeater.obj
 0001:00089ce0       _FX_RepeaterProjectileThink2 3008ace0 f   fx_heavyrepeater.obj
 0001:00089d40       _FX_RepeaterProjectileThink3 3008ad40 f   fx_heavyrepeater.obj
 0001:00089da0       _FX_RepeaterProjectileThink4 3008ada0 f   fx_heavyrepeater.obj
 0001:00089e00       _FX_RepeaterProjectileThink5 3008ae00 f   fx_heavyrepeater.obj
 0001:00089e60       _FX_RepeaterProjectileThink6 3008ae60 f   fx_heavyrepeater.obj
 0001:00089ec0       _FX_RocketAltProjectileThink 3008aec0 f   fx_rocketlauncher.obj
 0001:00089ec0       _FX_RocketProjectileThink  3008aec0 f   fx_rocketlauncher.obj
 0001:00089f20       _AngleDelta                3008af20 f   q_math.obj
 0001:00089f80       _AngleMod                  3008af80 f   q_math.obj
 0001:00089f80       _AngleNormalize360         3008af80 f   q_math.obj
 0001:00089fc0       _AngleNormalize180         3008afc0 f   q_math.obj
 0001:0008a020       _AngleSubtract             3008b020 f   q_math.obj
 0001:0008a0a0       _AngleVectors              3008b0a0 f   q_math.obj
 0001:0008a280       _AnglesSubtract            3008b280 f   q_math.obj
 0001:0008a3d0       _AnglesToAxis              3008b3d0 f   q_math.obj
 0001:0008a5e0       _AxisClear                 3008b5e0 f   q_math.obj
 0001:0008a630       _AxisCopy                  3008b630 f   q_math.obj
 0001:0008a670       _ByteToDir                 3008b670 f   q_math.obj
 0001:0008a6d0       _G_FindClosestPointOnLineSegment 3008b6d0 f   q_math.obj
 0001:0008ac00       _JKA_powf                  3008bc00 f   q_math.obj
 0001:0008ac70       _LerpAngle                 3008bc70 f   q_math.obj
 0001:0008acd0       _MatrixMultiply            3008bcd0 f   q_math.obj
 0001:0008ae60       _PerpendicularVector       3008be60 f   q_math.obj
 0001:0008b030       _Q_fabs                    3008c030 f   q_math.obj
 0001:0008b040       _Q_irand                   3008c040 f   q_math.obj
 0001:0008b070       _Q_random                  3008c070 f   q_math.obj
 0001:0008b0a0       _RotateAroundDirection     3008c0a0 f   q_math.obj
 0001:0008b160       _RotatePointAroundVector   3008c160 f   q_math.obj
 0001:0008b4f0       _ShortestLineSegBewteen2LineSegs 3008c4f0 f   q_math.obj
 0001:0008bd40       _VectorNormalize           3008cd40 f   q_math.obj
 0001:0008be00       _VectorNormalize2          3008ce00 f   q_math.obj
 0001:0008bec0       _flrand                    3008cec0 f   q_math.obj
 0001:0008bf30       _vectoangles               3008cf30 f   q_math.obj
 0001:0008c0c0       _COM_BeginParseSession     3008d0c0 f   q_shared.obj
 0001:0008c0f0       _COM_BitCheck              3008d0f0 f   q_shared.obj
 0001:0008c120       _COM_Compress              3008d120 f   q_shared.obj
 0001:0008c220       _COM_Parse                 3008d220 f   q_shared.obj
 0001:0008c240       _COM_ParseExt              3008d240 f   q_shared.obj
 0001:0008c3d0       _COM_ParseFloat            3008d3d0 f   q_shared.obj
 0001:0008c410       _COM_ParseInt              3008d410 f   q_shared.obj
 0001:0008c450       _COM_ParseString           3008d450 f   q_shared.obj
 0001:0008c490       _COM_StripExtension        3008d490 f   q_shared.obj
 0001:0008c4d0       _Com_sprintf               3008d4d0 f   q_shared.obj
 0001:0008c530       _GetIDForString            3008d530 f   q_shared.obj
 0001:0008c5f0       _GetStringForID            3008d5f0 f   q_shared.obj
 0001:0008c620       _Info_ValueForKey          3008d620 f   q_shared.obj
 0001:0008c760       _Q_CleanStr                3008d760 f   q_shared.obj
 0001:0008c7c0       _Q_strcat                  3008d7c0 f   q_shared.obj
 0001:0008c860       _Q_stricmp                 3008d860 f   q_shared.obj
 0001:0008c8f0       _Q_stricmpn                3008d8f0 f   q_shared.obj
 0001:0008c980       _Q_strncmp                 3008d980 f   q_shared.obj
 0001:0008c9d0       _Q_strncpyz                3008d9d0 f   q_shared.obj
 0001:0008ca40       _Q_strrchr                 3008da40 f   q_shared.obj
 0001:0008ca70       _Q_strupr                  3008da70 f   q_shared.obj
 0001:0008caa0       _SkipBracedSection         3008daa0 f   q_shared.obj
 0001:0008cc10       _SkipRestOfLine            3008dc10 f   q_shared.obj
 0001:0008cc40       _va                        3008dc40 f   q_shared.obj
 0001:0008ccd0       _G_SetSpeederVehicleFunctions 3008dcd0 f   SpeederNPC.obj
 0001:0008d010       _ProcessOrientCommands     3008e010 f   SpeederNPC.obj
 0001:0008d150       _Script_SetColor           3008e150 f   ui_shared.obj
 0001:0008d240       _Script_SetAsset           3008e240 f   ui_shared.obj
 0001:0008d270       _Script_SetBackground      3008e270 f   ui_shared.obj
 0001:0008d2c0       _Script_SetItemRectCvar    3008e2c0 f   ui_shared.obj
 0001:0008d4d0       _Script_SetItemBackground  3008e4d0 f   ui_shared.obj
 0001:0008d590       _Script_SetItemText        3008e590 f   ui_shared.obj
 0001:0008d600       _Script_SetTeamColor       3008e600 f   ui_shared.obj
 0001:0008d640       _Script_SetItemColor       3008e640 f   ui_shared.obj
 0001:0008d7e0       _Script_SetItemColorCvar   3008e7e0 f   ui_shared.obj
 0001:0008daa0       _Script_SetItemRect        3008eaa0 f   ui_shared.obj
 0001:0008db80       _Script_Show               3008eb80 f   ui_shared.obj
 0001:0008dbd0       _Script_Hide               3008ebd0 f   ui_shared.obj
 0001:0008dc20       _Script_FadeIn             3008ec20 f   ui_shared.obj
 0001:0008dcc0       _Script_FadeOut            3008ecc0 f   ui_shared.obj
 0001:0008dd60       _Script_Open               3008ed60 f   ui_shared.obj
 0001:0008deb0       _Script_Close              3008eeb0 f   ui_shared.obj
 0001:0008dff0       _Script_Defer              3008eff0 f   ui_shared.obj
 0001:0008e040       _Script_RunDeferred        3008f040 f   ui_shared.obj
 0001:0008e070       _Script_Transition         3008f070 f   ui_shared.obj
 0001:0008e130       _Script_Disable            3008f130 f   ui_shared.obj
 0001:0008e210       _Script_Scale              3008f210 f   ui_shared.obj
 0001:0008e370       _Script_Orbit              3008f370 f   ui_shared.obj
 0001:0008e500       _Script_SetFocus           3008f500 f   ui_shared.obj
 0001:0008e5f0       _Script_SetPlayerModel     3008f5f0 f   ui_shared.obj
 0001:0008e640       _Script_Transition2        3008f640 f   ui_shared.obj
 0001:0008e740       _Script_SetCvar            3008f740 f   ui_shared.obj
 0001:0008e7b0       _Script_SetCvarToCvar      3008f7b0 f   ui_shared.obj
 0001:0008e860       _Script_Exec               3008f860 f   ui_shared.obj
 0001:0008e940       _Script_Play               3008f940 f   ui_shared.obj
 0001:0008e990       _Script_PlayVoice          3008f990 f   ui_shared.obj
 0001:0008e9e0       _Script_playLooped         3008f9e0 f   ui_shared.obj
 0001:0008ea40       _ItemParse_name            3008fa40 f   ui_shared.obj
 0001:0008ea60       _ItemParse_focusSound      3008fa60 f   ui_shared.obj
 0001:0008eab0       _ItemParse_text            3008fab0 f   ui_shared.obj
 0001:0008ead0       _ItemParse_descText        3008fad0 f   ui_shared.obj
 0001:0008eaf0       _ItemParse_text2           3008faf0 f   ui_shared.obj
 0001:0008eaf0       _MenuParse_soundLoop       3008faf0 f   ui_shared.obj
 0001:0008eb10       _ItemParse_text2alignx     3008fb10 f   ui_shared.obj
 0001:0008eb30       _ItemParse_text2aligny     3008fb30 f   ui_shared.obj
 0001:0008eb50       _ItemParse_group           3008fb50 f   ui_shared.obj
 0001:0008eb70       _ItemParse_asset_model     3008fb70 f   ui_shared.obj
 0001:0008eba0       _ItemParse_asset_shader    3008fba0 f   ui_shared.obj
 0001:0008ebf0       _ItemParse_model_origin    3008fbf0 f   ui_shared.obj
 0001:0008ec50       _ItemParse_elementwidth    3008fc50 f   ui_shared.obj
 0001:0008ec50       _ItemParse_model_fovx      3008fc50 f   ui_shared.obj
 0001:0008ec80       _ItemParse_elementheight   3008fc80 f   ui_shared.obj
 0001:0008ec80       _ItemParse_model_fovy      3008fc80 f   ui_shared.obj
 0001:0008ecb0       _ItemParse_model_rotation  3008fcb0 f   ui_shared.obj
 0001:0008ece0       _ItemParse_model_angle     3008fce0 f   ui_shared.obj
 0001:0008ed10       _ItemParse_model_g2mins    3008fd10 f   ui_shared.obj
 0001:0008ed70       _ItemParse_model_g2maxs    3008fd70 f   ui_shared.obj
 0001:0008edd0       _ItemParse_model_g2scale   3008fdd0 f   ui_shared.obj
 0001:0008ee30       _ItemParse_model_g2skin    3008fe30 f   ui_shared.obj
 0001:0008ee90       _ItemParse_model_g2anim    3008fe90 f   ui_shared.obj
 0001:0008ef30       _ItemParse_rectcvar        3008ff30 f   ui_shared.obj
 0001:0008f040       _ItemParse_rect            30090040 f   ui_shared.obj
 0001:0008f0a0       _ItemParse_flag            300900a0 f   ui_shared.obj
 0001:0008f140       _ItemParse_style           30090140 f   ui_shared.obj
 0001:0008f180       _ItemParse_decoration      30090180 f   ui_shared.obj
 0001:0008f1a0       _ItemParse_notselectable   300901a0 f   ui_shared.obj
 0001:0008f1e0       _ItemParse_scrollhidden    300901e0 f   ui_shared.obj
 0001:0008f220       _ItemParse_wrapped         30090220 f   ui_shared.obj
 0001:0008f240       _ItemParse_autowrapped     30090240 f   ui_shared.obj
 0001:0008f260       _ItemParse_horizontalscroll 30090260 f   ui_shared.obj
 0001:0008f280       _ItemParse_type            30090280 f   ui_shared.obj
 0001:0008f2c0       _ItemParse_feeder          300902c0 f   ui_shared.obj
 0001:0008f2c0       _ItemParse_special         300902c0 f   ui_shared.obj
 0001:0008f2e0       _ItemParse_elementtype     300902e0 f   ui_shared.obj
 0001:0008f320       _ItemParse_columns         30090320 f   ui_shared.obj
 0001:0008f3e0       _ItemParse_border          300903e0 f   ui_shared.obj
 0001:0008f3e0       _MenuParse_border          300903e0 f   ui_shared.obj
 0001:0008f400       _ItemParse_bordersize      30090400 f   ui_shared.obj
 0001:0008f400       _MenuParse_borderSize      30090400 f   ui_shared.obj
 0001:0008f420       _ItemParse_visible         30090420 f   ui_shared.obj
 0001:0008f420       _MenuParse_visible         30090420 f   ui_shared.obj
 0001:0008f460       _ItemParse_ownerdraw       30090460 f   ui_shared.obj
 0001:0008f490       _ItemParse_align           30090490 f   ui_shared.obj
 0001:0008f490       _MenuParse_fadeCycle       30090490 f   ui_shared.obj
 0001:0008f4b0       _ItemParse_isCharacter     300904b0 f   ui_shared.obj
 0001:0008f500       _ItemParse_textalign       30090500 f   ui_shared.obj
 0001:0008f540       _ItemParse_textalignx      30090540 f   ui_shared.obj
 0001:0008f540       _MenuParse_fadeAmount      30090540 f   ui_shared.obj
 0001:0008f560       _ItemParse_textaligny      30090560 f   ui_shared.obj
 0001:0008f580       _ItemParse_textscale       30090580 f   ui_shared.obj
 0001:0008f5a0       _ItemParse_textstyle       300905a0 f   ui_shared.obj
 0001:0008f5c0       _ItemParse_invertyesno     300905c0 f   ui_shared.obj
 0001:0008f5e0       _ItemParse_xoffset         300905e0 f   ui_shared.obj
 0001:0008f600       _ItemParse_backcolor       30090600 f   ui_shared.obj
 0001:0008f6b0       _ItemParse_forecolor       300906b0 f   ui_shared.obj
 0001:0008f6b0       _MenuParse_forecolor       300906b0 f   ui_shared.obj
 0001:0008f7a0       _ItemParse_bordercolor     300907a0 f   ui_shared.obj
 0001:0008f860       _ItemParse_outlinecolor    30090860 f   ui_shared.obj
 0001:0008f860       _MenuParse_outlinecolor    30090860 f   ui_shared.obj
 0001:0008f880       _ItemParse_background      30090880 f   ui_shared.obj
 0001:0008f880       _MenuParse_background      30090880 f   ui_shared.obj
 0001:0008f8d0       _ItemParse_cinematic       300908d0 f   ui_shared.obj
 0001:0008f8d0       _MenuParse_cinematic       300908d0 f   ui_shared.obj
 0001:0008f8f0       _ItemParse_doubleClick     300908f0 f   ui_shared.obj
 0001:0008f930       _ItemParse_onFocus         30090930 f   ui_shared.obj
 0001:0008f950       _ItemParse_leaveFocus      30090950 f   ui_shared.obj
 0001:0008f970       _ItemParse_mouseEnter      30090970 f   ui_shared.obj
 0001:0008f990       _ItemParse_mouseExit       30090990 f   ui_shared.obj
 0001:0008f9b0       _ItemParse_mouseEnterText  300909b0 f   ui_shared.obj
 0001:0008f9d0       _ItemParse_mouseExitText   300909d0 f   ui_shared.obj
 0001:0008f9f0       _ItemParse_action          300909f0 f   ui_shared.obj
 0001:0008fa10       _ItemParse_cvarTest        30090a10 f   ui_shared.obj
 0001:0008fa30       _ItemParse_cvar            30090a30 f   ui_shared.obj
 0001:0008fab0       _ItemParse_font            30090ab0 f   ui_shared.obj
 0001:0008fae0       _ItemParse_maxChars        30090ae0 f   ui_shared.obj
 0001:0008fb30       _ItemParse_maxPaintChars   30090b30 f   ui_shared.obj
 0001:0008fb80       _ItemParse_maxLineChars    30090b80 f   ui_shared.obj
 0001:0008fbd0       _ItemParse_lineHeight      30090bd0 f   ui_shared.obj
 0001:0008fc20       _ItemParse_cvarInt         30090c20 f   ui_shared.obj
 0001:0008fcb0       _ItemParse_cvarFloat       30090cb0 f   ui_shared.obj
 0001:0008fd20       _ItemParse_cvarStrList     30090d20 f   ui_shared.obj
 0001:0008fe70       _ItemParse_cvarFloatList   30090e70 f   ui_shared.obj
 0001:0008ff60       _ItemParse_addColorRange   30090f60 f   ui_shared.obj
 0001:0008ffe0       _ItemParse_ownerdrawFlag   30090fe0 f   ui_shared.obj
 0001:0008ffe0       _MenuParse_ownerdrawFlag   30090fe0 f   ui_shared.obj
 0001:00090010       _ItemParse_enableCvar      30091010 f   ui_shared.obj
 0001:00090050       _ItemParse_disableCvar     30091050 f   ui_shared.obj
 0001:00090090       _ItemParse_showCvar        30091090 f   ui_shared.obj
 0001:000900d0       _ItemParse_hideCvar        300910d0 f   ui_shared.obj
 0001:00090110       _ItemParse_cvarSubString   30091110 f   ui_shared.obj
 0001:00090130       _ItemParse_Appearance_slot 30091130 f   ui_shared.obj
 0001:00090150       _MenuParse_font            30091150 f   ui_shared.obj
 0001:000901b0       _MenuParse_name            300911b0 f   ui_shared.obj
 0001:000901f0       _MenuParse_fullscreen      300911f0 f   ui_shared.obj
 0001:00090210       _MenuParse_rect            30091210 f   ui_shared.obj
 0001:00090270       _MenuParse_style           30091270 f   ui_shared.obj
 0001:000902b0       _MenuParse_onOpen          300912b0 f   ui_shared.obj
 0001:000902d0       _MenuParse_onClose         300912d0 f   ui_shared.obj
 0001:000902f0       _MenuParse_onAccept        300912f0 f   ui_shared.obj
 0001:00090310       _MenuParse_onESC           30091310 f   ui_shared.obj
 0001:00090330       _MenuParse_backcolor       30091330 f   ui_shared.obj
 0001:000903e0       _MenuParse_descAlignment   300913e0 f   ui_shared.obj
 0001:00090420       _MenuParse_descX           30091420 f   ui_shared.obj
 0001:00090440       _MenuParse_descY           30091440 f   ui_shared.obj
 0001:00090460       _MenuParse_descScale       30091460 f   ui_shared.obj
 0001:00090480       _MenuParse_descColor       30091480 f   ui_shared.obj
 0001:00090540       _MenuParse_bordercolor     30091540 f   ui_shared.obj
 0001:00090600       _MenuParse_focuscolor      30091600 f   ui_shared.obj
 0001:000906c0       _MenuParse_disablecolor    300916c0 f   ui_shared.obj
 0001:00090780       _MenuParse_ownerdraw       30091780 f   ui_shared.obj
 0001:000907a0       _MenuParse_popup           300917a0 f   ui_shared.obj
 0001:000907c0       _MenuParse_outOfBounds     300917c0 f   ui_shared.obj
 0001:000907e0       _MenuParse_fadeClamp       300917e0 f   ui_shared.obj
 0001:00090800       _MenuParse_itemDef         30091800 f   ui_shared.obj
 0001:00090a20       _MenuParse_appearanceIncrement 30091a20 f   ui_shared.obj
 0001:00090a40       _BindingIDFromName         30091a40 f   ui_shared.obj
 0001:00090a80       _Controls_SetConfig        30091a80 f   ui_shared.obj
 0001:00090ad0       _Display_CaptureItem       30091ad0 f   ui_shared.obj
 0001:00090c40       _Display_CursorType        30091c40 f   ui_shared.obj
 0001:00090cd0       _Display_HandleKey         30091cd0 f   ui_shared.obj
 0001:00090d60       _Display_MouseMove         30091d60 f   ui_shared.obj
 0001:00090e60       _Float_Parse               30091e60 f   ui_shared.obj
 0001:00090ea0       _Init_Display              30091ea0 f   ui_shared.obj
 0001:00090eb0       _Int_Parse                 30091eb0 f   ui_shared.obj
 0001:00090ef0       _Item_Bind_HandleKey       30091ef0 f   ui_shared.obj
 0001:000911b0       _Item_EnableShowViaCvar    300921b0 f   ui_shared.obj
 0001:00091310       _Item_HandleKey            30092310 f   ui_shared.obj
 0001:000916d0       _Item_ListBox_HandleKey    300926d0 f   ui_shared.obj
 0001:00091b60       _Item_ListBox_MaxScroll    30092b60 f   ui_shared.obj
 0001:00091bd0       _Item_ListBox_MouseEnter   30092bd0 f   ui_shared.obj
 0001:00091dc0       _Item_ListBox_OverLB       30092dc0 f   ui_shared.obj
 0001:000921d0       _Item_ListBox_ThumbPosition 300931d0 f   ui_shared.obj
 0001:00092310       _Item_MouseEnter           30093310 f   ui_shared.obj
 0001:000924d0       _Item_Multi_HandleKey      300934d0 f   ui_shared.obj
 0001:00092740       _Item_RunScript            30093740 f   ui_shared.obj
 0001:00092820       _Item_SetFocus             30093820 f   ui_shared.obj
 0001:00092950       _Item_SetScreenCoords      30093950 f   ui_shared.obj
 0001:000929e0       _Item_Slider_ThumbPosition 300939e0 f   ui_shared.obj
 0001:00092a90       _Item_StartCapture         30093a90 f   ui_shared.obj
 0001:00092d40       _Item_TextField_HandleKey  30093d40 f   ui_shared.obj
 0001:00093790       _Item_TextScroll_HandleKey 30094790 f   ui_shared.obj
 0001:00093920       _Item_TextScroll_OverLB    30094920 f   ui_shared.obj
 0001:00093b00       _Item_ValidateTypeData     30094b00 f   ui_shared.obj
 0001:00093c10       _KeywordHash_Key           30094c10 f   ui_shared.obj
 0001:00093c60       _Leaving_EditField         30094c60 f   ui_shared.obj
 0001:00093c90       _Menu_ClearFocus           30094c90 f   ui_shared.obj
 0001:00093de0       _Menu_FindItemByName       30094de0 f   ui_shared.obj
 0001:00093e40       _Menu_GetFocused           30094e40 f   ui_shared.obj
 0001:00093e80       _Menu_GetMatchingItemByNumber 30094e80 f   ui_shared.obj
 0001:00093f00       _Menu_HandleKey            30094f00 f   ui_shared.obj
 0001:00094520       _Menu_HandleMouseMove      30095520 f   ui_shared.obj
 0001:00094740       _Menu_ItemsMatchingGroup   30095740 f   ui_shared.obj
 0001:000947c0       _Menu_New                  300957c0 f   ui_shared.obj
 0001:000949b0       _Menu_Reset                300959b0 f   ui_shared.obj
 0001:000949c0       _Menu_ScrollFeeder         300959c0 f   ui_shared.obj
 0001:00094a30       _Menu_SetFeederSelection   30095a30 f   ui_shared.obj
 0001:00094b00       _Menu_SetItemText          30095b00 f   ui_shared.obj
 0001:00095190       _Menu_SetNextCursorItem    30096190 f   ui_shared.obj
 0001:00095280       _Menu_SetPrevCursorItem    30096280 f   ui_shared.obj
 0001:00095370       _Menu_ShowItemByName       30096370 f   ui_shared.obj
 0001:000953f0       _Menu_TransitionItemByName 300963f0 f   ui_shared.obj
 0001:00095500       _Menu_UpdatePosition       30096500 f   ui_shared.obj
 0001:00095600       _Menus_Activate            30096600 f   ui_shared.obj
 0001:00095670       _Menus_CloseByName         30096670 f   ui_shared.obj
 0001:000956f0       _Menus_FindByName          300966f0 f   ui_shared.obj
 0001:00095740       _Menus_HandleOOBClick      30096740 f   ui_shared.obj
 0001:00095a90       _PC_Color_Parse            30096a90 f   ui_shared.obj
 0001:00095b30       _PC_Float_Parse            30096b30 f   ui_shared.obj
 0001:00095bd0       _PC_Int_Parse              30096bd0 f   ui_shared.obj
 0001:00095c60       _PC_Script_Parse           30096c60 f   ui_shared.obj
 0001:00095ea0       _PC_SourceError            30096ea0 f   ui_shared.obj
 0001:00095f10       _PC_String_Parse           30096f10 f   ui_shared.obj
 0001:00095f80       _Rect_Parse                30096f80 f   ui_shared.obj
 0001:000965a0       _String_Alloc              300975a0 f   ui_shared.obj
 0001:000966f0       _String_Init               300976f0 f   ui_shared.obj
 0001:00096890       _String_Parse              30097890 f   ui_shared.obj
 0001:000968d0       _UI_Alloc                  300978d0 f   ui_shared.obj
 0001:00096930       _UI_CleanupGhoul2          30097930 f   ui_shared.obj
 0001:00096970       _G_SetWalkerVehicleFunctions 30097970 f   WalkerNPC.obj
 0001:00096da0       __ftol2_sse                30097da0 f   LIBCMT:ftol2.obj
 0001:00096db0       __ftoi2                    30097db0 f   LIBCMT:ftol2.obj
 0001:00096e30       __alloca_probe             30097e30 f   LIBCMT:chkstk.obj
 0001:00096e30       __chkstk                   30097e30 f   LIBCMT:chkstk.obj
 0001:000971a8       __DllMainCRTStartup@12     300981a8 f   LIBCMT:dll_dllmain.obj
 0001:000971cb       ___isa_available_init      300981cb f   LIBCMT:cpu_disp.obj
 0001:00097532       ___security_init_cookie    30098532 f   LIBCMT:gs_support.obj
 0001:0009757d       _DllMain@12                3009857d f   LIBCMT:dll_dllmain_stub.obj
 0001:00097583       ?__scrt_initialize_type_info@@YAXXZ 30098583 f   LIBCMT:tncleanup.obj
 0001:0009758f       ?__scrt_uninitialize_type_info@@YAXXZ 3009858f f   LIBCMT:tncleanup.obj
 0001:0009759b       ___scrt_initialize_default_local_stdio_options 3009859b f   LIBCMT:default_local_stdio_options.obj
 0001:000975fa       ___scrt_acquire_startup_lock 300985fa f   LIBCMT:utility.obj
 0001:0009762c       ___scrt_dllmain_after_initialize_c 3009862c f   LIBCMT:utility.obj
 0001:00097657       ___scrt_dllmain_before_initialize_c 30098657 f   LIBCMT:utility.obj
 0001:00097665       ___scrt_dllmain_crt_thread_attach 30098665 f   LIBCMT:utility.obj
 0001:00097684       ___scrt_dllmain_crt_thread_detach 30098684 f   LIBCMT:utility.obj
 0001:00097691       ___scrt_dllmain_exception_filter 30098691 f   LIBCMT:utility.obj
 0001:000976c5       ___scrt_dllmain_uninitialize_c 300986c5 f   LIBCMT:utility.obj
 0001:000976e8       ___scrt_dllmain_uninitialize_critical 300986e8 f   LIBCMT:utility.obj
 0001:000976f5       ___scrt_initialize_crt     300986f5 f   LIBCMT:utility.obj
 0001:0009772e       ___scrt_initialize_onexit_tables 3009872e f   LIBCMT:utility.obj
 0001:000977b5       ___scrt_is_nonwritable_in_current_image 300987b5 f   LIBCMT:utility.obj
 0001:0009784c       ___scrt_release_startup_lock 3009884c f   LIBCMT:utility.obj
 0001:00097869       ___scrt_uninitialize_crt   30098869 f   LIBCMT:utility.obj
 0001:00097891       ___scrt_get_dyn_tls_init_callback 30098891 f   LIBCMT:dyn_tls_init.obj
 0001:00097897       ___scrt_fastfail           30098897 f   LIBCMT:utility_desktop.obj
 0001:000979ac       __crt_debugger_hook        300989ac f   LIBCMT:utility_desktop.obj
 0001:000979b7       __RTC_Initialize           300989b7 f   LIBCMT:initsect.obj
 0001:000979e3       __RTC_Terminate            300989e3 f   LIBCMT:initsect.obj
 0001:00097a10       __SEH_prolog4              30098a10 f   LIBCMT:sehprolg4.obj
 0001:00097a55       __get_startup_argv_mode    30098a55 f   LIBCMT:argv_mode.obj
 0001:00097a59       ___scrt_is_ucrt_dll_in_use 30098a59 f   LIBCMT:ucrt_detection.obj
 0001:00097a65       @__security_check_cookie@4 30098a65 f   LIBCMT:secchk.obj
 0001:00097a73       ___raise_securityfailure   30098a73 f   LIBCMT:gs_report.obj
 0001:00097a9b       ___report_gsfailure        30098a9b f   LIBCMT:gs_report.obj
 0001:00097ba0       _memset                    30098ba0 f   libvcruntime:memset.obj
 0001:00097d00       _strstr                    30098d00 f   libvcruntime:strstr.obj
 0001:00097f70       _memcpy                    30098f70 f   libvcruntime:memcpy.obj
 0001:00097f70       _memmove                   30098f70 f   libvcruntime:memmove.obj
 0001:000984f0       _strchr                    300994f0 f   libvcruntime:strchr.obj
 0001:0009855e       ___from_strstr_to_strchr   3009955e     libvcruntime:strchr.obj
 0001:00098620       _strrchr                   30099620 f   libvcruntime:strrchr.obj
 0001:000987a0       __except_handler4          300997a0 f   libvcruntime:chandler4.obj
 0001:000988fe       ___std_type_info_compare   300998fe f   libvcruntime:std_type_info.obj
 0001:0009893a       ___std_type_info_destroy_list 3009993a f   libvcruntime:std_type_info.obj
 0001:0009895d       ___vcrt_initialize         3009995d f   libvcruntime:initialization.obj
 0001:0009897c       ___vcrt_thread_attach      3009997c f   libvcruntime:initialization.obj
 0001:00098987       ___vcrt_thread_detach      30099987 f   libvcruntime:initialization.obj
 0001:0009898f       ___vcrt_uninitialize       3009998f f   libvcruntime:initialization.obj
 0001:000989a6       ___vcrt_uninitialize_critical 300999a6 f   libvcruntime:initialization.obj
 0001:000989ae       ___DestructExceptionObject 300999ae f   libvcruntime:ehhelpers.obj
 0001:00098a56       ?_CallMemberFunction0@@YGXQAX0@Z 30099a56 f i libvcruntime:ehhelpers.obj
 0001:00098abb       __IsExceptionObjectToBeDestroyed 30099abb f   libvcruntime:ehhelpers.obj
 0001:00098ae1       ___AdjustPointer           30099ae1 f   libvcruntime:ehhelpers.obj
 0001:00098b06       ___FrameUnwindFilter       30099b06 f   libvcruntime:ehhelpers.obj
 0001:00098b5c       ___std_terminate           30099b5c f   libvcruntime:ehhelpers.obj
 0001:00098b70       __local_unwind4            30099b70 f   libvcruntime:exsup4.obj
 0001:00098c60       @_EH4_CallFilterFunc@8     30099c60 f   libvcruntime:exsup4.obj
 0001:00098c80       @_EH4_TransferToHandler@8  30099c80 f   libvcruntime:exsup4.obj
 0001:00098ca0       @_EH4_GlobalUnwind2@8      30099ca0 f   libvcruntime:exsup4.obj
 0001:00098cc0       @_EH4_LocalUnwind@16       30099cc0 f   libvcruntime:exsup4.obj
 0001:00098cd7       ___except_validate_context_record 30099cd7 f   libvcruntime:jbcxrval.obj
 0001:00098d07       ___vcrt_freefls@4          30099d07 f   libvcruntime:per_thread_data.obj
 0001:00098d23       ___vcrt_freeptd_for_this_thread 30099d23 f   libvcruntime:per_thread_data.obj
 0001:00098d4e       ___vcrt_getptd             30099d4e f   libvcruntime:per_thread_data.obj
 0001:00098d5c       ___vcrt_getptd_noexit      30099d5c f   libvcruntime:per_thread_data.obj
 0001:00098dee       ___vcrt_initialize_ptd     30099dee f   libvcruntime:per_thread_data.obj
 0001:00098e21       ___vcrt_uninitialize_ptd   30099e21 f   libvcruntime:per_thread_data.obj
 0001:00098e3f       ___vcrt_initialize_locks   30099e3f f   libvcruntime:locks.obj
 0001:00098e7b       ___vcrt_uninitialize_locks 30099e7b f   libvcruntime:locks.obj
 0001:00098eb0       __NLG_Notify1              30099eb0 f   libvcruntime:exsup.obj
 0001:00098ec0       __NLG_Notify               30099ec0 f   libvcruntime:exsup.obj
 0001:00098ed7       __NLG_Dispatch             30099ed7     libvcruntime:exsup.obj
 0001:00098ed7       __NLG_Dispatch2            30099ed7     libvcruntime:exsup.obj
 0001:00098ee0       __NLG_Call                 30099ee0 f   libvcruntime:exsup.obj
 0001:00098ee2       __NLG_Return2              30099ee2     libvcruntime:exsup.obj
 0001:00098ee3       ?GetRangeOfTrysToCheck@__FrameHandler3@@SA?AU?$pair@Viterator@TryBlockMap@__FrameHandler3@@V123@@std@@AAVTryBlockMap@1@HPAXPBU_s_FuncInfo@@H@Z 30099ee3 f   libvcruntime:trnsctrl.obj
 0001:00098f52       ?_CallCatchBlock2@@YAPAXPAUEHRegistrationNode@@PBU_s_FuncInfo@@PAXHK@Z 30099f52 f   libvcruntime:trnsctrl.obj
 0001:00098fb2       ?_CallSETranslator@@YAHPAUEHExceptionRecord@@PAUEHRegistrationNode@@PAX2PBU_s_FuncInfo@@H1@Z 30099fb2 f   libvcruntime:trnsctrl.obj
 0001:000990b1       ?_JumpToContinuation@@YGXPAXPAUEHRegistrationNode@@@Z 3009a0b1 f   libvcruntime:trnsctrl.obj
 0001:000990e1       ?_UnwindNestedFrames@@YGXPAUEHRegistrationNode@@PAUEHExceptionRecord@@@Z 3009a0e1 f   libvcruntime:trnsctrl.obj
 0001:00099135       __CatchGuardHandler        3009a135 f   libvcruntime:trnsctrl.obj
 0001:00099166       __CreateFrameInfo          3009a166 f   libvcruntime:trnsctrl.obj
 0001:0009918a       __FindAndUnlinkFrame       3009a18a f   libvcruntime:trnsctrl.obj
 0001:000991d2       __TranslatorGuardHandler   3009a1d2 f   libvcruntime:trnsctrl.obj
 0001:00099271       ___CxxFrameHandler3        3009a271 f   libvcruntime:trnsctrl.obj
 0001:00099392       ___vcrt_FlsAlloc           3009a392 f   libvcruntime:winapi_downlevel.obj
 0001:000993cd       ___vcrt_FlsFree            3009a3cd f   libvcruntime:winapi_downlevel.obj
 0001:00099408       ___vcrt_FlsGetValue        3009a408 f   libvcruntime:winapi_downlevel.obj
 0001:00099443       ___vcrt_FlsSetValue        3009a443 f   libvcruntime:winapi_downlevel.obj
 0001:00099481       ___vcrt_InitializeCriticalSectionEx 3009a481 f   libvcruntime:winapi_downlevel.obj
 0001:00099bfc       ??$TypeMatchHelper@V__FrameHandler3@@@@YAHPBU_s_HandlerType@@PBU_s_CatchableType@@PBU_s_ThrowInfo@@@Z 3009abfc f i libvcruntime:frame.obj
 0001:00099c8a       ??$__InternalCxxFrameHandler@V__FrameHandler3@@@@YA?AW4_EXCEPTION_DISPOSITION@@PAUEHExceptionRecord@@PAUEHRegistrationNode@@PAU_CONTEXT@@PAXPBU_s_FuncInfo@@H1E@Z 3009ac8a f i libvcruntime:frame.obj
 0001:00099d8c       ??$__InternalCxxFrameHandlerWrapper@V__FrameHandler3@@@@YA?AW4_EXCEPTION_DISPOSITION@@PAUEHExceptionRecord@@PAUEHRegistrationNode@@PAU_CONTEXT@@PAXPBU_s_FuncInfo@@H1E@Z 3009ad8c f i libvcruntime:frame.obj
 0001:00099d95       ??0bad_exception@std@@QAE@ABV01@@Z 3009ad95 f i libvcruntime:frame.obj
 0001:00099db0       ??0bad_exception@std@@QAE@XZ 3009adb0 f i libvcruntime:frame.obj
 0001:00099dce       ??0exception@std@@QAE@ABV01@@Z 3009adce f i libvcruntime:frame.obj
 0001:00099e00       ??1bad_exception@std@@UAE@XZ 3009ae00 f i libvcruntime:frame.obj
 0001:00099e11       ??8type_info@@QBE_NABV0@@Z 3009ae11 f i libvcruntime:frame.obj
 0001:00099e30       ??_Ebad_exception@std@@UAEPAXI@Z 3009ae30 f i libvcruntime:frame.obj
 0001:00099e30       ??_Eexception@std@@UAEPAXI@Z 3009ae30 f i libvcruntime:frame.obj
 0001:00099e30       ??_Gbad_exception@std@@UAEPAXI@Z 3009ae30 f i libvcruntime:frame.obj
 0001:00099e30       ??_Gexception@std@@UAEPAXI@Z 3009ae30 f i libvcruntime:frame.obj
 0001:0009a0b8       ?FrameUnwindToEmptyState@__FrameHandler3@@SAXPAUEHRegistrationNode@@PAXPBU_s_FuncInfo@@@Z 3009b0b8 f   libvcruntime:frame.obj
 0001:0009a0d0       ?FrameUnwindToState@__FrameHandler3@@SAXPAUEHRegistrationNode@@PAXPBU_s_FuncInfo@@H@Z 3009b0d0 f   libvcruntime:frame.obj
 0001:0009a258       ?_CallMemberFunction1@@YGXQAX00@Z 3009b258 f i libvcruntime:frame.obj
 0001:0009a268       ?_CallMemberFunction2@@YGXQAX00H@Z 3009b268 f i libvcruntime:frame.obj
 0001:0009a27b       ?getESTypes@__FrameHandler3@@SAPBU_s_ESTypeList@@PBU_s_FuncInfo@@@Z 3009b27b f i libvcruntime:frame.obj
 0001:0009a286       ?what@exception@std@@UBEPBDXZ 3009b286 f i libvcruntime:frame.obj
 0001:0009a2a0       __CallSettingFrame@12      3009b2a0 f   libvcruntime:lowhelpr.obj
 0001:0009a2c7       __NLG_Return               3009b2c7     libvcruntime:lowhelpr.obj
 0001:0009a2ec       _unexpected                3009b2ec f   libvcruntime:unexpected.obj
 0001:0009a309       ?GetCurrentState@__FrameHandler3@@SAHPAUEHRegistrationNode@@PAXPBU_s_FuncInfo@@@Z 3009b309 f   libvcruntime:ehstate.obj
 0001:0009a326       ?SetState@__FrameHandler3@@SAXPAUEHRegistrationNode@@PBU_s_FuncInfo@@H@Z 3009b326 f   libvcruntime:ehstate.obj
 0001:0009a334       ___std_exception_copy      3009b334 f   libvcruntime:std_exception.obj
 0001:0009a397       ___std_exception_destroy   3009b397 f   libvcruntime:std_exception.obj
 0001:0009a3b9       __CxxThrowException@8      3009b3b9 f   libvcruntime:throw.obj
 0001:0009a426       ??$assemble_floating_point_snan@N@__crt_strtox@@YAX_NAAN@Z 3009b426 f i libucrt:atof.obj
 0001:0009a447       ??$assemble_floating_point_value_t@M@__crt_strtox@@YA?AW4SLD_STATUS@@_NH_KAAM@Z 3009b447 f i libucrt:atof.obj
 0001:0009a486       ??$assemble_floating_point_value_t@N@__crt_strtox@@YA?AW4SLD_STATUS@@_NH_KAAN@Z 3009b486 f i libucrt:atof.obj
 0001:0009a539       ??$convert_decimal_string_to_floating_type@M@__crt_strtox@@YA?AW4SLD_STATUS@@ABUfloating_point_string@0@AAM@Z 3009b539 f i libucrt:atof.obj
 0001:0009a55a       ??$convert_decimal_string_to_floating_type@N@__crt_strtox@@YA?AW4SLD_STATUS@@ABUfloating_point_string@0@AAN@Z 3009b55a f i libucrt:atof.obj
 0001:0009a57b       ??$convert_hexadecimal_string_to_floating_type@M@__crt_strtox@@YA?AW4SLD_STATUS@@ABUfloating_point_string@0@AAM@Z 3009b57b f i libucrt:atof.obj
 0001:0009a59c       ??$convert_hexadecimal_string_to_floating_type@N@__crt_strtox@@YA?AW4SLD_STATUS@@ABUfloating_point_string@0@AAN@Z 3009b59c f i libucrt:atof.obj
 0001:0009a5bd       ??$parse_floating_point@V?$c_string_character_source@D@__crt_strtox@@N@__crt_strtox@@YA?AW4SLD_STATUS@@QAU__crt_locale_pointers@@V?$c_string_character_source@D@0@QAN@Z 3009b5bd f i libucrt:atof.obj
 0001:0009a63d       ??$parse_floating_point_from_source@V?$c_string_character_source@D@__crt_strtox@@@__crt_strtox@@YA?AW4floating_point_parse_result@0@QAU__crt_locale_pointers@@AAV?$c_string_character_source@D@0@AAUfloating_point_string@0@@Z 3009b63d f i libucrt:atof.obj
 0001:0009aa65       ??$parse_floating_point_possible_infinity@DV?$c_string_character_source@D@__crt_strtox@@PBD@__crt_strtox@@YA?AW4floating_point_parse_result@0@AADAAV?$c_string_character_source@D@0@PBD@Z 3009ba65 f i libucrt:atof.obj
 0001:0009ab17       ??$parse_floating_point_possible_nan@DV?$c_string_character_source@D@__crt_strtox@@PBD@__crt_strtox@@YA?AW4floating_point_parse_result@0@AADAAV?$c_string_character_source@D@0@PBD@Z 3009bb17 f i libucrt:atof.obj
 0001:0009ac1b       ??$parse_floating_point_possible_nan_is_ind@DV?$c_string_character_source@D@__crt_strtox@@@__crt_strtox@@YA_NAADAAV?$c_string_character_source@D@0@@Z 3009bc1b f i libucrt:atof.obj
 0001:0009ac57       ??$parse_floating_point_possible_nan_is_snan@DV?$c_string_character_source@D@__crt_strtox@@@__crt_strtox@@YA_NAADAAV?$c_string_character_source@D@0@@Z 3009bc57 f i libucrt:atof.obj
 0001:0009ac93       ??$parse_floating_point_write_result@M@__crt_strtox@@YA?AW4SLD_STATUS@@W4floating_point_parse_result@0@ABUfloating_point_string@0@QAM@Z 3009bc93 f i libucrt:atof.obj
 0001:0009addb       ??$parse_floating_point_write_result@N@__crt_strtox@@YA?AW4SLD_STATUS@@W4floating_point_parse_result@0@ABUfloating_point_string@0@QAN@Z 3009bddb f i libucrt:atof.obj
 0001:0009aeff       ??0_LocaleUpdate@@QAE@QAU__crt_locale_pointers@@@Z 3009beff f i libucrt:atof.obj
 0001:0009af81       ??R<lambda_32aa245da1b5b882fa96db788295c8b2>@@QBE@XZ 3009bf81 f i libucrt:atof.obj
 0001:0009af81       ??R<lambda_690cf26ff5d754c94c32cf642e9f01bc>@@QBE@XZ 3009bf81 f i libucrt:atof.obj
 0001:0009af81       ??R<lambda_e51f7abad2595a5950d3223319845217>@@QBE@XZ 3009bf81 f i libucrt:atof.obj
 0001:0009afa7       ?as_double@floating_point_value@__crt_strtox@@QBEAANXZ 3009bfa7 f i libucrt:atof.obj
 0001:0009afcc       ?as_float@floating_point_value@__crt_strtox@@QBEAAMXZ 3009bfcc f i libucrt:atof.obj
 0001:0009aff1       ?assemble_floating_point_infinity@__crt_strtox@@YAX_NABVfloating_point_value@1@@Z 3009bff1 f i libucrt:atof.obj
 0001:0009b031       ?assemble_floating_point_value@__crt_strtox@@YA?AW4SLD_STATUS@@_KH_N1ABVfloating_point_value@1@@Z 3009c031 f i libucrt:atof.obj
 0001:0009b3ca       ?assemble_floating_point_value_from_big_integer@__crt_strtox@@YA?AW4SLD_STATUS@@ABUbig_integer@1@I_N1ABVfloating_point_value@1@@Z 3009c3ca f i libucrt:atof.obj
 0001:0009b567       ?assemble_floating_point_zero@__crt_strtox@@YAX_NABVfloating_point_value@1@@Z 3009c567 f i libucrt:atof.obj
 0001:0009b59c       ?convert_decimal_string_to_floating_type_common@__crt_strtox@@YA?AW4SLD_STATUS@@ABUfloating_point_string@1@ABVfloating_point_value@1@@Z 3009c59c f i libucrt:atof.obj
 0001:0009d29b       ?convert_hexadecimal_string_to_floating_type_common@__crt_strtox@@YA?AW4SLD_STATUS@@ABUfloating_point_string@1@ABVfloating_point_value@1@@Z 3009e29b f i libucrt:atof.obj
 0001:0009d34c       ?denormal_mantissa_mask@floating_point_value@__crt_strtox@@QBE_KXZ 3009e34c f i libucrt:atof.obj
 0001:0009d370       ?divide@__crt_strtox@@YA_KAAUbig_integer@1@ABU21@@Z 3009e370 f i libucrt:atof.obj
 0001:0009d847       ?normal_mantissa_mask@floating_point_value@__crt_strtox@@QBE_KXZ 3009e847 f i libucrt:atof.obj
 0001:0009d85e       ?unget@?$c_string_character_source@D@__crt_strtox@@QAEXD@Z 3009e85e f i libucrt:atof.obj
 0001:0009d887       ?validate@?$c_string_character_source@D@__crt_strtox@@QBE_NXZ 3009e887 f i libucrt:atof.obj
 0001:0009d8a2       ___acrt_locale_get_ctype_array_value 3009e8a2 f i libucrt:atof.obj
 0001:0009d8c4       __ischartype_l             3009e8c4 f i libucrt:atof.obj
 0001:0009d91b       _atof                      3009e91b f   libucrt:atof.obj
 0001:0009da63       ??$is_overflow_condition@_K@__crt_strtox@@YA_NI_K@Z 3009ea63 f i libucrt:input.obj
 0001:0009daa4       ??$make_input_adapter_character_source@V?$string_input_adapter@D@__crt_stdio_input@@@__crt_strtox@@YA?AV?$input_adapter_character_source@V?$string_input_adapter@D@__crt_stdio_input@@@0@QAV?$string_input_adapter@D@__crt_stdio_input@@_KQA_N@Z 3009eaa4 f i libucrt:input.obj
 0001:0009dac2       ??$parse_floating_point@V?$input_adapter_character_source@V?$string_input_adapter@D@__crt_stdio_input@@@__crt_strtox@@M@__crt_strtox@@YA?AW4SLD_STATUS@@QAU__crt_locale_pointers@@V?$input_adapter_character_source@V?$string_input_adapter@D@__crt_stdio_input@@@0@QAM@Z 3009eac2 f i libucrt:input.obj
 0001:0009db4c       ??$parse_floating_point@V?$input_adapter_character_source@V?$string_input_adapter@D@__crt_stdio_input@@@__crt_strtox@@N@__crt_strtox@@YA?AW4SLD_STATUS@@QAU__crt_locale_pointers@@V?$input_adapter_character_source@V?$string_input_adapter@D@__crt_stdio_input@@@0@QAN@Z 3009eb4c f i libucrt:input.obj
 0001:0009dbd6       ??$parse_floating_point_from_source@V?$input_adapter_character_source@V?$string_input_adapter@D@__crt_stdio_input@@@__crt_strtox@@@__crt_strtox@@YA?AW4floating_point_parse_result@0@QAU__crt_locale_pointers@@AAV?$input_adapter_character_source@V?$string_input_adapter@D@__crt_stdio_input@@@0@AAUfloating_point_string@0@@Z 3009ebd6 f i libucrt:input.obj
 0001:0009e043       ??$parse_floating_point_possible_infinity@DV?$input_adapter_character_source@V?$string_input_adapter@D@__crt_stdio_input@@@__crt_strtox@@_K@__crt_strtox@@YA?AW4floating_point_parse_result@0@AADAAV?$input_adapter_character_source@V?$string_input_adapter@D@__crt_stdio_input@@@0@_K@Z 3009f043 f i libucrt:input.obj
 0001:0009e0fe       ??$parse_floating_point_possible_nan@DV?$input_adapter_character_source@V?$string_input_adapter@D@__crt_stdio_input@@@__crt_strtox@@_K@__crt_strtox@@YA?AW4floating_point_parse_result@0@AADAAV?$input_adapter_character_source@V?$string_input_adapter@D@__crt_stdio_input@@@0@_K@Z 3009f0fe f i libucrt:input.obj
 0001:0009e206       ??$parse_floating_point_possible_nan_is_ind@DV?$input_adapter_character_source@V?$string_input_adapter@D@__crt_stdio_input@@@__crt_strtox@@@__crt_strtox@@YA_NAADAAV?$input_adapter_character_source@V?$string_input_adapter@D@__crt_stdio_input@@@0@@Z 3009f206 f i libucrt:input.obj
 0001:0009e240       ??$parse_floating_point_possible_nan_is_snan@DV?$input_adapter_character_source@V?$string_input_adapter@D@__crt_stdio_input@@@__crt_strtox@@@__crt_strtox@@YA_NAADAAV?$input_adapter_character_source@V?$string_input_adapter@D@__crt_stdio_input@@@0@@Z 3009f240 f i libucrt:input.obj
 0001:0009e27a       ??$parse_integer@_KV?$input_adapter_character_source@V?$string_input_adapter@D@__crt_stdio_input@@@__crt_strtox@@$00@__crt_strtox@@YA_KAAV__crt_cached_ptd_host@@V?$input_adapter_character_source@V?$string_input_adapter@D@__crt_stdio_input@@@0@H_N@Z 3009f27a f i libucrt:input.obj
 0001:0009e56e       ??$parse_integer@_KV?$input_adapter_character_source@V?$string_input_adapter@D@__crt_stdio_input@@@__crt_strtox@@@__crt_strtox@@YA_KQAU__crt_locale_pointers@@V?$input_adapter_character_source@V?$string_input_adapter@D@__crt_stdio_input@@@0@H_N@Z 3009f56e f i libucrt:input.obj
 0001:0009e5ca       ??$process_floating_point_specifier_t@M@?$input_processor@DV?$string_input_adapter@D@__crt_stdio_input@@@__crt_stdio_input@@AAE_NXZ 3009f5ca f i libucrt:input.obj
 0001:0009e632       ??$process_floating_point_specifier_t@N@?$input_processor@DV?$string_input_adapter@D@__crt_stdio_input@@@__crt_stdio_input@@AAE_NXZ 3009f632 f i libucrt:input.obj
 0001:0009e69e       ??$process_string_specifier_tchar@D@?$input_processor@DV?$string_input_adapter@D@__crt_stdio_input@@@__crt_stdio_input@@AAE_NW4conversion_mode@1@D@Z 3009f69e f i libucrt:input.obj
 0001:0009e80a       ??$process_string_specifier_tchar@_W@?$input_processor@DV?$string_input_adapter@D@__crt_stdio_input@@@__crt_stdio_input@@AAE_NW4conversion_mode@1@_W@Z 3009f80a f i libucrt:input.obj
 0001:0009e982       ??$skip_whitespace@Vstring_input_adapter@__crt_stdio_input@@D@__crt_stdio_input@@YAHAAV?$string_input_adapter@D@0@QAU__crt_locale_pointers@@@Z 3009f982 f i libucrt:input.obj
 0001:0009e9b1       ??$write_floating_point@M@?$input_processor@DV?$string_input_adapter@D@__crt_stdio_input@@@__crt_stdio_input@@AAE_NABM@Z 3009f9b1 f i libucrt:input.obj
 0001:0009e9e6       ??$write_floating_point@N@?$input_processor@DV?$string_input_adapter@D@__crt_stdio_input@@@__crt_stdio_input@@AAE_NABN@Z 3009f9e6 f i libucrt:input.obj
 0001:0009ea21       ??0?$format_string_parser@D@__crt_stdio_input@@QAE@_KQBE@Z 3009fa21 f i libucrt:input.obj
 0001:0009ea6b       ??0?$input_adapter_character_source@V?$string_input_adapter@D@__crt_stdio_input@@@__crt_strtox@@QAE@$$QAV01@@Z 3009fa6b f i libucrt:input.obj
 0001:0009eaa8       ??0?$input_adapter_character_source@V?$string_input_adapter@D@__crt_stdio_input@@@__crt_strtox@@QAE@QAV?$string_input_adapter@D@__crt_stdio_input@@_KQA_N@Z 3009faa8 f i libucrt:input.obj
 0001:0009ead9       ??0?$input_processor@DV?$string_input_adapter@D@__crt_stdio_input@@@__crt_stdio_input@@QAE@ABV?$string_input_adapter@D@1@_KQBDQAU__crt_locale_pointers@@QAD@Z 3009fad9 f i libucrt:input.obj
 0001:0009eb20       ??0__crt_cached_ptd_host@@QAE@QAU__crt_locale_pointers@@@Z 3009fb20 f i libucrt:input.obj
 0001:0009eb80       ??1__crt_cached_ptd_host@@QAE@XZ 3009fb80 f i libucrt:input.obj
 0001:0009ebbc       ??R<lambda_644f8ab42ed3fd1d660977a2364b3a7d>@@QBE@XZ 3009fbbc f i libucrt:input.obj
 0001:0009ebbc       ??R<lambda_f1fa4c266c18b246f3ed9c36247dab4f>@@QBE@XZ 3009fbbc f i libucrt:input.obj
 0001:0009ebbc       ??R<lambda_f765c90ab33e8386abf09c0f079d37e9>@@QBE@XZ 3009fbbc f i libucrt:input.obj
 0001:0009ebe6       ?advance@?$format_string_parser@D@__crt_stdio_input@@QAE_NXZ 3009fbe6 f i libucrt:input.obj
 0001:0009ed00       ?force_synchronize_per_thread_data@__crt_cached_ptd_host@@AAEPAU__acrt_ptd@@XZ 3009fd00 f i libucrt:input.obj
 0001:0009ed4d       ?get@?$input_adapter_character_source@V?$string_input_adapter@D@__crt_stdio_input@@@__crt_strtox@@QAEDXZ 3009fd4d f i libucrt:input.obj
 0001:0009ed8e       ?get@?$string_input_adapter@D@__crt_stdio_input@@QAEHXZ 3009fd8e f i libucrt:input.obj
 0001:0009edb0       ?get_raw_ptd@__crt_cached_ptd_host@@QAEPAU__acrt_ptd@@XZ 3009fdb0 f i libucrt:input.obj
 0001:0009ee0c       ?is_character_allowed_in_string@?$input_processor@DV?$string_input_adapter@D@__crt_stdio_input@@@__crt_stdio_input@@ABE_NW4conversion_mode@2@H@Z 3009fe0c f i libucrt:input.obj
 0001:0009ee5c       ?length@?$format_string_parser@D@__crt_stdio_input@@QBEIXZ 3009fe5c f i libucrt:input.obj
 0001:0009eeaa       ?process@?$input_processor@DV?$string_input_adapter@D@__crt_stdio_input@@@__crt_stdio_input@@QAEHXZ 3009feaa f i libucrt:input.obj
 0001:0009ef2f       ?process_character_count_specifier@?$input_processor@DV?$string_input_adapter@D@__crt_stdio_input@@@__crt_stdio_input@@AAE_NXZ 3009ff2f f i libucrt:input.obj
 0001:0009ef47       ?process_conversion_specifier@?$input_processor@DV?$string_input_adapter@D@__crt_stdio_input@@@__crt_stdio_input@@AAE_NXZ 3009ff47 f i libucrt:input.obj
 0001:0009efbb       ?process_floating_point_specifier@?$input_processor@DV?$string_input_adapter@D@__crt_stdio_input@@@__crt_stdio_input@@AAE_NXZ 3009ffbb f i libucrt:input.obj
 0001:0009efeb       ?process_integer_specifier@?$input_processor@DV?$string_input_adapter@D@__crt_stdio_input@@@__crt_stdio_input@@AAE_NI_N@Z 3009ffeb f i libucrt:input.obj
 0001:0009f050       ?process_literal_character@?$input_processor@DV?$string_input_adapter@D@__crt_stdio_input@@@__crt_stdio_input@@AAE_NXZ 300a0050 f i libucrt:input.obj
 0001:0009f086       ?process_literal_character_tchar@?$input_processor@DV?$string_input_adapter@D@__crt_stdio_input@@@__crt_stdio_input@@AAE_ND@Z 300a0086 f i libucrt:input.obj
 0001:0009f0d4       ?process_state@?$input_processor@DV?$string_input_adapter@D@__crt_stdio_input@@@__crt_stdio_input@@AAE_NXZ 300a00d4 f i libucrt:input.obj
 0001:0009f116       ?process_string_specifier@?$input_processor@DV?$string_input_adapter@D@__crt_stdio_input@@@__crt_stdio_input@@AAE_NW4conversion_mode@2@@Z 300a0116 f i libucrt:input.obj
 0001:0009f15e       ?process_whitespace@?$input_processor@DV?$string_input_adapter@D@__crt_stdio_input@@@__crt_stdio_input@@AAE_NXZ 300a015e f i libucrt:input.obj
 0001:0009f17b       ?restore_state@?$input_adapter_character_source@V?$string_input_adapter@D@__crt_stdio_input@@@__crt_strtox@@QAE_N_K@Z 300a017b f i libucrt:input.obj
 0001:0009f1a0       ?scan_conversion_specifier@?$format_string_parser@D@__crt_stdio_input@@AAE_NXZ 300a01a0 f i libucrt:input.obj
 0001:0009f31c       ?scan_optional_field_width@?$format_string_parser@D@__crt_stdio_input@@AAE_NXZ 300a031c f i libucrt:input.obj
 0001:0009f3b0       ?scan_optional_length_modifier@?$format_string_parser@D@__crt_stdio_input@@AAEXXZ 300a03b0 f i libucrt:input.obj
 0001:0009f4c5       ?scan_optional_literal_character_trail_bytes_tchar@?$format_string_parser@D@__crt_stdio_input@@AAE_ND@Z 300a04c5 f i libucrt:input.obj
 0001:0009f517       ?scan_optional_wide_modifier@?$format_string_parser@D@__crt_stdio_input@@AAEXXZ 300a0517 f i libucrt:input.obj
 0001:0009f535       ?scan_scanset_range@?$format_string_parser@D@__crt_stdio_input@@AAE_NXZ 300a0535 f i libucrt:input.obj
 0001:0009f685       ?set@?$scanset_buffer@E@__crt_stdio_input@@QAEXE@Z 300a0685 f i libucrt:input.obj
 0001:0009f6b0       ?set_wide_for_c_s_or_scanset@?$format_string_parser@D@__crt_stdio_input@@AAEXXZ 300a06b0 f i libucrt:input.obj
 0001:0009f6d1       ?to_floating_point_length@__crt_stdio_input@@YAIW4length_modifier@1@@Z 300a06d1 f i libucrt:input.obj
 0001:0009f6f4       ?to_integer_length@__crt_stdio_input@@YAIW4length_modifier@1@@Z 300a06f4 f i libucrt:input.obj
 0001:0009f747       ?unget@?$input_adapter_character_source@V?$string_input_adapter@D@__crt_stdio_input@@@__crt_strtox@@QAEXD@Z 300a0747 f i libucrt:input.obj
 0001:0009f78e       ?unget@?$string_input_adapter@D@__crt_stdio_input@@QAEXH@Z 300a078e f i libucrt:input.obj
 0001:0009f7b0       ?update_locale_slow@__crt_cached_ptd_host@@AAEXXZ 300a07b0 f i libucrt:input.obj
 0001:0009f80b       ?validate@?$format_string_parser@D@__crt_stdio_input@@QBE_NXZ 300a080b f i libucrt:input.obj
 0001:0009f827       ?validate@?$input_adapter_character_source@V?$string_input_adapter@D@__crt_stdio_input@@@__crt_strtox@@QBE_NXZ 300a0827 f i libucrt:input.obj
 0001:0009f848       ?validate@?$string_input_adapter@D@__crt_stdio_input@@QAE_NXZ 300a0848 f i libucrt:input.obj
 0001:0009f86a       ?write_character@?$input_processor@DV?$string_input_adapter@D@__crt_stdio_input@@@__crt_stdio_input@@AAE_NQA_WIAAPA_WAAID@Z 300a086a f i libucrt:input.obj
 0001:0009f8d7       ?write_integer@?$input_processor@DV?$string_input_adapter@D@__crt_stdio_input@@@__crt_stdio_input@@AAE_N_K@Z 300a08d7 f i libucrt:input.obj
 0001:0009f946       ___stdio_common_vsscanf    300a0946 f   libucrt:input.obj
 0001:0009f96a       ??$is_overflow_condition@K@__crt_strtox@@YA_NIK@Z 300a096a f i libucrt:atox.obj
 0001:0009f99e       ??$parse_integer@KV?$c_string_character_source@D@__crt_strtox@@$00@__crt_strtox@@YAKAAV__crt_cached_ptd_host@@V?$c_string_character_source@D@0@H_N@Z 300a099e f i libucrt:atox.obj
 0001:0009fbe9       ??$parse_integer@_KV?$c_string_character_source@D@__crt_strtox@@$00@__crt_strtox@@YA_KAAV__crt_cached_ptd_host@@V?$c_string_character_source@D@0@H_N@Z 300a0be9 f i libucrt:atox.obj
 0001:0009fe99       _atoi                      300a0e99 f   libucrt:atox.obj
 0001:0009fee0       __CIatan2                  300a0ee0 f   libucrt:87ctriga.obj
 0001:0009fef0       __libm_sse2_cos_precise    300a0ef0 f   libucrt:cos_sse2_precise.obj
 0001:000a00b0       __libm_sse2_sin_precise    300a10b0 f   libucrt:sin_sse2_precise.obj
 0001:000a0280       _free                      300a1280 f   libucrt:free.obj
 0001:000a0290       _malloc                    300a1290 f   libucrt:malloc.obj
 0001:000a02a0       __ceil_no_sse41            300a12a0 f   libucrt:ceil_pentium4.obj
 0001:000a02e0       _ceil                      300a12e0 f   libucrt:ceil_pentium4.obj
 0001:000a0300       __ceil_pentium4            300a1300 f   libucrt:ceil_pentium4.obj
 0001:000a03e0       __floor_no_sse41           300a13e0 f   libucrt:floor_pentium4.obj
 0001:000a0420       _floor                     300a1420 f   libucrt:floor_pentium4.obj
 0001:000a0440       __floor_pentium4           300a1440 f   libucrt:floor_pentium4.obj
 0001:000a0500       __libm_sse2_sqrt_precise   300a1500 f   libucrt:sqrt_sse2_precise.obj
 0001:000a0600       _rand                      300a1600 f   libucrt:rand.obj
 0001:000a0630       _isspace                   300a1630 f   libucrt:_ctype.obj
 0001:000a0828       ??$count@D@formatting_buffer@__crt_stdio_output@@QBEIXZ 300a1828 f i libucrt:output.obj
 0001:000a0840       ??$ensure_buffer_is_big_enough@D@formatting_buffer@__crt_stdio_output@@QAE_NIAAV__crt_cached_ptd_host@@@Z 300a1840 f i libucrt:output.obj
 0001:000a08c0       ??$is_wide_character_specifier@D@__crt_stdio_output@@YA_N_KDW4length_modifier@0@@Z 300a18c0 f i libucrt:output.obj
 0001:000a08f1       ??$make_c_string_character_source@DPAPAD@__crt_strtox@@YA?AV?$c_string_character_source@D@0@QBDQAPAD@Z 300a18f1 f i libucrt:output.obj
 0001:000a090c       ??$parse_integer@KV?$c_string_character_source@D@__crt_strtox@@$0A@@__crt_strtox@@YAKAAV__crt_cached_ptd_host@@V?$c_string_character_source@D@0@H_N@Z 300a190c f i libucrt:output.obj
 0001:000a0b1f       ??$scratch_data@D@formatting_buffer@__crt_stdio_output@@QAEPADXZ 300a1b1f f i libucrt:output.obj
 0001:000a0b3d       ??$type_case_integer@$07@?$output_processor@DV?$string_output_adapter@D@__crt_stdio_output@@V?$standard_base@DV?$string_output_adapter@D@__crt_stdio_output@@@2@@__crt_stdio_output@@AAE_N_N@Z 300a1b3d f i libucrt:output.obj
 0001:000a0cca       ??$type_case_integer@$09@?$output_processor@DV?$string_output_adapter@D@__crt_stdio_output@@V?$standard_base@DV?$string_output_adapter@D@__crt_stdio_output@@@2@@__crt_stdio_output@@AAE_N_N@Z 300a1cca f i libucrt:output.obj
 0001:000a0e57       ??$type_case_integer@$0BA@@?$output_processor@DV?$string_output_adapter@D@__crt_stdio_output@@V?$standard_base@DV?$string_output_adapter@D@__crt_stdio_output@@@2@@__crt_stdio_output@@AAE_N_N@Z 300a1e57 f i libucrt:output.obj
 0001:000a0fe4       ??$type_case_integer_parse_into_buffer@I$07@?$output_processor@DV?$string_output_adapter@D@__crt_stdio_output@@V?$standard_base@DV?$string_output_adapter@D@__crt_stdio_output@@@2@@__crt_stdio_output@@AAEXI_N@Z 300a1fe4 f i libucrt:output.obj
 0001:000a1046       ??$type_case_integer_parse_into_buffer@I$09@?$output_processor@DV?$string_output_adapter@D@__crt_stdio_output@@V?$standard_base@DV?$string_output_adapter@D@__crt_stdio_output@@@2@@__crt_stdio_output@@AAEXI_N@Z 300a2046 f i libucrt:output.obj
 0001:000a10c5       ??$type_case_integer_parse_into_buffer@I$0BA@@?$output_processor@DV?$string_output_adapter@D@__crt_stdio_output@@V?$standard_base@DV?$string_output_adapter@D@__crt_stdio_output@@@2@@__crt_stdio_output@@AAEXI_N@Z 300a20c5 f i libucrt:output.obj
 0001:000a1141       ??$type_case_integer_parse_into_buffer@_K$07@?$output_processor@DV?$string_output_adapter@D@__crt_stdio_output@@V?$standard_base@DV?$string_output_adapter@D@__crt_stdio_output@@@2@@__crt_stdio_output@@AAEX_K_N@Z 300a2141 f i libucrt:output.obj
 0001:000a11b5       ??$type_case_integer_parse_into_buffer@_K$09@?$output_processor@DV?$string_output_adapter@D@__crt_stdio_output@@V?$standard_base@DV?$string_output_adapter@D@__crt_stdio_output@@@2@@__crt_stdio_output@@AAEX_K_N@Z 300a21b5 f i libucrt:output.obj
 0001:000a1247       ??$type_case_integer_parse_into_buffer@_K$0BA@@?$output_processor@DV?$string_output_adapter@D@__crt_stdio_output@@V?$standard_base@DV?$string_output_adapter@D@__crt_stdio_output@@@2@@__crt_stdio_output@@AAEX_K_N@Z 300a2247 f i libucrt:output.obj
 0001:000a12cd       ??0?$output_adapter_data@DV?$string_output_adapter@D@__crt_stdio_output@@@__crt_stdio_output@@IAE@ABV?$string_output_adapter@D@1@_KQBDAAV__crt_cached_ptd_host@@QAD@Z 300a22cd f i libucrt:output.obj
 0001:000a1334       ??1formatting_buffer@__crt_stdio_output@@QAE@XZ 300a2334 f i libucrt:output.obj
 0001:000a134e       ??4?$__crt_unique_heap_ptr@DU__crt_internal_free_policy@@@@QAEAAV0@$$QAV0@@Z 300a234e f i libucrt:output.obj
 0001:000a1372       ?crop_zeroes@__crt_stdio_output@@YAXPADQAU__crt_locale_pointers@@@Z 300a2372 f i libucrt:output.obj
 0001:000a13dc       ?find_next_state@?$output_processor@DV?$string_output_adapter@D@__crt_stdio_output@@V?$standard_base@DV?$string_output_adapter@D@__crt_stdio_output@@@2@@__crt_stdio_output@@ABE?AW4state@2@DW432@@Z 300a23dc f i libucrt:output.obj
 0001:000a1417       ?force_decimal_point@__crt_stdio_output@@YAXPADQAU__crt_locale_pointers@@@Z 300a2417 f i libucrt:output.obj
 0001:000a1479       ?parse_int_from_format_string@?$output_processor@DV?$string_output_adapter@D@__crt_stdio_output@@V?$standard_base@DV?$string_output_adapter@D@__crt_stdio_output@@@2@@__crt_stdio_output@@AAE_NQAH@Z 300a2479 f i libucrt:output.obj
 0001:000a14f1       ?process@?$output_processor@DV?$string_output_adapter@D@__crt_stdio_output@@V?$standard_base@DV?$string_output_adapter@D@__crt_stdio_output@@@2@@__crt_stdio_output@@QAEHXZ 300a24f1 f i libucrt:output.obj
 0001:000a17c5       ?state_case_size@?$output_processor@DV?$string_output_adapter@D@__crt_stdio_output@@V?$standard_base@DV?$string_output_adapter@D@__crt_stdio_output@@@2@@__crt_stdio_output@@AAE_NXZ 300a27c5 f i libucrt:output.obj
 0001:000a191e       ?state_case_type@?$output_processor@DV?$string_output_adapter@D@__crt_stdio_output@@V?$standard_base@DV?$string_output_adapter@D@__crt_stdio_output@@@2@@__crt_stdio_output@@AAE_NXZ 300a291e f i libucrt:output.obj
 0001:000a1d5d       ?to_integer_size@__crt_stdio_output@@YAIW4length_modifier@1@@Z 300a2d5d f i libucrt:output.obj
 0001:000a1db1       ?type_case_Z@?$output_processor@DV?$string_output_adapter@D@__crt_stdio_output@@V?$standard_base@DV?$string_output_adapter@D@__crt_stdio_output@@@2@@__crt_stdio_output@@AAE_NXZ 300a2db1 f i libucrt:output.obj
 0001:000a1e24       ?type_case_a@?$output_processor@DV?$string_output_adapter@D@__crt_stdio_output@@V?$standard_base@DV?$string_output_adapter@D@__crt_stdio_output@@@2@@__crt_stdio_output@@AAE_NXZ 300a2e24 f i libucrt:output.obj
 0001:000a1fdb       ?type_case_c_tchar@?$output_processor@DV?$string_output_adapter@D@__crt_stdio_output@@V?$standard_base@DV?$string_output_adapter@D@__crt_stdio_output@@@2@@__crt_stdio_output@@AAE_ND@Z 300a2fdb f i libucrt:output.obj
 0001:000a2067       ?type_case_n@?$output_processor@DV?$string_output_adapter@D@__crt_stdio_output@@V?$standard_base@DV?$string_output_adapter@D@__crt_stdio_output@@@2@@__crt_stdio_output@@AAE_NXZ 300a3067 f i libucrt:output.obj
 0001:000a20ec       ?type_case_o@?$output_processor@DV?$string_output_adapter@D@__crt_stdio_output@@V?$standard_base@DV?$string_output_adapter@D@__crt_stdio_output@@@2@@__crt_stdio_output@@AAE_NXZ 300a30ec f i libucrt:output.obj
 0001:000a2109       ?type_case_p@?$output_processor@DV?$string_output_adapter@D@__crt_stdio_output@@V?$standard_base@DV?$string_output_adapter@D@__crt_stdio_output@@@2@@__crt_stdio_output@@AAE_NXZ 300a3109 f i libucrt:output.obj
 0001:000a211f       ?type_case_s@?$output_processor@DV?$string_output_adapter@D@__crt_stdio_output@@V?$standard_base@DV?$string_output_adapter@D@__crt_stdio_output@@@2@@__crt_stdio_output@@AAE_NXZ 300a311f f i libucrt:output.obj
 0001:000a2192       ?validate@?$string_output_adapter@D@__crt_stdio_output@@QBE_NAAV__crt_cached_ptd_host@@@Z 300a3192 f i libucrt:output.obj
 0001:000a21c3       ?write_string@?$string_output_adapter@D@__crt_stdio_output@@QBEXQBDHQAHAAV__crt_cached_ptd_host@@@Z 300a31c3 f i libucrt:output.obj
 0001:000a2232       ___stdio_common_vsprintf   300a3232 f   libucrt:output.obj
 0001:000a2280       _strncpy                   300a3280 f   libucrt:strncpy.obj
 0001:000a243a       _strtod                    300a343a f   libucrt:strtod.obj
 0001:000a2460       __libm_sse2_acos_precise   300a3460 f   libucrt:acos_sse2_precise.obj
 0001:000a2980       __libm_sse2_tan_precise    300a3980 f   libucrt:tan_sse2_precise.obj
 0001:000a2bf0       __CIfmod                   300a3bf0 f   libucrt:87fmod_impl.obj
 0001:000a2c00       __fFMOD                    300a3c00 f   libucrt:87fmod_impl.obj
 0001:000a2c0e       __tolower_l                300a3c0e f   libucrt:tolower_toupper.obj
 0001:000a2d0c       __toupper_l                300a3d0c f   libucrt:tolower_toupper.obj
 0001:000a2e0a       _tolower                   300a3e0a f   libucrt:tolower_toupper.obj
 0001:000a2e3a       _toupper                   300a3e3a f   libucrt:tolower_toupper.obj
 0001:000a2e6a       __initterm                 300a3e6a f   libucrt:initterm.obj
 0001:000a2e95       __initterm_e               300a3e95 f   libucrt:initterm.obj
 0001:000a2ec3       __seh_filter_dll           300a3ec3 f   libucrt:exception_filter.obj
 0001:000a2ee5       __seh_filter_exe           300a3ee5 f   libucrt:exception_filter.obj
 0001:000a3078       ??$__crt_fast_decode_pointer@P6AHI@Z@@YAP6AHI@ZQ6AHI@Z@Z 300a4078 f i libucrt:new_handler.obj
 0001:000a3078       ??$__crt_fast_decode_pointer@P6AXH@Z@@YAP6AXH@ZQ6AXH@Z@Z 300a4078 f i libucrt:signal.obj
 0001:000a3078       ??$__crt_fast_decode_pointer@P6GXPAXK0@Z@@YAP6GXPAXK0@ZQ6GX0K0@Z@Z 300a4078 f i libucrt:exit.obj
 0001:000a332b       ___acrt_initialize_thread_local_exit_callback 300a432b f   libucrt:exit.obj
 0001:000a333a       __cexit                    300a433a f   libucrt:exit.obj
 0001:000a3349       __exit                     300a4349 f   libucrt:exit.obj
 0001:000a335f       __is_c_termination_complete 300a435f f   libucrt:exit.obj
 0001:000a3615       ___acrt_allocate_buffer_for_argv 300a4615 f   libucrt:argv_parsing.obj
 0001:000a3664       __configure_narrow_argv    300a4664 f   libucrt:argv_parsing.obj
 0001:000a3813       ___dcrt_uninitialize_environments_nolock 300a4813 f   libucrt:environment_initialization.obj
 0001:000a3864       __initialize_narrow_environment 300a4864 f   libucrt:environment_initialization.obj
 0001:000a399e       __execute_onexit_table     300a499e f   libucrt:onexit.obj
 0001:000a39dc       __initialize_onexit_table  300a49dc f   libucrt:onexit.obj
 0001:000a3a2c       ___acrt_uninitialize_command_line 300a4a2c f   libucrt:argv_data.obj
 0001:000a3b03       ___acrt_initialize         300a4b03 f   libucrt:initialization.obj
 0001:000a3b15       ___acrt_thread_attach      300a4b15 f   libucrt:initialization.obj
 0001:000a3b20       ___acrt_thread_detach      300a4b20 f   libucrt:initialization.obj
 0001:000a3b28       ___acrt_uninitialize       300a4b28 f   libucrt:initialization.obj
 0001:000a3b58       ___acrt_uninitialize_critical 300a4b58 f   libucrt:initialization.obj
 0001:000a3b6a       _terminate                 300a4b6a f   libucrt:terminate.obj
 0001:000a3bb0       _strcpy_s                  300a4bb0 f   libucrt:strcpy_s.obj
 0001:000a3c3f       _abort                     300a4c3f f   libucrt:abort.obj
 0001:000a3c90       _strncmp                   300a4c90 f   libucrt:strncmp.obj
 0001:000a3d10       _calloc                    300a4d10 f   libucrt:calloc.obj
 0001:000a3d1c       @_guard_check_icall@4      300a4d1c f i libucrt:checkcfg.obj
 0001:000a3d30       _wcsncmp                   300a4d30 f   libucrt:wcsncmp.obj
 0001:000a3d73       ?check_synchronize_global_state_index@__crt_cached_ptd_host@@AAEIXZ 300a4d73 f i libucrt:invalid_parameter.obj
 0001:000a3d9c       ___acrt_call_reportfault   300a4d9c f   libucrt:invalid_parameter.obj
 0001:000a3ed5       ___acrt_initialize_invalid_parameter_handler 300a4ed5 f   libucrt:invalid_parameter.obj
 0001:000a3ee4       __invalid_parameter        300a4ee4 f   libucrt:invalid_parameter.obj
 0001:000a3f1b       __invalid_parameter_internal 300a4f1b f   libucrt:invalid_parameter.obj
 0001:000a3f98       __invalid_parameter_noinfo 300a4f98 f   libucrt:invalid_parameter.obj
 0001:000a3fa8       __invoke_watson            300a4fa8 f   libucrt:invalid_parameter.obj
 0001:000a3fdc       ___pctype_func             300a4fdc f   libucrt:ctype.obj
 0001:000a4000       __isctype_l                300a5000 f   libucrt:isctype.obj
 0001:000a414a       ___acrt_errno_from_os_error 300a514a f   libucrt:errno.obj
 0001:000a41a9       ___acrt_errno_map_os_error 300a51a9 f   libucrt:errno.obj
 0001:000a41cc       ___acrt_errno_map_os_error_ptd 300a51cc f   libucrt:errno.obj
 0001:000a41f0       ___doserrno                300a51f0 f   libucrt:errno.obj
 0001:000a4205       __errno                    300a5205 f   libucrt:errno.obj
 0001:000a450d       ?internal_get_ptd_head_slow@@YAPAU__acrt_ptd@@XZ 300a550d f   libucrt:per_thread_data.obj
 0001:000a4600       ___acrt_freeptd            300a5600 f   libucrt:per_thread_data.obj
 0001:000a4644       ___acrt_getptd             300a5644 f   libucrt:per_thread_data.obj
 0001:000a4652       ___acrt_getptd_head        300a5652 f   libucrt:per_thread_data.obj
 0001:000a4695       ___acrt_getptd_noexit      300a5695 f   libucrt:per_thread_data.obj
 0001:000a4721       ___acrt_getptd_noexit_explicit 300a5721 f   libucrt:per_thread_data.obj
 0001:000a476a       ___acrt_initialize_ptd     300a576a f   libucrt:per_thread_data.obj
 0001:000a47a0       ___acrt_uninitialize_ptd   300a57a0 f   libucrt:per_thread_data.obj
 0001:000a47ba       ___acrt_update_locale_info 300a57ba f   libucrt:locale_update.obj
 0001:000a47e7       ___acrt_update_locale_info_explicit 300a57e7 f   libucrt:locale_update.obj
 0001:000a4818       ___acrt_update_multibyte_info 300a5818 f   libucrt:locale_update.obj
 0001:000a4845       ___acrt_update_multibyte_info_explicit 300a5845 f   libucrt:locale_update.obj
 0001:000a4880       _fegetround                300a5880 f   libucrt:fegetround.obj
 0001:000a48fd       ___acrt_set_locale_changed 300a58fd f   libucrt:wsetlocale.obj
 0001:000a4908       ___acrt_uninitialize_locale 300a5908 f   libucrt:wsetlocale.obj
 0001:000a4930       __calloc_base              300a5930 f   libucrt:calloc_base.obj
 0001:000a4990       __free_base                300a5990 f   libucrt:free_base.obj
 0001:000a49d6       _strtoull                  300a59d6 f   libucrt:strtox.obj
 0001:000a4a22       __mbtowc_internal          300a5a22 f   libucrt:mbtowc.obj
 0001:000a4b52       __mbtowc_l                 300a5b52 f   libucrt:mbtowc.obj
 0001:000a4b8a       __wctomb_internal          300a5b8a f   libucrt:wctomb.obj
 0001:000a4cf0       _strnlen                   300a5cf0 f   libucrt:strnlen.obj
 0001:000a4e50       _wcsnlen                   300a5e50 f   libucrt:strnlen.obj
 0001:000a5025       __fileno                   300a6025 f   libucrt:fileno.obj
 0001:000a504c       ___acrt_initialize_stdio   300a604c f   libucrt:_file.obj
 0001:000a5114       ___acrt_uninitialize_stdio 300a6114 f   libucrt:_file.obj
 0001:000a5160       __lock_file                300a6160 f   libucrt:_file.obj
 0001:000a5174       __unlock_file              300a6174 f   libucrt:_file.obj
 0001:000a52e8       ___acrt_initialize_lowio   300a62e8 f   libucrt:ioinit.obj
 0001:000a5348       ___acrt_uninitialize_lowio 300a6348 f   libucrt:ioinit.obj
 0001:000a53a0       __fFATN2                   300a63a0 f   libucrt:87triga.obj
 0001:000a53f0       __rtpiby2                  300a63f0     libucrt:87triga.obj
 0001:000a5400       __rtforatn20               300a6400 f   libucrt:87triga.obj
 0001:000a5430       __rtforatnby0              300a6430 f   libucrt:87triga.obj
 0001:000a5440       __cintrindisp2             300a6440 f   libucrt:87cdisp.obj
 0001:000a5490       __cintrindisp1             300a6490 f   libucrt:87cdisp.obj
 0001:000a54d9       __ctrandisp2               300a64d9 f   libucrt:87cdisp.obj
 0001:000a5668       __ctrandisp1               300a6668 f   libucrt:87cdisp.obj
 0001:000a569b       __fload                    300a669b f   libucrt:87cdisp.obj
 0001:000a56e0       __CIcos                    300a66e0 f   libucrt:cos_impl.obj
 0001:000a571b       __CIcos_default            300a671b f   libucrt:cos_impl.obj
 0001:000a572f       __cos_default              300a672f     libucrt:cos_impl.obj
 0001:000a57d0       __CIsin                    300a67d0 f   libucrt:sin_impl.obj
 0001:000a580b       __CIsin_default            300a680b f   libucrt:sin_impl.obj
 0001:000a581f       __sin_default              300a681f     libucrt:sin_impl.obj
 0001:000a58c0       __malloc_base              300a68c0 f   libucrt:malloc_base.obj
 0001:000a5920       ___libm_error_support      300a6920 f   libucrt:libm_error.obj
 0001:000a5bc0       ___acrt_initialize_sse2    300a6bc0 f   libucrt:mathfcns.obj
 0001:000a5bd0       __ceil_default             300a6bd0 f   libucrt:ceil.obj
 0001:000a5cd0       __floor_default            300a6cd0 f   libucrt:floor.obj
 0001:000a5dd0       _sqrt                      300a6dd0 f   libucrt:sqrt.obj
 0001:000a5dde       ?__acrt_fp_classify@@YA?AW4__acrt_fp_class@@ABN@Z 300a6dde f i libucrt:cvt.obj
 0001:000a678d       ___acrt_fp_format          300a778d f   libucrt:cvt.obj
 0001:000a690d       ?__mblen_utf8@__crt_mbstring@@YAHPBD@Z 300a790d f   libucrt:mbrtoc32.obj
 0001:000a694e       ?__mbrtoc32_utf8@__crt_mbstring@@YAIPA_UPBDIPAU_Mbstatet@@AAV__crt_cached_ptd_host@@@Z 300a794e f   libucrt:mbrtoc32.obj
 0001:000a6b07       ?__c16rtomb_utf8@__crt_mbstring@@YAIPAD_SPAU_Mbstatet@@AAV__crt_cached_ptd_host@@@Z 300a7b07 f   libucrt:c16rtomb.obj
 0001:000a6bde       ?__mbrtowc_utf8@__crt_mbstring@@YAIPA_WPBDIPAU_Mbstatet@@AAV__crt_cached_ptd_host@@@Z 300a7bde f   libucrt:mbrtowc.obj
 0001:000a6c21       ?__mbsrtowcs_utf8@__crt_mbstring@@YAIPA_WPAPBDIPAU_Mbstatet@@AAV__crt_cached_ptd_host@@@Z 300a7c21 f   libucrt:mbrtowc.obj
 0001:000a6d34       __get_printf_count_output  300a7d34 f   libucrt:printf_count_output.obj
 0001:000a6d50       __CIacos                   300a7d50 f   libucrt:acos_impl.obj
 0001:000a6d8b       __CIacos_default           300a7d8b f   libucrt:acos_impl.obj
 0001:000a6d9f       __acos_default             300a7d9f     libucrt:acos_impl.obj
 0001:000a6e60       __CItan                    300a7e60 f   libucrt:tan_impl.obj
 0001:000a6e9b       __CItan_default            300a7e9b f   libucrt:tan_impl.obj
 0001:000a6eaf       __tan_default              300a7eaf     libucrt:tan_impl.obj
 0001:000a6f50       __trandisp1                300a7f50 f   libucrt:87disp.obj
 0001:000a6fc5       __trandisp2                300a7fc5 f   libucrt:87disp.obj
 0001:000a705f       __rttospopde               300a805f     libucrt:87disp.obj
 0001:000a7064       __rttospop                 300a8064     libucrt:87disp.obj
 0001:000a7070       __rtnospop                 300a8070 f   libucrt:87disp.obj
 0001:000a7080       __rttosnpop                300a8080 f   libucrt:87disp.obj
 0001:000a7081       __rtnospopde               300a8081     libucrt:87disp.obj
 0001:000a7088       __rtzeropop                300a8088     libucrt:87disp.obj
 0001:000a708a       __rtzeronpop               300a808a     libucrt:87disp.obj
 0001:000a7090       __rtzerospop               300a8090 f   libucrt:87disp.obj
 0001:000a709d       __rtonepop                 300a809d     libucrt:87disp.obj
 0001:000a70a0       __rtonenpop                300a80a0 f   libucrt:87disp.obj
 0001:000a70b0       __tosnan1                  300a80b0 f   libucrt:87disp.obj
 0001:000a70e0       __nosnan2                  300a80e0 f   libucrt:87disp.obj
 0001:000a70f0       __tosnan2                  300a80f0 f   libucrt:87disp.obj
 0001:000a7120       __nan2                     300a8120 f   libucrt:87disp.obj
 0001:000a7160       __rtindfpop                300a8160 f   libucrt:87disp.obj
 0001:000a7162       __rtindfnpop               300a8162     libucrt:87disp.obj
 0001:000a7173       __rttosnpopde              300a8173     libucrt:87disp.obj
 0001:000a7180       __rtatan2inf               300a8180 f   libucrt:87disp.obj
 0001:000a719d       __rtchsifneg               300a819d     libucrt:87disp.obj
 0001:000a7391       ___acrt_LCMapStringA       300a8391 f   libucrt:lcmapstringa.obj
 0001:000a73da       __freea_crt                300a83da f i libucrt:lcmapstringa.obj
 0001:000a73fa       ___acrt_initialize_locks   300a83fa f   libucrt:locks.obj
 0001:000a743b       ___acrt_lock               300a843b f   libucrt:locks.obj
 0001:000a7452       ___acrt_uninitialize_locks 300a8452 f   libucrt:locks.obj
 0001:000a7483       ___acrt_unlock             300a8483 f   libucrt:locks.obj
 0001:000a749a       ___acrt_app_verifier_enabled 300a849a f   libucrt:peb_access.obj
 0001:000a74ac       ___acrt_is_secure_process  300a84ac f   libucrt:peb_access.obj
 0001:000a74bf       ___acrt_get_process_end_policy 300a84bf f   libucrt:win_policies.obj
 0001:000a74fe       ??$__acrt_convert_wcs_mbs_cp@D_WV<lambda_62f6974d9771e494a5ea317cc32e971c>@@U__crt_win32_buffer_internal_dynamic_resizing@@@@YAHQBDAAV?$__crt_win32_buffer@_WU__crt_win32_buffer_internal_dynamic_resizing@@@@ABV<lambda_62f6974d9771e494a5ea317cc32e971c>@@I@Z 300a84fe f i libucrt:argv_wildcards.obj
 0001:000a75b0       ??$__acrt_convert_wcs_mbs_cp@_WDV<lambda_28bda7af82a03b66c1cb3803a755f95d>@@U__crt_win32_buffer_internal_dynamic_resizing@@@@YAHQB_WAAV?$__crt_win32_buffer@DU__crt_win32_buffer_internal_dynamic_resizing@@@@ABV<lambda_28bda7af82a03b66c1cb3803a755f95d>@@I@Z 300a85b0 f i libucrt:argv_wildcards.obj
 0001:000a7676       ??$__acrt_mbs_to_wcs_cp@U__crt_win32_buffer_internal_dynamic_resizing@@@@YAHQBDAAV?$__crt_win32_buffer@_WU__crt_win32_buffer_internal_dynamic_resizing@@@@I@Z 300a8676 f i libucrt:argv_wildcards.obj
 0001:000a7b72       ??R<lambda_0fec1a7b3f42a53036604e18c2d5e07e>@@QBE@IQB_WQADI@Z 300a8b72 f i libucrt:getmodulefilenamea.obj
 0001:000a7b72       ??R<lambda_28bda7af82a03b66c1cb3803a755f95d>@@QBE@IQB_WQADI@Z 300a8b72 f i libucrt:argv_wildcards.obj
 0001:000a7b96       ?__acrt_get_utf8_acp_compatibility_codepage@@YAIXZ 300a8b96 f i libucrt:argv_wildcards.obj
 0001:000a7bd5       ?_deallocate@?$__crt_win32_buffer@DU__crt_win32_buffer_internal_dynamic_resizing@@@@AAEXXZ 300a8bd5 f i libucrt:argv_wildcards.obj
 0001:000a7bd5       ?_deallocate@?$__crt_win32_buffer@_WU__crt_win32_buffer_internal_dynamic_resizing@@@@AAEXXZ 300a8bd5 f i libucrt:argv_wildcards.obj
 0001:000a7bef       ?allocate@?$__crt_win32_buffer@DU__crt_win32_buffer_internal_dynamic_resizing@@@@QAEHI@Z 300a8bef f i libucrt:argv_wildcards.obj
 0001:000a7c2b       ?allocate@?$__crt_win32_buffer@_WU__crt_win32_buffer_internal_dynamic_resizing@@@@QAEHI@Z 300a8c2b f i libucrt:argv_wildcards.obj
 0001:000a7c6a       ?allocate@__crt_win32_buffer_internal_dynamic_resizing@@SAHQAPAXIABV__crt_win32_buffer_empty_debug_info@@@Z 300a8c6a f i libucrt:argv_wildcards.obj
 0001:000a7d12       ___acrt_expand_narrow_argv_wildcards 300a8d12 f   libucrt:argv_wildcards.obj
 0001:000a7d1d       ??$__acrt_convert_wcs_mbs_cp@_WDV<lambda_0fec1a7b3f42a53036604e18c2d5e07e>@@U__crt_win32_buffer_no_resizing@@@@YAHQB_WAAV?$__crt_win32_buffer@DU__crt_win32_buffer_no_resizing@@@@ABV<lambda_0fec1a7b3f42a53036604e18c2d5e07e>@@I@Z 300a8d1d f i libucrt:getmodulefilenamea.obj
 0001:000a7ddf       ?allocate@?$__crt_win32_buffer@DU__crt_win32_buffer_no_resizing@@@@QAEHI@Z 300a8ddf f i libucrt:getmodulefilenamea.obj
 0001:000a7e06       ?set_to_nullptr@?$__crt_win32_buffer@DU__crt_win32_buffer_no_resizing@@@@QAEXXZ 300a8e06 f i libucrt:getmodulefilenamea.obj
 0001:000a7e1a       ___acrt_GetModuleFileNameA 300a8e1a f   libucrt:getmodulefilenamea.obj
 0001:000a8437       ___acrt_initialize_multibyte 300a9437 f   libucrt:mbctype.obj
 0001:000a847f       ___acrt_update_thread_multibyte_data 300a947f f   libucrt:mbctype.obj
 0001:000a8492       __setmbcp_nolock           300a9492 f   libucrt:mbctype.obj
 0001:000a86e7       __ismbblead                300a96e7 f   libucrt:ismbbyte.obj
 0001:000a86ff       ___acrt_initialize_command_line 300a96ff f   libucrt:argv_data.obj
 0001:000a87b0       ___acrt_MultiByteToWideChar 300a97b0 f   libucrt:multibytetowidechar.obj
 0001:000a886a       ___acrt_WideCharToMultiByte 300a986a f   libucrt:widechartomultibyte.obj
 0001:000a890b       ___dcrt_get_narrow_environment_from_os 300a990b f   libucrt:get_environment_from_os.obj
 0001:000a89b0       __recalloc_base            300a99b0 f   libucrt:recalloc.obj
 0001:000a8a30       __recalloc                 300a9a30 f   libucrt:recalloc.obj
 0001:000a8beb       ___acrt_AppPolicyGetProcessTerminationMethodInternal@4 300a9beb f   libucrt:winapi_thunks.obj
 0001:000a8c3a       ___acrt_AreFileApisANSI@0  300a9c3a f   libucrt:winapi_thunks.obj
 0001:000a8c59       ___acrt_FlsAlloc@4         300a9c59 f   libucrt:winapi_thunks.obj
 0001:000a8c65       ___acrt_FlsFree@4          300a9c65 f   libucrt:winapi_thunks.obj
 0001:000a8c71       ___acrt_FlsGetValue2@4     300a9c71 f   libucrt:winapi_thunks.obj
 0001:000a8c7e       ___acrt_FlsGetValue@4      300a9c7e f   libucrt:winapi_thunks.obj
 0001:000a8c8a       ___acrt_FlsSetValue@8      300a9c8a f   libucrt:winapi_thunks.obj
 0001:000a8c96       ___acrt_InitializeCriticalSectionEx@12 300a9c96 f   libucrt:winapi_thunks.obj
 0001:000a8ca2       ___acrt_LCMapStringEx@36   300a9ca2 f   libucrt:winapi_thunks.obj
 0001:000a8cff       ___acrt_LocaleNameToLCID@8 300a9cff f   libucrt:winapi_thunks.obj
 0001:000a8d30       ___acrt_initialize_winapi_thunks 300a9d30 f   libucrt:winapi_thunks.obj
 0001:000a8d53       ___acrt_tls2_supported     300a9d53 f   libucrt:winapi_thunks.obj
 0001:000a8d84       ___acrt_uninitialize_winapi_thunks 300a9d84 f   libucrt:winapi_thunks.obj
 0001:000a8dc0       __get_heap_handle          300a9dc0 f   libucrt:heap_handle.obj
 0001:000a8dd0       ___acrt_initialize_heap    300a9dd0 f   libucrt:heap_handle.obj
 0001:000a8df0       ___acrt_uninitialize_heap  300a9df0 f   libucrt:heap_handle.obj
 0001:000a8e00       ___acrt_getheap            300a9e00 f   libucrt:heap_handle.obj
 0001:000a8e06       ___acrt_execute_initializers 300a9e06 f   libucrt:shared_initialization.obj
 0001:000a8e6e       ___acrt_execute_uninitializers 300a9e6e f   libucrt:shared_initialization.obj
 0001:000a8ea0       __callnewh                 300a9ea0 f   libucrt:new_handler.obj
 0001:000a8ee0       ___acrt_initialize_new_handler 300a9ee0 f   libucrt:new_handler.obj
 0001:000a8f00       __query_new_handler        300a9f00 f   libucrt:new_handler.obj
 0001:000a8f60       __set_new_handler          300a9f60 f   libucrt:new_handler.obj
 0001:000a8fd0       ?_set_new_handler@@YAP6AHI@ZH@Z 300a9fd0 f   libucrt:new_handler.obj
 0001:000a8fdd       ??$__crt_fast_encode_pointer@P6AHI@Z@@YAP6AHI@ZQ6AHI@Z@Z 300a9fdd f i libucrt:new_handler.obj
 0001:000a90cf       ___acrt_get_sigabrt_handler 300aa0cf f   libucrt:signal.obj
 0001:000a90f6       ___acrt_initialize_signal_handlers 300aa0f6 f   libucrt:signal.obj
 0001:000a9114       _raise                     300aa114 f   libucrt:signal.obj
 0001:000a9310       ___acrt_has_user_matherr   300aa310 f   libucrt:matherr.obj
 0001:000a9330       ___acrt_initialize_user_matherr 300aa330 f   libucrt:matherr.obj
 0001:000a9340       ___acrt_invoke_user_matherr 300aa340 f   libucrt:matherr.obj
 0001:000a9551       ___acrt_stdio_flush_nolock 300aa551 f   libucrt:fflush.obj
 0001:000a95ba       __fflush_nolock            300aa5ba f   libucrt:fflush.obj
 0001:000a961f       __flushall                 300aa61f f   libucrt:fflush.obj
 0001:000a9628       ___acrt_GetStringTypeA     300aa628 f   libucrt:getstringtypea.obj
 0001:000a9726       ___acrt_add_locale_ref     300aa726 f   libucrt:locale_refcounting.obj
 0001:000a97a3       ___acrt_free_locale        300aa7a3 f   libucrt:locale_refcounting.obj
 0001:000a98eb       ___acrt_locale_add_lc_time_reference 300aa8eb f   libucrt:locale_refcounting.obj
 0001:000a9914       ___acrt_locale_free_lc_time_if_unreferenced 300aa914 f   libucrt:locale_refcounting.obj
 0001:000a9945       ___acrt_locale_release_lc_time_reference 300aa945 f   libucrt:locale_refcounting.obj
 0001:000a996e       ___acrt_release_locale_ref 300aa96e f   libucrt:locale_refcounting.obj
 0001:000a99ef       ___acrt_update_thread_locale_data 300aa9ef f   libucrt:locale_refcounting.obj
 0001:000a9a70       __updatetlocinfoEx_nolock  300aaa70 f   libucrt:locale_refcounting.obj
 0001:000a9ac0       ___acrt_fenv_get_common_round_control 300aaac0 f   libucrt:_fenvutils.obj
 0001:000a9af0       ___acrt_fenv_get_control   300aaaf0 f   libucrt:_fenvutils.obj
 0001:000a9cd0       ___acrt_fenv_get_status    300aacd0 f   libucrt:_fenvutils.obj
 0001:000a9d80       ___acrt_fenv_set_control   300aad80 f   libucrt:_fenvutils.obj
 0001:000a9fd0       ___acrt_fenv_set_status    300aafd0 f   libucrt:_fenvutils.obj
 0001:000aa0d9       ___acrt_locale_free_monetary 300ab0d9 f   libucrt:initmon.obj
 0001:000aa1d7       ___acrt_locale_free_numeric 300ab1d7 f   libucrt:initnum.obj
 0001:000aa265       ___acrt_locale_free_time   300ab265 f   libucrt:inittime.obj
 0001:000aa350       __query_new_mode           300ab350 f   libucrt:new_mode.obj
 0001:000aa360       __set_new_mode             300ab360 f   libucrt:new_mode.obj
 0001:000aa38f       ?__c32rtomb_utf8@__crt_mbstring@@YAIPAD_UPAU_Mbstatet@@AAV__crt_cached_ptd_host@@@Z 300ab38f f   libucrt:c32rtomb.obj
 0001:000aa43d       __fcloseall                300ab43d f   libucrt:closeall.obj
 0001:000aa4e8       ___acrt_stdio_free_buffer_nolock 300ab4e8 f   libucrt:_freebuf.obj
 0001:000aa528       ___acrt_lowio_create_handle_array 300ab528 f   libucrt:osfinfo.obj
 0001:000aa5a3       ___acrt_lowio_destroy_handle_array 300ab5a3 f   libucrt:osfinfo.obj
 0001:000aa5d8       ___acrt_lowio_ensure_fh_exists 300ab5d8 f   libucrt:osfinfo.obj
 0001:000aa676       ___acrt_lowio_lock_fh      300ab676 f   libucrt:osfinfo.obj
 0001:000aa699       ___acrt_lowio_unlock_fh    300ab699 f   libucrt:osfinfo.obj
 0001:000aa6bc       __free_osfhnd              300ab6bc f   libucrt:osfinfo.obj
 0001:000aa74d       __get_osfhandle            300ab74d f   libucrt:osfinfo.obj
 0001:000aa7c0       __87except                 300ab7c0 f   libucrt:87except.obj
 0001:000aa900       __CIcos_pentium4           300ab900 f   libucrt:cos_pentium4.obj
 0001:000aa918       __cos_pentium4             300ab918     libucrt:cos_pentium4.obj
 0001:000aaab0       __twoToTOS                 300abab0 f   libucrt:common.obj
 0001:000aaac5       __load_CW                  300abac5 f   libucrt:common.obj
 0001:000aaadc       __convertTOStoQNaN         300abadc f   libucrt:common.obj
 0001:000aaaf5       __fload_withFB             300abaf5 f   libucrt:common.obj
 0001:000aab38       __checkTOS_withFB          300abb38 f   libucrt:common.obj
 0001:000aab4e       __fast_exit                300abb4e f   libucrt:common.obj
 0001:000aab5b       __math_exit                300abb5b f   libucrt:common.obj
 0001:000aab85       __check_overflow_exit      300abb85 f   libucrt:common.obj
 0001:000aab99       __check_range_exit         300abb99 f   libucrt:common.obj
 0001:000aac40       __startTwoArgErrorHandling 300abc40 f   libucrt:genexcep.obj
 0001:000aac57       __startOneArgErrorHandling 300abc57 f   libucrt:genexcep.obj
 0001:000aaca0       __CIsin_pentium4           300abca0 f   libucrt:sin_pentium4.obj
 0001:000aacb8       __sin_pentium4             300abcb8     libucrt:sin_pentium4.obj
 0001:000aae70       __frnd                     300abe70 f   libucrt:frnd.obj
 0001:000aae90       __except1                  300abe90 f   libucrt:fpexcept.obj
 0001:000aafd0       __handle_exc               300abfd0 f   libucrt:fpexcept.obj
 0001:000ab300       __raise_exc                300ac300 f   libucrt:fpexcept.obj
 0001:000ab330       __raise_exc_ex             300ac330 f   libucrt:fpexcept.obj
 0001:000ab660       __set_errno_from_matherr   300ac660 f   libucrt:fpexcept.obj
 0001:000ab6a0       __umatherr                 300ac6a0 f   libucrt:fpexcept.obj
 0001:000ab7a0       __decomp                   300ac7a0 f i libucrt:frexp.obj
 0001:000ab8b0       __sptype                   300ac8b0 f i libucrt:frexp.obj
 0001:000ab930       ___set_fpsr_sse2           300ac930 f   libucrt:fpctrl.obj
 0001:000aba10       __clrfp                    300aca10 f   libucrt:fpctrl.obj
 0001:000aba30       __ctrlfp                   300aca30 f   libucrt:fpctrl.obj
 0001:000aba60       __set_statfp               300aca60 f   libucrt:fpctrl.obj
 0001:000abac0       __statfp                   300acac0 f   libucrt:fpctrl.obj
 0001:000abae0       __CIsqrt                   300acae0 f   libucrt:sqrt_impl.obj
 0001:000abaf4       __sqrt_common              300acaf4     libucrt:sqrt_impl.obj
 0001:000abc42       ___acrt_fp_strflt_to_string 300acc42 f   libucrt:_fptostr.obj
 0001:000abd3b       ___acrt_fltout             300acd3b f   libucrt:cfout.obj
 0001:000ad209       ?reset_and_return@__crt_mbstring@@YAIIPAU_Mbstatet@@@Z 300ae209 f   libucrt:common_utf8.obj
 0001:000ad21d       ?return_illegal_sequence@__crt_mbstring@@YAIPAU_Mbstatet@@AAV__crt_cached_ptd_host@@@Z 300ae21d f   libucrt:common_utf8.obj
 0001:000ad23f       __isatty                   300ae23f f   libucrt:isatty.obj
 0001:000ad2a0       __CIacos_pentium4          300ae2a0 f   libucrt:acos_pentium4.obj
 0001:000ad2b8       __acos_pentium4            300ae2b8     libucrt:acos_pentium4.obj
 0001:000ad800       __CItan_pentium4           300ae800 f   libucrt:tan_pentium4.obj
 0001:000ad818       __tan_pentium4             300ae818     libucrt:tan_pentium4.obj
 0001:000ada60       ___strncnt                 300aea60 f   libucrt:strncnt.obj
 0001:000ada80       _qsort                     300aea80 f   libucrt:qsort.obj
 0001:000adec0       _strncpy_s                 300aeec0 f   libucrt:strncpy_s.obj
 0001:000adfc0       _strpbrk                   300aefc0 f   libucrt:strpbrk.obj
 0001:000ae000       __mbsdec                   300af000 f   libucrt:mbsdec.obj
 0001:000ae017       __mbsdec_l                 300af017 f   libucrt:mbsdec.obj
 0001:000ae0b0       __msize_base               300af0b0 f   libucrt:msize.obj
 0001:000ae0f0       __msize                    300af0f0 f   libucrt:msize.obj
 0001:000ae100       __realloc_base             300af100 f   libucrt:realloc_base.obj
 0001:000ae1bd       ___acrt_DownlevelLocaleNameToLCID 300af1bd f   libucrt:lcidtoname_downlevel.obj
 0001:000ae28b       __commit                   300af28b f   libucrt:commit.obj
 0001:000aeaae       __write_internal           300afaae f   libucrt:write.obj
 0001:000aebbf       __write_nolock             300afbbf f   libucrt:write.obj
 0001:000aede0       ___ascii_wcsnicmp          300afde0 f   libucrt:wcsnicmp.obj
 0001:000aef6c       _fclose                    300aff6c f   libucrt:fclose.obj
 0001:000aef9c       __query_app_type           300aff9c f   libucrt:report_runtime_error.obj
 0001:000aefb0       __controlfp_s              300affb0 f   libucrt:contrlfp.obj
 0001:000af020       _fegetenv                  300b0020 f   libucrt:fegetenv.obj
 0001:000af040       _fesetenv                  300b0040 f   libucrt:fesetenv.obj
 0001:000af0a0       _feholdexcept              300b00a0 f   libucrt:feholdexcept.obj
 0001:000af100       __libm_sse2_log10_precise  300b0100 f   libucrt:log10_sse2_precise.obj
 0001:000af433       __lseeki64_nolock_internal 300b0433 f   libucrt:lseek.obj
 0001:000af451       __putwch_nolock            300b0451 f   libucrt:putwch.obj
 0001:000af514       __close_internal           300b0514 f   libucrt:close.obj
 0001:000af5b7       __close_nolock_internal    300b05b7 f   libucrt:close.obj
 0001:000af657       ?__acrt_stdio_free_stream@@YAXV__crt_stdio_stream@@@Z 300b0657 f   libucrt:stream.obj
 0001:000af770       __clearfp                  300b0770 f   libucrt:ieee87.obj
 0001:000af890       __control87                300b0890 f   libucrt:ieee87.obj
 0001:000afd20       __CIlog10                  300b0d20 f   libucrt:log10_impl.obj
 0001:000afd5b       __CIlog10_default          300b0d5b f   libucrt:log10_impl.obj
 0001:000afd6f       __log10_default            300b0d6f     libucrt:log10_impl.obj
 0001:000afe30       ___ascii_strnicmp          300b0e30 f   libucrt:_strnicm.obj
 0001:000afeb0       ___dcrt_lowio_ensure_console_output_initialized 300b0eb0 f   libucrt:initcon.obj
 0001:000afecf       ___dcrt_terminate_console_output 300b0ecf f   libucrt:initcon.obj
 0001:000afee6       ___dcrt_write_console      300b0ee6 f   libucrt:initcon.obj
 0001:000aff40       __CIlog10_pentium4         300b0f40 f   libucrt:log10_pentium4.obj
 0001:000aff58       __log10_pentium4           300b0f58     libucrt:log10_pentium4.obj
 0001:000b01f0       __fFEXP                    300b11f0 f   libucrt:87tran.obj
 0001:000b0247       __rtinfpopse               300b1247     libucrt:87tran.obj
 0001:000b0249       __rtinfnpopse              300b1249     libucrt:87tran.obj
 0001:000b0259       __fFLN                     300b1259     libucrt:87tran.obj
 0001:000b030e       __rtinfpop                 300b130e     libucrt:87tran.obj
 0001:000b0310       __rtinfnpop                300b1310     libucrt:87tran.obj
 0001:000b0320       __rtforexpinf              300b1320 f   libucrt:87tran.obj
 0001:000b032d       __ffexpm1                  300b132d     libucrt:87tran.obj
 0001:000b03e0       __powhlp                   300b13e0 f   libucrt:powhlp.obj
 0001:000b05e0       __fpclass                  300b15e0 f   libucrt:ieeemisc.obj
 0001:000b06b0       __FindPESection            300b16b0 f   LIBCMT:pesect.obj
 0001:000b0700       __IsNonwritableInCurrentImage 300b1700 f   LIBCMT:pesect.obj
 0001:000b07c0       __ValidateImageBase        300b17c0 f   LIBCMT:pesect.obj
 0001:000b07f1       ??_Etype_info@@UAEPAXI@Z   300b17f1 f i LIBCMT:std_type_info_static.obj
 0001:000b07f1       ??_Gtype_info@@UAEPAXI@Z   300b17f1 f i LIBCMT:std_type_info_static.obj
 0001:000b0814       __EH_epilog3               300b1814 f   LIBCMT:ehprolg3.obj
 0001:000b0828       __EH_prolog3               300b1828 f   LIBCMT:ehprolg3.obj
 0001:000b085b       __EH_prolog3_catch         300b185b f   LIBCMT:ehprolg3.obj
 0001:000b08a0       __aulldvrm                 300b18a0 f   LIBCMT:ulldvrm.obj
 0001:000b0935       ??3@YAXPAXI@Z              300b1935 f   LIBCMT:delete_scalar_size.obj
 0001:000b0950       __allmul                   300b1950 f   LIBCMT:llmul.obj
 0001:000b0990       __allshl                   300b1990 f   LIBCMT:llshl.obj
 0001:000b09b0       __aulldiv                  300b19b0 f   LIBCMT:ulldiv.obj
 0001:000b0a20       __aullrem                  300b1a20 f   LIBCMT:ullrem.obj
 0001:000b0aa0       __aullshr                  300b1aa0 f   LIBCMT:ullshr.obj
 0001:000b0ac0       __alldiv                   300b1ac0 f   LIBCMT:lldiv.obj
 0001:000b0b70       __alldvrm                  300b1b70 f   LIBCMT:lldvrm.obj
 0001:000b0c50       __allrem                   300b1c50 f   LIBCMT:llrem.obj
 0001:000b0d10       __alloca_probe_16          300b1d10 f   LIBCMT:alloca16.obj
 0001:000b0d26       __alloca_probe_8           300b1d26     LIBCMT:alloca16.obj
 0001:000b0d3c       ??3@YAXPAX@Z               300b1d3c f   LIBCMT:delete_scalar.obj
 0001:000b0d41       __filter_x86_sse2_floating_point_exception 300b1d41 f   LIBCMT:x86_exception_filter.obj
 0001:000b0d41       __filter_x86_sse2_floating_point_exception_default 300b1d41 f   LIBCMT:x86_exception_filter.obj
 0002:00000000       __imp__IsProcessorFeaturePresent@4 300b2000     kernel32:KERNEL32.dll
 0002:00000004       __imp__QueryPerformanceCounter@4 300b2004     kernel32:KERNEL32.dll
 0002:00000008       __imp__GetCurrentProcessId@0 300b2008     kernel32:KERNEL32.dll
 0002:0000000c       __imp__GetCurrentThreadId@0 300b200c     kernel32:KERNEL32.dll
 0002:00000010       __imp__GetSystemTimeAsFileTime@4 300b2010     kernel32:KERNEL32.dll
 0002:00000014       __imp__InitializeSListHead@4 300b2014     kernel32:KERNEL32.dll
 0002:00000018       __imp__IsDebuggerPresent@0 300b2018     kernel32:KERNEL32.dll
 0002:0000001c       __imp__UnhandledExceptionFilter@4 300b201c     kernel32:KERNEL32.dll
 0002:00000020       __imp__SetUnhandledExceptionFilter@4 300b2020     kernel32:KERNEL32.dll
 0002:00000024       __imp__GetStartupInfoW@4   300b2024     kernel32:KERNEL32.dll
 0002:00000028       __imp__GetModuleHandleW@4  300b2028     kernel32:KERNEL32.dll
 0002:0000002c       __imp__GetCurrentProcess@0 300b202c     kernel32:KERNEL32.dll
 0002:00000030       __imp__TerminateProcess@8  300b2030     kernel32:KERNEL32.dll
 0002:00000034       __imp__InterlockedFlushSList@4 300b2034     kernel32:KERNEL32.dll
 0002:00000038       __imp__RtlUnwind@16        300b2038     kernel32:KERNEL32.dll
 0002:0000003c       __imp__GetLastError@0      300b203c     kernel32:KERNEL32.dll
 0002:00000040       __imp__SetLastError@4      300b2040     kernel32:KERNEL32.dll
 0002:00000044       __imp__EnterCriticalSection@4 300b2044     kernel32:KERNEL32.dll
 0002:00000048       __imp__LeaveCriticalSection@4 300b2048     kernel32:KERNEL32.dll
 0002:0000004c       __imp__DeleteCriticalSection@4 300b204c     kernel32:KERNEL32.dll
 0002:00000050       __imp__InitializeCriticalSectionAndSpinCount@8 300b2050     kernel32:KERNEL32.dll
 0002:00000054       __imp__TlsAlloc@0          300b2054     kernel32:KERNEL32.dll
 0002:00000058       __imp__TlsGetValue@4       300b2058     kernel32:KERNEL32.dll
 0002:0000005c       __imp__TlsSetValue@8       300b205c     kernel32:KERNEL32.dll
 0002:00000060       __imp__TlsFree@4           300b2060     kernel32:KERNEL32.dll
 0002:00000064       __imp__FreeLibrary@4       300b2064     kernel32:KERNEL32.dll
 0002:00000068       __imp__GetProcAddress@8    300b2068     kernel32:KERNEL32.dll
 0002:0000006c       __imp__LoadLibraryExW@12   300b206c     kernel32:KERNEL32.dll
 0002:00000070       __imp__EncodePointer@4     300b2070     kernel32:KERNEL32.dll
 0002:00000074       __imp__RaiseException@16   300b2074     kernel32:KERNEL32.dll
 0002:00000078       __imp__ExitProcess@4       300b2078     kernel32:KERNEL32.dll
 0002:0000007c       __imp__GetModuleHandleExW@12 300b207c     kernel32:KERNEL32.dll
 0002:00000080       __imp__GetModuleFileNameW@12 300b2080     kernel32:KERNEL32.dll
 0002:00000084       __imp__HeapAlloc@12        300b2084     kernel32:KERNEL32.dll
 0002:00000088       __imp__HeapFree@12         300b2088     kernel32:KERNEL32.dll
 0002:0000008c       __imp__GetStdHandle@4      300b208c     kernel32:KERNEL32.dll
 0002:00000090       __imp__GetFileType@4       300b2090     kernel32:KERNEL32.dll
 0002:00000094       __imp__DecodePointer@4     300b2094     kernel32:KERNEL32.dll
 0002:00000098       __imp__FindClose@4         300b2098     kernel32:KERNEL32.dll
 0002:0000009c       __imp__FindFirstFileExW@24 300b209c     kernel32:KERNEL32.dll
 0002:000000a0       __imp__FindNextFileW@8     300b20a0     kernel32:KERNEL32.dll
 0002:000000a4       __imp__IsValidCodePage@4   300b20a4     kernel32:KERNEL32.dll
 0002:000000a8       __imp__GetACP@0            300b20a8     kernel32:KERNEL32.dll
 0002:000000ac       __imp__GetOEMCP@0          300b20ac     kernel32:KERNEL32.dll
 0002:000000b0       __imp__GetCPInfo@8         300b20b0     kernel32:KERNEL32.dll
 0002:000000b4       __imp__GetCommandLineA@0   300b20b4     kernel32:KERNEL32.dll
 0002:000000b8       __imp__GetCommandLineW@0   300b20b8     kernel32:KERNEL32.dll
 0002:000000bc       __imp__MultiByteToWideChar@24 300b20bc     kernel32:KERNEL32.dll
 0002:000000c0       __imp__WideCharToMultiByte@32 300b20c0     kernel32:KERNEL32.dll
 0002:000000c4       __imp__GetEnvironmentStringsW@0 300b20c4     kernel32:KERNEL32.dll
 0002:000000c8       __imp__FreeEnvironmentStringsW@4 300b20c8     kernel32:KERNEL32.dll
 0002:000000cc       __imp__FlsAlloc@4          300b20cc     kernel32:KERNEL32.dll
 0002:000000d0       __imp__FlsGetValue@4       300b20d0     kernel32:KERNEL32.dll
 0002:000000d4       __imp__FlsSetValue@8       300b20d4     kernel32:KERNEL32.dll
 0002:000000d8       __imp__FlsFree@4           300b20d8     kernel32:KERNEL32.dll
 0002:000000dc       __imp__InitializeCriticalSectionEx@12 300b20dc     kernel32:KERNEL32.dll
 0002:000000e0       __imp__VirtualProtect@16   300b20e0     kernel32:KERNEL32.dll
 0002:000000e4       __imp__LCMapStringW@24     300b20e4     kernel32:KERNEL32.dll
 0002:000000e8       __imp__GetProcessHeap@0    300b20e8     kernel32:KERNEL32.dll
 0002:000000ec       __imp__GetStringTypeW@16   300b20ec     kernel32:KERNEL32.dll
 0002:000000f0       __imp__SetStdHandle@8      300b20f0     kernel32:KERNEL32.dll
 0002:000000f4       __imp__SetFilePointerEx@20 300b20f4     kernel32:KERNEL32.dll
 0002:000000f8       __imp__HeapSize@12         300b20f8     kernel32:KERNEL32.dll
 0002:000000fc       __imp__HeapReAlloc@16      300b20fc     kernel32:KERNEL32.dll
 0002:00000100       __imp__FlushFileBuffers@4  300b2100     kernel32:KERNEL32.dll
 0002:00000104       __imp__WriteFile@20        300b2104     kernel32:KERNEL32.dll
 0002:00000108       __imp__GetConsoleOutputCP@0 300b2108     kernel32:KERNEL32.dll
 0002:0000010c       __imp__GetConsoleMode@8    300b210c     kernel32:KERNEL32.dll
 0002:00000110       __imp__CloseHandle@4       300b2110     kernel32:KERNEL32.dll
 0002:00000114       __imp__CreateFileW@28      300b2114     kernel32:KERNEL32.dll
 0002:00000118       __imp__WriteConsoleW@20    300b2118     kernel32:KERNEL32.dll
 0002:0000011c       \177KERNEL32_NULL_THUNK_DATA 300b211c     kernel32:KERNEL32.dll
 0002:00000120       ___guard_check_icall_fptr  300b2120     LIBCMT:guard_support.obj
 0002:00000124       ___castguard_check_failure_os_handled_fptr 300b2124     LIBCMT:guard_support.obj
 0002:00000128       ___xc_a                    300b2128     LIBCMT:initializers.obj
 0002:0000012c       ___xc_z                    300b212c     LIBCMT:initializers.obj
 0002:00000130       ___xi_a                    300b2130     LIBCMT:initializers.obj
 0002:00000134       ___acrt_stdio_initializer  300b2134     libucrt:stdio_initializer.obj
 0002:00000138       ___acrt_tran_sse2_initializer 300b2138     libucrt:sse2_initializer.obj
 0002:0000013c       ___acrt_multibyte_initializer 300b213c     libucrt:multibyte_initializer.obj
 0002:00000140       ___xi_z                    300b2140     LIBCMT:initializers.obj
 0002:00000144       ___xp_a                    300b2144     LIBCMT:initializers.obj
 0002:00000148       ___acrt_locale_terminator  300b2148     libucrt:locale_initializer.obj
 0002:0000014c       ___dcrt_console_output_terminator 300b214c     libucrt:console_output_initializer.obj
 0002:00000150       ___acrt_stdio_terminator   300b2150     libucrt:stdio_initializer.obj
 0002:00000154       ___xp_z                    300b2154     LIBCMT:initializers.obj
 0002:00000158       ___xt_a                    300b2158     LIBCMT:initializers.obj
 0002:0000015c       ___xt_z                    300b215c     LIBCMT:initializers.obj
 0002:00000160       __real@3e4ccccd            300b2160     AnimalNPC.obj
 0002:00000164       __real@3e8ccccd            300b2164     AnimalNPC.obj
 0002:00000168       __real@40800000            300b2168     AnimalNPC.obj
 0002:00000170       __xmm@80000000800000008000000080000000 300b2170     AnimalNPC.obj
 0002:00000180       ??_C@_08MCJJKOHJ@jaw_bone@ 300b2180     bg_g2_utils.obj
 0002:0000018c       ??_C@_07BNEEMBEL@?$CKr_hand@ 300b218c     bg_g2_utils.obj
 0002:00000194       ??_C@_04DJCABLIL@?$CFs?$CFc@ 300b2194     bg_g2_utils.obj
 0002:000001a0       _bgToggleableSurfaceDebris 300b21a0     bg_misc.obj
 0002:0000021c       ??_C@_09EPBMGDBP@l_arm_key@ 300b221c     bg_misc.obj
 0002:00000228       ??_C@_0BA@FKJGEIF@torso_canister1@ 300b2228     bg_misc.obj
 0002:00000238       ??_C@_0BA@COIEDHEG@torso_canister2@ 300b2238     bg_misc.obj
 0002:00000248       ??_C@_0BA@DHJPAGAH@torso_canister3@ 300b2248     bg_misc.obj
 0002:00000258       ??_C@_0M@DPGBHBIA@torso_tube1@ 300b2258     bg_misc.obj
 0002:00000264       ??_C@_0M@BEEMCCED@torso_tube2@ 300b2264     bg_misc.obj
 0002:00000270       ??_C@_0M@NFHBDAC@torso_tube3@ 300b2270     bg_misc.obj
 0002:0000027c       ??_C@_0M@ECBGIFMF@torso_tube4@ 300b227c     bg_misc.obj
 0002:00000288       ??_C@_0M@FLANLEIE@torso_tube5@ 300b2288     bg_misc.obj
 0002:00000294       ??_C@_0M@HACAOHEH@torso_tube6@ 300b2294     bg_misc.obj
 0002:000002a0       ??_C@_05LGCIJDDO@r_arm@    300b22a0     bg_misc.obj
 0002:000002a8       ??_C@_05IPPEPANF@l_arm@    300b22a8     bg_misc.obj
 0002:000002b0       ??_C@_0N@IFENOPML@torso_shield@ 300b22b0     bg_misc.obj
 0002:000002c0       ??_C@_0BB@FPOHHKLE@torso_galaktorso@ 300b22c0     bg_misc.obj
 0002:000002d4       ??_C@_0N@FODOKFMD@torso_collar@ 300b22d4     bg_misc.obj
 0002:000002e4       ??_C@_07HDAMFNEH@r_wing1@  300b22e4     bg_misc.obj
 0002:000002ec       ??_C@_07FICBAOIE@r_wing2@  300b22ec     bg_misc.obj
 0002:000002f4       ??_C@_07BKDNHOFO@l_wing1@  300b22f4     bg_misc.obj
 0002:000002fc       ??_C@_07DBBACNJN@l_wing2@  300b22fc     bg_misc.obj
 0002:00000304       ??_C@_06JHEKENKO@r_gear@   300b2304     bg_misc.obj
 0002:0000030c       ??_C@_06KAKLKKDN@l_gear@   300b230c     bg_misc.obj
 0002:00000314       ??_C@_04DCKHGPHA@nose@     300b2314     bg_misc.obj
 0002:0000031c       ??_C@_05CJLHJDEI@blah4@    300b231c     bg_misc.obj
 0002:00000324       ??_C@_05DAKMKCAJ@blah5@    300b2324     bg_misc.obj
 0002:0000032c       ??_C@_06LKFNFIFB@l_hand@   300b232c     bg_misc.obj
 0002:00000334       ??_C@_06INLMLPMC@r_hand@   300b2334     bg_misc.obj
 0002:0000033c       ??_C@_06BCDCLMEB@helmet@   300b233c     bg_misc.obj
 0002:00000344       ??_C@_04NEODDMOL@head@     300b2344     bg_misc.obj
 0002:0000034c       ??_C@_0BI@FPANAMDK@head_concussion_charger@ 300b234c     bg_misc.obj
 0002:00000364       ??_C@_0BI@KPCBHBOL@head_light_blaster_cann@ 300b2364     bg_misc.obj
 0002:0000037c       ??_C@_0N@ODJGPHCM@force_shield@ 300b237c     bg_misc.obj
 0002:0000038c       ??_C@_0M@MHLPAMFK@?$CKatt_attack@ 300b238c     bg_misc.obj
 0002:00000398       ??_C@_0N@GFADGNOG@?$CKatt_primary@ 300b2398     bg_misc.obj
 0002:000003a8       ??_C@_0M@ECCLODLO@?$CKatt_second@ 300b23a8     bg_misc.obj
 0002:000003b4       ??_C@_09PJJIIOPG@?$CKdef_guns@ 300b23b4     bg_misc.obj
 0002:000003c0       ??_C@_0O@EGEINPEB@?$CKdef_position@ 300b23c0     bg_misc.obj
 0002:000003d0       ??_C@_0N@LBIDFACI@?$CKdef_primary@ 300b23d0     bg_misc.obj
 0002:000003e0       ??_C@_0M@HJCGMPNN@?$CKdef_second@ 300b23e0     bg_misc.obj
 0002:000003ec       ??_C@_0O@LCDECPIN@?$CKreply_coming@ 300b23ec     bg_misc.obj
 0002:000003fc       ??_C@_09FJFLGJJB@?$CKreply_go@ 300b23fc     bg_misc.obj
 0002:00000408       ??_C@_09FGIKFCBO@?$CKreply_no@ 300b2408     bg_misc.obj
 0002:00000414       ??_C@_0M@PJKELJII@?$CKreply_stay@ 300b2414     bg_misc.obj
 0002:00000420       ??_C@_0L@DOBCHHPE@?$CKreply_yes@ 300b2420     bg_misc.obj
 0002:0000042c       ??_C@_0M@MJLNGIKA@?$CKreq_assist@ 300b242c     bg_misc.obj
 0002:00000438       ??_C@_09HHLDNJAG@?$CKreq_demo@ 300b2438     bg_misc.obj
 0002:00000444       ??_C@_08BDPMJJAM@?$CKreq_hvy@ 300b2444     bg_misc.obj
 0002:00000450       ??_C@_0L@PJEOEMHI@?$CKreq_medic@ 300b2450     bg_misc.obj
 0002:0000045c       ??_C@_08EHGAEMIC@?$CKreq_sup@ 300b245c     bg_misc.obj
 0002:00000468       ??_C@_09FCIMPFEJ@?$CKreq_tech@ 300b2468     bg_misc.obj
 0002:00000474       ??_C@_09KPOPDKGM@?$CKspot_air@ 300b2474     bg_misc.obj
 0002:00000480       ??_C@_0P@ILGDCGKG@?$CKspot_defenses@ 300b2480     bg_misc.obj
 0002:00000490       ??_C@_0P@LLDGJFLE@?$CKspot_emplaced@ 300b2490     bg_misc.obj
 0002:000004a0       ??_C@_0N@JGIPLKJE@?$CKspot_sniper@ 300b24a0     bg_misc.obj
 0002:000004b0       ??_C@_0N@KDPAKEEJ@?$CKspot_troops@ 300b24b0     bg_misc.obj
 0002:000004c0       ??_C@_0L@EHELGHNE@?$CKtac_cover@ 300b24c0     bg_misc.obj
 0002:000004cc       ??_C@_0O@NFGMPNBH@?$CKtac_fallback@ 300b24cc     bg_misc.obj
 0002:000004dc       ??_C@_0M@PABJGNLG@?$CKtac_follow@ 300b24dc     bg_misc.obj
 0002:000004e8       ??_C@_09DINJJNAI@?$CKtac_hold@ 300b24e8     bg_misc.obj
 0002:000004f4       ??_C@_0L@MGMJIMAF@?$CKtac_split@ 300b24f4     bg_misc.obj
 0002:00000500       ??_C@_0O@GKPNHIOC@?$CKtac_together@ 300b2500     bg_misc.obj
 0002:00000510       ??_C@_08BLACEHGF@MASTERY0@ 300b2510     bg_misc.obj
 0002:0000051c       ??_C@_08CBJHGCE@MASTERY1@  300b251c     bg_misc.obj
 0002:00000528       ??_C@_08CJDECFOH@MASTERY2@ 300b2528     bg_misc.obj
 0002:00000534       ??_C@_08DACPBEKG@MASTERY3@ 300b2534     bg_misc.obj
 0002:00000540       ??_C@_08HPGOICGB@MASTERY4@ 300b2540     bg_misc.obj
 0002:0000054c       ??_C@_08GGHFLDCA@MASTERY5@ 300b254c     bg_misc.obj
 0002:00000558       ??_C@_08ENFIOAOD@MASTERY6@ 300b2558     bg_misc.obj
 0002:00000564       ??_C@_08FEEDNBKC@MASTERY7@ 300b2564     bg_misc.obj
 0002:0000056d       ??_C@_00CNPNBAHC@@         300b256d     bg_misc.obj
 0002:00000570       ??_C@_0BH@DINJFPKN@item_shield_sm_instant@ 300b2570     bg_misc.obj
 0002:00000588       ??_C@_0BO@CHCEMMJK@sound?1player?1pickupshield?4wav@ 300b2588     bg_misc.obj
 0002:000005a8       ??_C@_0CB@FFNAAGJJ@models?1map_objects?1mp?1psd_sm?4md@ 300b25a8     bg_misc.obj
 0002:000005cc       ??_C@_0BE@GPDHMLPP@gfx?1mp?1small_shield@ 300b25cc     bg_misc.obj
 0002:000005e0       ??_C@_0BI@HGJKGJEB@item_shield_lrg_instant@ 300b25e0     bg_misc.obj
 0002:000005f8       ??_C@_0BO@JPJCNECL@models?1map_objects?1mp?1psd?4md3@ 300b25f8     bg_misc.obj
 0002:00000618       ??_C@_0BE@JKBNBKPH@gfx?1mp?1large_shield@ 300b2618     bg_misc.obj
 0002:0000062c       ??_C@_0BE@MEFMIHAD@item_medpak_instant@ 300b262c     bg_misc.obj
 0002:00000640       ??_C@_0BO@NIGJKPEE@sound?1player?1pickuphealth?4wav@ 300b2640     bg_misc.obj
 0002:00000660       ??_C@_0CB@PABPOCJH@models?1map_objects?1mp?1medpac?4md@ 300b2660     bg_misc.obj
 0002:00000684       ??_C@_0BG@PFBKDHHG@gfx?1hud?1i_icon_medkit@ 300b2684     bg_misc.obj
 0002:0000069c       ??_C@_0M@CJHMIAK@item_seeker@ 300b269c     bg_misc.obj
 0002:000006a8       ??_C@_0BJ@IBMECGJM@sound?1weapons?1w_pkup?4wav@ 300b26a8     bg_misc.obj
 0002:000006c4       ??_C@_0BI@PEKMFNBP@models?1items?1remote?4md3@ 300b26c4     bg_misc.obj
 0002:000006dc       ??_C@_0BG@KANLKHLH@gfx?1hud?1i_icon_seeker@ 300b26dc     bg_misc.obj
 0002:000006f4       ??_C@_0BP@JJMOPAPI@?$EAMENUS_AN_ATTACK_DRONE_SIMILAR@ 300b26f4     bg_misc.obj
 0002:00000714       ??_C@_0M@IIGPMPLO@item_shield@ 300b2714     bg_misc.obj
 0002:00000720       ??_C@_0CB@EAKHAPIK@models?1map_objects?1mp?1shield?4md@ 300b2720     bg_misc.obj
 0002:00000744       ??_C@_0BK@OODCPGGP@gfx?1hud?1i_icon_shieldwall@ 300b2744     bg_misc.obj
 0002:00000760       ??_C@_0KM@PHBHELNF@sound?1weapons?1detpack?1stick?4wav@ 300b2760     bg_misc.obj
 0002:0000080c       ??_C@_0BO@HHEDFEHB@?$EAMENUS_THIS_STATIONARY_ENERGY@ 300b280c     bg_misc.obj
 0002:0000082c       ??_C@_0M@NLNOFNHL@item_medpac@ 300b282c     bg_misc.obj
 0002:00000838       ??_C@_0CA@COCFAODK@models?1map_objects?1mp?1bacta?4md3@ 300b2838     bg_misc.obj
 0002:00000858       ??_C@_0BF@EDJNGJL@gfx?1hud?1i_icon_bacta@ 300b2858     bg_misc.obj
 0002:00000870       ??_C@_0BG@BFJBNBGL@?$EASP_INGAME_BACTA_DESC@ 300b2870     bg_misc.obj
 0002:00000888       ??_C@_0BD@LMNDHPPK@item_shieldbooster@ 300b2888     bg_misc.obj
 0002:0000089c       ??_C@_0BN@HOLCIIND@gfx?1hud?1i_icon_shieldbooster@ 300b289c     bg_misc.obj
 0002:000008bc       ??_C@_0BA@KBLOKIGM@item_binoculars@ 300b28bc     bg_misc.obj
 0002:000008cc       ??_C@_0BM@HNHCIOH@models?1items?1binoculars?4md3@ 300b28cc     bg_misc.obj
 0002:000008e8       ??_C@_0BE@PKBACEEE@gfx?1hud?1i_icon_zoom@ 300b28e8     bg_misc.obj
 0002:000008fc       ??_C@_0BL@PADDACKM@?$EASP_INGAME_LA_GOGGLES_DESC@ 300b28fc     bg_misc.obj
 0002:00000918       ??_C@_0BA@HKIJMOIG@item_sentry_gun@ 300b2918     bg_misc.obj
 0002:00000928       ??_C@_0BH@PFALJFOC@models?1items?1psgun?4glm@ 300b2928     bg_misc.obj
 0002:00000940       ??_C@_0BJ@JKBMBJCM@gfx?1hud?1i_icon_sentrygun@ 300b2940     bg_misc.obj
 0002:0000095c       ??_C@_0BN@MFHKBDDJ@?$EAMENUS_THIS_DEADLY_WEAPON_IS@ 300b295c     bg_misc.obj
 0002:0000097c       ??_C@_0N@EIBGMPAH@item_jetpack@ 300b297c     bg_misc.obj
 0002:0000098c       ??_C@_0BH@PNGEEMFJ@gfx?1hud?1i_icon_jetpack@ 300b298c     bg_misc.obj
 0002:000009a4       ??_C@_0BF@CHFBNMLA@effects?1boba?1jet?4efx@ 300b29a4     bg_misc.obj
 0002:000009c0       ??_C@_0FD@EDGCAKBF@sound?1chars?1boba?1JETON?4wav?5soun@ 300b29c0     bg_misc.obj
 0002:00000a14       ??_C@_0BE@JOMGFMAF@?$EAMENUS_JETPACK_DESC@ 300b2a14     bg_misc.obj
 0002:00000a28       ??_C@_0P@JIJKDGKE@item_squadteam@ 300b2a28     bg_misc.obj
 0002:00000a38       ??_C@_0BJ@MIBDCBJG@gfx?1hud?1i_icon_squadteam@ 300b2a38     bg_misc.obj
 0002:00000a54       ??_C@_0BC@LAPFGMJJ@item_vehiclemount@ 300b2a54     bg_misc.obj
 0002:00000a68       ??_C@_0BM@GPNOCCF@gfx?1hud?1i_icon_vehiclemount@ 300b2a68     bg_misc.obj
 0002:00000a84       ??_C@_0BD@FNDPGFNF@item_eweb_holdable@ 300b2a84     bg_misc.obj
 0002:00000a98       ??_C@_0CA@PCDIFNM@sound?1interface?1shieldcon_empty@ 300b2a98     bg_misc.obj
 0002:00000ab8       ??_C@_0CH@FJBCGPDI@models?1map_objects?1hoth?1eweb_mo@ 300b2ab8     bg_misc.obj
 0002:00000ae0       ??_C@_0BE@HACMCHO@gfx?1hud?1i_icon_eweb@ 300b2ae0     bg_misc.obj
 0002:00000af4       ??_C@_0BB@BOLMLFOH@?$EAMENUS_EWEB_DESC@ 300b2af4     bg_misc.obj
 0002:00000b08       ??_C@_0L@LGDPDIAF@item_cloak@ 300b2b08     bg_misc.obj
 0002:00000b14       ??_C@_0BF@JNCBPHCG@gfx?1hud?1i_icon_cloak@ 300b2b14     bg_misc.obj
 0002:00000b2c       ??_C@_0BC@GHMKCCIP@?$EAMENUS_CLOAK_DESC@ 300b2b2c     bg_misc.obj
 0002:00000b40       ??_C@_0BC@FEOIGMFL@item_flamethrower@ 300b2b40     bg_misc.obj
 0002:00000b54       ??_C@_0BF@LKKKMFEM@gfx?1hud?1i_icon_flame@ 300b2b54     bg_misc.obj
 0002:00000b6c       ??_C@_0N@LDKIPHF@Flamethrower@ 300b2b6c     bg_misc.obj
 0002:00000b7c       ??_C@_0BE@DEHFGJJM@item_electroshocker@ 300b2b7c     bg_misc.obj
 0002:00000b90       ??_C@_0BO@HGAFJAAH@gfx?1hud?1i_icon_electroshocker@ 300b2b90     bg_misc.obj
 0002:00000bb0       ??_C@_0P@GHBIMKA@Electroshocker@ 300b2bb0     bg_misc.obj
 0002:00000bc0       ??_C@_0BC@EFHFLELG@item_sphereshield@ 300b2bc0     bg_misc.obj
 0002:00000bd4       ??_C@_0BM@PDHNDKAK@gfx?1hud?1i_icon_sphereshield@ 300b2bd4     bg_misc.obj
 0002:00000bf0       ??_C@_0N@BKKHFHJI@Sphereshield@ 300b2bf0     bg_misc.obj
 0002:00000c00       ??_C@_0O@BEKOJGOG@item_overload@ 300b2c00     bg_misc.obj
 0002:00000c10       ??_C@_0BI@JIMIJIJG@gfx?1hud?1i_icon_overload@ 300b2c10     bg_misc.obj
 0002:00000c28       ??_C@_08JKIFACLF@Overload@ 300b2c28     bg_misc.obj
 0002:00000c34       ??_C@_0N@FPALLBPH@item_grapple@ 300b2c34     bg_misc.obj
 0002:00000c44       ??_C@_0BH@OKHJDCKJ@gfx?1hud?1i_icon_grapple@ 300b2c44     bg_misc.obj
 0002:00000c5c       ??_C@_07MKHABLGK@Grapple@  300b2c5c     bg_misc.obj
 0002:00000c64       ??_C@_0BL@MINBJMDE@item_force_enlighten_light@ 300b2c64     bg_misc.obj
 0002:00000c80       ??_C@_0BP@GFNNPIJO@sound?1player?1enlightenment?4wav@ 300b2c80     bg_misc.obj
 0002:00000ca0       ??_C@_0CN@DIMKCGKC@models?1map_objects?1mp?1jedi_enli@ 300b2ca0     bg_misc.obj
 0002:00000cd0       ??_C@_0BD@MPGMMGMB@gfx?1hud?1mpi_jlight@ 300b2cd0     bg_misc.obj
 0002:00000ce4       ??_C@_0BK@JFKBFAGB@item_force_enlighten_dark@ 300b2ce4     bg_misc.obj
 0002:00000d00       ??_C@_0CL@IJLGBCPL@models?1map_objects?1mp?1dk_enligh@ 300b2d00     bg_misc.obj
 0002:00000d2c       ??_C@_0BE@NFHAGLDO@gfx?1hud?1mpi_dklight@ 300b2d2c     bg_misc.obj
 0002:00000d40       ??_C@_0BA@HALIIJIE@item_force_boon@ 300b2d40     bg_misc.obj
 0002:00000d50       ??_C@_0BG@GFIPDGIH@sound?1player?1boon?4wav@ 300b2d50     bg_misc.obj
 0002:00000d68       ??_C@_0CF@JPDLAKMB@models?1map_objects?1mp?1force_boo@ 300b2d68     bg_misc.obj
 0002:00000d90       ??_C@_0BC@DEOLDKOL@gfx?1hud?1mpi_fboon@ 300b2d90     bg_misc.obj
 0002:00000da4       ??_C@_0P@BMGIHJKN@item_ysalimari@ 300b2da4     bg_misc.obj
 0002:00000db4       ??_C@_0BL@LEFKKCEP@sound?1player?1ysalimari?4wav@ 300b2db4     bg_misc.obj
 0002:00000dd0       ??_C@_0CE@KCIGBHIN@models?1map_objects?1mp?1ysalimari@ 300b2dd0     bg_misc.obj
 0002:00000df4       ??_C@_0BE@OEFHDNBF@gfx?1hud?1mpi_ysamari@ 300b2df4     bg_misc.obj
 0002:00000e08       ??_C@_0BC@EJEDEKOE@weapon_stun_baton@ 300b2e08     bg_misc.obj
 0002:00000e1c       ??_C@_0CH@BLMKNANE@models?1weapons2?1stun_baton?1bato@ 300b2e1c     bg_misc.obj
 0002:00000e44       ??_C@_0CF@INEBKGM@models?1weapons2?1stun_baton?1bato@ 300b2e44     bg_misc.obj
 0002:00000e6c       ??_C@_0BJ@JFPGMAAH@gfx?1hud?1w_icon_stunbaton@ 300b2e6c     bg_misc.obj
 0002:00000e88       ??_C@_0N@LBBGELFA@weapon_melee@ 300b2e88     bg_misc.obj
 0002:00000e98       ??_C@_0BF@GPOFHEPB@gfx?1hud?1w_icon_melee@ 300b2e98     bg_misc.obj
 0002:00000eb0       ??_C@_0BC@CEFBGLCB@?$EAMENUS_MELEE_DESC@ 300b2eb0     bg_misc.obj
 0002:00000ec4       ??_C@_0N@JIBGHNNO@weapon_saber@ 300b2ec4     bg_misc.obj
 0002:00000ed4       ??_C@_0CC@PBCBCODB@models?1weapons2?1saber?1saber_w?4g@ 300b2ed4     bg_misc.obj
 0002:00000ef8       ??_C@_0CC@LELHOPDH@models?1weapons2?1saber?1saber_w?4m@ 300b2ef8     bg_misc.obj
 0002:00000f1c       ??_C@_0BK@DENAAEJI@gfx?1hud?1w_icon_lightsaber@ 300b2f1c     bg_misc.obj
 0002:00000f38       ??_C@_0BN@GPMHMMHO@?$EAMENUS_AN_ELEGANT_WEAPON_FOR@ 300b2f38     bg_misc.obj
 0002:00000f58       ??_C@_0BG@JEHALHIL@weapon_blaster_pistol@ 300b2f58     bg_misc.obj
 0002:00000f70       ??_C@_0DE@EHAMJOHG@models?1weapons2?1blaster_pistol?1@ 300b2f70     bg_misc.obj
 0002:00000fa4       ??_C@_0DC@EGNBDNKO@models?1weapons2?1blaster_pistol?1@ 300b2fa4     bg_misc.obj
 0002:00000fd8       ??_C@_0BO@EGOADNOO@gfx?1hud?1w_icon_blaster_pistol@ 300b2fd8     bg_misc.obj
 0002:00000ff8       ??_C@_0BL@EJPJHBLO@?$EAMENUS_BLASTER_PISTOL_DESC@ 300b2ff8     bg_misc.obj
 0002:00001014       ??_C@_0BI@JFLEEDJH@weapon_concussion_rifle@ 300b3014     bg_misc.obj
 0002:0000102c       ??_C@_0CJ@OKJJMKPH@models?1weapons2?1concussion?1c_ri@ 300b302c     bg_misc.obj
 0002:00001058       ??_C@_0CH@PIBGBJPN@models?1weapons2?1concussion?1c_ri@ 300b3058     bg_misc.obj
 0002:00001080       ??_C@_0BH@PEIIGOLA@gfx?1hud?1w_icon_c_rifle@ 300b3080     bg_misc.obj
 0002:00001098       ??_C@_0BH@OEFKMKID@?$EAMENUS_CONC_RIFLE_DESC@ 300b3098     bg_misc.obj
 0002:000010b0       ??_C@_0BE@NCEGAEHJ@weapon_bryar_pistol@ 300b30b0     bg_misc.obj
 0002:000010c4       ??_C@_0DA@DCLFBBNM@models?1weapons2?1briar_pistol?1br@ 300b30c4     bg_misc.obj
 0002:000010f4       ??_C@_0CO@LMBDAEMJ@models?1weapons2?1briar_pistol?1br@ 300b30f4     bg_misc.obj
 0002:00001124       ??_C@_0BF@HJCHFBMO@gfx?1hud?1w_icon_briar@ 300b3124     bg_misc.obj
 0002:0000113c       ??_C@_0BK@JHPMONHL@?$EASP_INGAME_BLASTER_PISTOL@ 300b313c     bg_misc.obj
 0002:00001158       ??_C@_0P@PPIDHAJM@weapon_blaster@ 300b3158     bg_misc.obj
 0002:00001168       ??_C@_0CI@FHMEJMJP@models?1weapons2?1blaster_r?1blast@ 300b3168     bg_misc.obj
 0002:00001190       ??_C@_0CG@IJILPHPH@models?1weapons2?1blaster_r?1blast@ 300b3190     bg_misc.obj
 0002:000011b8       ??_C@_0BH@POPJAOPK@gfx?1hud?1w_icon_blaster@ 300b31b8     bg_misc.obj
 0002:000011d0       ??_C@_0BN@KLDCJACF@?$EAMENUS_THE_PRIMARY_WEAPON_OF@ 300b31d0     bg_misc.obj
 0002:000011f0       ??_C@_0BB@EKCEEAKB@weapon_disruptor@ 300b31f0     bg_misc.obj
 0002:00001204       ??_C@_0CK@LDOPBIMF@models?1weapons2?1disruptor?1disru@ 300b3204     bg_misc.obj
 0002:00001230       ??_C@_0CI@KNAINLEF@models?1weapons2?1disruptor?1disru@ 300b3230     bg_misc.obj
 0002:00001258       ??_C@_0BJ@MODONBMB@gfx?1hud?1w_icon_disruptor@ 300b3258     bg_misc.obj
 0002:00001274       ??_C@_0BN@PDALGMFE@?$EAMENUS_THIS_NEFARIOUS_WEAPON@ 300b3274     bg_misc.obj
 0002:00001294       ??_C@_0BB@KDLDGPGH@weapon_bowcaster@ 300b3294     bg_misc.obj
 0002:000012a8       ??_C@_0CK@OFDEGMIN@models?1weapons2?1bowcaster?1bowca@ 300b32a8     bg_misc.obj
 0002:000012d4       ??_C@_0CI@MANABGJH@models?1weapons2?1bowcaster?1bowca@ 300b32d4     bg_misc.obj
 0002:000012fc       ??_C@_0BJ@CHKJPOAH@gfx?1hud?1w_icon_bowcaster@ 300b32fc     bg_misc.obj
 0002:00001318       ??_C@_0BM@MHHBLDA@?$EAMENUS_THIS_ARCHAIC_LOOKING@ 300b3318     bg_misc.obj
 0002:00001334       ??_C@_0BA@BKCKPFDA@weapon_repeater@ 300b3334     bg_misc.obj
 0002:00001344       ??_C@_0DE@LBIFBLHF@models?1weapons2?1heavy_repeater?1@ 300b3344     bg_misc.obj
 0002:00001378       ??_C@_0DC@FAHGABEB@models?1weapons2?1heavy_repeater?1@ 300b3378     bg_misc.obj
 0002:000013ac       ??_C@_0BI@LOPKELCD@gfx?1hud?1w_icon_repeater@ 300b33ac     bg_misc.obj
 0002:000013c4       ??_C@_0CD@FCKGGFFG@?$EAMENUS_THIS_DESTRUCTIVE_PROJECT@ 300b33c4     bg_misc.obj
 0002:000013e8       ??_C@_0N@MBLCNHPF@weapon_demp2@ 300b33e8     bg_misc.obj
 0002:000013f8       ??_C@_0CC@DIKAHCC@models?1weapons2?1demp2?1demp2_w?4g@ 300b33f8     bg_misc.obj
 0002:0000141c       ??_C@_0CA@PKACJAPI@models?1weapons2?1demp2?1demp2?4md3@ 300b341c     bg_misc.obj
 0002:0000143c       ??_C@_0BF@BPEBOIFE@gfx?1hud?1w_icon_demp2@ 300b343c     bg_misc.obj
 0002:00001454       ??_C@_0BM@BCDPDFEB@?$EAMENUS_COMMONLY_REFERRED_TO@ 300b3454     bg_misc.obj
 0002:00001470       ??_C@_0BB@HNIDLLLF@weapon_flechette@ 300b3470     bg_misc.obj
 0002:00001484       ??_C@_0CM@GDMOBBJ@models?1weapons2?1golan_arms?1gola@ 300b3484     bg_misc.obj
 0002:000014b0       ??_C@_0CK@CNAHGKMH@models?1weapons2?1golan_arms?1gola@ 300b34b0     bg_misc.obj
 0002:000014dc       ??_C@_0BJ@PJJJCKNF@gfx?1hud?1w_icon_flechette@ 300b34dc     bg_misc.obj
 0002:000014f8       ??_C@_0CE@HHDMNMLP@?$EAMENUS_WIDELY_USED_BY_THE_CORPO@ 300b34f8     bg_misc.obj
 0002:0000151c       ??_C@_0BH@CFPMIEJH@weapon_rocket_launcher@ 300b351c     bg_misc.obj
 0002:00001534       ??_C@_0CK@IJJCBMNO@models?1weapons2?1merr_sonn?1merr_@ 300b3534     bg_misc.obj
 0002:00001560       ??_C@_0CI@CPIMDKHH@models?1weapons2?1merr_sonn?1merr_@ 300b3560     bg_misc.obj
 0002:00001588       ??_C@_0BI@DDNFEDEJ@gfx?1hud?1w_icon_merrsonn@ 300b3588     bg_misc.obj
 0002:000015a0       ??_C@_0CC@EJOKBHDJ@?$EAMENUS_THE_PLX_2M_IS_AN_EXTREME@ 300b35a0     bg_misc.obj
 0002:000015c4       ??_C@_0N@IBCNMHOJ@ammo_thermal@ 300b35c4     bg_misc.obj
 0002:000015d4       ??_C@_0CH@BBPIBDBM@models?1weapons2?1thermal?1thermal@ 300b35d4     bg_misc.obj
 0002:000015fc       ??_C@_0CG@CCBCCJGG@models?1weapons2?1thermal?1thermal@ 300b35fc     bg_misc.obj
 0002:00001624       ??_C@_0CE@PJGNCPEG@models?1weapons2?1thermal?1thermal@ 300b3624     bg_misc.obj
 0002:00001648       ??_C@_0BH@OIMKPGPF@gfx?1hud?1w_icon_thermal@ 300b3648     bg_misc.obj
 0002:00001660       ??_C@_0BN@FMFLLCGL@?$EAMENUS_THE_THERMAL_DETONATOR@ 300b3660     bg_misc.obj
 0002:00001680       ??_C@_0O@GAPOPCOE@ammo_tripmine@ 300b3680     bg_misc.obj
 0002:00001690       ??_C@_0CN@JOEHJLGB@models?1weapons2?1laser_trap?1lase@ 300b3690     bg_misc.obj
 0002:000016c0       ??_C@_0CM@PIAEKLLK@models?1weapons2?1laser_trap?1lase@ 300b36c0     bg_misc.obj
 0002:000016ec       ??_C@_0CK@BPCANEAG@models?1weapons2?1laser_trap?1lase@ 300b36ec     bg_misc.obj
 0002:00001718       ??_C@_0BI@HEJGEJJK@gfx?1hud?1w_icon_tripmine@ 300b3718     bg_misc.obj
 0002:00001730       ??_C@_0BN@CMMDBNGF@?$EAMENUS_TRIP_MINES_CONSIST_OF@ 300b3730     bg_misc.obj
 0002:00001750       ??_C@_0N@CIBIOIEN@ammo_detpack@ 300b3750     bg_misc.obj
 0002:00001760       ??_C@_0CI@CBJMGLP@models?1weapons2?1detpack?1det_pac@ 300b3760     bg_misc.obj
 0002:00001788       ??_C@_0CK@CDFEGPDE@models?1weapons2?1detpack?1det_pac@ 300b3788     bg_misc.obj
 0002:000017b4       ??_C@_0CH@KPFPNMHO@models?1weapons2?1detpack?1det_pac@ 300b37b4     bg_misc.obj
 0002:000017dc       ??_C@_0CF@NONMEFGL@models?1weapons2?1detpack?1det_pac@ 300b37dc     bg_misc.obj
 0002:00001804       ??_C@_0BH@EBPPNJFB@gfx?1hud?1w_icon_detpack@ 300b3804     bg_misc.obj
 0002:0000181c       ??_C@_0BM@MOLHJNKH@?$EAMENUS_A_DETONATION_PACK_IS@ 300b381c     bg_misc.obj
 0002:00001838       ??_C@_0P@OJLAIIJD@weapon_thermal@ 300b3838     bg_misc.obj
 0002:00001848       ??_C@_0BB@KBIODFKP@weapon_trip_mine@ 300b3848     bg_misc.obj
 0002:0000185c       ??_C@_0BA@DBJEACCG@weapon_det_pack@ 300b385c     bg_misc.obj
 0002:0000186c       ??_C@_0BA@PHDHEKAE@weapon_emplaced@ 300b386c     bg_misc.obj
 0002:0000187c       ??_C@_0BA@EENDCNMH@weapon_turretwp@ 300b387c     bg_misc.obj
 0002:0000188c       ??_C@_0L@GKDELMG@ammo_force@ 300b388c     bg_misc.obj
 0002:00001898       ??_C@_0BO@EBHMDMMM@sound?1player?1pickupenergy?4wav@ 300b3898     bg_misc.obj
 0002:000018b8       ??_C@_0BN@BKBHFNLE@models?1items?1energy_cell?4md3@ 300b38b8     bg_misc.obj
 0002:000018d8       ??_C@_0N@JHBODPOG@ammo_blaster@ 300b38d8     bg_misc.obj
 0002:000018e8       ??_C@_0BH@MFDMPLPM@gfx?1hud?1i_icon_battery@ 300b38e8     bg_misc.obj
 0002:00001900       ??_C@_0P@GBMHNHF@ammo_powercell@ 300b3900     bg_misc.obj
 0002:00001910       ??_C@_0BM@GDMBBHDI@models?1items?1power_cell?4md3@ 300b3910     bg_misc.obj
 0002:0000192c       ??_C@_0BH@KBMOAFPH@gfx?1mp?1ammo_power_cell@ 300b392c     bg_misc.obj
 0002:00001944       ??_C@_0BE@OMMGIMPN@ammo_metallic_bolts@ 300b3944     bg_misc.obj
 0002:00001958       ??_C@_0CA@POKDMLNN@models?1items?1metallic_bolts?4md3@ 300b3958     bg_misc.obj
 0002:00001978       ??_C@_0BL@IPLJCMOM@gfx?1mp?1ammo_metallic_bolts@ 300b3978     bg_misc.obj
 0002:00001994       ??_C@_0N@CLEPKBOE@ammo_rockets@ 300b3994     bg_misc.obj
 0002:000019a4       ??_C@_0BJ@BCBNBFGD@models?1items?1rockets?4md3@ 300b39a4     bg_misc.obj
 0002:000019c0       ??_C@_0BE@IIEBFJHN@gfx?1mp?1ammo_rockets@ 300b39c0     bg_misc.obj
 0002:000019d4       ??_C@_08LLJPIFOF@ammo_all@ 300b39d4     bg_misc.obj
 0002:000019e0       ??_C@_0BJ@DIDDNCPE@models?1items?1battery?4md3@ 300b39e0     bg_misc.obj
 0002:000019fc       ??_C@_0BB@JNMMCIHG@team_CTF_redflag@ 300b39fc     bg_misc.obj
 0002:00001a10       ??_C@_0BI@PEHEOJEO@models?1flags?1r_flag?4md3@ 300b3a10     bg_misc.obj
 0002:00001a28       ??_C@_0BN@DGDBEGIO@models?1flags?1r_flag_ysal?4md3@ 300b3a28     bg_misc.obj
 0002:00001a48       ??_C@_0BC@JAMFOFAL@gfx?1hud?1mpi_rflag@ 300b3a48     bg_misc.obj
 0002:00001a5c       ??_C@_0BC@NLKCOFAB@team_CTF_blueflag@ 300b3a5c     bg_misc.obj
 0002:00001a70       ??_C@_0BI@FKICCNIF@models?1flags?1b_flag?4md3@ 300b3a70     bg_misc.obj
 0002:00001a88       ??_C@_0BN@NABGHIBA@models?1flags?1b_flag_ysal?4md3@ 300b3a88     bg_misc.obj
 0002:00001aa8       ??_C@_0BC@JDBDOHJA@gfx?1hud?1mpi_bflag@ 300b3aa8     bg_misc.obj
 0002:00001abc       ??_C@_0BF@NFGOPKAE@team_CTF_neutralflag@ 300b3abc     bg_misc.obj
 0002:00001ad4       ??_C@_0BI@FAJILPEC@models?1flags?1n_flag?4md3@ 300b3ad4     bg_misc.obj
 0002:00001aec       ??_C@_0BF@OGGGKBMJ@icons?1iconf_neutral1@ 300b3aec     bg_misc.obj
 0002:00001b04       ??_C@_0N@IDOEINCB@item_redcube@ 300b3b04     bg_misc.obj
 0002:00001b14       ??_C@_0BO@LDKNFLC@models?1powerups?1orb?1r_orb?4md3@ 300b3b14     bg_misc.obj
 0002:00001b34       ??_C@_0BB@PKDLFOID@icons?1iconh_rorb@ 300b3b34     bg_misc.obj
 0002:00001b48       ??_C@_0O@NHDOFNIN@item_bluecube@ 300b3b48     bg_misc.obj
 0002:00001b58       ??_C@_0BO@CMJEFEFK@models?1powerups?1orb?1b_orb?4md3@ 300b3b58     bg_misc.obj
 0002:00001b78       ??_C@_0BB@JKNLMJAB@icons?1iconh_borb@ 300b3b78     bg_misc.obj
 0002:00001b8c       ??_C@_07JFMDDPHJ@EV_NONE@  300b3b8c     bg_misc.obj
 0002:00001b94       ??_C@_0O@JHBAELOC@EV_CLIENTJOIN@ 300b3b94     bg_misc.obj
 0002:00001ba4       ??_C@_0M@HLKBOJPO@EV_FOOTSTEP@ 300b3ba4     bg_misc.obj
 0002:00001bb0       ??_C@_0BC@DIJMAMMI@EV_FOOTSTEP_METAL@ 300b3bb0     bg_misc.obj
 0002:00001bc4       ??_C@_0O@HLJHKIDH@EV_FOOTSPLASH@ 300b3bc4     bg_misc.obj
 0002:00001bd4       ??_C@_0M@NPJBGELA@EV_FOOTWADE@ 300b3bd4     bg_misc.obj
 0002:00001be0       ??_C@_07FFIIIPLH@EV_SWIM@  300b3be0     bg_misc.obj
 0002:00001be8       ??_C@_09OLFOHJNB@EV_STEP_4@ 300b3be8     bg_misc.obj
 0002:00001bf4       ??_C@_09EHOLDGNN@EV_STEP_8@ 300b3bf4     bg_misc.obj
 0002:00001c00       ??_C@_0L@BKIECKKB@EV_STEP_12@ 300b3c00     bg_misc.obj
 0002:00001c0c       ??_C@_0L@HOOIOPKF@EV_STEP_16@ 300b3c0c     bg_misc.obj
 0002:00001c18       ??_C@_07JHCKGMKM@EV_FALL@  300b3c18     bg_misc.obj
 0002:00001c20       ??_C@_0N@PAALAJAC@EV_SABERLOCK@ 300b3c20     bg_misc.obj
 0002:00001c30       ??_C@_0P@BMAPLDAL@EV_GHOUL2_MARK@ 300b3c30     bg_misc.obj
 0002:00001c40       ??_C@_0P@MHGGNABN@EV_GLOBAL_DUEL@ 300b3c40     bg_misc.obj
 0002:00001c50       ??_C@_0BA@NCAJLGNF@EV_PRIVATE_DUEL@ 300b3c50     bg_misc.obj
 0002:00001c60       ??_C@_07GKBEHGAP@EV_JUMP@  300b3c60     bg_misc.obj
 0002:00001c68       ??_C@_07OCJFCKNN@EV_ROLL@  300b3c68     bg_misc.obj
 0002:00001c70       ??_C@_0P@GCDBKPMP@EV_WATER_TOUCH@ 300b3c70     bg_misc.obj
 0002:00001c80       ??_C@_0P@LHDMOIIG@EV_WATER_LEAVE@ 300b3c80     bg_misc.obj
 0002:00001c90       ??_C@_0P@MIAIODEJ@EV_WATER_UNDER@ 300b3c90     bg_misc.obj
 0002:00001ca0       ??_C@_0P@NIPCJOBG@EV_WATER_CLEAR@ 300b3ca0     bg_misc.obj
 0002:00001cb0       ??_C@_0P@BGIOEPCB@EV_ITEM_PICKUP@ 300b3cb0     bg_misc.obj
 0002:00001cc0       ??_C@_0BG@KFILGAMN@EV_GLOBAL_ITEM_PICKUP@ 300b3cc0     bg_misc.obj
 0002:00001cd8       ??_C@_0M@MNGOLNFL@EV_VEH_FIRE@ 300b3cd8     bg_misc.obj
 0002:00001ce4       ??_C@_09NMIICG@EV_NOAMMO@  300b3ce4     bg_misc.obj
 0002:00001cf0       ??_C@_0BB@ENKPHJLP@EV_CHANGE_WEAPON@ 300b3cf0     bg_misc.obj
 0002:00001d04       ??_C@_0P@PFJPAFGH@EV_FIRE_WEAPON@ 300b3d04     bg_misc.obj
 0002:00001d14       ??_C@_0M@LKPOHPHC@EV_ALT_FIRE@ 300b3d14     bg_misc.obj
 0002:00001d20       ??_C@_0BA@FJAFFDLF@EV_SABER_ATTACK@ 300b3d20     bg_misc.obj
 0002:00001d30       ??_C@_0N@IKFBFHKB@EV_SABER_HIT@ 300b3d30     bg_misc.obj
 0002:00001d40       ??_C@_0P@MNCBBKHB@EV_SABER_BLOCK@ 300b3d40     bg_misc.obj
 0002:00001d50       ??_C@_0BE@HNEOPGEL@EV_SABER_CLASHFLARE@ 300b3d50     bg_misc.obj
 0002:00001d64       ??_C@_0BD@FFJMPGGA@EV_SABER_UNHOLSTER@ 300b3d64     bg_misc.obj
 0002:00001d78       ??_C@_0BF@MBILLJJH@EV_BECOME_JEDIMASTER@ 300b3d78     bg_misc.obj
 0002:00001d90       ??_C@_0BH@KDGLLAMO@EV_DISRUPTOR_MAIN_SHOT@ 300b3d90     bg_misc.obj
 0002:00001da8       ??_C@_0BJ@MDNKGNJN@EV_DISRUPTOR_SNIPER_SHOT@ 300b3da8     bg_misc.obj
 0002:00001dc4       ??_C@_0BJ@POMLOPMI@EV_DISRUPTOR_SNIPER_MISS@ 300b3dc4     bg_misc.obj
 0002:00001de0       ??_C@_0BB@JNGCFFFI@EV_DISRUPTOR_HIT@ 300b3de0     bg_misc.obj
 0002:00001df4       ??_C@_0BH@GCPNKPAL@EV_DISRUPTOR_ZOOMSOUND@ 300b3df4     bg_misc.obj
 0002:00001e0c       ??_C@_0P@MDPKBHNH@EV_PREDEFSOUND@ 300b3e0c     bg_misc.obj
 0002:00001e1c       ??_C@_0O@GMONIJJI@EV_TEAM_POWER@ 300b3e1c     bg_misc.obj
 0002:00001e2c       ??_C@_0P@EIHBPBOL@EV_SCREENSHAKE@ 300b3e2c     bg_misc.obj
 0002:00001e3c       ??_C@_0O@GLOAIHAI@EV_LOCALTIMER@ 300b3e3c     bg_misc.obj
 0002:00001e4c       ??_C@_06LBDBNJG@EV_USE@    300b3e4c     bg_misc.obj
 0002:00001e54       ??_C@_0N@CGCBJKGD@EV_USE_ITEM0@ 300b3e54     bg_misc.obj
 0002:00001e64       ??_C@_0N@DPDKKLCC@EV_USE_ITEM1@ 300b3e64     bg_misc.obj
 0002:00001e74       ??_C@_0N@BEBHPIOB@EV_USE_ITEM2@ 300b3e74     bg_misc.obj
 0002:00001e84       ??_C@_0N@NAMMJKA@EV_USE_ITEM3@ 300b3e84     bg_misc.obj
 0002:00001e94       ??_C@_0N@ECENFPGH@EV_USE_ITEM4@ 300b3e94     bg_misc.obj
 0002:00001ea4       ??_C@_0N@FLFGGOCG@EV_USE_ITEM5@ 300b3ea4     bg_misc.obj
 0002:00001eb4       ??_C@_0N@HAHLDNOF@EV_USE_ITEM6@ 300b3eb4     bg_misc.obj
 0002:00001ec4       ??_C@_0N@GJGAAMKE@EV_USE_ITEM7@ 300b3ec4     bg_misc.obj
 0002:00001ed4       ??_C@_0N@OOPIBAGL@EV_USE_ITEM8@ 300b3ed4     bg_misc.obj
 0002:00001ee4       ??_C@_0N@PHODCBCK@EV_USE_ITEM9@ 300b3ee4     bg_misc.obj
 0002:00001ef4       ??_C@_0O@KBJENLM@EV_USE_ITEM10@ 300b3ef4     bg_misc.obj
 0002:00001f04       ??_C@_0O@BDACHMPN@EV_USE_ITEM11@ 300b3f04     bg_misc.obj
 0002:00001f14       ??_C@_0O@DICPCPDO@EV_USE_ITEM12@ 300b3f14     bg_misc.obj
 0002:00001f24       ??_C@_0O@CBDEBOHP@EV_USE_ITEM13@ 300b3f24     bg_misc.obj
 0002:00001f34       ??_C@_0O@GOHFIILI@EV_USE_ITEM14@ 300b3f34     bg_misc.obj
 0002:00001f44       ??_C@_0O@HHGOLJPJ@EV_USE_ITEM15@ 300b3f44     bg_misc.obj
 0002:00001f54       ??_C@_0P@JFHCOBFC@EV_ITEMUSEFAIL@ 300b3f54     bg_misc.obj
 0002:00001f64       ??_C@_0BA@GJNCODNG@EV_ITEM_RESPAWN@ 300b3f64     bg_misc.obj
 0002:00001f74       ??_C@_0M@ECGFPIMP@EV_ITEM_POP@ 300b3f74     bg_misc.obj
 0002:00001f80       ??_C@_0BG@HBBJKNDP@EV_PLAYER_TELEPORT_IN@ 300b3f80     bg_misc.obj
 0002:00001f98       ??_C@_0BH@FNNILPIN@EV_PLAYER_TELEPORT_OUT@ 300b3f98     bg_misc.obj
 0002:00001fb0       ??_C@_0BC@ECIIAFLJ@EV_GRENADE_BOUNCE@ 300b3fb0     bg_misc.obj
 0002:00001fc4       ??_C@_0BB@JGOOAGDJ@EV_MISSILE_STICK@ 300b3fc4     bg_misc.obj
 0002:00001fd8       ??_C@_0P@PLIFONPM@EV_PLAY_EFFECT@ 300b3fd8     bg_misc.obj
 0002:00001fe8       ??_C@_0BC@LCOMFDPL@EV_PLAY_EFFECT_ID@ 300b3fe8     bg_misc.obj
 0002:00001ffc       ??_C@_0BJ@CGDHKBCK@EV_PLAY_PORTAL_EFFECT_ID@ 300b3ffc     bg_misc.obj
 0002:00002018       ??_C@_0BB@OGNONJKP@EV_PLAYDOORSOUND@ 300b4018     bg_misc.obj
 0002:0000202c       ??_C@_0BF@BLAPJAMF@EV_PLAYDOORLOOPSOUND@ 300b402c     bg_misc.obj
 0002:00002044       ??_C@_0BA@EGLCGAMO@EV_BMODEL_SOUND@ 300b4044     bg_misc.obj
 0002:00002054       ??_C@_0O@JHBKAOKG@EV_MUTE_SOUND@ 300b4054     bg_misc.obj
 0002:00002064       ??_C@_0BC@GMNGJAOD@EV_VOICECMD_SOUND@ 300b4064     bg_misc.obj
 0002:00002078       ??_C@_0BB@LJGGMAII@EV_GENERAL_SOUND@ 300b4078     bg_misc.obj
 0002:0000208c       ??_C@_0BA@JAMKLOPJ@EV_GLOBAL_SOUND@ 300b408c     bg_misc.obj
 0002:0000209c       ??_C@_0BF@DDOIKLHD@EV_GLOBAL_TEAM_SOUND@ 300b409c     bg_misc.obj
 0002:000020b4       ??_C@_0BA@LLJGBFCE@EV_ENTITY_SOUND@ 300b40b4     bg_misc.obj
 0002:000020c4       ??_C@_0N@BEKJCCJE@EV_PLAY_ROFF@ 300b40c4     bg_misc.obj
 0002:000020d4       ??_C@_0BB@HHFJBAND@EV_GLASS_SHATTER@ 300b40d4     bg_misc.obj
 0002:000020e8       ??_C@_09KLJDDMJG@EV_DEBRIS@ 300b40e8     bg_misc.obj
 0002:000020f4       ??_C@_0BC@MLGOBNCG@EV_MISC_MODEL_EXP@ 300b40f4     bg_misc.obj
 0002:00002108       ??_C@_0BD@PIOAMKHB@EV_CONC_ALT_IMPACT@ 300b4108     bg_misc.obj
 0002:0000211c       ??_C@_0P@JFMFNBMO@EV_MISSILE_HIT@ 300b411c     bg_misc.obj
 0002:0000212c       ??_C@_0BA@CAHALNAE@EV_MISSILE_MISS@ 300b412c     bg_misc.obj
 0002:0000213c       ??_C@_0BG@LPAHEABB@EV_MISSILE_MISS_METAL@ 300b413c     bg_misc.obj
 0002:00002154       ??_C@_09ICDIPKFJ@EV_BULLET@ 300b4154     bg_misc.obj
 0002:00002160       ??_C@_07EMHHKOOH@EV_PAIN@  300b4160     bg_misc.obj
 0002:00002168       ??_C@_09JPFBHKII@EV_DEATH1@ 300b4168     bg_misc.obj
 0002:00002174       ??_C@_09LEHMCJEL@EV_DEATH2@ 300b4174     bg_misc.obj
 0002:00002180       ??_C@_09KNGHBIAK@EV_DEATH3@ 300b4180     bg_misc.obj
 0002:0000218c       ??_C@_0M@PPLCDPP@EV_OBITUARY@ 300b418c     bg_misc.obj
 0002:00002198       ??_C@_0BA@HLHGHIIE@EV_POWERUP_QUAD@ 300b4198     bg_misc.obj
 0002:000021a8       ??_C@_0BG@CHAMNADK@EV_POWERUP_BATTLESUIT@ 300b41a8     bg_misc.obj
 0002:000021c0       ??_C@_0BB@KGMADNKO@EV_FORCE_DRAINED@ 300b41c0     bg_misc.obj
 0002:000021d4       ??_C@_0BB@LDCLJANJ@EV_FORCE_SEVERED@ 300b41d4     bg_misc.obj
 0002:000021e8       ??_C@_0BA@PGDIDKOJ@EV_FORCE_HEALED@ 300b41e8     bg_misc.obj
 0002:000021f8       ??_C@_0BF@OMLNBOMB@EV_FORCE_REGENERATED@ 300b41f8     bg_misc.obj
 0002:00002210       ??_C@_0BA@FPIIBJNI@EV_FORCE_STASIS@ 300b4210     bg_misc.obj
 0002:00002220       ??_C@_0BC@MKAIHILO@EV_FORCE_INSANITY@ 300b4220     bg_misc.obj
 0002:00002234       ??_C@_0BD@NHHNFEOE@EV_FORCE_LIGHTNING@ 300b4234     bg_misc.obj
 0002:00002248       ??_C@_0BD@EMEDLHAI@EV_FORCE_JUDGEMENT@ 300b4248     bg_misc.obj
 0002:0000225c       ??_C@_0BG@KGJCLJPB@EV_FORCE_DEATHFIELDED@ 300b425c     bg_misc.obj
 0002:00002274       ??_C@_0BG@HKJINGOK@EV_FORCE_DEATHSIGHTED@ 300b4274     bg_misc.obj
 0002:0000228c       ??_C@_0BB@GGIAGNKD@EV_FORCE_BLINDED@ 300b428c     bg_misc.obj
 0002:000022a0       ??_C@_09LNCDAJGA@EV_BURNED@ 300b42a0     bg_misc.obj
 0002:000022ac       ??_C@_09OJINGGLK@EV_FROZEN@ 300b42ac     bg_misc.obj
 0002:000022b8       ??_C@_0L@MJMHMMBL@EV_SHOCKED@ 300b42b8     bg_misc.obj
 0002:000022c4       ??_C@_0L@ONOAHIP@EV_SOUNDED@ 300b42c4     bg_misc.obj
 0002:000022d0       ??_C@_0L@EBIMIOFL@EV_FLASHED@ 300b42d0     bg_misc.obj
 0002:000022dc       ??_C@_0O@JLGFLKBE@EV_GIB_PLAYER@ 300b42dc     bg_misc.obj
 0002:000022ec       ??_C@_0N@GAJBP@EV_SCOREPLUM@ 300b42ec     bg_misc.obj
 0002:000022fc       ??_C@_0O@NEHCEMNJ@EV_CTFMESSAGE@ 300b42fc     bg_misc.obj
 0002:0000230c       ??_C@_0M@GBGEMMKK@EV_BODYFADE@ 300b430c     bg_misc.obj
 0002:00002318       ??_C@_0BD@LACADBAO@EV_SIEGE_ROUNDOVER@ 300b4318     bg_misc.obj
 0002:0000232c       ??_C@_0BL@CGBBFEIE@EV_SIEGE_OBJECTIVECOMPLETE@ 300b432c     bg_misc.obj
 0002:00002348       ??_C@_0BL@DNICLAEN@EV_DESTROY_GHOUL2_INSTANCE@ 300b4348     bg_misc.obj
 0002:00002364       ??_C@_0BI@CEGPCIEH@EV_DESTROY_WEAPON_MODEL@ 300b4364     bg_misc.obj
 0002:0000237c       ??_C@_0BB@JIHOLMBD@EV_GIVE_NEW_RANK@ 300b437c     bg_misc.obj
 0002:00002390       ??_C@_0BC@DDJADHAK@EV_SET_FREE_SABER@ 300b4390     bg_misc.obj
 0002:000023a4       ??_C@_0BF@KFICFFCM@EV_SET_FORCE_DISABLE@ 300b43a4     bg_misc.obj
 0002:000023bc       ??_C@_0BB@HAHOHAKJ@EV_WEAPON_CHARGE@ 300b43bc     bg_misc.obj
 0002:000023d0       ??_C@_0BF@LLJHJACN@EV_WEAPON_CHARGE_ALT@ 300b43d0     bg_misc.obj
 0002:000023e8       ??_C@_0O@CBLOOGHB@EV_SHIELD_HIT@ 300b43e8     bg_misc.obj
 0002:000023f8       ??_C@_0O@PBPAKHP@EV_DEBUG_LINE@ 300b43f8     bg_misc.obj
 0002:00002408       ??_C@_0M@LDAKOPJP@EV_TESTLINE@ 300b4408     bg_misc.obj
 0002:00002414       ??_C@_0BE@OHJHDFJH@EV_STOPLOOPINGSOUND@ 300b4414     bg_misc.obj
 0002:00002428       ??_C@_0BF@EAHNFOOG@EV_STARTLOOPINGSOUND@ 300b4428     bg_misc.obj
 0002:00002440       ??_C@_08GBKLDCBE@EV_TAUNT@ 300b4440     bg_misc.obj
 0002:0000244c       ??_C@_0BG@LLNBCDKB@EV_PLAY_EFFECT_BOLTED@ 300b444c     bg_misc.obj
 0002:00002464       ??_C@_08OEKJENGB@?$CFf?5?$CFf?5?$CFf@ 300b4464     bg_misc.obj
 0002:00002470       ??_C@_0CI@GINMDDBF@5?91?9000000000000000000000000000@ 300b4470     bg_misc.obj
 0002:00002498       ??_C@_02IKAHHCAI@?$CFi@    300b4498     bg_misc.obj
 0002:0000249c       ??_C@_0BH@MFGKJDLM@HoldableItem?5not?5found@ 300b449c     bg_misc.obj
 0002:000024b4       ??_C@_0CB@DEACFJO@Couldn?8t?5find?5item?5for?5weapon?5?$CF@ 300b44b4     bg_misc.obj
 0002:000024d8       ??_C@_0CI@MFONMA@BG_CanItemBeGrabbed?3?5index?5out?5@ 300b44d8     bg_misc.obj
 0002:00002500       ??_C@_0BM@NECGLAIF@BG_CanItemBeGrabbed?3?5IT_BAD@ 300b4500     bg_misc.obj
 0002:0000251c       ??_C@_0DM@PPIGHFEL@BG_EvaluateTrajectory?3?5?$FLCLIENTG@ 300b451c     bg_misc.obj
 0002:00002558       ??_C@_0CP@MCFPOIMF@BG_EvaluateTrajectoryDelta?3?5unk@ 300b4558     bg_misc.obj
 0002:00002588       ??_C@_04EEIGNHLG@menu@     300b4588     bg_misc.obj
 0002:00002590       ??_C@_04JIEPAMAO@kyle@     300b4590     bg_misc.obj
 0002:00002598       ??_C@_04BEPDCOC@fpls@      300b4598     bg_misc.obj
 0002:000025a0       ??_C@_05KDHFJIBH@fpls2@    300b45a0     bg_misc.obj
 0002:000025a8       ??_C@_05LKGOKJFG@fpls3@    300b45a8     bg_misc.obj
 0002:000025b0       ??_C@_0CJ@BDGLLNGN@BG_Alloc?3?5buffer?5exceeded?5tail?5@ 300b45b0     bg_misc.obj
 0002:000025dc       ??_C@_0CN@JLGNNLBK@BG_TempAlloc?3?5buffer?5exceeded?5h@ 300b45dc     bg_misc.obj
 0002:0000260c       ??_C@_0CO@IIHBNEDD@BG_TempFree?3?5tail?5greater?5than?5@ 300b460c     bg_misc.obj
 0002:0000263c       __real@3a83126f            300b463c     bg_misc.obj
 0002:00002640       __real@3f50624dd2f1a9fc    300b4640     bg_misc.obj
 0002:00002648       __real@3f800000            300b4648     bg_misc.obj
 0002:00002650       __real@3fe0000000000000    300b4650     bg_misc.obj
 0002:00002658       __real@400921fb60000000    300b4658     bg_misc.obj
 0002:00002660       __real@40490fdb            300b4660     bg_misc.obj
 0002:00002668       __real@4066800000000000    300b4668     bg_misc.obj
 0002:00002670       __real@4079000000000000    300b4670     bg_misc.obj
 0002:00002678       __real@42100000            300b4678     bg_misc.obj
 0002:0000267c       __real@42300000            300b467c     bg_misc.obj
 0002:00002680       __real@42b40000            300b4680     bg_misc.obj
 0002:00002684       __real@43340000            300b4684     bg_misc.obj
 0002:00002688       __real@43b40000            300b4688     bg_misc.obj
 0002:0000268c       __real@44480000            300b468c     bg_misc.obj
 0002:00002690       __real@bf800000            300b4690     bg_misc.obj
 0002:00002694       __real@c2100000            300b4694     bg_misc.obj
 0002:00002698       __real@c2480000            300b4698     bg_misc.obj
 0002:000026a0       __xmm@00000001000000010000000100000001 300b46a0     bg_misc.obj
 0002:000026b0       __xmm@ffffffffffffffffffffffffffffffff 300b46b0     bg_misc.obj
 0002:000026c0       ??_C@_0L@IMFBDHL@FACE_TALK0@ 300b46c0     bg_panimate.obj
 0002:000026cc       ??_C@_0L@BBNOCCDK@FACE_TALK1@ 300b46cc     bg_panimate.obj
 0002:000026d8       ??_C@_0L@DKPDHBPJ@FACE_TALK2@ 300b46d8     bg_panimate.obj
 0002:000026e4       ??_C@_0L@CDOIEALI@FACE_TALK3@ 300b46e4     bg_panimate.obj
 0002:000026f0       ??_C@_0L@GMKJNGHP@FACE_TALK4@ 300b46f0     bg_panimate.obj
 0002:000026fc       ??_C@_0L@MMCADNDE@FACE_ALERT@ 300b46fc     bg_panimate.obj
 0002:00002708       ??_C@_0L@LAOJKFMG@FACE_SMILE@ 300b4708     bg_panimate.obj
 0002:00002714       ??_C@_0L@NHKOPMDL@FACE_FROWN@ 300b4714     bg_panimate.obj
 0002:00002720       ??_C@_09OODFOJKI@FACE_DEAD@ 300b4720     bg_panimate.obj
 0002:0000272c       ??_C@_0M@DCIIGDOC@BOTH_DEATH1@ 300b472c     bg_panimate.obj
 0002:00002738       ??_C@_0M@BJKFDACB@BOTH_DEATH2@ 300b4738     bg_panimate.obj
 0002:00002744       ??_C@_0M@LOABGA@BOTH_DEATH3@ 300b4744     bg_panimate.obj
 0002:00002750       ??_C@_0M@EPPPJHKH@BOTH_DEATH4@ 300b4750     bg_panimate.obj
 0002:0000275c       ??_C@_0M@FGOEKGOG@BOTH_DEATH5@ 300b475c     bg_panimate.obj
 0002:00002768       ??_C@_0M@HNMJPFCF@BOTH_DEATH6@ 300b4768     bg_panimate.obj
 0002:00002774       ??_C@_0M@GENCMEGE@BOTH_DEATH7@ 300b4774     bg_panimate.obj
 0002:00002780       ??_C@_0M@ODEKNIKL@BOTH_DEATH8@ 300b4780     bg_panimate.obj
 0002:0000278c       ??_C@_0M@PKFBOJOK@BOTH_DEATH9@ 300b478c     bg_panimate.obj
 0002:00002798       ??_C@_0N@JBHADNME@BOTH_DEATH10@ 300b4798     bg_panimate.obj
 0002:000027a8       ??_C@_0N@IIGLAMIF@BOTH_DEATH11@ 300b47a8     bg_panimate.obj
 0002:000027b8       ??_C@_0N@KDEGFPEG@BOTH_DEATH12@ 300b47b8     bg_panimate.obj
 0002:000027c8       ??_C@_0N@LKFNGOAH@BOTH_DEATH13@ 300b47c8     bg_panimate.obj
 0002:000027d8       ??_C@_0N@PFBMPIMA@BOTH_DEATH14@ 300b47d8     bg_panimate.obj
 0002:000027e8       ??_C@_0N@OMAHMJIB@BOTH_DEATH15@ 300b47e8     bg_panimate.obj
 0002:000027f8       ??_C@_0N@MHCKJKEC@BOTH_DEATH16@ 300b47f8     bg_panimate.obj
 0002:00002808       ??_C@_0N@NODBKLAD@BOTH_DEATH17@ 300b4808     bg_panimate.obj
 0002:00002818       ??_C@_0N@FJKJLHMM@BOTH_DEATH18@ 300b4818     bg_panimate.obj
 0002:00002828       ??_C@_0N@EALCIGIN@BOTH_DEATH19@ 300b4828     bg_panimate.obj
 0002:00002838       ??_C@_0N@JDDGIDJN@BOTH_DEATH20@ 300b4838     bg_panimate.obj
 0002:00002848       ??_C@_0N@IKCNLCNM@BOTH_DEATH21@ 300b4848     bg_panimate.obj
 0002:00002858       ??_C@_0N@KBAAOBBP@BOTH_DEATH22@ 300b4858     bg_panimate.obj
 0002:00002868       ??_C@_0N@LIBLNAFO@BOTH_DEATH23@ 300b4868     bg_panimate.obj
 0002:00002878       ??_C@_0N@PHFKEGJJ@BOTH_DEATH24@ 300b4878     bg_panimate.obj
 0002:00002888       ??_C@_0N@OOEBHHNI@BOTH_DEATH25@ 300b4888     bg_panimate.obj
 0002:00002898       ??_C@_0BD@LFAMCLEB@BOTH_DEATHFORWARD1@ 300b4898     bg_panimate.obj
 0002:000028ac       ??_C@_0BD@JOCBHIIC@BOTH_DEATHFORWARD2@ 300b48ac     bg_panimate.obj
 0002:000028c0       ??_C@_0BD@IHDKEJMD@BOTH_DEATHFORWARD3@ 300b48c0     bg_panimate.obj
 0002:000028d4       ??_C@_0BE@MDPCGIFE@BOTH_DEATHBACKWARD1@ 300b48d4     bg_panimate.obj
 0002:000028e8       ??_C@_0BE@OINPDLJH@BOTH_DEATHBACKWARD2@ 300b48e8     bg_panimate.obj
 0002:000028fc       ??_C@_0BA@LIHBIFLP@BOTH_DEATH1IDLE@ 300b48fc     bg_panimate.obj
 0002:0000290c       ??_C@_0BB@FAMFDOML@BOTH_LYINGDEATH1@ 300b490c     bg_panimate.obj
 0002:00002920       ??_C@_0BD@HAOKEEDM@BOTH_STUMBLEDEATH1@ 300b4920     bg_panimate.obj
 0002:00002934       ??_C@_0BA@MMMHHMBO@BOTH_FALLDEATH1@ 300b4934     bg_panimate.obj
 0002:00002944       ??_C@_0BF@BGGMCFAN@BOTH_FALLDEATH1INAIR@ 300b4944     bg_panimate.obj
 0002:0000295c       ??_C@_0BE@KLPONOFB@BOTH_FALLDEATH1LAND@ 300b495c     bg_panimate.obj
 0002:00002970       ??_C@_0BA@JLHMHBEO@BOTH_DEATH_ROLL@ 300b4970     bg_panimate.obj
 0002:00002980       ??_C@_0BA@PMBFHAFE@BOTH_DEATH_FLIP@ 300b4980     bg_panimate.obj
 0002:00002990       ??_C@_0BF@PGHFNEMI@BOTH_DEATH_SPIN_90_R@ 300b4990     bg_panimate.obj
 0002:000029a8       ??_C@_0BF@CCDEOLBH@BOTH_DEATH_SPIN_90_L@ 300b49a8     bg_panimate.obj
 0002:000029c0       ??_C@_0BE@GAFFKNDC@BOTH_DEATH_SPIN_180@ 300b49c0     bg_panimate.obj
 0002:000029d4       ??_C@_0BE@KCPIFEBO@BOTH_DEATH_LYING_UP@ 300b49d4     bg_panimate.obj
 0002:000029e8       ??_C@_0BE@GLFNKCIG@BOTH_DEATH_LYING_DN@ 300b49e8     bg_panimate.obj
 0002:000029fc       ??_C@_0BG@KFLMOKCA@BOTH_DEATH_FALLING_DN@ 300b49fc     bg_panimate.obj
 0002:00002a14       ??_C@_0BG@GMBJBMLI@BOTH_DEATH_FALLING_UP@ 300b4a14     bg_panimate.obj
 0002:00002a2c       ??_C@_0BE@CACMPNDI@BOTH_DEATH_CROUCHED@ 300b4a2c     bg_panimate.obj
 0002:00002a40       ??_C@_0L@ODAKGANJ@BOTH_DEAD1@ 300b4a40     bg_panimate.obj
 0002:00002a4c       ??_C@_0L@MICHDDBK@BOTH_DEAD2@ 300b4a4c     bg_panimate.obj
 0002:00002a58       ??_C@_0L@NBDMACFL@BOTH_DEAD3@ 300b4a58     bg_panimate.obj
 0002:00002a64       ??_C@_0L@JOHNJEJM@BOTH_DEAD4@ 300b4a64     bg_panimate.obj
 0002:00002a70       ??_C@_0L@IHGGKFNN@BOTH_DEAD5@ 300b4a70     bg_panimate.obj
 0002:00002a7c       ??_C@_0L@KMELPGBO@BOTH_DEAD6@ 300b4a7c     bg_panimate.obj
 0002:00002a88       ??_C@_0L@LFFAMHFP@BOTH_DEAD7@ 300b4a88     bg_panimate.obj
 0002:00002a94       ??_C@_0L@DCMINLJA@BOTH_DEAD8@ 300b4a94     bg_panimate.obj
 0002:00002aa0       ??_C@_0L@CLNDOKNB@BOTH_DEAD9@ 300b4aa0     bg_panimate.obj
 0002:00002aac       ??_C@_0M@CAKKFGOD@BOTH_DEAD10@ 300b4aac     bg_panimate.obj
 0002:00002ab8       ??_C@_0M@DJLBGHKC@BOTH_DEAD11@ 300b4ab8     bg_panimate.obj
 0002:00002ac4       ??_C@_0M@BCJMDEGB@BOTH_DEAD12@ 300b4ac4     bg_panimate.obj
 0002:00002ad0       ??_C@_0M@LIHAFCA@BOTH_DEAD13@ 300b4ad0     bg_panimate.obj
 0002:00002adc       ??_C@_0M@EEMGJDOH@BOTH_DEAD14@ 300b4adc     bg_panimate.obj
 0002:00002ae8       ??_C@_0M@FNNNKCKG@BOTH_DEAD15@ 300b4ae8     bg_panimate.obj
 0002:00002af4       ??_C@_0M@HGPAPBGF@BOTH_DEAD16@ 300b4af4     bg_panimate.obj
 0002:00002b00       ??_C@_0M@GPOLMACE@BOTH_DEAD17@ 300b4b00     bg_panimate.obj
 0002:00002b0c       ??_C@_0M@OIHDNMOL@BOTH_DEAD18@ 300b4b0c     bg_panimate.obj
 0002:00002b18       ??_C@_0M@PBGIONKK@BOTH_DEAD19@ 300b4b18     bg_panimate.obj
 0002:00002b24       ??_C@_0M@CCOMOILK@BOTH_DEAD20@ 300b4b24     bg_panimate.obj
 0002:00002b30       ??_C@_0M@DLPHNJPL@BOTH_DEAD21@ 300b4b30     bg_panimate.obj
 0002:00002b3c       ??_C@_0M@BANKIKDI@BOTH_DEAD22@ 300b4b3c     bg_panimate.obj
 0002:00002b48       ??_C@_0M@JMBLLHJ@BOTH_DEAD23@ 300b4b48     bg_panimate.obj
 0002:00002b54       ??_C@_0M@EGIACNLO@BOTH_DEAD24@ 300b4b54     bg_panimate.obj
 0002:00002b60       ??_C@_0M@FPJLBMPP@BOTH_DEAD25@ 300b4b60     bg_panimate.obj
 0002:00002b6c       ??_C@_0BC@MMDCJFEJ@BOTH_DEADFORWARD1@ 300b4b6c     bg_panimate.obj
 0002:00002b80       ??_C@_0BC@OHBPMGIK@BOTH_DEADFORWARD2@ 300b4b80     bg_panimate.obj
 0002:00002b94       ??_C@_0BD@MNFANONI@BOTH_DEADBACKWARD1@ 300b4b94     bg_panimate.obj
 0002:00002ba8       ??_C@_0BD@OGHNINBL@BOTH_DEADBACKWARD2@ 300b4ba8     bg_panimate.obj
 0002:00002bbc       ??_C@_0BA@HDEKJGIF@BOTH_LYINGDEAD1@ 300b4bbc     bg_panimate.obj
 0002:00002bcc       ??_C@_0BC@DDLFNCPA@BOTH_STUMBLEDEAD1@ 300b4bcc     bg_panimate.obj
 0002:00002be0       ??_C@_0BD@BHDKBOHF@BOTH_FALLDEAD1LAND@ 300b4be0     bg_panimate.obj
 0002:00002bf4       ??_C@_0P@DCNFIPCD@BOTH_DEADFLOP1@ 300b4bf4     bg_panimate.obj
 0002:00002c04       ??_C@_0P@BJPINMOA@BOTH_DEADFLOP2@ 300b4c04     bg_panimate.obj
 0002:00002c14       ??_C@_0BF@OGJIODF@BOTH_DISMEMBER_HEAD1@ 300b4c14     bg_panimate.obj
 0002:00002c2c       ??_C@_0BG@CFOELION@BOTH_DISMEMBER_TORSO1@ 300b4c2c     bg_panimate.obj
 0002:00002c44       ??_C@_0BE@EHHEBFGH@BOTH_DISMEMBER_LLEG@ 300b4c44     bg_panimate.obj
 0002:00002c58       ??_C@_0BE@JIKEDMIE@BOTH_DISMEMBER_RLEG@ 300b4c58     bg_panimate.obj
 0002:00002c6c       ??_C@_0BE@IJEILJCG@BOTH_DISMEMBER_RARM@ 300b4c6c     bg_panimate.obj
 0002:00002c80       ??_C@_0BE@FGJIJAMF@BOTH_DISMEMBER_LARM@ 300b4c80     bg_panimate.obj
 0002:00002c94       ??_C@_0L@EGOOCLKN@BOTH_PAIN1@ 300b4c94     bg_panimate.obj
 0002:00002ca0       ??_C@_0L@GNMDHIGO@BOTH_PAIN2@ 300b4ca0     bg_panimate.obj
 0002:00002cac       ??_C@_0L@HENIEJCP@BOTH_PAIN3@ 300b4cac     bg_panimate.obj
 0002:00002cb8       ??_C@_0L@DLJJNPOI@BOTH_PAIN4@ 300b4cb8     bg_panimate.obj
 0002:00002cc4       ??_C@_0L@CCICOOKJ@BOTH_PAIN5@ 300b4cc4     bg_panimate.obj
 0002:00002cd0       ??_C@_0L@JKPLNGK@BOTH_PAIN6@ 300b4cd0     bg_panimate.obj
 0002:00002cdc       ??_C@_0L@BALEIMCL@BOTH_PAIN7@ 300b4cdc     bg_panimate.obj
 0002:00002ce8       ??_C@_0L@JHCMJAOE@BOTH_PAIN8@ 300b4ce8     bg_panimate.obj
 0002:00002cf4       ??_C@_0L@IODHKBKF@BOTH_PAIN9@ 300b4cf4     bg_panimate.obj
 0002:00002d00       ??_C@_0M@HHGHAHIN@BOTH_PAIN10@ 300b4d00     bg_panimate.obj
 0002:00002d0c       ??_C@_0M@GOHMDGMM@BOTH_PAIN11@ 300b4d0c     bg_panimate.obj
 0002:00002d18       ??_C@_0M@EFFBGFAP@BOTH_PAIN12@ 300b4d18     bg_panimate.obj
 0002:00002d24       ??_C@_0M@FMEKFEEO@BOTH_PAIN13@ 300b4d24     bg_panimate.obj
 0002:00002d30       ??_C@_0M@BDALMCIJ@BOTH_PAIN14@ 300b4d30     bg_panimate.obj
 0002:00002d3c       ??_C@_0M@KBAPDMI@BOTH_PAIN15@ 300b4d3c     bg_panimate.obj
 0002:00002d48       ??_C@_0M@CBDNKAAL@BOTH_PAIN16@ 300b4d48     bg_panimate.obj
 0002:00002d54       ??_C@_0M@DICGJBEK@BOTH_PAIN17@ 300b4d54     bg_panimate.obj
 0002:00002d60       ??_C@_0M@LPLOINIF@BOTH_PAIN18@ 300b4d60     bg_panimate.obj
 0002:00002d6c       ??_C@_0N@HEFOHEMG@BOTH_ATTACK1@ 300b4d6c     bg_panimate.obj
 0002:00002d7c       ??_C@_0N@FPHDCHAF@BOTH_ATTACK2@ 300b4d7c     bg_panimate.obj
 0002:00002d8c       ??_C@_0N@EGGIBGEE@BOTH_ATTACK3@ 300b4d8c     bg_panimate.obj
 0002:00002d9c       ??_C@_0N@JCJIAID@BOTH_ATTACK4@ 300b4d9c     bg_panimate.obj
 0002:00002dac       ??_C@_0N@BADCLBMC@BOTH_ATTACK5@ 300b4dac     bg_panimate.obj
 0002:00002dbc       ??_C@_0N@DLBPOCAB@BOTH_ATTACK6@ 300b4dbc     bg_panimate.obj
 0002:00002dcc       ??_C@_0N@CCAENDEA@BOTH_ATTACK7@ 300b4dcc     bg_panimate.obj
 0002:00002ddc       ??_C@_0O@KNDFAPAC@BOTH_ATTACK10@ 300b4ddc     bg_panimate.obj
 0002:00002dec       ??_C@_0O@LECODOED@BOTH_ATTACK11@ 300b4dec     bg_panimate.obj
 0002:00002dfc       ??_C@_0M@LPPNEBCJ@BOTH_MELEE1@ 300b4dfc     bg_panimate.obj
 0002:00002e08       ??_C@_0M@JENABCOK@BOTH_MELEE2@ 300b4e08     bg_panimate.obj
 0002:00002e14       ??_C@_0BD@FIPEGIGM@BOTH_THERMAL_READY@ 300b4e14     bg_panimate.obj
 0002:00002e28       ??_C@_0BD@KGEHHFNO@BOTH_THERMAL_THROW@ 300b4e28     bg_panimate.obj
 0002:00002e3c       ??_C@_0O@KKJLHNCF@BOTH_A1_T__B_@ 300b4e3c     bg_panimate.obj
 0002:00002e4c       ??_C@_0O@EGEMCONK@BOTH_A1__L__R@ 300b4e4c     bg_panimate.obj
 0002:00002e5c       ??_C@_0O@ENNNDIOG@BOTH_A1__R__L@ 300b4e5c     bg_panimate.obj
 0002:00002e6c       ??_C@_0O@DIHFOODK@BOTH_A1_TL_BR@ 300b4e6c     bg_panimate.obj
 0002:00002e7c       ??_C@_0O@POMAMGEC@BOTH_A1_BR_TL@ 300b4e7c     bg_panimate.obj
 0002:00002e8c       ??_C@_0O@PFFBNAHO@BOTH_A1_BL_TR@ 300b4e8c     bg_panimate.obj
 0002:00002e9c       ??_C@_0O@DDOEPIAG@BOTH_A1_TR_BL@ 300b4e9c     bg_panimate.obj
 0002:00002eac       ??_C@_0O@MAIDBBEC@BOTH_T1_BR__R@ 300b4eac     bg_panimate.obj
 0002:00002ebc       ??_C@_0O@BIJHMBHM@BOTH_T1_BR_TL@ 300b4ebc     bg_panimate.obj
 0002:00002ecc       ??_C@_0O@BEMCCOJN@BOTH_T1_BR__L@ 300b4ecc     bg_panimate.obj
 0002:00002edc       ??_C@_0O@DMBOLO@BOTH_T1_BR_BL@ 300b4edc     bg_panimate.obj
 0002:00002eec       ??_C@_0O@HDJOOPOG@BOTH_T1__R_TR@ 300b4eec     bg_panimate.obj
 0002:00002efc       ??_C@_0O@KHNPNADJ@BOTH_T1__R_TL@ 300b4efc     bg_panimate.obj
 0002:00002f0c       ??_C@_0O@KLIKDPNI@BOTH_T1__R__L@ 300b4f0c     bg_panimate.obj
 0002:00002f1c       ??_C@_0O@LPHEAPPL@BOTH_T1__R_BL@ 300b4f1c     bg_panimate.obj
 0002:00002f2c       ??_C@_0O@BPCMAOH@BOTH_T1_TR_BR@ 300b4f2c     bg_panimate.obj
 0002:00002f3c       ??_C@_0O@MNBICAPK@BOTH_T1_TR_TL@ 300b4f3c     bg_panimate.obj
 0002:00002f4c       ??_C@_0O@MBENMPBL@BOTH_T1_TR__L@ 300b4f4c     bg_panimate.obj
 0002:00002f5c       ??_C@_0O@NFLDPPDI@BOTH_T1_TR_BL@ 300b4f5c     bg_panimate.obj
 0002:00002f6c       ??_C@_0O@PJGCAEFG@BOTH_T1_T__BR@ 300b4f6c     bg_panimate.obj
 0002:00002f7c       ??_C@_0O@ONJMDEHF@BOTH_T1_T___R@ 300b4f7c     bg_panimate.obj
 0002:00002f8c       ??_C@_0O@OBMJNLJE@BOTH_T1_T__TR@ 300b4f8c     bg_panimate.obj
 0002:00002f9c       ??_C@_0O@DFIIOEEL@BOTH_T1_T__TL@ 300b4f9c     bg_panimate.obj
 0002:00002fac       ??_C@_0O@DJNNALKK@BOTH_T1_T___L@ 300b4fac     bg_panimate.obj
 0002:00002fbc       ??_C@_0O@CNCDDLIJ@BOTH_T1_T__BL@ 300b4fbc     bg_panimate.obj
 0002:00002fcc       ??_C@_0O@NOCCOJAE@BOTH_T1_TL_BR@ 300b4fcc     bg_panimate.obj
 0002:00002fdc       ??_C@_0O@KGDNGNL@BOTH_T1_TL_BL@ 300b4fdc     bg_panimate.obj
 0002:00002fec       ??_C@_0O@LEOFBJMH@BOTH_T1__L_BR@ 300b4fec     bg_panimate.obj
 0002:00002ffc       ??_C@_0O@KABLCJOE@BOTH_T1__L__R@ 300b4ffc     bg_panimate.obj
 0002:0000300c       ??_C@_0O@HIAPPJNK@BOTH_T1__L_TL@ 300b500c     bg_panimate.obj
 0002:0000301c       ??_C@_0O@LKNAIIC@BOTH_T1_BL_BR@ 300b501c     bg_panimate.obj
 0002:0000302c       ??_C@_0O@BPFDDIKB@BOTH_T1_BL__R@ 300b502c     bg_panimate.obj
 0002:0000303c       ??_C@_0O@BDAGNHEA@BOTH_T1_BL_TR@ 300b503c     bg_panimate.obj
 0002:0000304c       ??_C@_0O@MLBCAHHO@BOTH_T1_BL__L@ 300b504c     bg_panimate.obj
 0002:0000305c       ??_C@_0O@MMNGPOKD@BOTH_T1_BR_TR@ 300b505c     bg_panimate.obj
 0002:0000306c       ??_C@_0O@HJHIIAOO@BOTH_T1_BR_T_@ 300b506c     bg_panimate.obj
 0002:0000307c       ??_C@_0O@GLDFDACE@BOTH_T1__R_BR@ 300b507c     bg_panimate.obj
 0002:0000308c       ??_C@_0O@MGDAJBKL@BOTH_T1__R_T_@ 300b508c     bg_panimate.obj
 0002:0000309c       ??_C@_0O@BFAMPAME@BOTH_T1_TR__R@ 300b509c     bg_panimate.obj
 0002:000030ac       ??_C@_0O@KMPHGBGI@BOTH_T1_TR_T_@ 300b50ac     bg_panimate.obj
 0002:000030bc       ??_C@_0O@MKNMNJCH@BOTH_T1_TL__R@ 300b50bc     bg_panimate.obj
 0002:000030cc       ??_C@_0O@MGIJDGMG@BOTH_T1_TL_TR@ 300b50cc     bg_panimate.obj
 0002:000030dc       ??_C@_0O@HDCHEIIL@BOTH_T1_TL_T_@ 300b50dc     bg_panimate.obj
 0002:000030ec       ??_C@_0O@BOJNOGPI@BOTH_T1_TL__L@ 300b50ec     bg_panimate.obj
 0002:000030fc       ??_C@_0O@KMEOMGAF@BOTH_T1__L_TR@ 300b50fc     bg_panimate.obj
 0002:0000310c       ??_C@_0O@BJOALIEI@BOTH_T1__L_T_@ 300b510c     bg_panimate.obj
 0002:0000311c       ??_C@_0O@GAKECGBI@BOTH_T1__L_BL@ 300b511c     bg_panimate.obj
 0002:0000312c       ??_C@_0O@KGKIKJAN@BOTH_T1_BL_T_@ 300b512c     bg_panimate.obj
 0002:0000313c       ??_C@_0O@MHEHOIJP@BOTH_T1_BL_TL@ 300b513c     bg_panimate.obj
 0002:0000314c       ??_C@_0O@LABDBIE@BOTH_S1_S1_T_@ 300b514c     bg_panimate.obj
 0002:0000315c       ??_C@_0O@GGLLJPPH@BOTH_S1_S1__L@ 300b515c     bg_panimate.obj
 0002:0000316c       ??_C@_0O@LCPKKACI@BOTH_S1_S1__R@ 300b516c     bg_panimate.obj
 0002:0000317c       ??_C@_0O@GKOOHABG@BOTH_S1_S1_TL@ 300b517c     bg_panimate.obj
 0002:0000318c       ??_C@_0O@KGAEJAAL@BOTH_S1_S1_BR@ 300b518c     bg_panimate.obj
 0002:0000319c       ??_C@_0O@HCEFKPNE@BOTH_S1_S1_BL@ 300b519c     bg_panimate.obj
 0002:000031ac       ??_C@_0O@LOKPEPMJ@BOTH_S1_S1_TR@ 300b51ac     bg_panimate.obj
 0002:000031bc       ??_C@_0O@MMDGNHJ@BOTH_R1_B__S1@ 300b51bc     bg_panimate.obj
 0002:000031cc       ??_C@_0O@JEMLJBGO@BOTH_R1__L_S1@ 300b51cc     bg_panimate.obj
 0002:000031dc       ??_C@_0O@ELBLLIIN@BOTH_R1__R_S1@ 300b51dc     bg_panimate.obj
 0002:000031ec       ??_C@_0O@POAMGBKN@BOTH_R1_TL_S1@ 300b51ec     bg_panimate.obj
 0002:000031fc       ??_C@_0O@PEFDKJMI@BOTH_R1_BR_S1@ 300b51fc     bg_panimate.obj
 0002:0000320c       ??_C@_0O@CLIDIACL@BOTH_R1_BL_S1@ 300b520c     bg_panimate.obj
 0002:0000321c       ??_C@_0O@CBNMEIEO@BOTH_R1_TR_S1@ 300b521c     bg_panimate.obj
 0002:0000322c       ??_C@_0O@KKPHFEPE@BOTH_B1_BR___@ 300b522c     bg_panimate.obj
 0002:0000323c       ??_C@_0O@BFLPEFLB@BOTH_B1__R___@ 300b523c     bg_panimate.obj
 0002:0000324c       ??_C@_0O@HPHILFHC@BOTH_B1_TR___@ 300b524c     bg_panimate.obj
 0002:0000325c       ??_C@_0O@IHOIHBMD@BOTH_B1_T____@ 300b525c     bg_panimate.obj
 0002:0000326c       ??_C@_0O@KAKIJMJB@BOTH_B1_TL___@ 300b526c     bg_panimate.obj
 0002:0000327c       ??_C@_0O@MKGPGMFC@BOTH_B1__L___@ 300b527c     bg_panimate.obj
 0002:0000328c       ??_C@_0O@HFCHHNBH@BOTH_B1_BL___@ 300b528c     bg_panimate.obj
 0002:0000329c       ??_C@_0O@NJONCNHO@BOTH_D1_BR___@ 300b529c     bg_panimate.obj
 0002:000032ac       ??_C@_0O@GGKFDMDL@BOTH_D1__R___@ 300b52ac     bg_panimate.obj
 0002:000032bc       ??_C@_0O@MGCMMPI@BOTH_D1_TR___@ 300b52bc     bg_panimate.obj
 0002:000032cc       ??_C@_0O@NDLCOFBL@BOTH_D1_TL___@ 300b52cc     bg_panimate.obj
 0002:000032dc       ??_C@_0O@LJHFBFNI@BOTH_D1__L___@ 300b52dc     bg_panimate.obj
 0002:000032ec       ??_C@_0O@GDNAEJN@BOTH_D1_BL___@ 300b52ec     bg_panimate.obj
 0002:000032fc       ??_C@_0O@CBHNOJMP@BOTH_D1_B____@ 300b52fc     bg_panimate.obj
 0002:0000330c       ??_C@_0O@CEBEHKMG@BOTH_A2_T__B_@ 300b530c     bg_panimate.obj
 0002:0000331c       ??_C@_0O@MIMDCJDJ@BOTH_A2__L__R@ 300b531c     bg_panimate.obj
 0002:0000332c       ??_C@_0O@MDFCDPAF@BOTH_A2__R__L@ 300b532c     bg_panimate.obj
 0002:0000333c       ??_C@_0O@LGPKOJNJ@BOTH_A2_TL_BR@ 300b533c     bg_panimate.obj
 0002:0000334c       ??_C@_0O@HAEPMBKB@BOTH_A2_BR_TL@ 300b534c     bg_panimate.obj
 0002:0000335c       ??_C@_0O@HLNONHJN@BOTH_A2_BL_TR@ 300b535c     bg_panimate.obj
 0002:0000336c       ??_C@_0O@LNGLPPOF@BOTH_A2_TR_BL@ 300b536c     bg_panimate.obj
 0002:0000337c       ??_C@_0O@EOAMBGKB@BOTH_T2_BR__R@ 300b537c     bg_panimate.obj
 0002:0000338c       ??_C@_0O@JGBIMGJP@BOTH_T2_BR_TL@ 300b538c     bg_panimate.obj
 0002:0000339c       ??_C@_0O@JKENCJHO@BOTH_T2_BR__L@ 300b539c     bg_panimate.obj
 0002:000033ac       ??_C@_0O@IOLDBJFN@BOTH_T2_BR_BL@ 300b53ac     bg_panimate.obj
 0002:000033bc       ??_C@_0O@PNBBOIAF@BOTH_T2__R_TR@ 300b53bc     bg_panimate.obj
 0002:000033cc       ??_C@_0O@CJFANHNK@BOTH_T2__R_TL@ 300b53cc     bg_panimate.obj
 0002:000033dc       ??_C@_0O@CFAFDIDL@BOTH_T2__R__L@ 300b53dc     bg_panimate.obj
 0002:000033ec       ??_C@_0O@DBPLAIBI@BOTH_T2__R_BL@ 300b53ec     bg_panimate.obj
 0002:000033fc       ??_C@_0O@IPHNMHAE@BOTH_T2_TR_BR@ 300b53fc     bg_panimate.obj
 0002:0000340c       ??_C@_0O@EDJHCHBJ@BOTH_T2_TR_TL@ 300b540c     bg_panimate.obj
 0002:0000341c       ??_C@_0O@EPMCMIPI@BOTH_T2_TR__L@ 300b541c     bg_panimate.obj
 0002:0000342c       ??_C@_0O@FLDMPINL@BOTH_T2_TR_BL@ 300b542c     bg_panimate.obj
 0002:0000343c       ??_C@_0O@HHONADLF@BOTH_T2_T__BR@ 300b543c     bg_panimate.obj
 0002:0000344c       ??_C@_0O@GDBDDDJG@BOTH_T2_T___R@ 300b544c     bg_panimate.obj
 0002:0000345c       ??_C@_0O@GPEGNMHH@BOTH_T2_T__TR@ 300b545c     bg_panimate.obj
 0002:0000346c       ??_C@_0O@LLAHODKI@BOTH_T2_T__TL@ 300b546c     bg_panimate.obj
 0002:0000347c       ??_C@_0O@LHFCAMEJ@BOTH_T2_T___L@ 300b547c     bg_panimate.obj
 0002:0000348c       ??_C@_0O@KDKMDMGK@BOTH_T2_T__BL@ 300b548c     bg_panimate.obj
 0002:0000349c       ??_C@_0O@FAKNOOOH@BOTH_T2_TL_BR@ 300b549c     bg_panimate.obj
 0002:000034ac       ??_C@_0O@IEOMNBDI@BOTH_T2_TL_BL@ 300b54ac     bg_panimate.obj
 0002:000034bc       ??_C@_0O@DKGKBOCE@BOTH_T2__L_BR@ 300b54bc     bg_panimate.obj
 0002:000034cc       ??_C@_0O@COJECOAH@BOTH_T2__L__R@ 300b54cc     bg_panimate.obj
 0002:000034dc       ??_C@_0O@PGIAPODJ@BOTH_T2__L_TL@ 300b54dc     bg_panimate.obj
 0002:000034ec       ??_C@_0O@IFCCAPGB@BOTH_T2_BL_BR@ 300b54ec     bg_panimate.obj
 0002:000034fc       ??_C@_0O@JBNMDPEC@BOTH_T2_BL__R@ 300b54fc     bg_panimate.obj
 0002:0000350c       ??_C@_0O@JNIJNAKD@BOTH_T2_BL_TR@ 300b550c     bg_panimate.obj
 0002:0000351c       ??_C@_0O@EFJNAAJN@BOTH_T2_BL__L@ 300b551c     bg_panimate.obj
 0002:0000352c       ??_C@_0O@ECFJPJEA@BOTH_T2_BR_TR@ 300b552c     bg_panimate.obj
 0002:0000353c       ??_C@_0O@PHPHIHAN@BOTH_T2_BR_T_@ 300b553c     bg_panimate.obj
 0002:0000354c       ??_C@_0O@OFLKDHMH@BOTH_T2__R_BR@ 300b554c     bg_panimate.obj
 0002:0000355c       ??_C@_0O@EILPJGEI@BOTH_T2__R_T_@ 300b555c     bg_panimate.obj
 0002:0000356c       ??_C@_0O@JLIDPHCH@BOTH_T2_TR__R@ 300b556c     bg_panimate.obj
 0002:0000357c       ??_C@_0O@CCHIGGIL@BOTH_T2_TR_T_@ 300b557c     bg_panimate.obj
 0002:0000358c       ??_C@_0O@EEFDNOME@BOTH_T2_TL__R@ 300b558c     bg_panimate.obj
 0002:0000359c       ??_C@_0O@EIAGDBCF@BOTH_T2_TL_TR@ 300b559c     bg_panimate.obj
 0002:000035ac       ??_C@_0O@PNKIEPGI@BOTH_T2_TL_T_@ 300b55ac     bg_panimate.obj
 0002:000035bc       ??_C@_0O@JABCOBBL@BOTH_T2_TL__L@ 300b55bc     bg_panimate.obj
 0002:000035cc       ??_C@_0O@CCMBMBOG@BOTH_T2__L_TR@ 300b55cc     bg_panimate.obj
 0002:000035dc       ??_C@_0O@JHGPLPKL@BOTH_T2__L_T_@ 300b55dc     bg_panimate.obj
 0002:000035ec       ??_C@_0O@OOCLCBPL@BOTH_T2__L_BL@ 300b55ec     bg_panimate.obj
 0002:000035fc       ??_C@_0O@CICHKOOO@BOTH_T2_BL_T_@ 300b55fc     bg_panimate.obj
 0002:0000360c       ??_C@_0O@EJMIOPHM@BOTH_T2_BL_TL@ 300b560c     bg_panimate.obj
 0002:0000361c       ??_C@_0O@IFIODGGH@BOTH_S2_S1_T_@ 300b561c     bg_panimate.obj
 0002:0000362c       ??_C@_0O@OIDEJIBE@BOTH_S2_S1__L@ 300b562c     bg_panimate.obj
 0002:0000363c       ??_C@_0O@DMHFKHML@BOTH_S2_S1__R@ 300b563c     bg_panimate.obj
 0002:0000364c       ??_C@_0O@OEGBHHPF@BOTH_S2_S1_TL@ 300b564c     bg_panimate.obj
 0002:0000365c       ??_C@_0O@CIILJHOI@BOTH_S2_S1_BR@ 300b565c     bg_panimate.obj
 0002:0000366c       ??_C@_0O@PMMKKIDH@BOTH_S2_S1_BL@ 300b566c     bg_panimate.obj
 0002:0000367c       ??_C@_0O@DACAEICK@BOTH_S2_S1_TR@ 300b567c     bg_panimate.obj
 0002:0000368c       ??_C@_0O@ICEMGKJK@BOTH_R2_B__S1@ 300b568c     bg_panimate.obj
 0002:0000369c       ??_C@_0O@BKEEJGIN@BOTH_R2__L_S1@ 300b569c     bg_panimate.obj
 0002:000036ac       ??_C@_0O@MFJELPGO@BOTH_R2__R_S1@ 300b56ac     bg_panimate.obj
 0002:000036bc       ??_C@_0O@HAIDGGEO@BOTH_R2_TL_S1@ 300b56bc     bg_panimate.obj
 0002:000036cc       ??_C@_0O@HKNMKOCL@BOTH_R2_BR_S1@ 300b56cc     bg_panimate.obj
 0002:000036dc       ??_C@_0O@KFAMIHMI@BOTH_R2_BL_S1@ 300b56dc     bg_panimate.obj
 0002:000036ec       ??_C@_0O@KPFDEPKN@BOTH_R2_TR_S1@ 300b56ec     bg_panimate.obj
 0002:000036fc       ??_C@_0O@CEHIFDBH@BOTH_B2_BR___@ 300b56fc     bg_panimate.obj
 0002:0000370c       ??_C@_0O@JLDAECFC@BOTH_B2__R___@ 300b570c     bg_panimate.obj
 0002:0000371c       ??_C@_0O@PBPHLCJB@BOTH_B2_TR___@ 300b571c     bg_panimate.obj
 0002:0000372c       ??_C@_0O@JGHHGCA@BOTH_B2_T____@ 300b572c     bg_panimate.obj
 0002:0000373c       ??_C@_0O@COCHJLHC@BOTH_B2_TL___@ 300b573c     bg_panimate.obj
 0002:0000374c       ??_C@_0O@EEOAGLLB@BOTH_B2__L___@ 300b574c     bg_panimate.obj
 0002:0000375c       ??_C@_0O@PLKIHKPE@BOTH_B2_BL___@ 300b575c     bg_panimate.obj
 0002:0000376c       ??_C@_0O@FHGCCKJN@BOTH_D2_BR___@ 300b576c     bg_panimate.obj
 0002:0000377c       ??_C@_0O@OICKDLNI@BOTH_D2__R___@ 300b577c     bg_panimate.obj
 0002:0000378c       ??_C@_0O@ICONMLBL@BOTH_D2_TR___@ 300b578c     bg_panimate.obj
 0002:0000379c       ??_C@_0O@FNDNOCPI@BOTH_D2_TL___@ 300b579c     bg_panimate.obj
 0002:000037ac       ??_C@_0O@DHPKBCDL@BOTH_D2__L___@ 300b57ac     bg_panimate.obj
 0002:000037bc       ??_C@_0O@IILCADHO@BOTH_D2_BL___@ 300b57bc     bg_panimate.obj
 0002:000037cc       ??_C@_0O@KPPCOOCM@BOTH_D2_B____@ 300b57cc     bg_panimate.obj
 0002:000037dc       ??_C@_0O@OILOHKFI@BOTH_A3_T__B_@ 300b57dc     bg_panimate.obj
 0002:000037ec       ??_C@_0O@EGJCJKH@BOTH_A3__L__R@ 300b57ec     bg_panimate.obj
 0002:000037fc       ??_C@_0O@PPIDPJL@BOTH_A3__R__L@ 300b57fc     bg_panimate.obj
 0002:0000380c       ??_C@_0O@HKFAOJEH@BOTH_A3_TL_BR@ 300b580c     bg_panimate.obj
 0002:0000381c       ??_C@_0O@LMOFMBDP@BOTH_A3_BR_TL@ 300b581c     bg_panimate.obj
 0002:0000382c       ??_C@_0O@LHHENHAD@BOTH_A3_BL_TR@ 300b582c     bg_panimate.obj
 0002:0000383c       ??_C@_0O@HBMBPPHL@BOTH_A3_TR_BL@ 300b583c     bg_panimate.obj
 0002:0000384c       ??_C@_0O@ICKGBGDP@BOTH_T3_BR__R@ 300b584c     bg_panimate.obj
 0002:0000385c       ??_C@_0O@FKLCMGAB@BOTH_T3_BR_TL@ 300b585c     bg_panimate.obj
 0002:0000386c       ??_C@_0O@FGOHCJOA@BOTH_T3_BR__L@ 300b586c     bg_panimate.obj
 0002:0000387c       ??_C@_0O@ECBJBJMD@BOTH_T3_BR_BL@ 300b587c     bg_panimate.obj
 0002:0000388c       ??_C@_0O@DBLLOIJL@BOTH_T3__R_TR@ 300b588c     bg_panimate.obj
 0002:0000389c       ??_C@_0O@OFPKNHEE@BOTH_T3__R_TL@ 300b589c     bg_panimate.obj
 0002:000038ac       ??_C@_0O@OJKPDIKF@BOTH_T3__R__L@ 300b58ac     bg_panimate.obj
 0002:000038bc       ??_C@_0O@PNFBAIIG@BOTH_T3__R_BL@ 300b58bc     bg_panimate.obj
 0002:000038cc       ??_C@_0O@EDNHMHJK@BOTH_T3_TR_BR@ 300b58cc     bg_panimate.obj
 0002:000038dc       ??_C@_0O@IPDNCHIH@BOTH_T3_TR_TL@ 300b58dc     bg_panimate.obj
 0002:000038ec       ??_C@_0O@IDGIMIGG@BOTH_T3_TR__L@ 300b58ec     bg_panimate.obj
 0002:000038fc       ??_C@_0O@JHJGPIEF@BOTH_T3_TR_BL@ 300b58fc     bg_panimate.obj
 0002:0000390c       ??_C@_0O@LLEHADCL@BOTH_T3_T__BR@ 300b590c     bg_panimate.obj
 0002:0000391c       ??_C@_0O@KPLJDDAI@BOTH_T3_T___R@ 300b591c     bg_panimate.obj
 0002:0000392c       ??_C@_0O@KDOMNMOJ@BOTH_T3_T__TR@ 300b592c     bg_panimate.obj
 0002:0000393c       ??_C@_0O@HHKNODDG@BOTH_T3_T__TL@ 300b593c     bg_panimate.obj
 0002:0000394c       ??_C@_0O@HLPIAMNH@BOTH_T3_T___L@ 300b594c     bg_panimate.obj
 0002:0000395c       ??_C@_0O@GPAGDMPE@BOTH_T3_T__BL@ 300b595c     bg_panimate.obj
 0002:0000396c       ??_C@_0O@JMAHOOHJ@BOTH_T3_TL_BR@ 300b596c     bg_panimate.obj
 0002:0000397c       ??_C@_0O@EIEGNBKG@BOTH_T3_TL_BL@ 300b597c     bg_panimate.obj
 0002:0000398c       ??_C@_0O@PGMABOLK@BOTH_T3__L_BR@ 300b598c     bg_panimate.obj
 0002:0000399c       ??_C@_0O@OCDOCOJJ@BOTH_T3__L__R@ 300b599c     bg_panimate.obj
 0002:000039ac       ??_C@_0O@DKCKPOKH@BOTH_T3__L_TL@ 300b59ac     bg_panimate.obj
 0002:000039bc       ??_C@_0O@EJIIAPPP@BOTH_T3_BL_BR@ 300b59bc     bg_panimate.obj
 0002:000039cc       ??_C@_0O@FNHGDPNM@BOTH_T3_BL__R@ 300b59cc     bg_panimate.obj
 0002:000039dc       ??_C@_0O@FBCDNADN@BOTH_T3_BL_TR@ 300b59dc     bg_panimate.obj
 0002:000039ec       ??_C@_0O@IJDHAAAD@BOTH_T3_BL__L@ 300b59ec     bg_panimate.obj
 0002:000039fc       ??_C@_0O@IOPDPJNO@BOTH_T3_BR_TR@ 300b59fc     bg_panimate.obj
 0002:00003a0c       ??_C@_0O@DLFNIHJD@BOTH_T3_BR_T_@ 300b5a0c     bg_panimate.obj
 0002:00003a1c       ??_C@_0O@CJBADHFJ@BOTH_T3__R_BR@ 300b5a1c     bg_panimate.obj
 0002:00003a2c       ??_C@_0O@IEBFJGNG@BOTH_T3__R_T_@ 300b5a2c     bg_panimate.obj
 0002:00003a3c       ??_C@_0O@FHCJPHLJ@BOTH_T3_TR__R@ 300b5a3c     bg_panimate.obj
 0002:00003a4c       ??_C@_0O@OONCGGBF@BOTH_T3_TR_T_@ 300b5a4c     bg_panimate.obj
 0002:00003a5c       ??_C@_0O@IIPJNOFK@BOTH_T3_TL__R@ 300b5a5c     bg_panimate.obj
 0002:00003a6c       ??_C@_0O@IEKMDBLL@BOTH_T3_TL_TR@ 300b5a6c     bg_panimate.obj
 0002:00003a7c       ??_C@_0O@DBACEPPG@BOTH_T3_TL_T_@ 300b5a7c     bg_panimate.obj
 0002:00003a8c       ??_C@_0O@FMLIOBIF@BOTH_T3_TL__L@ 300b5a8c     bg_panimate.obj
 0002:00003a9c       ??_C@_0O@OOGLMBHI@BOTH_T3__L_TR@ 300b5a9c     bg_panimate.obj
 0002:00003aac       ??_C@_0O@FLMFLPDF@BOTH_T3__L_T_@ 300b5aac     bg_panimate.obj
 0002:00003abc       ??_C@_0O@CCIBCBGF@BOTH_T3__L_BL@ 300b5abc     bg_panimate.obj
 0002:00003acc       ??_C@_0O@OEINKOHA@BOTH_T3_BL_T_@ 300b5acc     bg_panimate.obj
 0002:00003adc       ??_C@_0O@IFGCOPOC@BOTH_T3_BL_TL@ 300b5adc     bg_panimate.obj
 0002:00003aec       ??_C@_0O@EJCEDGPJ@BOTH_S3_S1_T_@ 300b5aec     bg_panimate.obj
 0002:00003afc       ??_C@_0O@CEJOJIIK@BOTH_S3_S1__L@ 300b5afc     bg_panimate.obj
 0002:00003b0c       ??_C@_0O@PANPKHFF@BOTH_S3_S1__R@ 300b5b0c     bg_panimate.obj
 0002:00003b1c       ??_C@_0O@CIMLHHGL@BOTH_S3_S1_TL@ 300b5b1c     bg_panimate.obj
 0002:00003b2c       ??_C@_0O@OECBJHHG@BOTH_S3_S1_BR@ 300b5b2c     bg_panimate.obj
 0002:00003b3c       ??_C@_0O@DAGAKIKJ@BOTH_S3_S1_BL@ 300b5b3c     bg_panimate.obj
 0002:00003b4c       ??_C@_0O@PMIKEILE@BOTH_S3_S1_TR@ 300b5b4c     bg_panimate.obj
 0002:00003b5c       ??_C@_0O@EOOGGKAE@BOTH_R3_B__S1@ 300b5b5c     bg_panimate.obj
 0002:00003b6c       ??_C@_0O@NGOOJGBD@BOTH_R3__L_S1@ 300b5b6c     bg_panimate.obj
 0002:00003b7c       ??_C@_0O@JDOLPPA@BOTH_R3__R_S1@ 300b5b7c     bg_panimate.obj
 0002:00003b8c       ??_C@_0O@LMCJGGNA@BOTH_R3_TL_S1@ 300b5b8c     bg_panimate.obj
 0002:00003b9c       ??_C@_0O@LGHGKOLF@BOTH_R3_BR_S1@ 300b5b9c     bg_panimate.obj
 0002:00003bac       ??_C@_0O@GJKGIHFG@BOTH_R3_BL_S1@ 300b5bac     bg_panimate.obj
 0002:00003bbc       ??_C@_0O@GDPJEPDD@BOTH_R3_TR_S1@ 300b5bbc     bg_panimate.obj
 0002:00003bcc       ??_C@_0O@OINCFDIJ@BOTH_B3_BR___@ 300b5bcc     bg_panimate.obj
 0002:00003bdc       ??_C@_0O@FHJKECMM@BOTH_B3__R___@ 300b5bdc     bg_panimate.obj
 0002:00003bec       ??_C@_0O@DNFNLCAP@BOTH_B3_TR___@ 300b5bec     bg_panimate.obj
 0002:00003bfc       ??_C@_0O@MFMNHGLO@BOTH_B3_T____@ 300b5bfc     bg_panimate.obj
 0002:00003c0c       ??_C@_0O@OCINJLOM@BOTH_B3_TL___@ 300b5c0c     bg_panimate.obj
 0002:00003c1c       ??_C@_0O@IIEKGLCP@BOTH_B3__L___@ 300b5c1c     bg_panimate.obj
 0002:00003c2c       ??_C@_0O@DHACHKGK@BOTH_B3_BL___@ 300b5c2c     bg_panimate.obj
 0002:00003c3c       ??_C@_0O@JLMICKAD@BOTH_D3_BR___@ 300b5c3c     bg_panimate.obj
 0002:00003c4c       ??_C@_0O@CEIADLEG@BOTH_D3__R___@ 300b5c4c     bg_panimate.obj
 0002:00003c5c       ??_C@_0O@EOEHMLIF@BOTH_D3_TR___@ 300b5c5c     bg_panimate.obj
 0002:00003c6c       ??_C@_0O@JBJHOCGG@BOTH_D3_TL___@ 300b5c6c     bg_panimate.obj
 0002:00003c7c       ??_C@_0O@PLFABCKF@BOTH_D3__L___@ 300b5c7c     bg_panimate.obj
 0002:00003c8c       ??_C@_0O@EEBIADOA@BOTH_D3_BL___@ 300b5c8c     bg_panimate.obj
 0002:00003c9c       ??_C@_0O@GDFIOOLC@BOTH_D3_B____@ 300b5c9c     bg_panimate.obj
 0002:00003cac       ??_C@_0O@OCHLHDEB@BOTH_A4_T__B_@ 300b5cac     bg_panimate.obj
 0002:00003cbc       ??_C@_0O@OKMCALO@BOTH_A4__L__R@ 300b5cbc     bg_panimate.obj
 0002:00003ccc       ??_C@_0O@FDNDGIC@BOTH_A4__R__L@ 300b5ccc     bg_panimate.obj
 0002:00003cdc       ??_C@_0O@HAJFOAFO@BOTH_A4_TL_BR@ 300b5cdc     bg_panimate.obj
 0002:00003cec       ??_C@_0O@LGCAMICG@BOTH_A4_BR_TL@ 300b5cec     bg_panimate.obj
 0002:00003cfc       ??_C@_0O@LNLBNOBK@BOTH_A4_BL_TR@ 300b5cfc     bg_panimate.obj
 0002:00003d0c       ??_C@_0O@HLAEPGGC@BOTH_A4_TR_BL@ 300b5d0c     bg_panimate.obj
 0002:00003d1c       ??_C@_0O@IIGDBPCG@BOTH_T4_BR__R@ 300b5d1c     bg_panimate.obj
 0002:00003d2c       ??_C@_0O@FAHHMPBI@BOTH_T4_BR_TL@ 300b5d2c     bg_panimate.obj
 0002:00003d3c       ??_C@_0O@FMCCCAPJ@BOTH_T4_BR__L@ 300b5d3c     bg_panimate.obj
 0002:00003d4c       ??_C@_0O@EINMBANK@BOTH_T4_BR_BL@ 300b5d4c     bg_panimate.obj
 0002:00003d5c       ??_C@_0O@DLHOOBIC@BOTH_T4__R_TR@ 300b5d5c     bg_panimate.obj
 0002:00003d6c       ??_C@_0O@OPDPNOFN@BOTH_T4__R_TL@ 300b5d6c     bg_panimate.obj
 0002:00003d7c       ??_C@_0O@ODGKDBLM@BOTH_T4__R__L@ 300b5d7c     bg_panimate.obj
 0002:00003d8c       ??_C@_0O@PHJEABJP@BOTH_T4__R_BL@ 300b5d8c     bg_panimate.obj
 0002:00003d9c       ??_C@_0O@EJBCMOID@BOTH_T4_TR_BR@ 300b5d9c     bg_panimate.obj
 0002:00003dac       ??_C@_0O@IFPICOJO@BOTH_T4_TR_TL@ 300b5dac     bg_panimate.obj
 0002:00003dbc       ??_C@_0O@IJKNMBHP@BOTH_T4_TR__L@ 300b5dbc     bg_panimate.obj
 0002:00003dcc       ??_C@_0O@JNFDPBFM@BOTH_T4_TR_BL@ 300b5dcc     bg_panimate.obj
 0002:00003ddc       ??_C@_0O@LBICAKDC@BOTH_T4_T__BR@ 300b5ddc     bg_panimate.obj
 0002:00003dec       ??_C@_0O@KFHMDKBB@BOTH_T4_T___R@ 300b5dec     bg_panimate.obj
 0002:00003dfc       ??_C@_0O@KJCJNFPA@BOTH_T4_T__TR@ 300b5dfc     bg_panimate.obj
 0002:00003e0c       ??_C@_0O@HNGIOKCP@BOTH_T4_T__TL@ 300b5e0c     bg_panimate.obj
 0002:00003e1c       ??_C@_0O@HBDNAFMO@BOTH_T4_T___L@ 300b5e1c     bg_panimate.obj
 0002:00003e2c       ??_C@_0O@GFMDDFON@BOTH_T4_T__BL@ 300b5e2c     bg_panimate.obj
 0002:00003e3c       ??_C@_0O@JGMCOHGA@BOTH_T4_TL_BR@ 300b5e3c     bg_panimate.obj
 0002:00003e4c       ??_C@_0O@ECIDNILP@BOTH_T4_TL_BL@ 300b5e4c     bg_panimate.obj
 0002:00003e5c       ??_C@_0O@PMAFBHKD@BOTH_T4__L_BR@ 300b5e5c     bg_panimate.obj
 0002:00003e6c       ??_C@_0O@OIPLCHIA@BOTH_T4__L__R@ 300b5e6c     bg_panimate.obj
 0002:00003e7c       ??_C@_0O@DAOPPHLO@BOTH_T4__L_TL@ 300b5e7c     bg_panimate.obj
 0002:00003e8c       ??_C@_0O@EDENAGOG@BOTH_T4_BL_BR@ 300b5e8c     bg_panimate.obj
 0002:00003e9c       ??_C@_0O@FHLDDGMF@BOTH_T4_BL__R@ 300b5e9c     bg_panimate.obj
 0002:00003eac       ??_C@_0O@FLOGNJCE@BOTH_T4_BL_TR@ 300b5eac     bg_panimate.obj
 0002:00003ebc       ??_C@_0O@IDPCAJBK@BOTH_T4_BL__L@ 300b5ebc     bg_panimate.obj
 0002:00003ecc       ??_C@_0O@IEDGPAMH@BOTH_T4_BR_TR@ 300b5ecc     bg_panimate.obj
 0002:00003edc       ??_C@_0O@DBJIIOIK@BOTH_T4_BR_T_@ 300b5edc     bg_panimate.obj
 0002:00003eec       ??_C@_0O@CDNFDOEA@BOTH_T4__R_BR@ 300b5eec     bg_panimate.obj
 0002:00003efc       ??_C@_0O@IONAJPMP@BOTH_T4__R_T_@ 300b5efc     bg_panimate.obj
 0002:00003f0c       ??_C@_0O@FNOMPOKA@BOTH_T4_TR__R@ 300b5f0c     bg_panimate.obj
 0002:00003f1c       ??_C@_0O@OEBHGPAM@BOTH_T4_TR_T_@ 300b5f1c     bg_panimate.obj
 0002:00003f2c       ??_C@_0O@ICDMNHED@BOTH_T4_TL__R@ 300b5f2c     bg_panimate.obj
 0002:00003f3c       ??_C@_0O@IOGJDIKC@BOTH_T4_TL_TR@ 300b5f3c     bg_panimate.obj
 0002:00003f4c       ??_C@_0O@DLMHEGOP@BOTH_T4_TL_T_@ 300b5f4c     bg_panimate.obj
 0002:00003f5c       ??_C@_0O@FGHNOIJM@BOTH_T4_TL__L@ 300b5f5c     bg_panimate.obj
 0002:00003f6c       ??_C@_0O@OEKOMIGB@BOTH_T4__L_TR@ 300b5f6c     bg_panimate.obj
 0002:00003f7c       ??_C@_0O@FBAALGCM@BOTH_T4__L_T_@ 300b5f7c     bg_panimate.obj
 0002:00003f8c       ??_C@_0O@CIEECIHM@BOTH_T4__L_BL@ 300b5f8c     bg_panimate.obj
 0002:00003f9c       ??_C@_0O@OOEIKHGJ@BOTH_T4_BL_T_@ 300b5f9c     bg_panimate.obj
 0002:00003fac       ??_C@_0O@IPKHOGPL@BOTH_T4_BL_TL@ 300b5fac     bg_panimate.obj
 0002:00003fbc       ??_C@_0O@EDOBDPOA@BOTH_S4_S1_T_@ 300b5fbc     bg_panimate.obj
 0002:00003fcc       ??_C@_0O@COFLJBJD@BOTH_S4_S1__L@ 300b5fcc     bg_panimate.obj
 0002:00003fdc       ??_C@_0O@PKBKKOEM@BOTH_S4_S1__R@ 300b5fdc     bg_panimate.obj
 0002:00003fec       ??_C@_0O@CCAOHOHC@BOTH_S4_S1_TL@ 300b5fec     bg_panimate.obj
 0002:00003ffc       ??_C@_0O@OOOEJOGP@BOTH_S4_S1_BR@ 300b5ffc     bg_panimate.obj
 0002:0000400c       ??_C@_0O@DKKFKBLA@BOTH_S4_S1_BL@ 300b600c     bg_panimate.obj
 0002:0000401c       ??_C@_0O@PGEPEBKN@BOTH_S4_S1_TR@ 300b601c     bg_panimate.obj
 0002:0000402c       ??_C@_0O@EECDGDBN@BOTH_R4_B__S1@ 300b602c     bg_panimate.obj
 0002:0000403c       ??_C@_0O@NMCLJPAK@BOTH_R4__L_S1@ 300b603c     bg_panimate.obj
 0002:0000404c       ??_C@_0O@DPLLGOJ@BOTH_R4__R_S1@ 300b604c     bg_panimate.obj
 0002:0000405c       ??_C@_0O@LGOMGPMJ@BOTH_R4_TL_S1@ 300b605c     bg_panimate.obj
 0002:0000406c       ??_C@_0O@LMLDKHKM@BOTH_R4_BR_S1@ 300b606c     bg_panimate.obj
 0002:0000407c       ??_C@_0O@GDGDIOEP@BOTH_R4_BL_S1@ 300b607c     bg_panimate.obj
 0002:0000408c       ??_C@_0O@GJDMEGCK@BOTH_R4_TR_S1@ 300b608c     bg_panimate.obj
 0002:0000409c       ??_C@_0O@OCBHFKJA@BOTH_B4_BR___@ 300b609c     bg_panimate.obj
 0002:000040ac       ??_C@_0O@FNFPELNF@BOTH_B4__R___@ 300b60ac     bg_panimate.obj
 0002:000040bc       ??_C@_0O@DHJILLBG@BOTH_B4_TR___@ 300b60bc     bg_panimate.obj
 0002:000040cc       ??_C@_0O@MPAIHPKH@BOTH_B4_T____@ 300b60cc     bg_panimate.obj
 0002:000040dc       ??_C@_0O@OIEIJCPF@BOTH_B4_TL___@ 300b60dc     bg_panimate.obj
 0002:000040ec       ??_C@_0O@ICIPGCDG@BOTH_B4__L___@ 300b60ec     bg_panimate.obj
 0002:000040fc       ??_C@_0O@DNMHHDHD@BOTH_B4_BL___@ 300b60fc     bg_panimate.obj
 0002:0000410c       ??_C@_0O@JBANCDBK@BOTH_D4_BR___@ 300b610c     bg_panimate.obj
 0002:0000411c       ??_C@_0O@COEFDCFP@BOTH_D4__R___@ 300b611c     bg_panimate.obj
 0002:0000412c       ??_C@_0O@EEICMCJM@BOTH_D4_TR___@ 300b612c     bg_panimate.obj
 0002:0000413c       ??_C@_0O@JLFCOLHP@BOTH_D4_TL___@ 300b613c     bg_panimate.obj
 0002:0000414c       ??_C@_0O@PBJFBLLM@BOTH_D4__L___@ 300b614c     bg_panimate.obj
 0002:0000415c       ??_C@_0O@EONNAKPJ@BOTH_D4_BL___@ 300b615c     bg_panimate.obj
 0002:0000416c       ??_C@_0O@GJJNOHKL@BOTH_D4_B____@ 300b616c     bg_panimate.obj
 0002:0000417c       ??_C@_0O@CONBHDNP@BOTH_A5_T__B_@ 300b617c     bg_panimate.obj
 0002:0000418c       ??_C@_0O@MCAGCACA@BOTH_A5__L__R@ 300b618c     bg_panimate.obj
 0002:0000419c       ??_C@_0O@MJJHDGBM@BOTH_A5__R__L@ 300b619c     bg_panimate.obj
 0002:000041ac       ??_C@_0O@LMDPOAMA@BOTH_A5_TL_BR@ 300b61ac     bg_panimate.obj
 0002:000041bc       ??_C@_0O@HKIKMILI@BOTH_A5_BR_TL@ 300b61bc     bg_panimate.obj
 0002:000041cc       ??_C@_0O@HBBLNOIE@BOTH_A5_BL_TR@ 300b61cc     bg_panimate.obj
 0002:000041dc       ??_C@_0O@LHKOPGPM@BOTH_A5_TR_BL@ 300b61dc     bg_panimate.obj
 0002:000041ec       ??_C@_0O@EEMJBPLI@BOTH_T5_BR__R@ 300b61ec     bg_panimate.obj
 0002:000041fc       ??_C@_0O@JMNNMPIG@BOTH_T5_BR_TL@ 300b61fc     bg_panimate.obj
 0002:0000420c       ??_C@_0O@JAIICAGH@BOTH_T5_BR__L@ 300b620c     bg_panimate.obj
 0002:0000421c       ??_C@_0O@IEHGBAEE@BOTH_T5_BR_BL@ 300b621c     bg_panimate.obj
 0002:0000422c       ??_C@_0O@PHNEOBBM@BOTH_T5__R_TR@ 300b622c     bg_panimate.obj
 0002:0000423c       ??_C@_0O@CDJFNOMD@BOTH_T5__R_TL@ 300b623c     bg_panimate.obj
 0002:0000424c       ??_C@_0O@CPMADBCC@BOTH_T5__R__L@ 300b624c     bg_panimate.obj
 0002:0000425c       ??_C@_0O@DLDOABAB@BOTH_T5__R_BL@ 300b625c     bg_panimate.obj
 0002:0000426c       ??_C@_0O@IFLIMOBN@BOTH_T5_TR_BR@ 300b626c     bg_panimate.obj
 0002:0000427c       ??_C@_0O@EJFCCOAA@BOTH_T5_TR_TL@ 300b627c     bg_panimate.obj
 0002:0000428c       ??_C@_0O@EFAHMBOB@BOTH_T5_TR__L@ 300b628c     bg_panimate.obj
 0002:0000429c       ??_C@_0O@FBPJPBMC@BOTH_T5_TR_BL@ 300b629c     bg_panimate.obj
 0002:000042ac       ??_C@_0O@HNCIAKKM@BOTH_T5_T__BR@ 300b62ac     bg_panimate.obj
 0002:000042bc       ??_C@_0O@GJNGDKIP@BOTH_T5_T___R@ 300b62bc     bg_panimate.obj
 0002:000042cc       ??_C@_0O@GFIDNFGO@BOTH_T5_T__TR@ 300b62cc     bg_panimate.obj
 0002:000042dc       ??_C@_0O@LBMCOKLB@BOTH_T5_T__TL@ 300b62dc     bg_panimate.obj
 0002:000042ec       ??_C@_0O@LNJHAFFA@BOTH_T5_T___L@ 300b62ec     bg_panimate.obj
 0002:000042fc       ??_C@_0O@KJGJDFHD@BOTH_T5_T__BL@ 300b62fc     bg_panimate.obj
 0002:0000430c       ??_C@_0O@FKGIOHPO@BOTH_T5_TL_BR@ 300b630c     bg_panimate.obj
 0002:0000431c       ??_C@_0O@IOCJNICB@BOTH_T5_TL_BL@ 300b631c     bg_panimate.obj
 0002:0000432c       ??_C@_0O@DAKPBHDN@BOTH_T5__L_BR@ 300b632c     bg_panimate.obj
 0002:0000433c       ??_C@_0O@CEFBCHBO@BOTH_T5__L__R@ 300b633c     bg_panimate.obj
 0002:0000434c       ??_C@_0O@PMEFPHCA@BOTH_T5__L_TL@ 300b634c     bg_panimate.obj
 0002:0000435c       ??_C@_0O@IPOHAGHI@BOTH_T5_BL_BR@ 300b635c     bg_panimate.obj
 0002:0000436c       ??_C@_0O@JLBJDGFL@BOTH_T5_BL__R@ 300b636c     bg_panimate.obj
 0002:0000437c       ??_C@_0O@JHEMNJLK@BOTH_T5_BL_TR@ 300b637c     bg_panimate.obj
 0002:0000438c       ??_C@_0O@EPFIAJIE@BOTH_T5_BL__L@ 300b638c     bg_panimate.obj
 0002:0000439c       ??_C@_0O@EIJMPAFJ@BOTH_T5_BR_TR@ 300b639c     bg_panimate.obj
 0002:000043ac       ??_C@_0O@PNDCIOBE@BOTH_T5_BR_T_@ 300b63ac     bg_panimate.obj
 0002:000043bc       ??_C@_0O@OPHPDONO@BOTH_T5__R_BR@ 300b63bc     bg_panimate.obj
 0002:000043cc       ??_C@_0O@ECHKJPFB@BOTH_T5__R_T_@ 300b63cc     bg_panimate.obj
 0002:000043dc       ??_C@_0O@JBEGPODO@BOTH_T5_TR__R@ 300b63dc     bg_panimate.obj
 0002:000043ec       ??_C@_0O@CILNGPJC@BOTH_T5_TR_T_@ 300b63ec     bg_panimate.obj
 0002:000043fc       ??_C@_0O@EOJGNHNN@BOTH_T5_TL__R@ 300b63fc     bg_panimate.obj
 0002:0000440c       ??_C@_0O@ECMDDIDM@BOTH_T5_TL_TR@ 300b640c     bg_panimate.obj
 0002:0000441c       ??_C@_0O@PHGNEGHB@BOTH_T5_TL_T_@ 300b641c     bg_panimate.obj
 0002:0000442c       ??_C@_0O@JKNHOIAC@BOTH_T5_TL__L@ 300b642c     bg_panimate.obj
 0002:0000443c       ??_C@_0O@CIAEMIPP@BOTH_T5__L_TR@ 300b643c     bg_panimate.obj
 0002:0000444c       ??_C@_0O@JNKKLGLC@BOTH_T5__L_T_@ 300b644c     bg_panimate.obj
 0002:0000445c       ??_C@_0O@OEOOCIOC@BOTH_T5__L_BL@ 300b645c     bg_panimate.obj
 0002:0000446c       ??_C@_0O@CCOCKHPH@BOTH_T5_BL_T_@ 300b646c     bg_panimate.obj
 0002:0000447c       ??_C@_0O@EDANOGGF@BOTH_T5_BL_TL@ 300b647c     bg_panimate.obj
 0002:0000448c       ??_C@_0O@IPELDPHO@BOTH_S5_S1_T_@ 300b648c     bg_panimate.obj
 0002:0000449c       ??_C@_0O@OCPBJBAN@BOTH_S5_S1__L@ 300b649c     bg_panimate.obj
 0002:000044ac       ??_C@_0O@DGLAKONC@BOTH_S5_S1__R@ 300b64ac     bg_panimate.obj
 0002:000044bc       ??_C@_0O@OOKEHOOM@BOTH_S5_S1_TL@ 300b64bc     bg_panimate.obj
 0002:000044cc       ??_C@_0O@CCEOJOPB@BOTH_S5_S1_BR@ 300b64cc     bg_panimate.obj
 0002:000044dc       ??_C@_0O@PGAPKBCO@BOTH_S5_S1_BL@ 300b64dc     bg_panimate.obj
 0002:000044ec       ??_C@_0O@DKOFEBDD@BOTH_S5_S1_TR@ 300b64ec     bg_panimate.obj
 0002:000044fc       ??_C@_0O@IIIJGDID@BOTH_R5_B__S1@ 300b64fc     bg_panimate.obj
 0002:0000450c       ??_C@_0O@BAIBJPJE@BOTH_R5__L_S1@ 300b650c     bg_panimate.obj
 0002:0000451c       ??_C@_0O@MPFBLGHH@BOTH_R5__R_S1@ 300b651c     bg_panimate.obj
 0002:0000452c       ??_C@_0O@HKEGGPFH@BOTH_R5_TL_S1@ 300b652c     bg_panimate.obj
 0002:0000453c       ??_C@_0O@HABJKHDC@BOTH_R5_BR_S1@ 300b653c     bg_panimate.obj
 0002:0000454c       ??_C@_0O@KPMJIONB@BOTH_R5_BL_S1@ 300b654c     bg_panimate.obj
 0002:0000455c       ??_C@_0O@KFJGEGLE@BOTH_R5_TR_S1@ 300b655c     bg_panimate.obj
 0002:0000456c       ??_C@_0O@COLNFKAO@BOTH_B5_BR___@ 300b656c     bg_panimate.obj
 0002:0000457c       ??_C@_0O@JBPFELEL@BOTH_B5__R___@ 300b657c     bg_panimate.obj
 0002:0000458c       ??_C@_0O@PLDCLLII@BOTH_B5_TR___@ 300b658c     bg_panimate.obj
 0002:0000459c       ??_C@_0O@DKCHPDJ@BOTH_B5_T____@ 300b659c     bg_panimate.obj
 0002:000045ac       ??_C@_0O@CEOCJCGL@BOTH_B5_TL___@ 300b65ac     bg_panimate.obj
 0002:000045bc       ??_C@_0O@EOCFGCKI@BOTH_B5__L___@ 300b65bc     bg_panimate.obj
 0002:000045cc       ??_C@_0O@PBGNHDON@BOTH_B5_BL___@ 300b65cc     bg_panimate.obj
 0002:000045dc       ??_C@_0O@FNKHCDIE@BOTH_D5_BR___@ 300b65dc     bg_panimate.obj
 0002:000045ec       ??_C@_0O@OCOPDCMB@BOTH_D5__R___@ 300b65ec     bg_panimate.obj
 0002:000045fc       ??_C@_0O@IICIMCAC@BOTH_D5_TR___@ 300b65fc     bg_panimate.obj
 0002:0000460c       ??_C@_0O@FHPIOLOB@BOTH_D5_TL___@ 300b660c     bg_panimate.obj
 0002:0000461c       ??_C@_0O@DNDPBLCC@BOTH_D5__L___@ 300b661c     bg_panimate.obj
 0002:0000462c       ??_C@_0O@ICHHAKGH@BOTH_D5_BL___@ 300b662c     bg_panimate.obj
 0002:0000463c       ??_C@_0O@KFDHOHDF@BOTH_D5_B____@ 300b663c     bg_panimate.obj
 0002:0000464c       ??_C@_0O@KAFOHEDM@BOTH_A6_T__B_@ 300b664c     bg_panimate.obj
 0002:0000465c       ??_C@_0O@EMIJCHMD@BOTH_A6__L__R@ 300b665c     bg_panimate.obj
 0002:0000466c       ??_C@_0O@EHBIDBPP@BOTH_A6__R__L@ 300b666c     bg_panimate.obj
 0002:0000467c       ??_C@_0O@DCLAOHCD@BOTH_A6_TL_BR@ 300b667c     bg_panimate.obj
 0002:0000468c       ??_C@_0O@PEAFMPFL@BOTH_A6_BR_TL@ 300b668c     bg_panimate.obj
 0002:0000469c       ??_C@_0O@PPJENJGH@BOTH_A6_BL_TR@ 300b669c     bg_panimate.obj
 0002:000046ac       ??_C@_0O@DJCBPBBP@BOTH_A6_TR_BL@ 300b66ac     bg_panimate.obj
 0002:000046bc       ??_C@_0O@MKEGBIFL@BOTH_T6_BR__R@ 300b66bc     bg_panimate.obj
 0002:000046cc       ??_C@_0O@BCFCMIGF@BOTH_T6_BR_TL@ 300b66cc     bg_panimate.obj
 0002:000046dc       ??_C@_0O@BOAHCHIE@BOTH_T6_BR__L@ 300b66dc     bg_panimate.obj
 0002:000046ec       ??_C@_0O@KPJBHKH@BOTH_T6_BR_BL@ 300b66ec     bg_panimate.obj
 0002:000046fc       ??_C@_0O@HJFLOGPP@BOTH_T6__R_TR@ 300b66fc     bg_panimate.obj
 0002:0000470c       ??_C@_0O@KNBKNJCA@BOTH_T6__R_TL@ 300b670c     bg_panimate.obj
 0002:0000471c       ??_C@_0O@KBEPDGMB@BOTH_T6__R__L@ 300b671c     bg_panimate.obj
 0002:0000472c       ??_C@_0O@LFLBAGOC@BOTH_T6__R_BL@ 300b672c     bg_panimate.obj
 0002:0000473c       ??_C@_0O@LDHMJPO@BOTH_T6_TR_BR@ 300b673c     bg_panimate.obj
 0002:0000474c       ??_C@_0O@MHNNCJOD@BOTH_T6_TR_TL@ 300b674c     bg_panimate.obj
 0002:0000475c       ??_C@_0O@MLIIMGAC@BOTH_T6_TR__L@ 300b675c     bg_panimate.obj
 0002:0000476c       ??_C@_0O@NPHGPGCB@BOTH_T6_TR_BL@ 300b676c     bg_panimate.obj
 0002:0000477c       ??_C@_0O@PDKHANEP@BOTH_T6_T__BR@ 300b677c     bg_panimate.obj
 0002:0000478c       ??_C@_0O@OHFJDNGM@BOTH_T6_T___R@ 300b678c     bg_panimate.obj
 0002:0000479c       ??_C@_0O@OLAMNCIN@BOTH_T6_T__TR@ 300b679c     bg_panimate.obj
 0002:000047ac       ??_C@_0O@DPENONFC@BOTH_T6_T__TL@ 300b67ac     bg_panimate.obj
 0002:000047bc       ??_C@_0O@DDBIACLD@BOTH_T6_T___L@ 300b67bc     bg_panimate.obj
 0002:000047cc       ??_C@_0O@CHOGDCJA@BOTH_T6_T__BL@ 300b67cc     bg_panimate.obj
 0002:000047dc       ??_C@_0O@NEOHOABN@BOTH_T6_TL_BR@ 300b67dc     bg_panimate.obj
 0002:000047ec       ??_C@_0O@KGNPMC@BOTH_T6_TL_BL@ 300b67ec     bg_panimate.obj
 0002:000047fc       ??_C@_0O@LOCABANO@BOTH_T6__L_BR@ 300b67fc     bg_panimate.obj
 0002:0000480c       ??_C@_0O@KKNOCAPN@BOTH_T6__L__R@ 300b680c     bg_panimate.obj
 0002:0000481c       ??_C@_0O@HCMKPAMD@BOTH_T6__L_TL@ 300b681c     bg_panimate.obj
 0002:0000482c       ??_C@_0O@BGIABJL@BOTH_T6_BL_BR@ 300b682c     bg_panimate.obj
 0002:0000483c       ??_C@_0O@BFJGDBLI@BOTH_T6_BL__R@ 300b683c     bg_panimate.obj
 0002:0000484c       ??_C@_0O@BJMDNOFJ@BOTH_T6_BL_TR@ 300b684c     bg_panimate.obj
 0002:0000485c       ??_C@_0O@MBNHAOGH@BOTH_T6_BL__L@ 300b685c     bg_panimate.obj
 0002:0000486c       ??_C@_0O@MGBDPHLK@BOTH_T6_BR_TR@ 300b686c     bg_panimate.obj
 0002:0000487c       ??_C@_0O@HDLNIJPH@BOTH_T6_BR_T_@ 300b687c     bg_panimate.obj
 0002:0000488c       ??_C@_0O@GBPADJDN@BOTH_T6__R_BR@ 300b688c     bg_panimate.obj
 0002:0000489c       ??_C@_0O@MMPFJILC@BOTH_T6__R_T_@ 300b689c     bg_panimate.obj
 0002:000048ac       ??_C@_0O@BPMJPJNN@BOTH_T6_TR__R@ 300b68ac     bg_panimate.obj
 0002:000048bc       ??_C@_0O@KGDCGIHB@BOTH_T6_TR_T_@ 300b68bc     bg_panimate.obj
 0002:000048cc       ??_C@_0O@MABJNADO@BOTH_T6_TL__R@ 300b68cc     bg_panimate.obj
 0002:000048dc       ??_C@_0O@MMEMDPNP@BOTH_T6_TL_TR@ 300b68dc     bg_panimate.obj
 0002:000048ec       ??_C@_0O@HJOCEBJC@BOTH_T6_TL_T_@ 300b68ec     bg_panimate.obj
 0002:000048fc       ??_C@_0O@BEFIOPOB@BOTH_T6_TL__L@ 300b68fc     bg_panimate.obj
 0002:0000490c       ??_C@_0O@KGILMPBM@BOTH_T6__L_TR@ 300b690c     bg_panimate.obj
 0002:0000491c       ??_C@_0O@BDCFLBFB@BOTH_T6__L_T_@ 300b691c     bg_panimate.obj
 0002:0000492c       ??_C@_0O@GKGBCPAB@BOTH_T6__L_BL@ 300b692c     bg_panimate.obj
 0002:0000493c       ??_C@_0O@KMGNKABE@BOTH_T6_BL_T_@ 300b693c     bg_panimate.obj
 0002:0000494c       ??_C@_0O@MNICOBIG@BOTH_T6_BL_TL@ 300b694c     bg_panimate.obj
 0002:0000495c       ??_C@_0O@LDOEOEIN@BOTH_S6_S6_T_@ 300b695c     bg_panimate.obj
 0002:0000496c       ??_C@_0O@NOFOEKPO@BOTH_S6_S6__L@ 300b696c     bg_panimate.obj
 0002:0000497c       ??_C@_0O@KBPHFCB@BOTH_S6_S6__R@ 300b697c     bg_panimate.obj
 0002:0000498c       ??_C@_0O@NCALKFBP@BOTH_S6_S6_TL@ 300b698c     bg_panimate.obj
 0002:0000499c       ??_C@_0O@BOOBEFAC@BOTH_S6_S6_BR@ 300b699c     bg_panimate.obj
 0002:000049ac       ??_C@_0O@MKKAHKNN@BOTH_S6_S6_BL@ 300b69ac     bg_panimate.obj
 0002:000049bc       ??_C@_0O@GEKJKMA@BOTH_S6_S6_TR@ 300b69bc     bg_panimate.obj
 0002:000049cc       ??_C@_0O@EJEHPCKH@BOTH_R6_B__S6@ 300b69cc     bg_panimate.obj
 0002:000049dc       ??_C@_0O@NBEPAOLA@BOTH_R6__L_S6@ 300b69dc     bg_panimate.obj
 0002:000049ec       ??_C@_0O@OJPCHFD@BOTH_R6__R_S6@ 300b69ec     bg_panimate.obj
 0002:000049fc       ??_C@_0O@LLIIPOHD@BOTH_R6_TL_S6@ 300b69fc     bg_panimate.obj
 0002:00004a0c       ??_C@_0O@LBNHDGBG@BOTH_R6_BR_S6@ 300b6a0c     bg_panimate.obj
 0002:00004a1c       ??_C@_0O@GOAHBPPF@BOTH_R6_BL_S6@ 300b6a1c     bg_panimate.obj
 0002:00004a2c       ??_C@_0O@GEFINHJA@BOTH_R6_TR_S6@ 300b6a2c     bg_panimate.obj
 0002:00004a3c       ??_C@_0O@KADCFNON@BOTH_B6_BR___@ 300b6a3c     bg_panimate.obj
 0002:00004a4c       ??_C@_0O@BPHKEMKI@BOTH_B6__R___@ 300b6a4c     bg_panimate.obj
 0002:00004a5c       ??_C@_0O@HFLNLMGL@BOTH_B6_TR___@ 300b6a5c     bg_panimate.obj
 0002:00004a6c       ??_C@_0O@INCNHINK@BOTH_B6_T____@ 300b6a6c     bg_panimate.obj
 0002:00004a7c       ??_C@_0O@KKGNJFII@BOTH_B6_TL___@ 300b6a7c     bg_panimate.obj
 0002:00004a8c       ??_C@_0O@MAKKGFEL@BOTH_B6__L___@ 300b6a8c     bg_panimate.obj
 0002:00004a9c       ??_C@_0O@HPOCHEAO@BOTH_B6_BL___@ 300b6a9c     bg_panimate.obj
 0002:00004aac       ??_C@_0O@NDCICEGH@BOTH_D6_BR___@ 300b6aac     bg_panimate.obj
 0002:00004abc       ??_C@_0O@GMGADFCC@BOTH_D6__R___@ 300b6abc     bg_panimate.obj
 0002:00004acc       ??_C@_0O@GKHMFOB@BOTH_D6_TR___@ 300b6acc     bg_panimate.obj
 0002:00004adc       ??_C@_0O@NJHHOMAC@BOTH_D6_TL___@ 300b6adc     bg_panimate.obj
 0002:00004aec       ??_C@_0O@LDLABMMB@BOTH_D6__L___@ 300b6aec     bg_panimate.obj
 0002:00004afc       ??_C@_0O@MPIANIE@BOTH_D6_BL___@ 300b6afc     bg_panimate.obj
 0002:00004b0c       ??_C@_0O@CLLIOANG@BOTH_D6_B____@ 300b6b0c     bg_panimate.obj
 0002:00004b1c       ??_C@_0O@GMPEHEKC@BOTH_A7_T__B_@ 300b6b1c     bg_panimate.obj
 0002:00004b2c       ??_C@_0O@IACDCHFN@BOTH_A7__L__R@ 300b6b2c     bg_panimate.obj
 0002:00004b3c       ??_C@_0O@ILLCDBGB@BOTH_A7__R__L@ 300b6b3c     bg_panimate.obj
 0002:00004b4c       ??_C@_0O@POBKOHLN@BOTH_A7_TL_BR@ 300b6b4c     bg_panimate.obj
 0002:00004b5c       ??_C@_0O@DIKPMPMF@BOTH_A7_BR_TL@ 300b6b5c     bg_panimate.obj
 0002:00004b6c       ??_C@_0O@DDDONJPJ@BOTH_A7_BL_TR@ 300b6b6c     bg_panimate.obj
 0002:00004b7c       ??_C@_0O@PFILPBIB@BOTH_A7_TR_BL@ 300b6b7c     bg_panimate.obj
 0002:00004b8c       ??_C@_0O@GOMBIMF@BOTH_T7_BR__R@ 300b6b8c     bg_panimate.obj
 0002:00004b9c       ??_C@_0O@NOPIMIPL@BOTH_T7_BR_TL@ 300b6b9c     bg_panimate.obj
 0002:00004bac       ??_C@_0O@NCKNCHBK@BOTH_T7_BR__L@ 300b6bac     bg_panimate.obj
 0002:00004bbc       ??_C@_0O@MGFDBHDJ@BOTH_T7_BR_BL@ 300b6bbc     bg_panimate.obj
 0002:00004bcc       ??_C@_0O@LFPBOGGB@BOTH_T7__R_TR@ 300b6bcc     bg_panimate.obj
 0002:00004bdc       ??_C@_0O@GBLANJLO@BOTH_T7__R_TL@ 300b6bdc     bg_panimate.obj
 0002:00004bec       ??_C@_0O@GNOFDGFP@BOTH_T7__R__L@ 300b6bec     bg_panimate.obj
 0002:00004bfc       ??_C@_0O@HJBLAGHM@BOTH_T7__R_BL@ 300b6bfc     bg_panimate.obj
 0002:00004c0c       ??_C@_0O@MHJNMJGA@BOTH_T7_TR_BR@ 300b6c0c     bg_panimate.obj
 0002:00004c1c       ??_C@_0O@LHHCJHN@BOTH_T7_TR_TL@ 300b6c1c     bg_panimate.obj
 0002:00004c2c       ??_C@_0O@HCCMGJM@BOTH_T7_TR__L@ 300b6c2c     bg_panimate.obj
 0002:00004c3c       ??_C@_0O@BDNMPGLP@BOTH_T7_TR_BL@ 300b6c3c     bg_panimate.obj
 0002:00004c4c       ??_C@_0O@DPANANNB@BOTH_T7_T__BR@ 300b6c4c     bg_panimate.obj
 0002:00004c5c       ??_C@_0O@CLPDDNPC@BOTH_T7_T___R@ 300b6c5c     bg_panimate.obj
 0002:00004c6c       ??_C@_0O@CHKGNCBD@BOTH_T7_T__TR@ 300b6c6c     bg_panimate.obj
 0002:00004c7c       ??_C@_0O@PDOHONMM@BOTH_T7_T__TL@ 300b6c7c     bg_panimate.obj
 0002:00004c8c       ??_C@_0O@PPLCACCN@BOTH_T7_T___L@ 300b6c8c     bg_panimate.obj
 0002:00004c9c       ??_C@_0O@OLEMDCAO@BOTH_T7_T__BL@ 300b6c9c     bg_panimate.obj
 0002:00004cac       ??_C@_0O@BIENOAID@BOTH_T7_TL_BR@ 300b6cac     bg_panimate.obj
 0002:00004cbc       ??_C@_0O@MMAMNPFM@BOTH_T7_TL_BL@ 300b6cbc     bg_panimate.obj
 0002:00004ccc       ??_C@_0O@HCIKBAEA@BOTH_T7__L_BR@ 300b6ccc     bg_panimate.obj
 0002:00004cdc       ??_C@_0O@GGHECAGD@BOTH_T7__L__R@ 300b6cdc     bg_panimate.obj
 0002:00004cec       ??_C@_0O@LOGAPAFN@BOTH_T7__L_TL@ 300b6cec     bg_panimate.obj
 0002:00004cfc       ??_C@_0O@MNMCABAF@BOTH_T7_BL_BR@ 300b6cfc     bg_panimate.obj
 0002:00004d0c       ??_C@_0O@NJDMDBCG@BOTH_T7_BL__R@ 300b6d0c     bg_panimate.obj
 0002:00004d1c       ??_C@_0O@NFGJNOMH@BOTH_T7_BL_TR@ 300b6d1c     bg_panimate.obj
 0002:00004d2c       ??_C@_0O@NHNAOPJ@BOTH_T7_BL__L@ 300b6d2c     bg_panimate.obj
 0002:00004d3c       ??_C@_0O@KLJPHCE@BOTH_T7_BR_TR@ 300b6d3c     bg_panimate.obj
 0002:00004d4c       ??_C@_0O@LPBHIJGJ@BOTH_T7_BR_T_@ 300b6d4c     bg_panimate.obj
 0002:00004d5c       ??_C@_0O@KNFKDJKD@BOTH_T7__R_BR@ 300b6d5c     bg_panimate.obj
 0002:00004d6c       ??_C@_0O@FPJICM@BOTH_T7__R_T_@ 300b6d6c     bg_panimate.obj
 0002:00004d7c       ??_C@_0O@NDGDPJED@BOTH_T7_TR__R@ 300b6d7c     bg_panimate.obj
 0002:00004d8c       ??_C@_0O@GKJIGIOP@BOTH_T7_TR_T_@ 300b6d8c     bg_panimate.obj
 0002:00004d9c       ??_C@_0O@MLDNAKA@BOTH_T7_TL__R@ 300b6d9c     bg_panimate.obj
 0002:00004dac       ??_C@_0O@OGDPEB@BOTH_T7_TL_TR@ 300b6dac     bg_panimate.obj
 0002:00004dbc       ??_C@_0O@LFEIEBAM@BOTH_T7_TL_T_@ 300b6dbc     bg_panimate.obj
 0002:00004dcc       ??_C@_0O@NIPCOPHP@BOTH_T7_TL__L@ 300b6dcc     bg_panimate.obj
 0002:00004ddc       ??_C@_0O@GKCBMPIC@BOTH_T7__L_TR@ 300b6ddc     bg_panimate.obj
 0002:00004dec       ??_C@_0O@NPIPLBMP@BOTH_T7__L_T_@ 300b6dec     bg_panimate.obj
 0002:00004dfc       ??_C@_0O@KGMLCPJP@BOTH_T7__L_BL@ 300b6dfc     bg_panimate.obj
 0002:00004e0c       ??_C@_0O@GAMHKAIK@BOTH_T7_BL_T_@ 300b6e0c     bg_panimate.obj
 0002:00004e1c       ??_C@_0O@BCIOBBI@BOTH_T7_BL_TL@ 300b6e1c     bg_panimate.obj
 0002:00004e2c       ??_C@_0O@ECCOMNKD@BOTH_S7_S7_T_@ 300b6e2c     bg_panimate.obj
 0002:00004e3c       ??_C@_0O@CPJEGDNA@BOTH_S7_S7__L@ 300b6e3c     bg_panimate.obj
 0002:00004e4c       ??_C@_0O@PLNFFMAP@BOTH_S7_S7__R@ 300b6e4c     bg_panimate.obj
 0002:00004e5c       ??_C@_0O@CDMBIMDB@BOTH_S7_S7_TL@ 300b6e5c     bg_panimate.obj
 0002:00004e6c       ??_C@_0O@OPCLGMCM@BOTH_S7_S7_BR@ 300b6e6c     bg_panimate.obj
 0002:00004e7c       ??_C@_0O@DLGKFDPD@BOTH_S7_S7_BL@ 300b6e7c     bg_panimate.obj
 0002:00004e8c       ??_C@_0O@PHIALDOO@BOTH_S7_S7_TR@ 300b6e8c     bg_panimate.obj
 0002:00004e9c       ??_C@_0O@JMPGMDHI@BOTH_R7_B__S7@ 300b6e9c     bg_panimate.obj
 0002:00004eac       ??_C@_0O@EPODPGP@BOTH_R7__L_S7@ 300b6eac     bg_panimate.obj
 0002:00004ebc       ??_C@_0O@NLCOBGIM@BOTH_R7__R_S7@ 300b6ebc     bg_panimate.obj
 0002:00004ecc       ??_C@_0O@GODJMPKM@BOTH_R7_TL_S7@ 300b6ecc     bg_panimate.obj
 0002:00004edc       ??_C@_0O@GEGGAHMJ@BOTH_R7_BR_S7@ 300b6edc     bg_panimate.obj
 0002:00004eec       ??_C@_0O@LLLGCOCK@BOTH_R7_BL_S7@ 300b6eec     bg_panimate.obj
 0002:00004efc       ??_C@_0O@LBOJOGEP@BOTH_R7_TR_S7@ 300b6efc     bg_panimate.obj
 0002:00004f0c       ??_C@_0O@GMJIFNHD@BOTH_B7_BR___@ 300b6f0c     bg_panimate.obj
 0002:00004f1c       ??_C@_0O@NDNAEMDG@BOTH_B7__R___@ 300b6f1c     bg_panimate.obj
 0002:00004f2c       ??_C@_0O@LJBHLMPF@BOTH_B7_TR___@ 300b6f2c     bg_panimate.obj
 0002:00004f3c       ??_C@_0O@EBIHHIEE@BOTH_B7_T____@ 300b6f3c     bg_panimate.obj
 0002:00004f4c       ??_C@_0O@GGMHJFBG@BOTH_B7_TL___@ 300b6f4c     bg_panimate.obj
 0002:00004f5c       ??_C@_0O@MAAGFNF@BOTH_B7__L___@ 300b6f5c     bg_panimate.obj
 0002:00004f6c       ??_C@_0O@LDEIHEJA@BOTH_B7_BL___@ 300b6f6c     bg_panimate.obj
 0002:00004f7c       ??_C@_0O@BPICCEPJ@BOTH_D7_BR___@ 300b6f7c     bg_panimate.obj
 0002:00004f8c       ??_C@_0O@KAMKDFLM@BOTH_D7__R___@ 300b6f8c     bg_panimate.obj
 0002:00004f9c       ??_C@_0O@MKANMFHP@BOTH_D7_TR___@ 300b6f9c     bg_panimate.obj
 0002:00004fac       ??_C@_0O@BFNNOMJM@BOTH_D7_TL___@ 300b6fac     bg_panimate.obj
 0002:00004fbc       ??_C@_0O@HPBKBMFP@BOTH_D7__L___@ 300b6fbc     bg_panimate.obj
 0002:00004fcc       ??_C@_0O@MAFCANBK@BOTH_D7_BL___@ 300b6fcc     bg_panimate.obj
 0002:00004fdc       ??_C@_0O@OHBCOAEI@BOTH_D7_B____@ 300b6fdc     bg_panimate.obj
 0002:00004fec       ??_C@_0O@DCIMANEB@BOTH_P1_S1_T_@ 300b6fec     bg_panimate.obj
 0002:00004ffc       ??_C@_0O@IHCCHDAM@BOTH_P1_S1_TR@ 300b6ffc     bg_panimate.obj
 0002:0000500c       ??_C@_0O@FDGDEMND@BOTH_P1_S1_TL@ 300b700c     bg_panimate.obj
 0002:0000501c       ??_C@_0O@ELMIJDBB@BOTH_P1_S1_BL@ 300b701c     bg_panimate.obj
 0002:0000502c       ??_C@_0O@JPIJKMMO@BOTH_P1_S1_BR@ 300b702c     bg_panimate.obj
 0002:0000503c       ??_C@_0O@BMBJNBON@BOTH_K1_S1_T_@ 300b703c     bg_panimate.obj
 0002:0000504c       ??_C@_0O@KJLHKPKA@BOTH_K1_S1_TR@ 300b704c     bg_panimate.obj
 0002:0000505c       ??_C@_0O@HNPGJAHP@BOTH_K1_S1_TL@ 300b705c     bg_panimate.obj
 0002:0000506c       ??_C@_0O@GFFNEPLN@BOTH_K1_S1_BL@ 300b706c     bg_panimate.obj
 0002:0000507c       ??_C@_0O@ELCAOCP@BOTH_K1_S1_B_@ 300b707c     bg_panimate.obj
 0002:0000508c       ??_C@_0O@LBBMHAGC@BOTH_K1_S1_BR@ 300b708c     bg_panimate.obj
 0002:0000509c       ??_C@_0O@KJLPPIME@BOTH_V1_BR_S1@ 300b709c     bg_panimate.obj
 0002:000050ac       ??_C@_0O@BGPHOJIB@BOTH_V1__R_S1@ 300b70ac     bg_panimate.obj
 0002:000050bc       ??_C@_0O@HMDABJEC@BOTH_V1_TR_S1@ 300b70bc     bg_panimate.obj
 0002:000050cc       ??_C@_0O@IEKANNPD@BOTH_V1_T__S1@ 300b70cc     bg_panimate.obj
 0002:000050dc       ??_C@_0O@KDOADAKB@BOTH_V1_TL_S1@ 300b70dc     bg_panimate.obj
 0002:000050ec       ??_C@_0O@MJCHMAGC@BOTH_V1__L_S1@ 300b70ec     bg_panimate.obj
 0002:000050fc       ??_C@_0O@HGGPNBCH@BOTH_V1_BL_S1@ 300b70fc     bg_panimate.obj
 0002:0000510c       ??_C@_0O@FBCPDMHF@BOTH_V1_B__S1@ 300b710c     bg_panimate.obj
 0002:0000511c       ??_C@_0O@CFJEONCI@BOTH_H1_S1_T_@ 300b711c     bg_panimate.obj
 0002:0000512c       ??_C@_0O@JADKJDGF@BOTH_H1_S1_TR@ 300b712c     bg_panimate.obj
 0002:0000513c       ??_C@_0O@EEHLKMLK@BOTH_H1_S1_TL@ 300b713c     bg_panimate.obj
 0002:0000514c       ??_C@_0O@FMNAHDHI@BOTH_H1_S1_BL@ 300b714c     bg_panimate.obj
 0002:0000515c       ??_C@_0O@DNDPDCOK@BOTH_H1_S1_B_@ 300b715c     bg_panimate.obj
 0002:0000516c       ??_C@_0O@IIJBEMKH@BOTH_H1_S1_BR@ 300b716c     bg_panimate.obj
 0002:0000517c       ??_C@_0O@IKGJNIEI@BOTH_P6_S6_T_@ 300b717c     bg_panimate.obj
 0002:0000518c       ??_C@_0O@DPMHKGAF@BOTH_P6_S6_TR@ 300b718c     bg_panimate.obj
 0002:0000519c       ??_C@_0O@OLIGJJNK@BOTH_P6_S6_TL@ 300b719c     bg_panimate.obj
 0002:000051ac       ??_C@_0O@PDCNEGBI@BOTH_P6_S6_BL@ 300b71ac     bg_panimate.obj
 0002:000051bc       ??_C@_0O@CHGMHJMH@BOTH_P6_S6_BR@ 300b71bc     bg_panimate.obj
 0002:000051cc       ??_C@_0O@KEPMAEOE@BOTH_K6_S6_T_@ 300b71cc     bg_panimate.obj
 0002:000051dc       ??_C@_0O@BBFCHKKJ@BOTH_K6_S6_TR@ 300b71dc     bg_panimate.obj
 0002:000051ec       ??_C@_0O@MFBDEFHG@BOTH_K6_S6_TL@ 300b71ec     bg_panimate.obj
 0002:000051fc       ??_C@_0O@NNLIJKLE@BOTH_K6_S6_BL@ 300b71fc     bg_panimate.obj
 0002:0000520c       ??_C@_0O@LMFHNLCG@BOTH_K6_S6_B_@ 300b720c     bg_panimate.obj
 0002:0000521c       ??_C@_0O@JPJKFGL@BOTH_K6_S6_BR@ 300b721c     bg_panimate.obj
 0002:0000522c       ??_C@_0O@OMDLGHBK@BOTH_V6_BR_S6@ 300b722c     bg_panimate.obj
 0002:0000523c       ??_C@_0O@FDHDHGFP@BOTH_V6__R_S6@ 300b723c     bg_panimate.obj
 0002:0000524c       ??_C@_0O@DJLEIGJM@BOTH_V6_TR_S6@ 300b724c     bg_panimate.obj
 0002:0000525c       ??_C@_0O@MBCEECCN@BOTH_V6_T__S6@ 300b725c     bg_panimate.obj
 0002:0000526c       ??_C@_0O@OGGEKPHP@BOTH_V6_TL_S6@ 300b726c     bg_panimate.obj
 0002:0000527c       ??_C@_0O@IMKDFPLM@BOTH_V6__L_S6@ 300b727c     bg_panimate.obj
 0002:0000528c       ??_C@_0O@DDOLEOPJ@BOTH_V6_BL_S6@ 300b728c     bg_panimate.obj
 0002:0000529c       ??_C@_0O@BEKLKDKL@BOTH_V6_B__S6@ 300b729c     bg_panimate.obj
 0002:000052ac       ??_C@_0O@JNHBDICB@BOTH_H6_S6_T_@ 300b72ac     bg_panimate.obj
 0002:000052bc       ??_C@_0O@CINPEGGM@BOTH_H6_S6_TR@ 300b72bc     bg_panimate.obj
 0002:000052cc       ??_C@_0O@PMJOHJLD@BOTH_H6_S6_TL@ 300b72cc     bg_panimate.obj
 0002:000052dc       ??_C@_0O@OEDFKGHB@BOTH_H6_S6_BL@ 300b72dc     bg_panimate.obj
 0002:000052ec       ??_C@_0O@IFNKOHOD@BOTH_H6_S6_B_@ 300b72ec     bg_panimate.obj
 0002:000052fc       ??_C@_0O@DAHEJJKO@BOTH_H6_S6_BR@ 300b72fc     bg_panimate.obj
 0002:0000530c       ??_C@_0O@HLKDPBGG@BOTH_P7_S7_T_@ 300b730c     bg_panimate.obj
 0002:0000531c       ??_C@_0O@MOANIPCL@BOTH_P7_S7_TR@ 300b731c     bg_panimate.obj
 0002:0000532c       ??_C@_0O@BKEMLAPE@BOTH_P7_S7_TL@ 300b732c     bg_panimate.obj
 0002:0000533c       ??_C@_0O@COHGPDG@BOTH_P7_S7_BL@ 300b733c     bg_panimate.obj
 0002:0000534c       ??_C@_0O@NGKGFAOJ@BOTH_P7_S7_BR@ 300b734c     bg_panimate.obj
 0002:0000535c       ??_C@_0O@FFDGCNMK@BOTH_K7_S7_T_@ 300b735c     bg_panimate.obj
 0002:0000536c       ??_C@_0O@OAJIFDIH@BOTH_K7_S7_TR@ 300b736c     bg_panimate.obj
 0002:0000537c       ??_C@_0O@DENJGMFI@BOTH_K7_S7_TL@ 300b737c     bg_panimate.obj
 0002:0000538c       ??_C@_0O@CMHCLDJK@BOTH_K7_S7_BL@ 300b738c     bg_panimate.obj
 0002:0000539c       ??_C@_0O@ENJNPCAI@BOTH_K7_S7_B_@ 300b739c     bg_panimate.obj
 0002:000053ac       ??_C@_0O@PIDDIMEF@BOTH_K7_S7_BR@ 300b73ac     bg_panimate.obj
 0002:000053bc       ??_C@_0O@DJIKFGMF@BOTH_V7_BR_S7@ 300b73bc     bg_panimate.obj
 0002:000053cc       ??_C@_0O@IGMCEHIA@BOTH_V7__R_S7@ 300b73cc     bg_panimate.obj
 0002:000053dc       ??_C@_0O@OMAFLHED@BOTH_V7_TR_S7@ 300b73dc     bg_panimate.obj
 0002:000053ec       ??_C@_0O@BEJFHDPC@BOTH_V7_T__S7@ 300b73ec     bg_panimate.obj
 0002:000053fc       ??_C@_0O@DDNFJOKA@BOTH_V7_TL_S7@ 300b73fc     bg_panimate.obj
 0002:0000540c       ??_C@_0O@FJBCGOGD@BOTH_V7__L_S7@ 300b740c     bg_panimate.obj
 0002:0000541c       ??_C@_0O@OGFKHPCG@BOTH_V7_BL_S7@ 300b741c     bg_panimate.obj
 0002:0000542c       ??_C@_0O@MBBKJCHE@BOTH_V7_B__S7@ 300b742c     bg_panimate.obj
 0002:0000543c       ??_C@_0O@GMLLBBAP@BOTH_H7_S7_T_@ 300b743c     bg_panimate.obj
 0002:0000544c       ??_C@_0O@NJBFGPEC@BOTH_H7_S7_TR@ 300b744c     bg_panimate.obj
 0002:0000545c       ??_C@_0O@NFEFAJN@BOTH_H7_S7_TL@ 300b745c     bg_panimate.obj
 0002:0000546c       ??_C@_0O@BFPPIPFP@BOTH_H7_S7_BL@ 300b746c     bg_panimate.obj
 0002:0000547c       ??_C@_0O@HEBAMOMN@BOTH_H7_S7_B_@ 300b747c     bg_panimate.obj
 0002:0000548c       ??_C@_0O@MBLOLAIA@BOTH_H7_S7_BR@ 300b748c     bg_panimate.obj
 0002:0000549c       ??_C@_0BF@KNBBBPIF@BOTH_LK_S_DL_S_B_1_L@ 300b749c     bg_panimate.obj
 0002:000054b4       ??_C@_0BF@ECHNEBP@BOTH_LK_S_DL_S_B_1_W@ 300b74b4     bg_panimate.obj
 0002:000054cc       ??_C@_0BD@FAIJMBFK@BOTH_LK_S_DL_S_L_1@ 300b74cc     bg_panimate.obj
 0002:000054e0       ??_C@_0BG@FMMJLELD@BOTH_LK_S_DL_S_SB_1_L@ 300b74e0     bg_panimate.obj
 0002:000054f8       ??_C@_0BG@PFPPHPCJ@BOTH_LK_S_DL_S_SB_1_W@ 300b74f8     bg_panimate.obj
 0002:00005510       ??_C@_0BF@KHNEBGJM@BOTH_LK_S_DL_T_B_1_L@ 300b7510     bg_panimate.obj
 0002:00005528       ??_C@_0BF@OOCNNAG@BOTH_LK_S_DL_T_B_1_W@ 300b7528     bg_panimate.obj
 0002:00005540       ??_C@_0BD@ENIMPBOC@BOTH_LK_S_DL_T_L_1@ 300b7540     bg_panimate.obj
 0002:00005554       ??_C@_0BG@DIKINJHK@BOTH_LK_S_DL_T_SB_1_L@ 300b7554     bg_panimate.obj
 0002:0000556c       ??_C@_0BG@JBJOBCOA@BOTH_LK_S_DL_T_SB_1_W@ 300b756c     bg_panimate.obj
 0002:00005584       ??_C@_0BF@BOKFAPNB@BOTH_LK_S_ST_S_B_1_L@ 300b7584     bg_panimate.obj
 0002:0000559c       ??_C@_0BF@LHJDMEEL@BOTH_LK_S_ST_S_B_1_W@ 300b759c     bg_panimate.obj
 0002:000055b4       ??_C@_0BD@DHHGMEHM@BOTH_LK_S_ST_S_L_1@ 300b75b4     bg_panimate.obj
 0002:000055c8       ??_C@_0BG@DAHMJFEO@BOTH_LK_S_ST_S_SB_1_L@ 300b75c8     bg_panimate.obj
 0002:000055e0       ??_C@_0BG@JJEKFONE@BOTH_LK_S_ST_S_SB_1_W@ 300b75e0     bg_panimate.obj
 0002:000055f8       ??_C@_0BF@BEGAAGMI@BOTH_LK_S_ST_T_B_1_L@ 300b75f8     bg_panimate.obj
 0002:00005610       ??_C@_0BF@LNFGMNFC@BOTH_LK_S_ST_T_B_1_W@ 300b7610     bg_panimate.obj
 0002:00005628       ??_C@_0BD@CKHDPEME@BOTH_LK_S_ST_T_L_1@ 300b7628     bg_panimate.obj
 0002:0000563c       ??_C@_0BG@FEBNPIIH@BOTH_LK_S_ST_T_SB_1_L@ 300b763c     bg_panimate.obj
 0002:00005654       ??_C@_0BG@PNCLDDBN@BOTH_LK_S_ST_T_SB_1_W@ 300b7654     bg_panimate.obj
 0002:0000566c       ??_C@_0BE@BGKKDADB@BOTH_LK_S_S_S_B_1_L@ 300b766c     bg_panimate.obj
 0002:00005680       ??_C@_0BE@LPJMPLKL@BOTH_LK_S_S_S_B_1_W@ 300b7680     bg_panimate.obj
 0002:00005694       ??_C@_0BC@OIKGFGCA@BOTH_LK_S_S_S_L_1@ 300b7694     bg_panimate.obj
 0002:000056a8       ??_C@_0BF@JAHOHIAJ@BOTH_LK_S_S_S_SB_1_L@ 300b76a8     bg_panimate.obj
 0002:000056c0       ??_C@_0BF@DJEILDJD@BOTH_LK_S_S_S_SB_1_W@ 300b76c0     bg_panimate.obj
 0002:000056d8       ??_C@_0BE@BMGPDJCI@BOTH_LK_S_S_T_B_1_L@ 300b76d8     bg_panimate.obj
 0002:000056ec       ??_C@_0BE@LFFJPCLC@BOTH_LK_S_S_T_B_1_W@ 300b76ec     bg_panimate.obj
 0002:00005700       ??_C@_0BC@PFKDGGJI@BOTH_LK_S_S_T_L_1@ 300b7700     bg_panimate.obj
 0002:00005714       ??_C@_0BF@PEBPBFMA@BOTH_LK_S_S_T_SB_1_L@ 300b7714     bg_panimate.obj
 0002:0000572c       ??_C@_0BF@FNCJNOFK@BOTH_LK_S_S_T_SB_1_W@ 300b772c     bg_panimate.obj
 0002:00005744       ??_C@_0BG@CLJAPGHI@BOTH_LK_DL_DL_S_B_1_L@ 300b7744     bg_panimate.obj
 0002:0000575c       ??_C@_0BG@ICKGDNOC@BOTH_LK_DL_DL_S_B_1_W@ 300b775c     bg_panimate.obj
 0002:00005774       ??_C@_0BE@DECCHOJ@BOTH_LK_DL_DL_S_L_1@ 300b7774     bg_panimate.obj
 0002:00005788       ??_C@_0BH@JPEDLLPL@BOTH_LK_DL_DL_S_SB_1_L@ 300b7788     bg_panimate.obj
 0002:000057a0       ??_C@_0BH@DGHFHAGB@BOTH_LK_DL_DL_S_SB_1_W@ 300b77a0     bg_panimate.obj
 0002:000057b8       ??_C@_0BG@CBFFPPGB@BOTH_LK_DL_DL_T_B_1_L@ 300b77b8     bg_panimate.obj
 0002:000057d0       ??_C@_0BG@IIGDDEPL@BOTH_LK_DL_DL_T_B_1_W@ 300b77d0     bg_panimate.obj
 0002:000057e8       ??_C@_0BE@BOEHBHFB@BOTH_LK_DL_DL_T_L_1@ 300b77e8     bg_panimate.obj
 0002:000057fc       ??_C@_0BH@PLCCNGDC@BOTH_LK_DL_DL_T_SB_1_L@ 300b77fc     bg_panimate.obj
 0002:00005814       ??_C@_0BH@FCBEBNKI@BOTH_LK_DL_DL_T_SB_1_W@ 300b7814     bg_panimate.obj
 0002:0000582c       ??_C@_0BG@JICEOGCM@BOTH_LK_DL_ST_S_B_1_L@ 300b782c     bg_panimate.obj
 0002:00005844       ??_C@_0BG@DBBCCNLG@BOTH_LK_DL_ST_S_B_1_W@ 300b7844     bg_panimate.obj
 0002:0000585c       ??_C@_0BE@GELNCCMP@BOTH_LK_DL_ST_S_L_1@ 300b785c     bg_panimate.obj
 0002:00005870       ??_C@_0BH@PDPGJKAG@BOTH_LK_DL_ST_S_SB_1_L@ 300b7870     bg_panimate.obj
 0002:00005888       ??_C@_0BH@FKMAFBJM@BOTH_LK_DL_ST_S_SB_1_W@ 300b7888     bg_panimate.obj
 0002:000058a0       ??_C@_0BG@JCOBOPDF@BOTH_LK_DL_ST_T_B_1_L@ 300b78a0     bg_panimate.obj
 0002:000058b8       ??_C@_0BG@DLNHCEKP@BOTH_LK_DL_ST_T_B_1_W@ 300b78b8     bg_panimate.obj
 0002:000058d0       ??_C@_0BE@HJLIBCHH@BOTH_LK_DL_ST_T_L_1@ 300b78d0     bg_panimate.obj
 0002:000058e4       ??_C@_0BH@JHJHPHMP@BOTH_LK_DL_ST_T_SB_1_L@ 300b78e4     bg_panimate.obj
 0002:000058fc       ??_C@_0BH@DOKBDMFF@BOTH_LK_DL_ST_T_SB_1_W@ 300b78fc     bg_panimate.obj
 0002:00005914       ??_C@_0BF@EEJBBJOB@BOTH_LK_DL_S_S_B_1_L@ 300b7914     bg_panimate.obj
 0002:0000592c       ??_C@_0BF@ONKHNCHL@BOTH_LK_DL_S_S_B_1_W@ 300b792c     bg_panimate.obj
 0002:00005944       ??_C@_0BD@JANDNFNC@BOTH_LK_DL_S_S_L_1@ 300b7944     bg_panimate.obj
 0002:00005958       ??_C@_0BG@BGPPJBPE@BOTH_LK_DL_S_S_SB_1_L@ 300b7958     bg_panimate.obj
 0002:00005970       ??_C@_0BG@LPMJFKGO@BOTH_LK_DL_S_S_SB_1_W@ 300b7970     bg_panimate.obj
 0002:00005988       ??_C@_0BF@EOFEBAPI@BOTH_LK_DL_S_T_B_1_L@ 300b7988     bg_panimate.obj
 0002:000059a0       ??_C@_0BF@OHGCNLGC@BOTH_LK_DL_S_T_B_1_W@ 300b79a0     bg_panimate.obj
 0002:000059b8       ??_C@_0BD@INNGOFGK@BOTH_LK_DL_S_T_L_1@ 300b79b8     bg_panimate.obj
 0002:000059cc       ??_C@_0BG@HCJOPMDN@BOTH_LK_DL_S_T_SB_1_L@ 300b79cc     bg_panimate.obj
 0002:000059e4       ??_C@_0BG@NLKIDHKH@BOTH_LK_DL_S_T_SB_1_W@ 300b79e4     bg_panimate.obj
 0002:000059fc       ??_C@_0BG@MGOLBFGD@BOTH_LK_ST_DL_S_B_1_L@ 300b79fc     bg_panimate.obj
 0002:00005a14       ??_C@_0BG@GPNNNOPJ@BOTH_LK_ST_DL_S_B_1_W@ 300b7a14     bg_panimate.obj
 0002:00005a2c       ??_C@_0BE@GPPHAGBE@BOTH_LK_ST_DL_S_L_1@ 300b7a2c     bg_panimate.obj
 0002:00005a40       ??_C@_0BH@BFMLAJPE@BOTH_LK_ST_DL_S_SB_1_L@ 300b7a40     bg_panimate.obj
 0002:00005a58       ??_C@_0BH@LMPNMCGO@BOTH_LK_ST_DL_S_SB_1_W@ 300b7a58     bg_panimate.obj
 0002:00005a70       ??_C@_0BG@MMCOBMHK@BOTH_LK_ST_DL_T_B_1_L@ 300b7a70     bg_panimate.obj
 0002:00005a88       ??_C@_0BG@GFBINHOA@BOTH_LK_ST_DL_T_B_1_W@ 300b7a88     bg_panimate.obj
 0002:00005aa0       ??_C@_0BE@HCPCDGKM@BOTH_LK_ST_DL_T_L_1@ 300b7aa0     bg_panimate.obj
 0002:00005ab4       ??_C@_0BH@HBKKGEDN@BOTH_LK_ST_DL_T_SB_1_L@ 300b7ab4     bg_panimate.obj
 0002:00005acc       ??_C@_0BH@NIJMKPKH@BOTH_LK_ST_DL_T_SB_1_W@ 300b7acc     bg_panimate.obj
 0002:00005ae4       ??_C@_0BG@HFFPAFDH@BOTH_LK_ST_ST_S_B_1_L@ 300b7ae4     bg_panimate.obj
 0002:00005afc       ??_C@_0BG@NMGJMOKN@BOTH_LK_ST_ST_S_B_1_W@ 300b7afc     bg_panimate.obj
 0002:00005b14       ??_C@_0BE@IAIADDC@BOTH_LK_ST_ST_S_L_1@ 300b7b14     bg_panimate.obj
 0002:00005b28       ??_C@_0BH@HJHOCIAJ@BOTH_LK_ST_ST_S_SB_1_L@ 300b7b28     bg_panimate.obj
 0002:00005b40       ??_C@_0BH@NAEIODJD@BOTH_LK_ST_ST_S_SB_1_W@ 300b7b40     bg_panimate.obj
 0002:00005b58       ??_C@_0BG@HPJKAMCO@BOTH_LK_ST_ST_T_B_1_L@ 300b7b58     bg_panimate.obj
 0002:00005b70       ??_C@_0BG@NGKMMHLE@BOTH_LK_ST_ST_T_B_1_W@ 300b7b70     bg_panimate.obj
 0002:00005b88       ??_C@_0BE@BFANDDIK@BOTH_LK_ST_ST_T_L_1@ 300b7b88     bg_panimate.obj
 0002:00005b9c       ??_C@_0BH@BNBPEFMA@BOTH_LK_ST_ST_T_SB_1_L@ 300b7b9c     bg_panimate.obj
 0002:00005bb4       ??_C@_0BH@LECJIOFK@BOTH_LK_ST_ST_T_SB_1_W@ 300b7bb4     bg_panimate.obj
 0002:00005bcc       ??_C@_0BF@IHPBCCGB@BOTH_LK_ST_S_S_B_1_L@ 300b7bcc     bg_panimate.obj
 0002:00005be4       ??_C@_0BF@COMHOJPL@BOTH_LK_ST_S_S_B_1_W@ 300b7be4     bg_panimate.obj
 0002:00005bfc       ??_C@_0BD@CDGHMFIG@BOTH_LK_ST_S_S_L_1@ 300b7bfc     bg_panimate.obj
 0002:00005c10       ??_C@_0BG@PLIEHCOP@BOTH_LK_ST_S_S_SB_1_L@ 300b7c10     bg_panimate.obj
 0002:00005c28       ??_C@_0BG@FCLCLJHF@BOTH_LK_ST_S_S_SB_1_W@ 300b7c28     bg_panimate.obj
 0002:00005c40       ??_C@_0BF@INDECLHI@BOTH_LK_ST_S_T_B_1_L@ 300b7c40     bg_panimate.obj
 0002:00005c58       ??_C@_0BF@CEACOAOC@BOTH_LK_ST_S_T_B_1_W@ 300b7c58     bg_panimate.obj
 0002:00005c70       ??_C@_0BD@DOGCPFDO@BOTH_LK_ST_S_T_L_1@ 300b7c70     bg_panimate.obj
 0002:00005c84       ??_C@_0BG@JPOFBPCG@BOTH_LK_ST_S_T_SB_1_L@ 300b7c84     bg_panimate.obj
 0002:00005c9c       ??_C@_0BG@DGNDNELM@BOTH_LK_ST_S_T_SB_1_W@ 300b7c9c     bg_panimate.obj
 0002:00005cb4       ??_C@_0BC@MDILAFOD@BOTH_LK_S_S_S_L_2@ 300b7cb4     bg_panimate.obj
 0002:00005cc8       ??_C@_0BC@NOIODFFL@BOTH_LK_S_S_T_L_2@ 300b7cc8     bg_panimate.obj
 0002:00005cdc       ??_C@_0BE@CIGPHECK@BOTH_LK_DL_DL_S_L_2@ 300b7cdc     bg_panimate.obj
 0002:00005cf0       ??_C@_0BE@DFGKEEJC@BOTH_LK_DL_DL_T_L_2@ 300b7cf0     bg_panimate.obj
 0002:00005d04       ??_C@_0BE@CDCFFAPB@BOTH_LK_ST_ST_S_L_2@ 300b7d04     bg_panimate.obj
 0002:00005d18       ??_C@_0BE@DOCAGAEJ@BOTH_LK_ST_ST_T_L_2@ 300b7d18     bg_panimate.obj
 0002:00005d2c       ??_C@_0P@GCBEFEGH@BOTH_BF2RETURN@ 300b7d2c     bg_panimate.obj
 0002:00005d3c       ??_C@_0O@OBLBAPIM@BOTH_BF2BREAK@ 300b7d3c     bg_panimate.obj
 0002:00005d4c       ??_C@_0N@LNLIKJEI@BOTH_BF2LOCK@ 300b7d4c     bg_panimate.obj
 0002:00005d5c       ??_C@_0P@OMJLFDIE@BOTH_BF1RETURN@ 300b7d5c     bg_panimate.obj
 0002:00005d6c       ??_C@_0O@NAFJBFBB@BOTH_BF1BREAK@ 300b7d6c     bg_panimate.obj
 0002:00005d7c       ??_C@_0N@DLCMNLOG@BOTH_BF1LOCK@ 300b7d7c     bg_panimate.obj
 0002:00005d8c       ??_C@_0BH@DMDECPBF@BOTH_CWCIRCLE_R2__R_S1@ 300b7d8c     bg_panimate.obj
 0002:00005da4       ??_C@_0BI@PBNOCOLC@BOTH_CCWCIRCLE_R2__L_S1@ 300b7da4     bg_panimate.obj
 0002:00005dbc       ??_C@_0BH@DBGDLJEC@BOTH_CWCIRCLE_A2__L__R@ 300b7dbc     bg_panimate.obj
 0002:00005dd4       ??_C@_0BI@CIMIIHDK@BOTH_CCWCIRCLE_A2__R__L@ 300b7dd4     bg_panimate.obj
 0002:00005dec       ??_C@_0BD@LBKADGEF@BOTH_CWCIRCLEBREAK@ 300b7dec     bg_panimate.obj
 0002:00005e00       ??_C@_0BE@OHBEAMBI@BOTH_CCWCIRCLEBREAK@ 300b7e00     bg_panimate.obj
 0002:00005e14       ??_C@_0BC@KJPAFMDI@BOTH_CWCIRCLELOCK@ 300b7e14     bg_panimate.obj
 0002:00005e28       ??_C@_0BD@KOAOCCAN@BOTH_CCWCIRCLELOCK@ 300b7e28     bg_panimate.obj
 0002:00005e3c       ??_C@_0BG@LMJGJJPN@BOTH_SABERFAST_STANCE@ 300b7e3c     bg_panimate.obj
 0002:00005e54       ??_C@_0BG@OHKGBDLF@BOTH_SABERSLOW_STANCE@ 300b7e54     bg_panimate.obj
 0002:00005e6c       ??_C@_0BG@HKMBABJH@BOTH_SABERDUAL_STANCE@ 300b7e6c     bg_panimate.obj
 0002:00005e84       ??_C@_0BH@BDCLHPPP@BOTH_SABERSTAFF_STANCE@ 300b7e84     bg_panimate.obj
 0002:00005e9c       ??_C@_0BC@PILNDLJJ@BOTH_A2_STABBACK1@ 300b7e9c     bg_panimate.obj
 0002:00005eb0       ??_C@_0BB@CBLKELKF@BOTH_ATTACK_BACK@ 300b7eb0     bg_panimate.obj
 0002:00005ec4       ??_C@_0BI@HBGICLGG@BOTH_JUMPFLIPSLASHDOWN1@ 300b7ec4     bg_panimate.obj
 0002:00005edc       ??_C@_0BG@BFMBDODP@BOTH_JUMPFLIPSTABDOWN@ 300b7edc     bg_panimate.obj
 0002:00005ef4       ??_C@_0BG@CELCKDAN@BOTH_FORCELEAP2_T__B_@ 300b7ef4     bg_panimate.obj
 0002:00005f0c       ??_C@_0BC@BEBALKBG@BOTH_LUNGE2_B__T_@ 300b7f0c     bg_panimate.obj
 0002:00005f20       ??_C@_0BH@INLIBEMO@BOTH_CROUCHATTACKBACK1@ 300b7f20     bg_panimate.obj
 0002:00005f38       ??_C@_0BB@DBPJDDLK@BOTH_JUMPATTACK6@ 300b7f38     bg_panimate.obj
 0002:00005f4c       ??_C@_0BB@CIOCACPL@BOTH_JUMPATTACK7@ 300b7f4c     bg_panimate.obj
 0002:00005f60       ??_C@_0BB@LMPGHBAM@BOTH_SPINATTACK6@ 300b7f60     bg_panimate.obj
 0002:00005f74       ??_C@_0BB@KFONEAEN@BOTH_SPINATTACK7@ 300b7f74     bg_panimate.obj
 0002:00005f88       ??_C@_0L@BHGFBHGL@BOTH_S1_S6@ 300b7f88     bg_panimate.obj
 0002:00005f94       ??_C@_0L@OKAEFNLM@BOTH_S6_S1@ 300b7f94     bg_panimate.obj
 0002:00005fa0       ??_C@_0L@OHOCGCK@BOTH_S1_S7@ 300b7fa0     bg_panimate.obj
 0002:00005fac       ??_C@_0L@NHGEHEAM@BOTH_S7_S1@ 300b7fac     bg_panimate.obj
 0002:00005fb8       ??_C@_0BJ@KLOIGFJP@BOTH_FORCELONGLEAP_START@ 300b7fb8     bg_panimate.obj
 0002:00005fd4       ??_C@_0BK@HABCCIOP@BOTH_FORCELONGLEAP_ATTACK@ 300b7fd4     bg_panimate.obj
 0002:00005ff0       ??_C@_0BI@MHONAGNG@BOTH_FORCELONGLEAP_LAND@ 300b7ff0     bg_panimate.obj
 0002:00006008       ??_C@_0BM@LJCOJFGC@BOTH_FORCEWALLRUNFLIP_START@ 300b8008     bg_panimate.obj
 0002:00006024       ??_C@_0BK@GPIMNHIL@BOTH_FORCEWALLRUNFLIP_END@ 300b8024     bg_panimate.obj
 0002:00006040       ??_C@_0BK@KJKIIGOD@BOTH_FORCEWALLRUNFLIP_ALT@ 300b8040     bg_panimate.obj
 0002:0000605c       ??_C@_0BO@CIKJOPHK@BOTH_FORCEWALLREBOUND_FORWARD@ 300b805c     bg_panimate.obj
 0002:0000607c       ??_C@_0BL@BOGHGOCO@BOTH_FORCEWALLREBOUND_LEFT@ 300b807c     bg_panimate.obj
 0002:00006098       ??_C@_0BL@OFKEILGN@BOTH_FORCEWALLREBOUND_BACK@ 300b8098     bg_panimate.obj
 0002:000060b4       ??_C@_0BM@FDLDEBGK@BOTH_FORCEWALLREBOUND_RIGHT@ 300b80b4     bg_panimate.obj
 0002:000060d0       ??_C@_0BL@OBHDGIHE@BOTH_FORCEWALLHOLD_FORWARD@ 300b80d0     bg_panimate.obj
 0002:000060ec       ??_C@_0BI@IEHJEHGK@BOTH_FORCEWALLHOLD_LEFT@ 300b80ec     bg_panimate.obj
 0002:00006104       ??_C@_0BI@HPLKKCCJ@BOTH_FORCEWALLHOLD_BACK@ 300b8104     bg_panimate.obj
 0002:0000611c       ??_C@_0BJ@CCJINKMK@BOTH_FORCEWALLHOLD_RIGHT@ 300b811c     bg_panimate.obj
 0002:00006138       ??_C@_0BO@FMNDOIKN@BOTH_FORCEWALLRELEASE_FORWARD@ 300b8138     bg_panimate.obj
 0002:00006158       ??_C@_0BL@OLNGOJNC@BOTH_FORCEWALLRELEASE_LEFT@ 300b8158     bg_panimate.obj
 0002:00006174       ??_C@_0BL@BABFAMJB@BOTH_FORCEWALLRELEASE_BACK@ 300b8174     bg_panimate.obj
 0002:00006190       ??_C@_0BM@OHENEONK@BOTH_FORCEWALLRELEASE_RIGHT@ 300b8190     bg_panimate.obj
 0002:000061ac       ??_C@_0P@CJGOGJL@BOTH_A7_KICK_F@ 300b81ac     bg_panimate.obj
 0002:000061bc       ??_C@_0P@GGPKCDJP@BOTH_A7_KICK_B@ 300b81bc     bg_panimate.obj
 0002:000061cc       ??_C@_0P@CMDIDBMO@BOTH_A7_KICK_R@ 300b81cc     bg_panimate.obj
 0002:000061dc       ??_C@_0P@PIHJAOBB@BOTH_A7_KICK_L@ 300b81dc     bg_panimate.obj
 0002:000061ec       ??_C@_0P@DFCDAAIP@BOTH_A7_KICK_S@ 300b81ec     bg_panimate.obj
 0002:000061fc       ??_C@_0BA@MGPFJMHF@BOTH_A7_KICK_BF@ 300b81fc     bg_panimate.obj
 0002:0000620c       ??_C@_0BF@OPHCPADF@BOTH_A7_KICK_BF_STOP@ 300b820c     bg_panimate.obj
 0002:00006224       ??_C@_0BA@CADMNHIP@BOTH_A7_KICK_RL@ 300b8224     bg_panimate.obj
 0002:00006234       ??_C@_0BD@GABGGINM@BOTH_A7_KICK_F_AIR@ 300b8234     bg_panimate.obj
 0002:00006248       ??_C@_0BD@PLIHCKMK@BOTH_A7_KICK_B_AIR@ 300b8248     bg_panimate.obj
 0002:0000625c       ??_C@_0BD@PIFBCIFB@BOTH_A7_KICK_R_AIR@ 300b825c     bg_panimate.obj
 0002:00006270       ??_C@_0BD@MBINELLK@BOTH_A7_KICK_L_AIR@ 300b8270     bg_panimate.obj
 0002:00006284       ??_C@_0BC@OAEPKLIJ@BOTH_FLIP_ATTACK7@ 300b8284     bg_panimate.obj
 0002:00006298       ??_C@_0BA@PECANCJM@BOTH_FLIP_HOLD7@ 300b8298     bg_panimate.obj
 0002:000062a8       ??_C@_0P@FKABGNIE@BOTH_FLIP_LAND@ 300b82a8     bg_panimate.obj
 0002:000062b8       ??_C@_0BG@FJEBNIOP@BOTH_PULL_IMPALE_STAB@ 300b82b8     bg_panimate.obj
 0002:000062d0       ??_C@_0BH@ENKMMKI@BOTH_PULL_IMPALE_SWING@ 300b82d0     bg_panimate.obj
 0002:000062e8       ??_C@_0BE@LGIIAOEH@BOTH_PULLED_INAIR_B@ 300b82e8     bg_panimate.obj
 0002:000062fc       ??_C@_0BE@NCOEMLED@BOTH_PULLED_INAIR_F@ 300b82fc     bg_panimate.obj
 0002:00006310       ??_C@_0O@FMNFAMJP@BOTH_STABDOWN@ 300b8310     bg_panimate.obj
 0002:00006320       ??_C@_0BE@DOGEHLEN@BOTH_STABDOWN_STAFF@ 300b8320     bg_panimate.obj
 0002:00006334       ??_C@_0BD@FCALGDP@BOTH_STABDOWN_DUAL@ 300b8334     bg_panimate.obj
 0002:00006348       ??_C@_0BF@JKDHMCK@BOTH_A6_SABERPROTECT@ 300b8348     bg_panimate.obj
 0002:00006360       ??_C@_0BA@IPLCAALD@BOTH_A7_SOULCAL@ 300b8360     bg_panimate.obj
 0002:00006370       ??_C@_0BA@PNABOJPN@BOTH_A1_SPECIAL@ 300b8370     bg_panimate.obj
 0002:00006380       ??_C@_0BA@BGDGFCPO@BOTH_A2_SPECIAL@ 300b8380     bg_panimate.obj
 0002:00006390       ??_C@_0BA@PJPEDJMA@BOTH_A3_SPECIAL@ 300b8390     bg_panimate.obj
 0002:000063a0       ??_C@_0P@HNCGMPEI@BOTH_ROLL_STAB@ 300b83a0     bg_panimate.obj
 0002:000063b0       ??_C@_0M@GOMFFOAD@BOTH_STAND1@ 300b83b0     bg_panimate.obj
 0002:000063bc       ??_C@_0BB@OEICBKPC@BOTH_STAND1IDLE1@ 300b83bc     bg_panimate.obj
 0002:000063d0       ??_C@_0M@EFOIANMA@BOTH_STAND2@ 300b83d0     bg_panimate.obj
 0002:000063dc       ??_C@_0BB@NFGKAAGP@BOTH_STAND2IDLE1@ 300b83dc     bg_panimate.obj
 0002:000063f0       ??_C@_0BB@POEHFDKM@BOTH_STAND2IDLE2@ 300b83f0     bg_panimate.obj
 0002:00006404       ??_C@_0M@FMPDDMIB@BOTH_STAND3@ 300b8404     bg_panimate.obj
 0002:00006410       ??_C@_0BB@HDBNALNL@BOTH_STAND3IDLE1@ 300b8410     bg_panimate.obj
 0002:00006424       ??_C@_0M@BDLCKKEG@BOTH_STAND4@ 300b8424     bg_panimate.obj
 0002:00006430       ??_C@_0M@KKJJLAH@BOTH_STAND5@ 300b8430     bg_panimate.obj
 0002:0000643c       ??_C@_0BB@BAMNDOOB@BOTH_STAND5IDLE1@ 300b843c     bg_panimate.obj
 0002:00006450       ??_C@_0M@CBIEMIME@BOTH_STAND6@ 300b8450     bg_panimate.obj
 0002:0000645c       ??_C@_0M@LPAHOFEK@BOTH_STAND8@ 300b845c     bg_panimate.obj
 0002:00006468       ??_C@_0P@BPKJPOKL@BOTH_STAND1TO2@ 300b8468     bg_panimate.obj
 0002:00006478       ??_C@_0P@HDCENHLI@BOTH_STAND2TO1@ 300b8478     bg_panimate.obj
 0002:00006488       ??_C@_0P@OFDCDPN@BOTH_STAND2TO4@ 300b8488     bg_panimate.obj
 0002:00006498       ??_C@_0P@NHEJHBNL@BOTH_STAND4TO2@ 300b8498     bg_panimate.obj
 0002:000064a8       ??_C@_0BF@MNEGLANN@BOTH_STAND4TOATTACK2@ 300b84a8     bg_panimate.obj
 0002:000064c0       ??_C@_0O@JCHGFLGA@BOTH_STANDUP2@ 300b84c0     bg_panimate.obj
 0002:000064d0       ??_C@_0BC@KJMCMBAN@BOTH_STAND5TOSIT3@ 300b84d0     bg_panimate.obj
 0002:000064e4       ??_C@_0BE@LJJBDIP@BOTH_STAND1TOSTAND5@ 300b84e4     bg_panimate.obj
 0002:000064f8       ??_C@_0BE@GGBOHGPB@BOTH_STAND5TOSTAND1@ 300b84f8     bg_panimate.obj
 0002:0000650c       ??_C@_0BB@KAKPAJPG@BOTH_STAND5TOAIM@ 300b850c     bg_panimate.obj
 0002:00006520       ??_C@_0BM@LKMKNIB@BOTH_STAND5STARTLEDLOOKLEFT@ 300b8520     bg_panimate.obj
 0002:0000653c       ??_C@_0BO@JCPBABCF@BOTH_STARTLEDLOOKLEFTTOSTAND5@ 300b853c     bg_panimate.obj
 0002:0000655c       ??_C@_0BE@LHNMMNLI@BOTH_STAND5TOSTAND8@ 300b855c     bg_panimate.obj
 0002:00006570       ??_C@_0BE@LDCJBNIF@BOTH_STAND7TOSTAND8@ 300b8570     bg_panimate.obj
 0002:00006584       ??_C@_0BE@PHIMDIEF@BOTH_STAND8TOSTAND5@ 300b8584     bg_panimate.obj
 0002:00006598       ??_C@_0M@KGBMNEAL@BOTH_STAND9@ 300b8598     bg_panimate.obj
 0002:000065a4       ??_C@_0BB@NHGNFEJF@BOTH_STAND9IDLE1@ 300b85a4     bg_panimate.obj
 0002:000065b8       ??_C@_0BH@LKALMHBN@BOTH_STAND5SHIFTWEIGHT@ 300b85b8     bg_panimate.obj
 0002:000065d0       ??_C@_0BM@LEFLGCNL@BOTH_STAND5SHIFTWEIGHTSTART@ 300b85d0     bg_panimate.obj
 0002:000065ec       ??_C@_0BL@EHCDGJJ@BOTH_STAND5SHIFTWEIGHTSTOP@ 300b85ec     bg_panimate.obj
 0002:00006608       ??_C@_0BJ@HOHFOLPM@BOTH_STAND5TURNLEFTSTART@ 300b8608     bg_panimate.obj
 0002:00006624       ??_C@_0BI@JADJJLGI@BOTH_STAND5TURNLEFTSTOP@ 300b8624     bg_panimate.obj
 0002:0000663c       ??_C@_0BK@IGPCPOOP@BOTH_STAND5TURNRIGHTSTART@ 300b863c     bg_panimate.obj
 0002:00006658       ??_C@_0BJ@HFICOBLF@BOTH_STAND5TURNRIGHTSTOP@ 300b8658     bg_panimate.obj
 0002:00006674       ??_C@_0BM@BGELABNK@BOTH_STAND5LOOK180LEFTSTART@ 300b8674     bg_panimate.obj
 0002:00006690       ??_C@_0BL@HDGAEFLK@BOTH_STAND5LOOK180LEFTSTOP@ 300b8690     bg_panimate.obj
 0002:000066ac       ??_C@_0BD@JMEBFELH@BOTH_CONSOLE1START@ 300b86ac     bg_panimate.obj
 0002:000066c0       ??_C@_0O@DNGGEOJM@BOTH_CONSOLE1@ 300b86c0     bg_panimate.obj
 0002:000066d0       ??_C@_0BC@BMPMMEKB@BOTH_CONSOLE1STOP@ 300b86d0     bg_panimate.obj
 0002:000066e4       ??_C@_0BD@KNKJEOCK@BOTH_CONSOLE2START@ 300b86e4     bg_panimate.obj
 0002:000066f8       ??_C@_0O@BGELBNFP@BOTH_CONSOLE2@ 300b86f8     bg_panimate.obj
 0002:00006708       ??_C@_0BC@JKGILGAP@BOTH_CONSOLE2STOP@ 300b8708     bg_panimate.obj
 0002:0000671c       ??_C@_0BK@JLMHHIBG@BOTH_CONSOLE2HOLDCOMSTART@ 300b871c     bg_panimate.obj
 0002:00006738       ??_C@_0BJ@PHBEHMKF@BOTH_CONSOLE2HOLDCOMSTOP@ 300b8738     bg_panimate.obj
 0002:00006754       ??_C@_0BH@IIALJNIM@BOTH_GUARD_LOOKAROUND1@ 300b8754     bg_panimate.obj
 0002:0000676c       ??_C@_0BB@LLGPJFGM@BOTH_GUARD_IDLE1@ 300b876c     bg_panimate.obj
 0002:00006780       ??_C@_0O@HANAGBGB@BOTH_GESTURE1@ 300b8780     bg_panimate.obj
 0002:00006790       ??_C@_0O@FLPNDCKC@BOTH_GESTURE2@ 300b8790     bg_panimate.obj
 0002:000067a0       ??_C@_0BE@OAMCANFF@BOTH_WALK1TALKCOMM1@ 300b87a0     bg_panimate.obj
 0002:000067b4       ??_C@_0L@OMGKFLGC@BOTH_TALK1@ 300b87b4     bg_panimate.obj
 0002:000067c0       ??_C@_0L@MHEHAIKB@BOTH_TALK2@ 300b87c0     bg_panimate.obj
 0002:000067cc       ??_C@_0BE@LLPJOKPB@BOTH_TALKCOMM1START@ 300b87cc     bg_panimate.obj
 0002:000067e0       ??_C@_0P@IMEACJDE@BOTH_TALKCOMM1@ 300b87e0     bg_panimate.obj
 0002:000067f0       ??_C@_0BD@KGADCINA@BOTH_TALKCOMM1STOP@ 300b87f0     bg_panimate.obj
 0002:00006804       ??_C@_0BC@HDFGDEIC@BOTH_TALKGESTURE1@ 300b8804     bg_panimate.obj
 0002:00006818       ??_C@_0BE@OFJJICOJ@BOTH_HEADTILTLSTART@ 300b8818     bg_panimate.obj
 0002:0000682c       ??_C@_0BD@BIJCDOKI@BOTH_HEADTILTLSTOP@ 300b882c     bg_panimate.obj
 0002:00006840       ??_C@_0BE@NCHIGFHK@BOTH_HEADTILTRSTART@ 300b8840     bg_panimate.obj
 0002:00006854       ??_C@_0BD@CBEOFNED@BOTH_HEADTILTRSTOP@ 300b8854     bg_panimate.obj
 0002:00006868       ??_C@_0N@JGGIBJHN@BOTH_HEADNOD@ 300b8868     bg_panimate.obj
 0002:00006878       ??_C@_0P@DFINNNBF@BOTH_HEADSHAKE@ 300b8878     bg_panimate.obj
 0002:00006888       ??_C@_0BI@OBPNLCKD@BOTH_SIT2HEADTILTLSTART@ 300b8888     bg_panimate.obj
 0002:000068a0       ??_C@_0BH@KHIEGBCO@BOTH_SIT2HEADTILTLSTOP@ 300b88a0     bg_panimate.obj
 0002:000068b8       ??_C@_0BB@IHJLPLDL@BOTH_REACH1START@ 300b88b8     bg_panimate.obj
 0002:000068cc       ??_C@_0BA@MHPGDDPE@BOTH_REACH1STOP@ 300b88cc     bg_panimate.obj
 0002:000068dc       ??_C@_0O@KHABGCAK@BOTH_COME_ON1@ 300b88dc     bg_panimate.obj
 0002:000068ec       ??_C@_0BB@BHOCMBMP@BOTH_STEADYSELF1@ 300b88ec     bg_panimate.obj
 0002:00006900       ??_C@_0BE@EEMNDGPF@BOTH_STEADYSELF1END@ 300b8900     bg_panimate.obj
 0002:00006914       ??_C@_0BF@HGBIDKLM@BOTH_SILENCEGESTURE1@ 300b8914     bg_panimate.obj
 0002:0000692c       ??_C@_0BE@LPKJJENM@BOTH_REACHFORSABER1@ 300b892c     bg_panimate.obj
 0002:00006940       ??_C@_0BC@CEDLFADF@BOTH_SABERKILLER1@ 300b8940     bg_panimate.obj
 0002:00006954       ??_C@_0BC@DNFCOFMA@BOTH_SABERKILLEE1@ 300b8954     bg_panimate.obj
 0002:00006968       ??_C@_0N@PBPICGOP@BOTH_HUGGER1@ 300b8968     bg_panimate.obj
 0002:00006978       ??_C@_0BB@EFDKGEDA@BOTH_HUGGERSTOP1@ 300b8978     bg_panimate.obj
 0002:0000698c       ??_C@_0N@OIJBJDBK@BOTH_HUGGEE1@ 300b898c     bg_panimate.obj
 0002:0000699c       ??_C@_0BB@OHEDMGHA@BOTH_HUGGEESTOP1@ 300b899c     bg_panimate.obj
 0002:000069b0       ??_C@_0BG@IKDIPHLL@BOTH_SABERTHROW1START@ 300b89b0     bg_panimate.obj
 0002:000069c8       ??_C@_0BF@JJAINHO@BOTH_SABERTHROW1STOP@ 300b89c8     bg_panimate.obj
 0002:000069e0       ??_C@_0BG@LLNAONCG@BOTH_SABERTHROW2START@ 300b89e0     bg_panimate.obj
 0002:000069f8       ??_C@_0BF@IPAEPPNA@BOTH_SABERTHROW2STOP@ 300b89f8     bg_panimate.obj
 0002:00006a10       ??_C@_09OIAGNDLA@BOTH_SIT1@ 300b8a10     bg_panimate.obj
 0002:00006a1c       ??_C@_09MDCLIAHD@BOTH_SIT2@ 300b8a1c     bg_panimate.obj
 0002:00006a28       ??_C@_09NKDALBDC@BOTH_SIT3@ 300b8a28     bg_panimate.obj
 0002:00006a34       ??_C@_0BC@PIMMNLNC@BOTH_SIT2TOSTAND5@ 300b8a34     bg_panimate.obj
 0002:00006a48       ??_C@_0BC@LANJPAEM@BOTH_STAND5TOSIT2@ 300b8a48     bg_panimate.obj
 0002:00006a5c       ??_C@_0BA@LICOGNPB@BOTH_SIT2TOSIT4@ 300b8a5c     bg_panimate.obj
 0002:00006a6c       ??_C@_0BC@BHAOLAOM@BOTH_SIT3TOSTAND5@ 300b8a6c     bg_panimate.obj
 0002:00006a80       ??_C@_0N@KLJMDLMC@BOTH_CROUCH1@ 300b8a80     bg_panimate.obj
 0002:00006a90       ??_C@_0BB@NNJBKJDM@BOTH_CROUCH1IDLE@ 300b8a90     bg_panimate.obj
 0002:00006aa4       ??_C@_0BB@KLBMFNGD@BOTH_CROUCH1WALK@ 300b8aa4     bg_panimate.obj
 0002:00006ab8       ??_C@_0BF@IKEOFDBF@BOTH_CROUCH1WALKBACK@ 300b8ab8     bg_panimate.obj
 0002:00006ad0       ??_C@_0P@CMNLLMOK@BOTH_UNCROUCH1@ 300b8ad0     bg_panimate.obj
 0002:00006ae0       ??_C@_0BF@OBDEHHPH@BOTH_CROUCH2TOSTAND1@ 300b8ae0     bg_panimate.obj
 0002:00006af8       ??_C@_0N@JJKKFJEA@BOTH_CROUCH3@ 300b8af8     bg_panimate.obj
 0002:00006b08       ??_C@_0P@BOONNOGI@BOTH_UNCROUCH3@ 300b8b08     bg_panimate.obj
 0002:00006b18       ??_C@_0N@NGOLMPIH@BOTH_CROUCH4@ 300b8b18     bg_panimate.obj
 0002:00006b28       ??_C@_0P@FBKMEIKP@BOTH_UNCROUCH4@ 300b8b28     bg_panimate.obj
 0002:00006b38       ??_C@_0N@NEOMJHMD@BOTH_GUNSIT1@ 300b8b38     bg_panimate.obj
 0002:00006b48       ??_C@_0BA@BIPEOENE@BOTH_VS_MOUNT_L@ 300b8b48     bg_panimate.obj
 0002:00006b58       ??_C@_0BD@EAEFOEPB@BOTH_VS_DISMOUNT_L@ 300b8b58     bg_panimate.obj
 0002:00006b6c       ??_C@_0BA@MMLFNLAL@BOTH_VS_MOUNT_R@ 300b8b6c     bg_panimate.obj
 0002:00006b7c       ??_C@_0BD@JEAENLCO@BOTH_VS_DISMOUNT_R@ 300b8b7c     bg_panimate.obj
 0002:00006b90       ??_C@_0BE@CFBMPALJ@BOTH_VS_MOUNTJUMP_L@ 300b8b90     bg_panimate.obj
 0002:00006ba4       ??_C@_0BD@HKDNANFN@BOTH_VS_MOUNTTHROW@ 300b8ba4     bg_panimate.obj
 0002:00006bb8       ??_C@_0BF@EKIIEMBN@BOTH_VS_MOUNTTHROW_L@ 300b8bb8     bg_panimate.obj
 0002:00006bd0       ??_C@_0BF@JOMJHDMC@BOTH_VS_MOUNTTHROW_R@ 300b8bd0     bg_panimate.obj
 0002:00006be8       ??_C@_0BF@IKPLNBPC@BOTH_VS_MOUNTTHROWEE@ 300b8be8     bg_panimate.obj
 0002:00006c00       ??_C@_0BB@LJMKNCGH@BOTH_VS_LOOKLEFT@ 300b8c00     bg_panimate.obj
 0002:00006c14       ??_C@_0BC@FMBEBFOC@BOTH_VS_LOOKRIGHT@ 300b8c14     bg_panimate.obj
 0002:00006c28       ??_C@_0O@COMCHHG@BOTH_VS_TURBO@ 300b8c28     bg_panimate.obj
 0002:00006c38       ??_C@_0M@MPJJBHIP@BOTH_VS_REV@ 300b8c38     bg_panimate.obj
 0002:00006c44       ??_C@_0M@OAEDNDJO@BOTH_VS_AIR@ 300b8c44     bg_panimate.obj
 0002:00006c50       ??_C@_0O@CIMAHEPG@BOTH_VS_AIR_G@ 300b8c50     bg_panimate.obj
 0002:00006c60       ??_C@_0P@BDBFJMPI@BOTH_VS_AIR_SL@ 300b8c60     bg_panimate.obj
 0002:00006c70       ??_C@_0P@MHFEKDCH@BOTH_VS_AIR_SR@ 300b8c70     bg_panimate.obj
 0002:00006c80       ??_C@_0N@KLFKMBNL@BOTH_VS_LAND@ 300b8c80     bg_panimate.obj
 0002:00006c90       ??_C@_0P@FGHHPFOH@BOTH_VS_LAND_G@ 300b8c90     bg_panimate.obj
 0002:00006ca0       ??_C@_0BA@HJNLALIL@BOTH_VS_LAND_SL@ 300b8ca0     bg_panimate.obj
 0002:00006cb0       ??_C@_0BA@KNJKDEFE@BOTH_VS_LAND_SR@ 300b8cb0     bg_panimate.obj
 0002:00006cc0       ??_C@_0N@EOPLFLLG@BOTH_VS_IDLE@ 300b8cc0     bg_panimate.obj
 0002:00006cd0       ??_C@_0P@JGPOHPPG@BOTH_VS_IDLE_G@ 300b8cd0     bg_panimate.obj
 0002:00006ce0       ??_C@_0BA@BDKLKCPD@BOTH_VS_IDLE_SL@ 300b8ce0     bg_panimate.obj
 0002:00006cf0       ??_C@_0BA@MHOKJNCM@BOTH_VS_IDLE_SR@ 300b8cf0     bg_panimate.obj
 0002:00006d00       ??_C@_0O@ONBCGCNE@BOTH_VS_LEANL@ 300b8d00     bg_panimate.obj
 0002:00006d10       ??_C@_0BA@JODAFNDC@BOTH_VS_LEANL_G@ 300b8d10     bg_panimate.obj
 0002:00006d20       ??_C@_0BB@IPKKGKHI@BOTH_VS_LEANL_SL@ 300b8d20     bg_panimate.obj
 0002:00006d34       ??_C@_0BB@FLOLFFKH@BOTH_VS_LEANL_SR@ 300b8d34     bg_panimate.obj
 0002:00006d48       ??_C@_0O@DJFDFNAL@BOTH_VS_LEANR@ 300b8d48     bg_panimate.obj
 0002:00006d58       ??_C@_0BA@COPGHNJO@BOTH_VS_LEANR_G@ 300b8d58     bg_panimate.obj
 0002:00006d68       ??_C@_0BB@FAHKEDJL@BOTH_VS_LEANR_SL@ 300b8d68     bg_panimate.obj
 0002:00006d7c       ??_C@_0BB@IEDLHMEE@BOTH_VS_LEANR_SR@ 300b8d7c     bg_panimate.obj
 0002:00006d90       ??_C@_0O@CONINADM@BOTH_VS_ATL_S@ 300b8d90     bg_panimate.obj
 0002:00006da0       ??_C@_0O@JOBOPAJA@BOTH_VS_ATR_S@ 300b8da0     bg_panimate.obj
 0002:00006db0       ??_C@_0BD@IEEEGOL@BOTH_VS_ATR_TO_L_S@ 300b8db0     bg_panimate.obj
 0002:00006dc4       ??_C@_0BD@NMIAPPKE@BOTH_VS_ATL_TO_R_S@ 300b8dc4     bg_panimate.obj
 0002:00006dd8       ??_C@_0O@LALACHMF@BOTH_VS_ATR_G@ 300b8dd8     bg_panimate.obj
 0002:00006de8       ??_C@_0O@HGAHGJ@BOTH_VS_ATL_G@ 300b8de8     bg_panimate.obj
 0002:00006df8       ??_C@_0O@GPMLOHAN@BOTH_VS_ATF_G@ 300b8df8     bg_panimate.obj
 0002:00006e08       ??_C@_0O@DDKDCJKA@BOTH_VS_PAIN1@ 300b8e08     bg_panimate.obj
 0002:00006e18       ??_C@_0BA@PKCIPPKN@BOTH_VT_MOUNT_L@ 300b8e18     bg_panimate.obj
 0002:00006e28       ??_C@_0BA@COGJMAHC@BOTH_VT_MOUNT_R@ 300b8e28     bg_panimate.obj
 0002:00006e38       ??_C@_0BA@GEKLNCCD@BOTH_VT_MOUNT_B@ 300b8e38     bg_panimate.obj
 0002:00006e48       ??_C@_0BB@ICMLAFCL@BOTH_VT_DISMOUNT@ 300b8e48     bg_panimate.obj
 0002:00006e5c       ??_C@_0BD@DNDGOCKJ@BOTH_VT_DISMOUNT_L@ 300b8e5c     bg_panimate.obj
 0002:00006e70       ??_C@_0BD@OJHHNNHG@BOTH_VT_DISMOUNT_R@ 300b8e70     bg_panimate.obj
 0002:00006e84       ??_C@_0BB@PINFIKEN@BOTH_VT_WALK_FWD@ 300b8e84     bg_panimate.obj
 0002:00006e98       ??_C@_0BB@EAPIENEI@BOTH_VT_WALK_REV@ 300b8e98     bg_panimate.obj
 0002:00006eac       ??_C@_0BD@HDJGMKCH@BOTH_VT_WALK_FWD_L@ 300b8eac     bg_panimate.obj
 0002:00006ec0       ??_C@_0BD@KHNHPFPI@BOTH_VT_WALK_FWD_R@ 300b8ec0     bg_panimate.obj
 0002:00006ed4       ??_C@_0BA@JEFGBHGE@BOTH_VT_RUN_FWD@ 300b8ed4     bg_panimate.obj
 0002:00006ee4       ??_C@_0BA@CMHLNAGB@BOTH_VT_RUN_REV@ 300b8ee4     bg_panimate.obj
 0002:00006ef4       ??_C@_0BC@LJGONGLG@BOTH_VT_RUN_FWD_L@ 300b8ef4     bg_panimate.obj
 0002:00006f08       ??_C@_0BC@GNCPOJGJ@BOTH_VT_RUN_FWD_R@ 300b8f08     bg_panimate.obj
 0002:00006f1c       ??_C@_0P@KFJEKMCA@BOTH_VT_SLIDEF@ 300b8f1c     bg_panimate.obj
 0002:00006f2c       ??_C@_0M@PNEGODCG@BOTH_VT_AIR@ 300b8f2c     bg_panimate.obj
 0002:00006f38       ??_C@_0M@KDHKMBFE@BOTH_VT_ATB@ 300b8f38     bg_panimate.obj
 0002:00006f44       ??_C@_0O@DJGGCALJ@BOTH_VT_PAIN1@ 300b8f44     bg_panimate.obj
 0002:00006f54       ??_C@_0P@CICNDPJE@BOTH_VT_DEATH1@ 300b8f54     bg_panimate.obj
 0002:00006f64       ??_C@_0O@IAAOOPLJ@BOTH_VT_STAND@ 300b8f64     bg_panimate.obj
 0002:00006f74       ??_C@_0N@IBPGAOGA@BOTH_VT_BUCK@ 300b8f74     bg_panimate.obj
 0002:00006f84       ??_C@_0N@GOPNPPFF@BOTH_VT_LAND@ 300b8f84     bg_panimate.obj
 0002:00006f94       ??_C@_0O@ICJCOGP@BOTH_VT_TURBO@ 300b8f94     bg_panimate.obj
 0002:00006fa4       ??_C@_0BA@PBHHLJIK@BOTH_VT_IDLE_SL@ 300b8fa4     bg_panimate.obj
 0002:00006fb4       ??_C@_0BA@CFDGIGFF@BOTH_VT_IDLE_SR@ 300b8fb4     bg_panimate.obj
 0002:00006fc4       ??_C@_0N@ILFMGFDI@BOTH_VT_IDLE@ 300b8fc4     bg_panimate.obj
 0002:00006fd4       ??_C@_0O@OONEODEJ@BOTH_VT_IDLE1@ 300b8fd4     bg_panimate.obj
 0002:00006fe4       ??_C@_0P@NMDBMFGK@BOTH_VT_IDLE_S@ 300b8fe4     bg_panimate.obj
 0002:00006ff4       ??_C@_0P@PCJPBCDP@BOTH_VT_IDLE_G@ 300b8ff4     bg_panimate.obj
 0002:00007004       ??_C@_0P@JDHAFDKN@BOTH_VT_IDLE_T@ 300b9004     bg_panimate.obj
 0002:00007014       ??_C@_0O@CEBNNJCF@BOTH_VT_ATL_S@ 300b9014     bg_panimate.obj
 0002:00007024       ??_C@_0O@JENLPJIJ@BOTH_VT_ATR_S@ 300b9024     bg_panimate.obj
 0002:00007034       ??_C@_0BD@HFDHEALD@BOTH_VT_ATR_TO_L_S@ 300b9034     bg_panimate.obj
 0002:00007048       ??_C@_0BD@KBPDPJPM@BOTH_VT_ATL_TO_R_S@ 300b9048     bg_panimate.obj
 0002:0000705c       ??_C@_0O@LKHFCONM@BOTH_VT_ATR_G@ 300b905c     bg_panimate.obj
 0002:0000706c       ??_C@_0O@KLDAOHA@BOTH_VT_ATL_G@ 300b906c     bg_panimate.obj
 0002:0000707c       ??_C@_0O@GFAOOOBE@BOTH_VT_ATF_G@ 300b907c     bg_panimate.obj
 0002:0000708c       ??_C@_0BA@MMFJLAL@BOTH_GEARS_OPEN@ 300b908c     bg_panimate.obj
 0002:0000709c       ??_C@_0BB@LDEBMNOM@BOTH_GEARS_CLOSE@ 300b909c     bg_panimate.obj
 0002:000070b0       ??_C@_0BA@FDONEPNA@BOTH_WINGS_OPEN@ 300b90b0     bg_panimate.obj
 0002:000070c0       ??_C@_0BB@KCBPOOGE@BOTH_WINGS_CLOSE@ 300b90c0     bg_panimate.obj
 0002:000070d4       ??_C@_0BE@KHOKHMOE@BOTH_DEATH14_UNGRIP@ 300b90d4     bg_panimate.obj
 0002:000070e8       ??_C@_0BD@FOKLKMPB@BOTH_DEATH14_SITUP@ 300b90e8     bg_panimate.obj
 0002:000070fc       ??_C@_0M@KDFBDJGD@BOTH_KNEES1@ 300b90fc     bg_panimate.obj
 0002:00007108       ??_C@_0M@IIHMGKKA@BOTH_KNEES2@ 300b9108     bg_panimate.obj
 0002:00007114       ??_C@_0P@OGCNLGGI@BOTH_KNEES2TO1@ 300b9114     bg_panimate.obj
 0002:00007124       ??_C@_0L@GKPOCJMM@BOTH_WALK1@ 300b9124     bg_panimate.obj
 0002:00007130       ??_C@_0L@EBNDHKAP@BOTH_WALK2@ 300b9130     bg_panimate.obj
 0002:0000713c       ??_C@_0BA@LMALDKNK@BOTH_WALK_STAFF@ 300b913c     bg_panimate.obj
 0002:0000714c       ??_C@_0BE@MDDMPBCJ@BOTH_WALKBACK_STAFF@ 300b914c     bg_panimate.obj
 0002:00007160       ??_C@_0P@GCJFOAGJ@BOTH_WALK_DUAL@ 300b9160     bg_panimate.obj
 0002:00007170       ??_C@_0BD@DPFDKICF@BOTH_WALKBACK_DUAL@ 300b9170     bg_panimate.obj
 0002:00007184       ??_C@_0L@OJCOMMI@BOTH_WALK5@ 300b9184     bg_panimate.obj
 0002:00007190       ??_C@_0L@CFLPLPAL@BOTH_WALK6@ 300b9190     bg_panimate.obj
 0002:0000719c       ??_C@_0L@DMKEIOEK@BOTH_WALK7@ 300b919c     bg_panimate.obj
 0002:000071a8       ??_C@_09NOBIDEIB@BOTH_RUN1@ 300b91a8     bg_panimate.obj
 0002:000071b4       ??_C@_0P@CLIPKCAJ@BOTH_RUN1START@ 300b91b4     bg_panimate.obj
 0002:000071c4       ??_C@_0O@GPFGEBNP@BOTH_RUN1STOP@ 300b91c4     bg_panimate.obj
 0002:000071d4       ??_C@_09PFDFGHEC@BOTH_RUN2@ 300b91d4     bg_panimate.obj
 0002:000071e0       ??_C@_0BA@JDBHFMOM@BOTH_RUN1TORUN2@ 300b91e0     bg_panimate.obj
 0002:000071f0       ??_C@_0BA@DGLFAIMM@BOTH_RUN2TORUN1@ 300b91f0     bg_panimate.obj
 0002:00007200       ??_C@_09KDGPMAME@BOTH_RUN4@ 300b9200     bg_panimate.obj
 0002:0000720c       ??_C@_0P@JDNNOOMO@BOTH_RUN_STAFF@ 300b920c     bg_panimate.obj
 0002:0000721c       ??_C@_0BD@OKHEPDMN@BOTH_RUNBACK_STAFF@ 300b921c     bg_panimate.obj
 0002:00007230       ??_C@_0O@NLDNHDFF@BOTH_RUN_DUAL@ 300b9230     bg_panimate.obj
 0002:00007240       ??_C@_0BC@KOJINEFM@BOTH_RUNBACK_DUAL@ 300b9240     bg_panimate.obj
 0002:00007254       ??_C@_0BC@OMBNLHPO@BOTH_STRAFE_LEFT1@ 300b9254     bg_panimate.obj
 0002:00007268       ??_C@_0BD@LFCECKKK@BOTH_STRAFE_RIGHT1@ 300b9268     bg_panimate.obj
 0002:0000727c       ??_C@_0BF@DBPGPOAM@BOTH_RUNSTRAFE_LEFT1@ 300b927c     bg_panimate.obj
 0002:00007294       ??_C@_0BG@OGEKFCND@BOTH_RUNSTRAFE_RIGHT1@ 300b9294     bg_panimate.obj
 0002:000072ac       ??_C@_0BA@GKEFEECE@BOTH_TURN_LEFT1@ 300b92ac     bg_panimate.obj
 0002:000072bc       ??_C@_0BB@NDKEEJJD@BOTH_TURN_RIGHT1@ 300b92bc     bg_panimate.obj
 0002:000072d0       ??_C@_0BA@GOHCIDPJ@BOTH_TURNSTAND1@ 300b92d0     bg_panimate.obj
 0002:000072e0       ??_C@_0BA@EFFPNADK@BOTH_TURNSTAND2@ 300b92e0     bg_panimate.obj
 0002:000072f0       ??_C@_0BA@FMEEOBHL@BOTH_TURNSTAND3@ 300b92f0     bg_panimate.obj
 0002:00007300       ??_C@_0BA@BDAFHHLM@BOTH_TURNSTAND4@ 300b9300     bg_panimate.obj
 0002:00007310       ??_C@_0BA@KBOEGPN@BOTH_TURNSTAND5@ 300b9310     bg_panimate.obj
 0002:00007320       ??_C@_0BB@PGPEJHBN@BOTH_TURNCROUCH1@ 300b9320     bg_panimate.obj
 0002:00007334       ??_C@_0P@PHEJPEHC@BOTH_WALKBACK1@ 300b9334     bg_panimate.obj
 0002:00007344       ??_C@_0P@NMGEKHLB@BOTH_WALKBACK2@ 300b9344     bg_panimate.obj
 0002:00007354       ??_C@_0O@EOOBGHEO@BOTH_RUNBACK1@ 300b9354     bg_panimate.obj
 0002:00007364       ??_C@_0O@GFMMDEIN@BOTH_RUNBACK2@ 300b9364     bg_panimate.obj
 0002:00007374       ??_C@_0L@OIBJCCDP@BOTH_JUMP1@ 300b9374     bg_panimate.obj
 0002:00007380       ??_C@_0M@IKFKFLAF@BOTH_INAIR1@ 300b9380     bg_panimate.obj
 0002:0000738c       ??_C@_0L@KCLKFECC@BOTH_LAND1@ 300b938c     bg_panimate.obj
 0002:00007398       ??_C@_0L@IJJHAHOB@BOTH_LAND2@ 300b9398     bg_panimate.obj
 0002:000073a4       ??_C@_0P@HNEGCFPN@BOTH_JUMPBACK1@ 300b93a4     bg_panimate.obj
 0002:000073b4       ??_C@_0BA@MBBIHCFF@BOTH_INAIRBACK1@ 300b93b4     bg_panimate.obj
 0002:000073c4       ??_C@_0P@JMGKPJPJ@BOTH_LANDBACK1@ 300b93c4     bg_panimate.obj
 0002:000073d4       ??_C@_0P@JCGIPGDC@BOTH_JUMPLEFT1@ 300b93d4     bg_panimate.obj
 0002:000073e4       ??_C@_0BA@CODGKBJK@BOTH_INAIRLEFT1@ 300b93e4     bg_panimate.obj
 0002:000073f4       ??_C@_0P@HDEECKDG@BOTH_LANDLEFT1@ 300b93f4     bg_panimate.obj
 0002:00007404       ??_C@_0BA@CHIINBHA@BOTH_JUMPRIGHT1@ 300b9404     bg_panimate.obj
 0002:00007414       ??_C@_0BB@PPDJKEPN@BOTH_INAIRRIGHT1@ 300b9414     bg_panimate.obj
 0002:00007428       ??_C@_0BA@CAAEDJLF@BOTH_LANDRIGHT1@ 300b9428     bg_panimate.obj
 0002:00007438       ??_C@_0BA@JCEJKFBM@BOTH_FORCEJUMP1@ 300b9438     bg_panimate.obj
 0002:00007448       ??_C@_0BB@CIEHHKPA@BOTH_FORCEINAIR1@ 300b9448     bg_panimate.obj
 0002:0000745c       ??_C@_0BA@NIOKNDAB@BOTH_FORCELAND1@ 300b945c     bg_panimate.obj
 0002:0000746c       ??_C@_0BE@CBNAONFO@BOTH_FORCEJUMPBACK1@ 300b946c     bg_panimate.obj
 0002:00007480       ??_C@_0BF@IOJLBGMP@BOTH_FORCEINAIRBACK1@ 300b9480     bg_panimate.obj
 0002:00007498       ??_C@_0BE@MAPMDBFK@BOTH_FORCELANDBACK1@ 300b9498     bg_panimate.obj
 0002:000074ac       ??_C@_0BE@MOPODOJB@BOTH_FORCEJUMPLEFT1@ 300b94ac     bg_panimate.obj
 0002:000074c0       ??_C@_0BF@GBLFMFAA@BOTH_FORCEINAIRLEFT1@ 300b94c0     bg_panimate.obj
 0002:000074d8       ??_C@_0BE@CPNCOCJF@BOTH_FORCELANDLEFT1@ 300b94d8     bg_panimate.obj
 0002:000074ec       ??_C@_0BF@GIALLFOK@BOTH_FORCEJUMPRIGHT1@ 300b94ec     bg_panimate.obj
 0002:00007504       ??_C@_0BG@OPKMFNMD@BOTH_FORCEINAIRRIGHT1@ 300b9504     bg_panimate.obj
 0002:0000751c       ??_C@_0BF@GPIHFNCP@BOTH_FORCELANDRIGHT1@ 300b951c     bg_panimate.obj
 0002:00007534       ??_C@_0M@EEBNKFFB@BOTH_FLIP_F@ 300b9534     bg_panimate.obj
 0002:00007540       ??_C@_0M@CAHBGAFF@BOTH_FLIP_B@ 300b9540     bg_panimate.obj
 0002:0000754c       ??_C@_0M@LOPCENNL@BOTH_FLIP_L@ 300b954c     bg_panimate.obj
 0002:00007558       ??_C@_0M@GKLDHCAE@BOTH_FLIP_R@ 300b9558     bg_panimate.obj
 0002:00007564       ??_C@_0M@IDDHAIHF@BOTH_ROLL_F@ 300b9564     bg_panimate.obj
 0002:00007570       ??_C@_0M@OHFLMNHB@BOTH_ROLL_B@ 300b9570     bg_panimate.obj
 0002:0000757c       ??_C@_0M@HJNIOAPP@BOTH_ROLL_L@ 300b957c     bg_panimate.obj
 0002:00007588       ??_C@_0M@KNJJNPCA@BOTH_ROLL_R@ 300b9588     bg_panimate.obj
 0002:00007594       ??_C@_0L@EGNACLFJ@BOTH_HOP_F@ 300b9594     bg_panimate.obj
 0002:000075a0       ??_C@_0L@CCLMOOFN@BOTH_HOP_B@ 300b95a0     bg_panimate.obj
 0002:000075ac       ??_C@_0L@LMDPMDND@BOTH_HOP_L@ 300b95ac     bg_panimate.obj
 0002:000075b8       ??_C@_0L@GIHOPMAM@BOTH_HOP_R@ 300b95b8     bg_panimate.obj
 0002:000075c4       ??_C@_0O@PFPLGFKE@BOTH_DODGE_FL@ 300b95c4     bg_panimate.obj
 0002:000075d4       ??_C@_0O@CBLKFKHL@BOTH_DODGE_FR@ 300b95d4     bg_panimate.obj
 0002:000075e4       ??_C@_0O@PCPCMNHI@BOTH_DODGE_BL@ 300b95e4     bg_panimate.obj
 0002:000075f4       ??_C@_0O@CGLDPCKH@BOTH_DODGE_BR@ 300b95f4     bg_panimate.obj
 0002:00007604       ??_C@_0N@HBCEBGGG@BOTH_DODGE_L@ 300b9604     bg_panimate.obj
 0002:00007614       ??_C@_0N@KFGFCJLJ@BOTH_DODGE_R@ 300b9614     bg_panimate.obj
 0002:00007624       ??_C@_0BD@BDDLGFBA@BOTH_DODGE_HOLD_FL@ 300b9624     bg_panimate.obj
 0002:00007638       ??_C@_0BD@MHHKFKMP@BOTH_DODGE_HOLD_FR@ 300b9638     bg_panimate.obj
 0002:0000764c       ??_C@_0BD@BEDCMNMM@BOTH_DODGE_HOLD_BL@ 300b964c     bg_panimate.obj
 0002:00007660       ??_C@_0BD@MAHDPCBD@BOTH_DODGE_HOLD_BR@ 300b9660     bg_panimate.obj
 0002:00007674       ??_C@_0BC@NCHIKDCJ@BOTH_DODGE_HOLD_L@ 300b9674     bg_panimate.obj
 0002:00007688       ??_C@_0BC@GDJJMPG@BOTH_DODGE_HOLD_R@ 300b9688     bg_panimate.obj
 0002:0000769c       ??_C@_0BB@EBJHHEMP@BOTH_ENGAGETAUNT@ 300b969c     bg_panimate.obj
 0002:000076b0       ??_C@_08CINMJMPG@BOTH_BOW@ 300b96b0     bg_panimate.obj
 0002:000076bc       ??_C@_0O@NBLEPMIO@BOTH_MEDITATE@ 300b96bc     bg_panimate.obj
 0002:000076cc       ??_C@_0BC@DILNBIJM@BOTH_MEDITATE_END@ 300b96cc     bg_panimate.obj
 0002:000076e0       ??_C@_0BC@DIEHLMHO@BOTH_SHOWOFF_FAST@ 300b96e0     bg_panimate.obj
 0002:000076f4       ??_C@_0BE@LFOOJMLH@BOTH_SHOWOFF_MEDIUM@ 300b96f4     bg_panimate.obj
 0002:00007708       ??_C@_0BE@GKNCDDPP@BOTH_SHOWOFF_STRONG@ 300b9708     bg_panimate.obj
 0002:0000771c       ??_C@_0BC@EFMAJB@BOTH_SHOWOFF_DUAL@ 300b971c     bg_panimate.obj
 0002:00007730       ??_C@_0BD@PAPJANE@BOTH_SHOWOFF_STAFF@ 300b9730     bg_panimate.obj
 0002:00007744       ??_C@_0BC@DGIHLJDA@BOTH_VICTORY_FAST@ 300b9744     bg_panimate.obj
 0002:00007758       ??_C@_0BE@KLHOAEHD@BOTH_VICTORY_MEDIUM@ 300b9758     bg_panimate.obj
 0002:0000776c       ??_C@_0BE@HEECKLDL@BOTH_VICTORY_STRONG@ 300b976c     bg_panimate.obj
 0002:00007780       ??_C@_0BC@OIFMFNP@BOTH_VICTORY_DUAL@ 300b9780     bg_panimate.obj
 0002:00007794       ??_C@_0BD@JOGFDMEG@BOTH_VICTORY_STAFF@ 300b9794     bg_panimate.obj
 0002:000077a8       ??_C@_0BA@GLHECKNB@BOTH_ARIAL_LEFT@ 300b97a8     bg_panimate.obj
 0002:000077b8       ??_C@_0BB@HOMELNKD@BOTH_ARIAL_RIGHT@ 300b97b8     bg_panimate.obj
 0002:000077cc       ??_C@_0BE@POJJIGPG@BOTH_CARTWHEEL_LEFT@ 300b97cc     bg_panimate.obj
 0002:000077e0       ??_C@_0BF@NLFLOFGE@BOTH_CARTWHEEL_RIGHT@ 300b97e0     bg_panimate.obj
 0002:000077f8       ??_C@_0P@JBLCLJDK@BOTH_FLIP_LEFT@ 300b97f8     bg_panimate.obj
 0002:00007808       ??_C@_0BA@OPOOLPHG@BOTH_FLIP_BACK1@ 300b9808     bg_panimate.obj
 0002:00007818       ??_C@_0BA@MEMDOMLF@BOTH_FLIP_BACK2@ 300b9818     bg_panimate.obj
 0002:00007828       ??_C@_0BA@NNNINNPE@BOTH_FLIP_BACK3@ 300b9828     bg_panimate.obj
 0002:00007838       ??_C@_0BE@ENKLMJBI@BOTH_BUTTERFLY_LEFT@ 300b9838     bg_panimate.obj
 0002:0000784c       ??_C@_0BF@JMFKBIFE@BOTH_BUTTERFLY_RIGHT@ 300b984c     bg_panimate.obj
 0002:00007864       ??_C@_0BE@INEIBMIN@BOTH_WALL_RUN_RIGHT@ 300b9864     bg_panimate.obj
 0002:00007878       ??_C@_0BJ@JNEELNCP@BOTH_WALL_RUN_RIGHT_FLIP@ 300b9878     bg_panimate.obj
 0002:00007894       ??_C@_0BJ@KEGEKGBP@BOTH_WALL_RUN_RIGHT_STOP@ 300b9894     bg_panimate.obj
 0002:000078b0       ??_C@_0BD@FOKEEMMD@BOTH_WALL_RUN_LEFT@ 300b98b0     bg_panimate.obj
 0002:000078c4       ??_C@_0BI@LLGHOLLN@BOTH_WALL_RUN_LEFT_FLIP@ 300b98c4     bg_panimate.obj
 0002:000078dc       ??_C@_0BI@ICEHPAIN@BOTH_WALL_RUN_LEFT_STOP@ 300b98dc     bg_panimate.obj
 0002:000078f4       ??_C@_0BF@MPCPCKGE@BOTH_WALL_FLIP_RIGHT@ 300b98f4     bg_panimate.obj
 0002:0000790c       ??_C@_0BE@ILAKMJOK@BOTH_WALL_FLIP_LEFT@ 300b990c     bg_panimate.obj
 0002:00007920       ??_C@_0BA@ICOJIKIM@BOTH_KNOCKDOWN1@ 300b9920     bg_panimate.obj
 0002:00007930       ??_C@_0BA@KJMENJEP@BOTH_KNOCKDOWN2@ 300b9930     bg_panimate.obj
 0002:00007940       ??_C@_0BA@LANPOIAO@BOTH_KNOCKDOWN3@ 300b9940     bg_panimate.obj
 0002:00007950       ??_C@_0BA@PPJOHOMJ@BOTH_KNOCKDOWN4@ 300b9950     bg_panimate.obj
 0002:00007960       ??_C@_0BA@OGIFEPII@BOTH_KNOCKDOWN5@ 300b9960     bg_panimate.obj
 0002:00007970       ??_C@_0M@BOJPECA@BOTH_GETUP1@ 300b9970     bg_panimate.obj
 0002:0000797c       ??_C@_0M@CKMEKHOD@BOTH_GETUP2@ 300b997c     bg_panimate.obj
 0002:00007988       ??_C@_0M@DDNPJGKC@BOTH_GETUP3@ 300b9988     bg_panimate.obj
 0002:00007994       ??_C@_0M@HMJOAAGF@BOTH_GETUP4@ 300b9994     bg_panimate.obj
 0002:000079a0       ??_C@_0M@GFIFDBCE@BOTH_GETUP5@ 300b99a0     bg_panimate.obj
 0002:000079ac       ??_C@_0BF@MOAEFEDA@BOTH_GETUP_CROUCH_F1@ 300b99ac     bg_panimate.obj
 0002:000079c4       ??_C@_0BF@MJANPMOM@BOTH_GETUP_CROUCH_B1@ 300b99c4     bg_panimate.obj
 0002:000079dc       ??_C@_0BE@BEIPAFMG@BOTH_FORCE_GETUP_F1@ 300b99dc     bg_panimate.obj
 0002:000079f0       ??_C@_0BE@DPKCFGAF@BOTH_FORCE_GETUP_F2@ 300b99f0     bg_panimate.obj
 0002:00007a04       ??_C@_0BE@BDIGKNBK@BOTH_FORCE_GETUP_B1@ 300b9a04     bg_panimate.obj
 0002:00007a18       ??_C@_0BE@DIKLPONJ@BOTH_FORCE_GETUP_B2@ 300b9a18     bg_panimate.obj
 0002:00007a2c       ??_C@_0BE@CBLAMPJI@BOTH_FORCE_GETUP_B3@ 300b9a2c     bg_panimate.obj
 0002:00007a40       ??_C@_0BE@GOPBFJFP@BOTH_FORCE_GETUP_B4@ 300b9a40     bg_panimate.obj
 0002:00007a54       ??_C@_0BE@HHOKGIBO@BOTH_FORCE_GETUP_B5@ 300b9a54     bg_panimate.obj
 0002:00007a68       ??_C@_0BE@FMMHDLNN@BOTH_FORCE_GETUP_B6@ 300b9a68     bg_panimate.obj
 0002:00007a7c       ??_C@_0BD@IAPFGJBO@BOTH_GETUP_BROLL_B@ 300b9a7c     bg_panimate.obj
 0002:00007a90       ??_C@_0BD@OEJJKMBK@BOTH_GETUP_BROLL_F@ 300b9a90     bg_panimate.obj
 0002:00007aa4       ??_C@_0BD@BOHGEEJA@BOTH_GETUP_BROLL_L@ 300b9aa4     bg_panimate.obj
 0002:00007ab8       ??_C@_0BD@MKDHHLEP@BOTH_GETUP_BROLL_R@ 300b9ab8     bg_panimate.obj
 0002:00007acc       ??_C@_0BD@ELPGHOE@BOTH_GETUP_FROLL_B@ 300b9acc     bg_panimate.obj
 0002:00007ae0       ??_C@_0BD@GANDKCOA@BOTH_GETUP_FROLL_F@ 300b9ae0     bg_panimate.obj
 0002:00007af4       ??_C@_0BD@JKDMEKGK@BOTH_GETUP_FROLL_L@ 300b9af4     bg_panimate.obj
 0002:00007b08       ??_C@_0BD@EOHNHFLF@BOTH_GETUP_FROLL_R@ 300b9b08     bg_panimate.obj
 0002:00007b1c       ??_C@_0BF@GJCHNFNC@BOTH_WALL_FLIP_BACK1@ 300b9b1c     bg_panimate.obj
 0002:00007b34       ??_C@_0BF@ECAKIGBB@BOTH_WALL_FLIP_BACK2@ 300b9b34     bg_panimate.obj
 0002:00007b4c       ??_C@_0L@JNPKOHDB@BOTH_SPIN1@ 300b9b4c     bg_panimate.obj
 0002:00007b58       ??_C@_0BD@LHONGOKG@BOTH_CEILING_CLING@ 300b9b58     bg_panimate.obj
 0002:00007b6c       ??_C@_0BC@GKKAPGJM@BOTH_CEILING_DROP@ 300b9b6c     bg_panimate.obj
 0002:00007b80       ??_C@_0BA@CINBNIPK@BOTH_FJSS_TR_BL@ 300b9b80     bg_panimate.obj
 0002:00007b90       ??_C@_0BA@CDEAMOMG@BOTH_FJSS_TL_BR@ 300b9b90     bg_panimate.obj
 0002:00007ba0       ??_C@_0BJ@PHBNOEEM@BOTH_RIGHTHANDCHOPPEDOFF@ 300b9ba0     bg_panimate.obj
 0002:00007bbc       ??_C@_0BM@ELFFAKLF@BOTH_DEFLECTSLASH__R__L_FIN@ 300b9bbc     bg_panimate.obj
 0002:00007bd8       ??_C@_0N@PBBFIKGE@BOTH_BASHED1@ 300b9bd8     bg_panimate.obj
 0002:00007be8       ??_C@_0O@HINNODAG@BOTH_ARIAL_F1@ 300b9be8     bg_panimate.obj
 0002:00007bf8       ??_C@_0BD@GDAEGPCN@BOTH_BUTTERFLY_FR1@ 300b9bf8     bg_panimate.obj
 0002:00007c0c       ??_C@_0BD@HFLMOBFH@BOTH_BUTTERFLY_FL1@ 300b9c0c     bg_panimate.obj
 0002:00007c20       ??_C@_0BC@BJEPANJA@BOTH_BACK_FLIP_UP@ 300b9c20     bg_panimate.obj
 0002:00007c34       ??_C@_0BA@NPLLAIGE@BOTH_LOSE_SABER@ 300b9c34     bg_panimate.obj
 0002:00007c44       ??_C@_0BB@IIJAHOAM@BOTH_STAFF_TAUNT@ 300b9c44     bg_panimate.obj
 0002:00007c58       ??_C@_0BA@ECEJJOCF@BOTH_DUAL_TAUNT@ 300b9c58     bg_panimate.obj
 0002:00007c68       ??_C@_0L@LKOFLFIC@BOTH_A6_FB@ 300b9c68     bg_panimate.obj
 0002:00007c74       ??_C@_0L@PNLACCAF@BOTH_A6_LR@ 300b9c74     bg_panimate.obj
 0002:00007c80       ??_C@_0N@NLKPNJAP@BOTH_A7_HILT@ 300b9c80     bg_panimate.obj
 0002:00007c90       ??_C@_0BA@IMOMKPBA@BOTH_ALORA_SPIN@ 300b9c90     bg_panimate.obj
 0002:00007ca0       ??_C@_0BC@FMCCBPNO@BOTH_ALORA_FLIP_1@ 300b9ca0     bg_panimate.obj
 0002:00007cb4       ??_C@_0BC@HHAPEMBN@BOTH_ALORA_FLIP_2@ 300b9cb4     bg_panimate.obj
 0002:00007cc8       ??_C@_0BC@GOBEHNFM@BOTH_ALORA_FLIP_3@ 300b9cc8     bg_panimate.obj
 0002:00007cdc       ??_C@_0BC@FIDADFOL@BOTH_ALORA_FLIP_B@ 300b9cdc     bg_panimate.obj
 0002:00007cf0       ??_C@_0BG@EABOBAMI@BOTH_ALORA_SPIN_THROW@ 300b9cf0     bg_panimate.obj
 0002:00007d08       ??_C@_0BG@DCFBCKEL@BOTH_ALORA_SPIN_SLASH@ 300b9d08     bg_panimate.obj
 0002:00007d20       ??_C@_0BB@JJKGACDG@BOTH_ALORA_TAUNT@ 300b9d20     bg_panimate.obj
 0002:00007d34       ??_C@_0P@KODDALBF@BOTH_ROSH_PAIN@ 300b9d34     bg_panimate.obj
 0002:00007d44       ??_C@_0P@ENOEHDDL@BOTH_ROSH_HEAL@ 300b9d44     bg_panimate.obj
 0002:00007d54       ??_C@_0BK@NBGHMOBL@BOTH_TAVION_SCEPTERGROUND@ 300b9d54     bg_panimate.obj
 0002:00007d70       ??_C@_0BH@HFIAAKKL@BOTH_TAVION_SWORDPOWER@ 300b9d70     bg_panimate.obj
 0002:00007d88       ??_C@_0BD@FGCDNAOB@BOTH_SCEPTER_START@ 300b9d88     bg_panimate.obj
 0002:00007d9c       ??_C@_0BC@HIHKAHFB@BOTH_SCEPTER_HOLD@ 300b9d9c     bg_panimate.obj
 0002:00007db0       ??_C@_0BC@MELKBIFA@BOTH_SCEPTER_STOP@ 300b9db0     bg_panimate.obj
 0002:00007dc4       ??_C@_0P@FMNEHFNM@BOTH_KYLE_GRAB@ 300b9dc4     bg_panimate.obj
 0002:00007dd4       ??_C@_0P@NNAHOJON@BOTH_KYLE_MISS@ 300b9dd4     bg_panimate.obj
 0002:00007de4       ??_C@_0P@NOBCGCHA@BOTH_KYLE_PA_1@ 300b9de4     bg_panimate.obj
 0002:00007df4       ??_C@_0BB@JKEILKGN@BOTH_PLAYER_PA_1@ 300b9df4     bg_panimate.obj
 0002:00007e08       ??_C@_0P@PFDPDBLD@BOTH_KYLE_PA_2@ 300b9e08     bg_panimate.obj
 0002:00007e18       ??_C@_0BB@LBGFOJKO@BOTH_PLAYER_PA_2@ 300b9e18     bg_panimate.obj
 0002:00007e2c       ??_C@_0BD@BPPGNPKM@BOTH_PLAYER_PA_FLY@ 300b9e2c     bg_panimate.obj
 0002:00007e40       ??_C@_0P@OMCEAAPC@BOTH_KYLE_PA_3@ 300b9e40     bg_panimate.obj
 0002:00007e50       ??_C@_0BB@KIHONIOP@BOTH_PLAYER_PA_3@ 300b9e50     bg_panimate.obj
 0002:00007e64       ??_C@_0BF@HCPCIHAG@BOTH_PLAYER_PA_3_FLY@ 300b9e64     bg_panimate.obj
 0002:00007e7c       ??_C@_0BA@NKEMKFLI@BOTH_BUCK_RIDER@ 300b9e7c     bg_panimate.obj
 0002:00007e8c       ??_C@_0BA@CFDHFDLH@BOTH_HOLD_START@ 300b9e8c     bg_panimate.obj
 0002:00007e9c       ??_C@_0P@EPJNGCKB@BOTH_HOLD_MISS@ 300b9e9c     bg_panimate.obj
 0002:00007eac       ??_C@_0P@EDJFENCG@BOTH_HOLD_IDLE@ 300b9eac     bg_panimate.obj
 0002:00007ebc       ??_C@_0O@HFIKEJBB@BOTH_HOLD_END@ 300b9ebc     bg_panimate.obj
 0002:00007ecc       ??_C@_0BB@EFCJFPCD@BOTH_HOLD_ATTACK@ 300b9ecc     bg_panimate.obj
 0002:00007ee0       ??_C@_0BA@KJAIIPAE@BOTH_HOLD_SNIFF@ 300b9ee0     bg_panimate.obj
 0002:00007ef0       ??_C@_0P@PLIENJJJ@BOTH_HOLD_DROP@ 300b9ef0     bg_panimate.obj
 0002:00007f00       ??_C@_0N@CFDAGGFP@BOTH_GRABBED@ 300b9f00     bg_panimate.obj
 0002:00007f10       ??_C@_0O@LAAPIANC@BOTH_RELEASED@ 300b9f10     bg_panimate.obj
 0002:00007f20       ??_C@_0P@PIJKILFE@BOTH_HANG_IDLE@ 300b9f20     bg_panimate.obj
 0002:00007f30       ??_C@_0BB@CKCHJINN@BOTH_HANG_ATTACK@ 300b9f30     bg_panimate.obj
 0002:00007f44       ??_C@_0P@EHILJFLF@BOTH_HANG_PAIN@ 300b9f44     bg_panimate.obj
 0002:00007f54       ??_C@_09PPDGHFCD@BOTH_HIT1@ 300b9f54     bg_panimate.obj
 0002:00007f60       ??_C@_0BA@ILKIBIOO@BOTH_LADDER_UP1@ 300b9f60     bg_panimate.obj
 0002:00007f70       ??_C@_0BB@BOJOMJDD@BOTH_LADDER_DWN1@ 300b9f70     bg_panimate.obj
 0002:00007f84       ??_C@_0BB@OMHFJNGP@BOTH_LADDER_IDLE@ 300b9f84     bg_panimate.obj
 0002:00007f98       ??_C@_0BC@ODIBALPH@BOTH_FLY_SHIELDED@ 300b9f98     bg_panimate.obj
 0002:00007fac       ??_C@_0BA@PIGFMLPF@BOTH_SWIM_IDLE1@ 300b9fac     bg_panimate.obj
 0002:00007fbc       ??_C@_0BB@FOFCFDFI@BOTH_SWIMFORWARD@ 300b9fbc     bg_panimate.obj
 0002:00007fd0       ??_C@_0BC@LJIHFCKB@BOTH_SWIMBACKWARD@ 300b9fd0     bg_panimate.obj
 0002:00007fe4       ??_C@_0M@LIOOPEJI@BOTH_SLEEP1@ 300b9fe4     bg_panimate.obj
 0002:00007ff0       ??_C@_0BB@HHHLEEDB@BOTH_SLEEP6START@ 300b9ff0     bg_panimate.obj
 0002:00008004       ??_C@_0BA@CINKHNGE@BOTH_SLEEP6STOP@ 300ba004     bg_panimate.obj
 0002:00008014       ??_C@_0BB@HBPPPACM@BOTH_SLEEP1GETUP@ 300ba014     bg_panimate.obj
 0002:00008028       ??_C@_0BC@NPNJMHGC@BOTH_SLEEP1GETUP2@ 300ba028     bg_panimate.obj
 0002:0000803c       ??_C@_0BB@OFKGJANF@BOTH_CHOKE1START@ 300ba03c     bg_panimate.obj
 0002:00008050       ??_C@_0BF@ICMFFJIF@BOTH_CHOKE1STARTHOLD@ 300ba050     bg_panimate.obj
 0002:00008068       ??_C@_0M@PECDCEEJ@BOTH_CHOKE1@ 300ba068     bg_panimate.obj
 0002:00008074       ??_C@_0M@NPAOHHIK@BOTH_CHOKE2@ 300ba074     bg_panimate.obj
 0002:00008080       ??_C@_0M@MGBFEGML@BOTH_CHOKE3@ 300ba080     bg_panimate.obj
 0002:0000808c       ??_C@_0O@CAGOCCAO@BOTH_POWERUP1@ 300ba08c     bg_panimate.obj
 0002:0000809c       ??_C@_0M@ODIMNEKC@BOTH_TURNON@ 300ba09c     bg_panimate.obj
 0002:000080a8       ??_C@_0N@JAALPHCL@BOTH_TURNOFF@ 300ba0a8     bg_panimate.obj
 0002:000080b8       ??_C@_0N@LILLBNDA@BOTH_BUTTON1@ 300ba0b8     bg_panimate.obj
 0002:000080c8       ??_C@_0N@JDJGEOPD@BOTH_BUTTON2@ 300ba0c8     bg_panimate.obj
 0002:000080d8       ??_C@_0BB@FCMBEPCD@BOTH_BUTTON_HOLD@ 300ba0d8     bg_panimate.obj
 0002:000080ec       ??_C@_0BE@BFLOBGOL@BOTH_BUTTON_RELEASE@ 300ba0ec     bg_panimate.obj
 0002:00008100       ??_C@_0BA@IBNLMMOO@BOTH_RESISTPUSH@ 300ba100     bg_panimate.obj
 0002:00008110       ??_C@_0P@HEAGBOPG@BOTH_FORCEPUSH@ 300ba110     bg_panimate.obj
 0002:00008120       ??_C@_0P@HBADPLP@BOTH_FORCEPULL@ 300ba120     bg_panimate.obj
 0002:00008130       ??_C@_0BA@IHNHLMMO@BOTH_MINDTRICK1@ 300ba130     bg_panimate.obj
 0002:00008140       ??_C@_0BA@KMPKOPAN@BOTH_MINDTRICK2@ 300ba140     bg_panimate.obj
 0002:00008150       ??_C@_0BE@OEAHGILF@BOTH_FORCELIGHTNING@ 300ba150     bg_panimate.obj
 0002:00008164       ??_C@_0BK@NACKCJFF@BOTH_FORCELIGHTNING_START@ 300ba164     bg_panimate.obj
 0002:00008180       ??_C@_0BJ@KCFBGHIB@BOTH_FORCELIGHTNING_HOLD@ 300ba180     bg_panimate.obj
 0002:0000819c       ??_C@_0BM@GCBAKCPL@BOTH_FORCELIGHTNING_RELEASE@ 300ba19c     bg_panimate.obj
 0002:000081b8       ??_C@_0BF@FPDMFLAG@BOTH_FORCEHEAL_START@ 300ba1b8     bg_panimate.obj
 0002:000081d0       ??_C@_0BE@GNHNNEFM@BOTH_FORCEHEAL_STOP@ 300ba1d0     bg_panimate.obj
 0002:000081e4       ??_C@_0BF@DKJODMIL@BOTH_FORCEHEAL_QUICK@ 300ba1e4     bg_panimate.obj
 0002:000081fc       ??_C@_0P@PONJILD@BOTH_SABERPULL@ 300ba1fc     bg_panimate.obj
 0002:0000820c       ??_C@_0BA@BDJFPNIF@BOTH_FORCEGRIP1@ 300ba20c     bg_panimate.obj
 0002:0000821c       ??_C@_0BA@CBKDJPAH@BOTH_FORCEGRIP3@ 300ba21c     bg_panimate.obj
 0002:0000822c       ??_C@_0BF@BAAGEEBG@BOTH_FORCEGRIP3THROW@ 300ba22c     bg_panimate.obj
 0002:00008244       ??_C@_0BE@JLIMFCGH@BOTH_FORCEGRIP_HOLD@ 300ba244     bg_panimate.obj
 0002:00008258       ??_C@_0BH@JFCMGCAP@BOTH_FORCEGRIP_RELEASE@ 300ba258     bg_panimate.obj
 0002:00008270       ??_C@_0L@EJBFFAAC@BOTH_TOSS1@ 300ba270     bg_panimate.obj
 0002:0000827c       ??_C@_0L@GCDIADMB@BOTH_TOSS2@ 300ba27c     bg_panimate.obj
 0002:00008288       ??_C@_0BA@GLJOFMJL@BOTH_FORCE_RAGE@ 300ba288     bg_panimate.obj
 0002:00008298       ??_C@_0BM@OPHDEJED@BOTH_FORCE_2HANDEDLIGHTNING@ 300ba298     bg_panimate.obj
 0002:000082b4       ??_C@_0CC@HEIANMP@BOTH_FORCE_2HANDEDLIGHTNING_STA@ 300ba2b4     bg_panimate.obj
 0002:000082d8       ??_C@_0CB@MNKHBDGA@BOTH_FORCE_2HANDEDLIGHTNING_HOL@ 300ba2d8     bg_panimate.obj
 0002:000082fc       ??_C@_0CE@NFLNPDNI@BOTH_FORCE_2HANDEDLIGHTNING_REL@ 300ba2fc     bg_panimate.obj
 0002:00008320       ??_C@_0BB@NHPCBMHH@BOTH_FORCE_DRAIN@ 300ba320     bg_panimate.obj
 0002:00008334       ??_C@_0BH@BHMNGNLJ@BOTH_FORCE_DRAIN_START@ 300ba334     bg_panimate.obj
 0002:0000834c       ??_C@_0BG@JCLNDPPK@BOTH_FORCE_DRAIN_HOLD@ 300ba34c     bg_panimate.obj
 0002:00008364       ??_C@_0BJ@OBGKFMHF@BOTH_FORCE_DRAIN_RELEASE@ 300ba364     bg_panimate.obj
 0002:00008380       ??_C@_0BM@PACMCIGF@BOTH_FORCE_DRAIN_GRAB_START@ 300ba380     bg_panimate.obj
 0002:0000839c       ??_C@_0BL@MLNFOEPE@BOTH_FORCE_DRAIN_GRAB_HOLD@ 300ba39c     bg_panimate.obj
 0002:000083b8       ??_C@_0BK@POJHMFNL@BOTH_FORCE_DRAIN_GRAB_END@ 300ba3b8     bg_panimate.obj
 0002:000083d4       ??_C@_0BJ@GKPDEPNJ@BOTH_FORCE_DRAIN_GRABBED@ 300ba3d4     bg_panimate.obj
 0002:000083f0       ??_C@_0BC@HHGANHBC@BOTH_FORCE_ABSORB@ 300ba3f0     bg_panimate.obj
 0002:00008404       ??_C@_0BI@BPAAFONF@BOTH_FORCE_ABSORB_START@ 300ba404     bg_panimate.obj
 0002:0000841c       ??_C@_0BG@CBNCOJEH@BOTH_FORCE_ABSORB_END@ 300ba41c     bg_panimate.obj
 0002:00008434       ??_C@_0BD@FFPOEFNG@BOTH_FORCE_PROTECT@ 300ba434     bg_panimate.obj
 0002:00008448       ??_C@_0BI@GLAHPFBH@BOTH_FORCE_PROTECT_FAST@ 300ba448     bg_panimate.obj
 0002:00008460       ??_C@_09FOHPNOGF@BOTH_WIND@ 300ba460     bg_panimate.obj
 0002:0000846c       ??_C@_0BE@FLPJEFCO@BOTH_STAND_TO_KNEEL@ 300ba46c     bg_panimate.obj
 0002:00008480       ??_C@_0BE@OBEECCKH@BOTH_KNEEL_TO_STAND@ 300ba480     bg_panimate.obj
 0002:00008494       ??_C@_0BD@OHIFPJFA@BOTH_TUSKENATTACK1@ 300ba494     bg_panimate.obj
 0002:000084a8       ??_C@_0BD@MMKIKKJD@BOTH_TUSKENATTACK2@ 300ba4a8     bg_panimate.obj
 0002:000084bc       ??_C@_0BD@NFLDJLNC@BOTH_TUSKENATTACK3@ 300ba4bc     bg_panimate.obj
 0002:000084d0       ??_C@_0BC@BIOHNIGA@BOTH_TUSKENLUNGE1@ 300ba4d0     bg_panimate.obj
 0002:000084e4       ??_C@_0BC@KDENGKBK@BOTH_TUSKENTAUNT1@ 300ba4e4     bg_panimate.obj
 0002:000084f8       ??_C@_0BC@KKMKANGM@BOTH_COWER1_START@ 300ba4f8     bg_panimate.obj
 0002:0000850c       ??_C@_0M@EAAAAKHE@BOTH_COWER1@ 300ba50c     bg_panimate.obj
 0002:00008518       ??_C@_0BB@JEOPOJAL@BOTH_COWER1_STOP@ 300ba518     bg_panimate.obj
 0002:0000852c       ??_C@_0BF@LOEEPGJI@BOTH_SONICPAIN_START@ 300ba52c     bg_panimate.obj
 0002:00008544       ??_C@_0BE@KHIIENBG@BOTH_SONICPAIN_HOLD@ 300ba544     bg_panimate.obj
 0002:00008558       ??_C@_0BD@KFKLMKIP@BOTH_SONICPAIN_END@ 300ba558     bg_panimate.obj
 0002:0000856c       ??_C@_0N@EGCBKCBH@BOTH_STAND10@ 300ba56c     bg_panimate.obj
 0002:0000857c       ??_C@_0BD@DEOMOHKM@BOTH_STAND10_TALK1@ 300ba57c     bg_panimate.obj
 0002:00008590       ??_C@_0BD@BPMBLEGP@BOTH_STAND10_TALK2@ 300ba590     bg_panimate.obj
 0002:000085a4       ??_C@_0BF@EILOIEKG@BOTH_STAND10TOSTAND1@ 300ba5a4     bg_panimate.obj
 0002:000085bc       ??_C@_0BC@EOCMNLEK@BOTH_STAND1_TALK1@ 300ba5bc     bg_panimate.obj
 0002:000085d0       ??_C@_0BC@GFABIIIJ@BOTH_STAND1_TALK2@ 300ba5d0     bg_panimate.obj
 0002:000085e4       ??_C@_0BC@HMBKLJMI@BOTH_STAND1_TALK3@ 300ba5e4     bg_panimate.obj
 0002:000085f8       ??_C@_09JFHBCHPF@BOTH_SIT4@ 300ba5f8     bg_panimate.obj
 0002:00008604       ??_C@_09IMGKBGLE@BOTH_SIT5@ 300ba604     bg_panimate.obj
 0002:00008610       ??_C@_0BA@JOAOOGJC@BOTH_SIT5_TALK1@ 300ba610     bg_panimate.obj
 0002:00008620       ??_C@_0BA@LFCDLFFB@BOTH_SIT5_TALK2@ 300ba620     bg_panimate.obj
 0002:00008630       ??_C@_0BA@KMDIIEBA@BOTH_SIT5_TALK3@ 300ba630     bg_panimate.obj
 0002:00008640       ??_C@_09KHEHEFHH@BOTH_SIT6@ 300ba640     bg_panimate.obj
 0002:0000864c       ??_C@_09LOFMHEDG@BOTH_SIT7@ 300ba64c     bg_panimate.obj
 0002:00008658       ??_C@_0BA@FKIHNDLF@TORSO_DROPWEAP1@ 300ba658     bg_panimate.obj
 0002:00008668       ??_C@_0BA@CHPACHPA@TORSO_DROPWEAP4@ 300ba668     bg_panimate.obj
 0002:00008678       ??_C@_0BB@OACMJEDC@TORSO_RAISEWEAP1@ 300ba678     bg_panimate.obj
 0002:0000868c       ??_C@_0BB@JNFLGAHH@TORSO_RAISEWEAP4@ 300ba68c     bg_panimate.obj
 0002:000086a0       ??_C@_0BD@DOKMINPD@TORSO_WEAPONREADY1@ 300ba6a0     bg_panimate.obj
 0002:000086b4       ??_C@_0BD@BFIBNODA@TORSO_WEAPONREADY2@ 300ba6b4     bg_panimate.obj
 0002:000086c8       ??_C@_0BD@MJKOPHB@TORSO_WEAPONREADY3@ 300ba6c8     bg_panimate.obj
 0002:000086dc       ??_C@_0BD@EDNLHJLG@TORSO_WEAPONREADY4@ 300ba6dc     bg_panimate.obj
 0002:000086f0       ??_C@_0BE@PLMMDJNI@TORSO_WEAPONREADY10@ 300ba6f0     bg_panimate.obj
 0002:00008704       ??_C@_0BC@LCPEPDLD@TORSO_WEAPONIDLE2@ 300ba704     bg_panimate.obj
 0002:00008718       ??_C@_0BC@KLOPMCPC@TORSO_WEAPONIDLE3@ 300ba718     bg_panimate.obj
 0002:0000872c       ??_C@_0BC@OEKOFEDF@TORSO_WEAPONIDLE4@ 300ba72c     bg_panimate.obj
 0002:00008740       ??_C@_0BD@IPNKJOGP@TORSO_WEAPONIDLE10@ 300ba740     bg_panimate.obj
 0002:00008754       ??_C@_0BG@DJHHNKPJ@TORSO_SURRENDER_START@ 300ba754     bg_panimate.obj
 0002:0000876c       ??_C@_0BF@CAMHOBIG@TORSO_SURRENDER_STOP@ 300ba76c     bg_panimate.obj
 0002:00008784       ??_C@_0P@EDGDJEAA@TORSO_CHOKING1@ 300ba784     bg_panimate.obj
 0002:00008794       ??_C@_0BC@DEBJGJOG@TORSO_HANDSIGNAL1@ 300ba794     bg_panimate.obj
 0002:000087a8       ??_C@_0BC@BPDEDKCF@TORSO_HANDSIGNAL2@ 300ba7a8     bg_panimate.obj
 0002:000087bc       ??_C@_0BC@GCPALGE@TORSO_HANDSIGNAL3@ 300ba7bc     bg_panimate.obj
 0002:000087d0       ??_C@_0BC@EJGOJNKD@TORSO_HANDSIGNAL4@ 300ba7d0     bg_panimate.obj
 0002:000087e4       ??_C@_0BC@FAHFKMOC@TORSO_HANDSIGNAL5@ 300ba7e4     bg_panimate.obj
 0002:000087f8       ??_C@_0L@DOMPGAGB@LEGS_TURN1@ 300ba7f8     bg_panimate.obj
 0002:00008804       ??_C@_0L@BFOCDDKC@LEGS_TURN2@ 300ba804     bg_panimate.obj
 0002:00008810       ??_C@_0BA@MCADBFIF@LEGS_LEAN_LEFT1@ 300ba810     bg_panimate.obj
 0002:00008820       ??_C@_0BB@HCNNJMLM@LEGS_LEAN_RIGHT1@ 300ba820     bg_panimate.obj
 0002:00008834       ??_C@_0O@FPAJGKKH@LEGS_CHOKING1@ 300ba834     bg_panimate.obj
 0002:00008844       ??_C@_0N@FFGGDFNJ@LEGS_LEFTUP1@ 300ba844     bg_panimate.obj
 0002:00008854       ??_C@_0N@HOELGGBK@LEGS_LEFTUP2@ 300ba854     bg_panimate.obj
 0002:00008864       ??_C@_0N@GHFAFHFL@LEGS_LEFTUP3@ 300ba864     bg_panimate.obj
 0002:00008874       ??_C@_0N@CIBBMBJM@LEGS_LEFTUP4@ 300ba874     bg_panimate.obj
 0002:00008884       ??_C@_0N@DBAKPANN@LEGS_LEFTUP5@ 300ba884     bg_panimate.obj
 0002:00008894       ??_C@_0O@JLGCDGJK@LEGS_RIGHTUP1@ 300ba894     bg_panimate.obj
 0002:000088a4       ??_C@_0O@LAEPGFFJ@LEGS_RIGHTUP2@ 300ba8a4     bg_panimate.obj
 0002:000088b4       ??_C@_0O@KJFEFEBI@LEGS_RIGHTUP3@ 300ba8b4     bg_panimate.obj
 0002:000088c4       ??_C@_0O@OGBFMCNP@LEGS_RIGHTUP4@ 300ba8c4     bg_panimate.obj
 0002:000088d4       ??_C@_0O@PPAOPDJO@LEGS_RIGHTUP5@ 300ba8d4     bg_panimate.obj
 0002:000088e4       ??_C@_0N@JMJDGNHG@LEGS_S1_LUP1@ 300ba8e4     bg_panimate.obj
 0002:000088f4       ??_C@_0N@LHLODOLF@LEGS_S1_LUP2@ 300ba8f4     bg_panimate.obj
 0002:00008904       ??_C@_0N@KOKFAPPE@LEGS_S1_LUP3@ 300ba904     bg_panimate.obj
 0002:00008914       ??_C@_0N@OBOEJJDD@LEGS_S1_LUP4@ 300ba914     bg_panimate.obj
 0002:00008924       ??_C@_0N@PIPPKIHC@LEGS_S1_LUP5@ 300ba924     bg_panimate.obj
 0002:00008934       ??_C@_0N@EDEDEEJF@LEGS_S1_RUP1@ 300ba934     bg_panimate.obj
 0002:00008944       ??_C@_0N@GIGOBHFG@LEGS_S1_RUP2@ 300ba944     bg_panimate.obj
 0002:00008954       ??_C@_0N@HBHFCGBH@LEGS_S1_RUP3@ 300ba954     bg_panimate.obj
 0002:00008964       ??_C@_0N@DODELANA@LEGS_S1_RUP4@ 300ba964     bg_panimate.obj
 0002:00008974       ??_C@_0N@CHCPIBJB@LEGS_S1_RUP5@ 300ba974     bg_panimate.obj
 0002:00008984       ??_C@_0N@LAMHMFP@LEGS_S3_LUP1@ 300ba984     bg_panimate.obj
 0002:00008994       ??_C@_0N@CACBCPJM@LEGS_S3_LUP2@ 300ba994     bg_panimate.obj
 0002:000089a4       ??_C@_0N@DJDKBONN@LEGS_S3_LUP3@ 300ba9a4     bg_panimate.obj
 0002:000089b4       ??_C@_0N@HGHLIIBK@LEGS_S3_LUP4@ 300ba9b4     bg_panimate.obj
 0002:000089c4       ??_C@_0N@GPGALJFL@LEGS_S3_LUP5@ 300ba9c4     bg_panimate.obj
 0002:000089d4       ??_C@_0N@NENMFFLM@LEGS_S3_RUP1@ 300ba9d4     bg_panimate.obj
 0002:000089e4       ??_C@_0N@PPPBAGHP@LEGS_S3_RUP2@ 300ba9e4     bg_panimate.obj
 0002:000089f4       ??_C@_0N@OGOKDHDO@LEGS_S3_RUP3@ 300ba9f4     bg_panimate.obj
 0002:00008a04       ??_C@_0N@KJKLKBPJ@LEGS_S3_RUP4@ 300baa04     bg_panimate.obj
 0002:00008a14       ??_C@_0N@LALAJALI@LEGS_S3_RUP5@ 300baa14     bg_panimate.obj
 0002:00008a24       ??_C@_0N@MOKLECNB@LEGS_S4_LUP1@ 300baa24     bg_panimate.obj
 0002:00008a34       ??_C@_0N@OFIGBBBC@LEGS_S4_LUP2@ 300baa34     bg_panimate.obj
 0002:00008a44       ??_C@_0N@PMJNCAFD@LEGS_S4_LUP3@ 300baa44     bg_panimate.obj
 0002:00008a54       ??_C@_0N@LDNMLGJE@LEGS_S4_LUP4@ 300baa54     bg_panimate.obj
 0002:00008a64       ??_C@_0N@KKMHIHNF@LEGS_S4_LUP5@ 300baa64     bg_panimate.obj
 0002:00008a74       ??_C@_0N@BBHLGLDC@LEGS_S4_RUP1@ 300baa74     bg_panimate.obj
 0002:00008a84       ??_C@_0N@DKFGDIPB@LEGS_S4_RUP2@ 300baa84     bg_panimate.obj
 0002:00008a94       ??_C@_0N@CDENAJLA@LEGS_S4_RUP3@ 300baa94     bg_panimate.obj
 0002:00008aa4       ??_C@_0N@GMAMJPHH@LEGS_S4_RUP4@ 300baaa4     bg_panimate.obj
 0002:00008ab4       ??_C@_0N@HFBHKODG@LEGS_S4_RUP5@ 300baab4     bg_panimate.obj
 0002:00008ac4       ??_C@_0N@GINMEJGF@LEGS_S5_LUP1@ 300baac4     bg_panimate.obj
 0002:00008ad4       ??_C@_0N@EDPBBKKG@LEGS_S5_LUP2@ 300baad4     bg_panimate.obj
 0002:00008ae4       ??_C@_0N@FKOKCLOH@LEGS_S5_LUP3@ 300baae4     bg_panimate.obj
 0002:00008af4       ??_C@_0N@BFKLLNCA@LEGS_S5_LUP4@ 300baaf4     bg_panimate.obj
 0002:00008b04       ??_C@_0N@MLAIMGB@LEGS_S5_LUP5@ 300bab04     bg_panimate.obj
 0002:00008b14       ??_C@_0N@LHAMGAIG@LEGS_S5_RUP1@ 300bab14     bg_panimate.obj
 0002:00008b24       ??_C@_0N@JMCBDDEF@LEGS_S5_RUP2@ 300bab24     bg_panimate.obj
 0002:00008b34       ??_C@_0N@IFDKACAE@LEGS_S5_RUP3@ 300bab34     bg_panimate.obj
 0002:00008b44       ??_C@_0N@MKHLJEMD@LEGS_S5_RUP4@ 300bab44     bg_panimate.obj
 0002:00008b54       ??_C@_0N@NDGAKFIC@LEGS_S5_RUP5@ 300bab54     bg_panimate.obj
 0002:00008b64       ??_C@_0N@FJDEFDPI@LEGS_S6_LUP1@ 300bab64     bg_panimate.obj
 0002:00008b74       ??_C@_0N@HCBJAADL@LEGS_S6_LUP2@ 300bab74     bg_panimate.obj
 0002:00008b84       ??_C@_0N@GLACDBHK@LEGS_S6_LUP3@ 300bab84     bg_panimate.obj
 0002:00008b94       ??_C@_0N@CEEDKHLN@LEGS_S6_LUP4@ 300bab94     bg_panimate.obj
 0002:00008ba4       ??_C@_0N@DNFIJGPM@LEGS_S6_LUP5@ 300baba4     bg_panimate.obj
 0002:00008bb4       ??_C@_0N@IGOEHKBL@LEGS_S6_RUP1@ 300babb4     bg_panimate.obj
 0002:00008bc4       ??_C@_0N@KNMJCJNI@LEGS_S6_RUP2@ 300babc4     bg_panimate.obj
 0002:00008bd4       ??_C@_0N@LENCBIJJ@LEGS_S6_RUP3@ 300babd4     bg_panimate.obj
 0002:00008be4       ??_C@_0N@PLJDIOFO@LEGS_S6_RUP4@ 300babe4     bg_panimate.obj
 0002:00008bf4       ??_C@_0N@OCIILPBP@LEGS_S6_RUP5@ 300babf4     bg_panimate.obj
 0002:00008c04       ??_C@_0N@PPEDFIEM@LEGS_S7_LUP1@ 300bac04     bg_panimate.obj
 0002:00008c14       ??_C@_0N@NEGOALIP@LEGS_S7_LUP2@ 300bac14     bg_panimate.obj
 0002:00008c24       ??_C@_0N@MNHFDKMO@LEGS_S7_LUP3@ 300bac24     bg_panimate.obj
 0002:00008c34       ??_C@_0N@ICDEKMAJ@LEGS_S7_LUP4@ 300bac34     bg_panimate.obj
 0002:00008c44       ??_C@_0N@JLCPJNEI@LEGS_S7_LUP5@ 300bac44     bg_panimate.obj
 0002:00008c54       ??_C@_0N@CAJDHBKP@LEGS_S7_RUP1@ 300bac54     bg_panimate.obj
 0002:00008c64       ??_C@_0N@LLOCCGM@LEGS_S7_RUP2@ 300bac64     bg_panimate.obj
 0002:00008c74       ??_C@_0N@BCKFBDCN@LEGS_S7_RUP3@ 300bac74     bg_panimate.obj
 0002:00008c84       ??_C@_0N@FNOEIFOK@LEGS_S7_RUP4@ 300bac84     bg_panimate.obj
 0002:00008c94       ??_C@_0N@EEPPLEKL@LEGS_S7_RUP5@ 300bac94     bg_panimate.obj
 0002:00008ca4       ??_C@_0N@MEGKIHKK@LEGS_TURN180@ 300baca4     bg_panimate.obj
 0002:00008cb4       ??_C@_0BA@GEODKLCB@BOTH_LEDGE_GRAB@ 300bacb4     bg_panimate.obj
 0002:00008cc4       ??_C@_0BA@BKECIHGH@BOTH_LEDGE_HOLD@ 300bacc4     bg_panimate.obj
 0002:00008cd4       ??_C@_0BA@MHCKFGEE@BOTH_LEDGE_LEFT@ 300bacd4     bg_panimate.obj
 0002:00008ce4       ??_C@_0BB@POANIEBE@BOTH_LEDGE_RIGHT@ 300bace4     bg_panimate.obj
 0002:00008cf8       ??_C@_0BE@GNJJNMBI@BOTH_LEDGE_MERCPULL@ 300bacf8     bg_panimate.obj
 0002:00008d0c       ??_C@_0BI@HFIIMGKB@BOTH_SABERTAVION_STANCE@ 300bad0c     bg_panimate.obj
 0002:00008d24       ??_C@_0BI@BOCBGNDA@BOTH_SABERDESANN_STANCE@ 300bad24     bg_panimate.obj
 0002:00008d3c       ??_C@_0L@HDOPOBKH@BOTH_CIN_1@ 300bad3c     bg_panimate.obj
 0002:00008d48       ??_C@_0L@FIMCLCGE@BOTH_CIN_2@ 300bad48     bg_panimate.obj
 0002:00008d54       ??_C@_0L@EBNJIDCF@BOTH_CIN_3@ 300bad54     bg_panimate.obj
 0002:00008d60       ??_C@_0L@OJIBFOC@BOTH_CIN_4@ 300bad60     bg_panimate.obj
 0002:00008d6c       ??_C@_0L@BHIDCEKD@BOTH_CIN_5@ 300bad6c     bg_panimate.obj
 0002:00008d78       ??_C@_0L@DMKOHHGA@BOTH_CIN_6@ 300bad78     bg_panimate.obj
 0002:00008d84       ??_C@_0L@CFLFEGCB@BOTH_CIN_7@ 300bad84     bg_panimate.obj
 0002:00008d90       ??_C@_0L@KCCNFKOO@BOTH_CIN_8@ 300bad90     bg_panimate.obj
 0002:00008d9c       ??_C@_0L@LLDGGLKP@BOTH_CIN_9@ 300bad9c     bg_panimate.obj
 0002:00008da8       ??_C@_0M@JHIHOPFJ@BOTH_CIN_10@ 300bada8     bg_panimate.obj
 0002:00008db4       ??_C@_0M@IOJMNOBI@BOTH_CIN_11@ 300badb4     bg_panimate.obj
 0002:00008dc0       ??_C@_0M@KFLBINNL@BOTH_CIN_12@ 300badc0     bg_panimate.obj
 0002:00008dcc       ??_C@_0M@LMKKLMJK@BOTH_CIN_13@ 300badcc     bg_panimate.obj
 0002:00008dd8       ??_C@_0M@PDOLCKFN@BOTH_CIN_14@ 300badd8     bg_panimate.obj
 0002:00008de4       ??_C@_0M@OKPABLBM@BOTH_CIN_15@ 300bade4     bg_panimate.obj
 0002:00008df0       ??_C@_0M@MBNNEINP@BOTH_CIN_16@ 300badf0     bg_panimate.obj
 0002:00008dfc       ??_C@_0M@NIMGHJJO@BOTH_CIN_17@ 300badfc     bg_panimate.obj
 0002:00008e08       ??_C@_0M@FPFOGFFB@BOTH_CIN_18@ 300bae08     bg_panimate.obj
 0002:00008e14       ??_C@_0M@EGEFFEBA@BOTH_CIN_19@ 300bae14     bg_panimate.obj
 0002:00008e20       ??_C@_0M@JFMBFBAA@BOTH_CIN_20@ 300bae20     bg_panimate.obj
 0002:00008e2c       ??_C@_0M@IMNKGAEB@BOTH_CIN_21@ 300bae2c     bg_panimate.obj
 0002:00008e38       ??_C@_0M@KHPHDDIC@BOTH_CIN_22@ 300bae38     bg_panimate.obj
 0002:00008e44       ??_C@_0M@LOOMACMD@BOTH_CIN_23@ 300bae44     bg_panimate.obj
 0002:00008e50       ??_C@_0M@PBKNJEAE@BOTH_CIN_24@ 300bae50     bg_panimate.obj
 0002:00008e5c       ??_C@_0M@OILGKFEF@BOTH_CIN_25@ 300bae5c     bg_panimate.obj
 0002:00008e68       ??_C@_0M@MDJLPGIG@BOTH_CIN_26@ 300bae68     bg_panimate.obj
 0002:00008e74       ??_C@_0M@NKIAMHMH@BOTH_CIN_27@ 300bae74     bg_panimate.obj
 0002:00008e80       ??_C@_0M@FNBINLAI@BOTH_CIN_28@ 300bae80     bg_panimate.obj
 0002:00008e8c       ??_C@_0M@EEADOKEJ@BOTH_CIN_29@ 300bae8c     bg_panimate.obj
 0002:00008e98       ??_C@_0M@JEADDLDH@BOTH_CIN_30@ 300bae98     bg_panimate.obj
 0002:00008ea4       ??_C@_0M@INBIAKHG@BOTH_CIN_31@ 300baea4     bg_panimate.obj
 0002:00008eb0       ??_C@_0M@KGDFFJLF@BOTH_CIN_32@ 300baeb0     bg_panimate.obj
 0002:00008ebc       ??_C@_0M@LPCOGIPE@BOTH_CIN_33@ 300baebc     bg_panimate.obj
 0002:00008ec8       ??_C@_0M@PAGPPODD@BOTH_CIN_34@ 300baec8     bg_panimate.obj
 0002:00008ed4       ??_C@_0M@OJHEMPHC@BOTH_CIN_35@ 300baed4     bg_panimate.obj
 0002:00008ee0       ??_C@_0M@MCFJJMLB@BOTH_CIN_36@ 300baee0     bg_panimate.obj
 0002:00008eec       ??_C@_0M@NLECKNPA@BOTH_CIN_37@ 300baeec     bg_panimate.obj
 0002:00008ef8       ??_C@_0M@FMNKLBDP@BOTH_CIN_38@ 300baef8     bg_panimate.obj
 0002:00008f04       ??_C@_0M@EFMBIAHO@BOTH_CIN_39@ 300baf04     bg_panimate.obj
 0002:00008f10       ??_C@_0M@JBEMCNLC@BOTH_CIN_40@ 300baf10     bg_panimate.obj
 0002:00008f1c       ??_C@_0M@IIFHBMPD@BOTH_CIN_41@ 300baf1c     bg_panimate.obj
 0002:00008f28       ??_C@_0M@KDHKEPDA@BOTH_CIN_42@ 300baf28     bg_panimate.obj
 0002:00008f34       ??_C@_0M@LKGBHOHB@BOTH_CIN_43@ 300baf34     bg_panimate.obj
 0002:00008f40       ??_C@_0M@PFCAOILG@BOTH_CIN_44@ 300baf40     bg_panimate.obj
 0002:00008f4c       ??_C@_0M@OMDLNJPH@BOTH_CIN_45@ 300baf4c     bg_panimate.obj
 0002:00008f58       ??_C@_0M@MHBGIKDE@BOTH_CIN_46@ 300baf58     bg_panimate.obj
 0002:00008f64       ??_C@_0M@NOANLLHF@BOTH_CIN_47@ 300baf64     bg_panimate.obj
 0002:00008f70       ??_C@_0M@FJJFKHLK@BOTH_CIN_48@ 300baf70     bg_panimate.obj
 0002:00008f7c       ??_C@_0M@EAIOJGPL@BOTH_CIN_49@ 300baf7c     bg_panimate.obj
 0002:00008f88       ??_C@_0M@JAIOEHIF@BOTH_CIN_50@ 300baf88     bg_panimate.obj
 0002:00008f94       ??_C@_0O@CKCHNCID@BOTH_P1_S1_B_@ 300baf94     bg_panimate.obj
 0002:00008fa4       ??_C@_0O@CAOCNLJK@BOTH_P6_S1_B_@ 300bafa4     bg_panimate.obj
 0002:00008fb4       ??_C@_0O@OMEINLAE@BOTH_P7_S1_B_@ 300bafb4     bg_panimate.obj
 0002:00008fc4       ??_C@_0CB@DJHCDEKP@ERROR?3?5anim?5?$CFd?5is?5out?5of?5bounds@ 300bafc4     bg_panimate.obj
 0002:00008fe8       ??_C@_0BD@IAGLKLFM@players?1_humanoid?1@ 300bafe8     bg_panimate.obj
 0002:00008ffc       ??_C@_0BH@OHJDKHCL@players?1rockettrooper?1@ 300baffc     bg_panimate.obj
 0002:00009014       ??_C@_0DE@KGEIIGLI@Failed?5to?5allocate?5memory?5for?5a@ 300bb014     bg_panimate.obj
 0002:00009048       ??_C@_0DD@BJENEBEN@?$CFs?5exceeds?5the?5allowed?5game?9sid@ 300bb048     bg_panimate.obj
 0002:0000907c       ??_C@_0BB@OFGHFHNI@g_saberanimspeed@ 300bb07c     bg_panimate.obj
 0002:00009090       __real@3e19999a            300bb090     bg_panimate.obj
 0002:00009094       __real@3e99999a            300bb094     bg_panimate.obj
 0002:00009098       __real@3ea8f5c3            300bb098     bg_panimate.obj
 0002:0000909c       __real@3f000000            300bb09c     bg_panimate.obj
 0002:000090a0       __real@3f266666            300bb0a0     bg_panimate.obj
 0002:000090a4       __real@3f400000            300bb0a4     bg_panimate.obj
 0002:000090a8       __real@3ff199999999999a    300bb0a8     bg_panimate.obj
 0002:000090b0       __real@3ff3333333333333    300bb0b0     bg_panimate.obj
 0002:000090b8       __real@3ff4000000000000    300bb0b8     bg_panimate.obj
 0002:000090c0       __real@3ff4cccccccccccd    300bb0c0     bg_panimate.obj
 0002:000090c8       __real@3ff8000000000000    300bb0c8     bg_panimate.obj
 0002:000090d0       __real@4004000000000000    300bb0d0     bg_panimate.obj
 0002:000090d8       __real@4008000000000000    300bb0d8     bg_panimate.obj
 0002:000090e0       __real@4014000000000000    300bb0e0     bg_panimate.obj
 0002:000090e8       __real@447a0000            300bb0e8     bg_panimate.obj
 0002:000090f0       __xmm@7fffffffffffffff7fffffffffffffff 300bb0f0     bg_panimate.obj
 0002:00009100       ??_C@_0N@KJCNHCBK@?$CFi?3allsolid?6@ 300bb100     bg_pmove.obj
 0002:00009110       ??_C@_08EOGJDHPF@?$CFi?3lift?6@ 300bb110     bg_pmove.obj
 0002:0000911c       ??_C@_0M@CKJFDFGH@?$CFi?3kickoff?6@ 300bb11c     bg_pmove.obj
 0002:00009128       ??_C@_09OPMLNNOA@?$CFi?3steep?6@ 300bb128     bg_pmove.obj
 0002:00009134       ??_C@_08KACHPCJN@?$CFi?3Land?6@ 300bb134     bg_pmove.obj
 0002:00009140       ??_C@_08GMFJNBED@lhumerus@ 300bb140     bg_pmove.obj
 0002:0000914c       ??_C@_07NJHCGBBF@lradius@  300bb14c     bg_pmove.obj
 0002:00009154       ??_C@_06IHEANBNF@pelvis@   300bb154     bg_pmove.obj
 0002:0000915c       ??_C@_08ILEJMJL@thoracic@  300bb15c     bg_pmove.obj
 0002:00009168       ??_C@_0N@DPOICHCI@lower_lumbar@ 300bb168     bg_pmove.obj
 0002:00009178       ??_C@_0N@FLMNOMBE@upper_lumbar@ 300bb178     bg_pmove.obj
 0002:00009188       ??_C@_07JOKDFEMH@cranium@  300bb188     bg_pmove.obj
 0002:00009190       ??_C@_08HPHDBPFM@cervical@ 300bb190     bg_pmove.obj
 0002:0000919c       ??_C@_0BP@KPLHHMIM@Bad?5player?5movement?5angle?5?$CI?$CFi?$CJ@ 300bb19c     bg_pmove.obj
 0002:000091bc       __real@00000000            300bb1bc     bg_pmove.obj
 0002:000091c0       __real@0000000000000000    300bb1c0     bg_pmove.obj
 0002:000091c8       __real@3d0f5c29            300bb1c8     bg_pmove.obj
 0002:000091cc       __real@3dcccccd            300bb1cc     bg_pmove.obj
 0002:000091d0       __real@3e000000            300bb1d0     bg_pmove.obj
 0002:000091d4       __real@3e800000            300bb1d4     bg_pmove.obj
 0002:000091d8       __real@3eb33333            300bb1d8     bg_pmove.obj
 0002:000091dc       __real@3ec00000            300bb1dc     bg_pmove.obj
 0002:000091e0       __real@3ecccccd            300bb1e0     bg_pmove.obj
 0002:000091e4       __real@3ee66666            300bb1e4     bg_pmove.obj
 0002:000091e8       __real@3f0ccccd            300bb1e8     bg_pmove.obj
 0002:000091ec       __real@3f19999a            300bb1ec     bg_pmove.obj
 0002:000091f0       __real@3f1a36e2eb1c432d    300bb1f0     bg_pmove.obj
 0002:000091f8       __real@3f333333            300bb1f8     bg_pmove.obj
 0002:000091fc       __real@3f4ccccd            300bb1fc     bg_pmove.obj
 0002:00009200       __real@3f666666            300bb200     bg_pmove.obj
 0002:00009208       __real@3f689374bc6a7efa    300bb208     bg_pmove.obj
 0002:00009210       __real@3f76800000000000    300bb210     bg_pmove.obj
 0002:00009218       __real@3fa999999999999a    300bb218     bg_pmove.obj
 0002:00009220       __real@3fb999999999999a    300bb220     bg_pmove.obj
 0002:00009228       __real@3fc00000            300bb228     bg_pmove.obj
 0002:00009230       __real@3fc99999a0000000    300bb230     bg_pmove.obj
 0002:00009238       __real@3fd0000000000000    300bb238     bg_pmove.obj
 0002:00009240       __real@3fd3333333333333    300bb240     bg_pmove.obj
 0002:00009248       __real@3fd54fdf3b645a1d    300bb248     bg_pmove.obj
 0002:00009250       __real@3fd999999999999a    300bb250     bg_pmove.obj
 0002:00009258       __real@3fe3333333333333    300bb258     bg_pmove.obj
 0002:00009260       __real@3fe54fdf3b645a1d    300bb260     bg_pmove.obj
 0002:00009268       __real@3fe6666666666666    300bb268     bg_pmove.obj
 0002:00009270       __real@3fe8000000000000    300bb270     bg_pmove.obj
 0002:00009278       __real@3fe999999999999a    300bb278     bg_pmove.obj
 0002:00009280       __real@3feccccccccccccd    300bb280     bg_pmove.obj
 0002:00009288       __real@3fed99999999999a    300bb288     bg_pmove.obj
 0002:00009290       __real@3ff0000000000000    300bb290     bg_pmove.obj
 0002:00009298       __real@3ff999999999999a    300bb298     bg_pmove.obj
 0002:000092a0       __real@3ffc000000000000    300bb2a0     bg_pmove.obj
 0002:000092a8       __real@40000000            300bb2a8     bg_pmove.obj
 0002:000092b0       __real@400c000000000000    300bb2b0     bg_pmove.obj
 0002:000092b8       __real@40100000            300bb2b8     bg_pmove.obj
 0002:000092c0       __real@4018000000000000    300bb2c0     bg_pmove.obj
 0002:000092c8       __real@401c000000000000    300bb2c8     bg_pmove.obj
 0002:000092d0       __real@40200000            300bb2d0     bg_pmove.obj
 0002:000092d8       __real@4028000000000000    300bb2d8     bg_pmove.obj
 0002:000092e0       __real@40364ccccccccccd    300bb2e0     bg_pmove.obj
 0002:000092e8       __real@4038000000000000    300bb2e8     bg_pmove.obj
 0002:000092f0       __real@40400000            300bb2f0     bg_pmove.obj
 0002:000092f8       __real@4049b33333333333    300bb2f8     bg_pmove.obj
 0002:00009300       __real@404a333333333333    300bb300     bg_pmove.obj
 0002:00009308       __real@4059000000000000    300bb308     bg_pmove.obj
 0002:00009310       __real@405fc00000000000    300bb310     bg_pmove.obj
 0002:00009318       __real@40a00000            300bb318     bg_pmove.obj
 0002:0000931c       __real@40e00000            300bb31c     bg_pmove.obj
 0002:00009320       __real@41000000            300bb320     bg_pmove.obj
 0002:00009324       __real@41200000            300bb324     bg_pmove.obj
 0002:00009328       __real@41400000            300bb328     bg_pmove.obj
 0002:0000932c       __real@41700000            300bb32c     bg_pmove.obj
 0002:00009330       __real@41800000            300bb330     bg_pmove.obj
 0002:00009334       __real@41900000            300bb334     bg_pmove.obj
 0002:00009338       __real@41a00000            300bb338     bg_pmove.obj
 0002:0000933c       __real@41c00000            300bb33c     bg_pmove.obj
 0002:00009340       __real@41d00000            300bb340     bg_pmove.obj
 0002:00009344       __real@41f00000            300bb344     bg_pmove.obj
 0002:00009348       __real@42000000            300bb348     bg_pmove.obj
 0002:0000934c       __real@42200000            300bb34c     bg_pmove.obj
 0002:00009350       __real@42480000            300bb350     bg_pmove.obj
 0002:00009354       __real@42700000            300bb354     bg_pmove.obj
 0002:00009358       __real@42800000            300bb358     bg_pmove.obj
 0002:0000935c       __real@428c0000            300bb35c     bg_pmove.obj
 0002:00009360       __real@42a00000            300bb360     bg_pmove.obj
 0002:00009364       __real@42c80000            300bb364     bg_pmove.obj
 0002:00009368       __real@42fe0000            300bb368     bg_pmove.obj
 0002:0000936c       __real@43000000            300bb36c     bg_pmove.obj
 0002:00009370       __real@430c0000            300bb370     bg_pmove.obj
 0002:00009374       __real@43160000            300bb374     bg_pmove.obj
 0002:00009378       __real@431a0000            300bb378     bg_pmove.obj
 0002:0000937c       __real@432f0000            300bb37c     bg_pmove.obj
 0002:00009380       __real@43480000            300bb380     bg_pmove.obj
 0002:00009384       __real@43700000            300bb384     bg_pmove.obj
 0002:00009388       __real@437a0000            300bb388     bg_pmove.obj
 0002:0000938c       __real@43800000            300bb38c     bg_pmove.obj
 0002:00009390       __real@43870000            300bb390     bg_pmove.obj
 0002:00009394       __real@43960000            300bb394     bg_pmove.obj
 0002:00009398       __real@43af0000            300bb398     bg_pmove.obj
 0002:0000939c       __real@43c80000            300bb39c     bg_pmove.obj
 0002:000093a0       __real@44000000            300bb3a0     bg_pmove.obj
 0002:000093a4       __real@44160000            300bb3a4     bg_pmove.obj
 0002:000093a8       __real@44960000            300bb3a8     bg_pmove.obj
 0002:000093ac       __real@44af0000            300bb3ac     bg_pmove.obj
 0002:000093b0       __real@44d48000            300bb3b0     bg_pmove.obj
 0002:000093b4       __real@44e10000            300bb3b4     bg_pmove.obj
 0002:000093b8       __real@457a0000            300bb3b8     bg_pmove.obj
 0002:000093bc       __real@45800000            300bb3bc     bg_pmove.obj
 0002:000093c0       __real@469c4000            300bb3c0     bg_pmove.obj
 0002:000093c4       __real@471c4000            300bb3c4     bg_pmove.obj
 0002:000093c8       __real@47800000            300bb3c8     bg_pmove.obj
 0002:000093cc       __real@bf000000            300bb3cc     bg_pmove.obj
 0002:000093d0       __real@bf7fbe77            300bb3d0     bg_pmove.obj
 0002:000093d4       __real@c0800000            300bb3d4     bg_pmove.obj
 0002:000093d8       __real@c1000000            300bb3d8     bg_pmove.obj
 0002:000093dc       __real@c1400000            300bb3dc     bg_pmove.obj
 0002:000093e0       __real@c1700000            300bb3e0     bg_pmove.obj
 0002:000093e4       __real@c1800000            300bb3e4     bg_pmove.obj
 0002:000093e8       __real@c1a00000            300bb3e8     bg_pmove.obj
 0002:000093ec       __real@c1c00000            300bb3ec     bg_pmove.obj
 0002:000093f0       __real@c1f00000            300bb3f0     bg_pmove.obj
 0002:000093f4       __real@c2000000            300bb3f4     bg_pmove.obj
 0002:000093f8       __real@c2340000            300bb3f8     bg_pmove.obj
 0002:000093fc       __real@c2700000            300bb3fc     bg_pmove.obj
 0002:00009400       __real@c28c0000            300bb400     bg_pmove.obj
 0002:00009404       __real@c3000000            300bb404     bg_pmove.obj
 0002:00009408       __real@c3160000            300bb408     bg_pmove.obj
 0002:0000940c       __real@c3480000            300bb40c     bg_pmove.obj
 0002:00009410       __real@c3960000            300bb410     bg_pmove.obj
 0002:00009414       __real@c3fa0000            300bb414     bg_pmove.obj
 0002:00009418       __real@c4960000            300bb418     bg_pmove.obj
 0002:00009420       __xmm@41f00000c1a00000c1a00000c2b40000 300bb420     bg_pmove.obj
 0002:00009430       __xmm@7fffffff7fffffff7fffffff7fffffff 300bb430     bg_pmove.obj
 0002:00009440       ??_C@_04OHJIHAFH@None@     300bb440     bg_saber.obj
 0002:00009448       ??_C@_05GMBADOLI@Ready@    300bb448     bg_saber.obj
 0002:00009450       ??_C@_04HMPDNAFK@Draw@     300bb450     bg_saber.obj
 0002:00009458       ??_C@_07EEKMGHL@Putaway@   300bb458     bg_saber.obj
 0002:00009460       ??_C@_09DLNELECG@TL2BR?5Att@ 300bb460     bg_saber.obj
 0002:0000946c       ??_C@_07GAJHIGJB@L2R?5Att@ 300bb46c     bg_saber.obj
 0002:00009474       ??_C@_09BFGKOMHN@BL2TR?5Att@ 300bb474     bg_saber.obj
 0002:00009480       ??_C@_09EILEBGHF@BR2TL?5Att@ 300bb480     bg_saber.obj
 0002:0000948c       ??_C@_07DAHKMGGD@R2L?5Att@ 300bb48c     bg_saber.obj
 0002:00009494       ??_C@_09GGAKEOCO@TR2BL?5Att@ 300bb494     bg_saber.obj
 0002:000094a0       ??_C@_07MMBPKOJE@T2B?5Att@ 300bb4a0     bg_saber.obj
 0002:000094a8       ??_C@_09JIGLEFGA@Back?5Stab@ 300bb4a8     bg_saber.obj
 0002:000094b4       ??_C@_08NHHMKFDG@Back?5Att@ 300bb4b4     bg_saber.obj
 0002:000094c0       ??_C@_0M@GCNCHFMC@CR?5Back?5Att@ 300bb4c0     bg_saber.obj
 0002:000094cc       ??_C@_08PKIJPDOE@RollStab@ 300bb4cc     bg_saber.obj
 0002:000094d8       ??_C@_09LEMMEBE@Lunge?5Att@ 300bb4d8     bg_saber.obj
 0002:000094e4       ??_C@_08KNHLLBPK@Jump?5Att@ 300bb4e4     bg_saber.obj
 0002:000094f0       ??_C@_09JENGNGLB@Flip?5Stab@ 300bb4f0     bg_saber.obj
 0002:000094fc       ??_C@_0L@FMKCKBGH@Flip?5Slash@ 300bb4fc     bg_saber.obj
 0002:00009508       ??_C@_0N@BCAAENJH@DualJump?5Atk@ 300bb508     bg_saber.obj
 0002:00009518       ??_C@_0P@BOMMGCKC@DualJumpAtkL_A@ 300bb518     bg_saber.obj
 0002:00009528       ??_C@_0P@KOAKECAO@DualJumpAtkR_A@ 300bb528     bg_saber.obj
 0002:00009538       ??_C@_0BC@PNIBBCPG@DualJumpAtkLStaff@ 300bb538     bg_saber.obj
 0002:0000954c       ??_C@_0BC@MKGAPFGF@DualJumpAtkRStaff@ 300bb54c     bg_saber.obj
 0002:00009560       ??_C@_0O@EJCJKPND@ButterflyLeft@ 300bb560     bg_saber.obj
 0002:00009570       ??_C@_0P@FGMKFKI@ButterflyRight@ 300bb570     bg_saber.obj
 0002:00009580       ??_C@_0L@DLADLIII@BkFlip?5Atk@ 300bb580     bg_saber.obj
 0002:0000958c       ??_C@_0M@HECJKIFI@DualSpinAtk@ 300bb58c     bg_saber.obj
 0002:00009598       ??_C@_0L@GNJONGPC@StfSpinAtk@ 300bb598     bg_saber.obj
 0002:000095a4       ??_C@_0L@NEJJNIPN@LngLeapAtk@ 300bb5a4     bg_saber.obj
 0002:000095b0       ??_C@_09OIECNKCB@SwoopAtkR@ 300bb5b0     bg_saber.obj
 0002:000095bc       ??_C@_09DMADOFPO@SwoopAtkL@ 300bb5bc     bg_saber.obj
 0002:000095c8       ??_C@_0N@LKHFPAPA@TauntaunAtkR@ 300bb5c8     bg_saber.obj
 0002:000095d8       ??_C@_0N@GODEMPCP@TauntaunAtkL@ 300bb5d8     bg_saber.obj
 0002:000095e8       ??_C@_0L@EBPEBDEI@StfKickFwd@ 300bb5e8     bg_saber.obj
 0002:000095f4       ??_C@_0M@HLPCDHNL@StfKickBack@ 300bb5f4     bg_saber.obj
 0002:00009600       ??_C@_0N@OEKLCFMN@StfKickRight@ 300bb600     bg_saber.obj
 0002:00009610       ??_C@_0M@IADBNCJI@StfKickLeft@ 300bb610     bg_saber.obj
 0002:0000961c       ??_C@_0M@LODHMIIA@StfKickSpin@ 300bb61c     bg_saber.obj
 0002:00009628       ??_C@_0N@NIILEKHB@StfKickBkFwd@ 300bb628     bg_saber.obj
 0002:00009638       ??_C@_0N@JEMEOOKN@StfKickSplit@ 300bb638     bg_saber.obj
 0002:00009648       ??_C@_0O@NMBBHPCN@StfKickFwdAir@ 300bb648     bg_saber.obj
 0002:00009658       ??_C@_0P@DLMPDNCN@StfKickBackAir@ 300bb658     bg_saber.obj
 0002:00009668       ??_C@_0BA@EJCHHLPD@StfKickRightAir@ 300bb668     bg_saber.obj
 0002:00009678       ??_C@_0P@GIHHJKOM@StfKickLeftAir@ 300bb678     bg_saber.obj
 0002:00009688       ??_C@_08HGDIMBKI@StabDown@ 300bb688     bg_saber.obj
 0002:00009694       ??_C@_0M@JEGPPONO@StabDownStf@ 300bb694     bg_saber.obj
 0002:000096a0       ??_C@_0N@MHIEIOPE@StabDownDual@ 300bb6a0     bg_saber.obj
 0002:000096b0       ??_C@_0N@KBDLODPM@dualspinprot@ 300bb6b0     bg_saber.obj
 0002:000096c0       ??_C@_0L@NHJJEIC@StfSoulCal@ 300bb6c0     bg_saber.obj
 0002:000096cc       ??_C@_0M@GOKDABKC@specialfast@ 300bb6cc     bg_saber.obj
 0002:000096d8       ??_C@_0L@EKOEFLPJ@specialmed@ 300bb6d8     bg_saber.obj
 0002:000096e4       ??_C@_0L@PLFOAHMF@specialstr@ 300bb6e4     bg_saber.obj
 0002:000096f0       ??_C@_0N@LJBLOMAE@upsidedwnatk@ 300bb6f0     bg_saber.obj
 0002:00009700       ??_C@_0M@HMDNHOPJ@pullatkstab@ 300bb700     bg_saber.obj
 0002:0000970c       ??_C@_0N@GFKPCBPN@pullatkswing@ 300bb70c     bg_saber.obj
 0002:0000971c       ??_C@_0N@PCBIMGO@AloraSpinAtk@ 300bb71c     bg_saber.obj
 0002:0000972c       ??_C@_0M@BHONLNJO@Dual?5FB?5Atk@ 300bb72c     bg_saber.obj
 0002:00009738       ??_C@_0M@LAELOAEL@Dual?5LR?5Atk@ 300bb738     bg_saber.obj
 0002:00009744       ??_C@_0M@HBLMDLAK@StfHiltBash@ 300bb744     bg_saber.obj
 0002:00009750       ??_C@_08PCFOCMBL@TL2BR?5St@ 300bb750     bg_saber.obj
 0002:0000975c       ??_C@_06GPMCIGKE@L2R?5St@  300bb75c     bg_saber.obj
 0002:00009764       ??_C@_08PIALPGGG@BL2TR?5St@ 300bb764     bg_saber.obj
 0002:00009770       ??_C@_08EOOKPMJM@BR2TL?5St@ 300bb770     bg_saber.obj
 0002:0000977c       ??_C@_06IHPDEINE@R2L?5St@  300bb77c     bg_saber.obj
 0002:00009784       ??_C@_08EELPCGOB@TR2BL?5St@ 300bb784     bg_saber.obj
 0002:00009790       ??_C@_06FLBDMDIP@T2B?5St@  300bb790     bg_saber.obj
 0002:00009798       ??_C@_09GEJMIFBA@TL2BR?5Ret@ 300bb798     bg_saber.obj
 0002:000097a4       ??_C@_07DPNPLHKH@L2R?5Ret@ 300bb7a4     bg_saber.obj
 0002:000097ac       ??_C@_09EKCCNNEL@BL2TR?5Ret@ 300bb7ac     bg_saber.obj
 0002:000097b8       ??_C@_09BHPMCHED@BR2TL?5Ret@ 300bb7b8     bg_saber.obj
 0002:000097c4       ??_C@_07GPDCPHFF@R2L?5Ret@ 300bb7c4     bg_saber.obj
 0002:000097cc       ??_C@_09DJECHPBI@TR2BL?5Ret@ 300bb7cc     bg_saber.obj
 0002:000097d8       ??_C@_07JDFHJPKC@T2B?5Ret@ 300bb7d8     bg_saber.obj
 0002:000097e0       ??_C@_0L@KOAIDIAM@BR2R?5Trans@ 300bb7e0     bg_saber.obj
 0002:000097ec       ??_C@_0M@DCGKFOHF@BR2TR?5Trans@ 300bb7ec     bg_saber.obj
 0002:000097f8       ??_C@_0L@GIGHDBIL@BR2T?5Trans@ 300bb7f8     bg_saber.obj
 0002:00009804       ??_C@_0M@FLFLHNGM@BR2TL?5Trans@ 300bb804     bg_saber.obj
 0002:00009810       ??_C@_0L@MHDJBLBF@BR2L?5Trans@ 300bb810     bg_saber.obj
 0002:0000981c       ??_C@_0M@IEIBEGJH@BR2BL?5Trans@ 300bb81c     bg_saber.obj
 0002:00009828       ??_C@_0L@CBLKDLGC@R2BR?5Trans@ 300bb828     bg_saber.obj
 0002:00009834       ??_C@_0L@POGAAAJJ@R2TR?5Trans@ 300bb834     bg_saber.obj
 0002:00009840       ??_C@_09GOEOEIDP@R2T?5Trans@ 300bb840     bg_saber.obj
 0002:0000984c       ??_C@_0L@JHFBCDIA@R2TL?5Trans@ 300bb84c     bg_saber.obj
 0002:00009858       ??_C@_09MBBAGCKB@R2L?5Trans@ 300bb858     bg_saber.obj
 0002:00009864       ??_C@_0L@EIILBIHL@R2BL?5Trans@ 300bb864     bg_saber.obj
 0002:00009870       ??_C@_0M@OJFCNJC@TR2BR?5Trans@ 300bb870     bg_saber.obj
 0002:0000987c       ??_C@_0L@OIELDGIE@TR2R?5Trans@ 300bb87c     bg_saber.obj
 0002:00009888       ??_C@_0L@COCEDPAD@TR2T?5Trans@ 300bb888     bg_saber.obj
 0002:00009894       ??_C@_0M@LIHODFHA@TR2TL?5Trans@ 300bb894     bg_saber.obj
 0002:000098a0       ??_C@_0L@IBHKBFJN@TR2L?5Trans@ 300bb8a0     bg_saber.obj
 0002:000098ac       ??_C@_0M@GHKEAOIL@TR2BL?5Trans@ 300bb8ac     bg_saber.obj
 0002:000098b8       ??_C@_0L@MJAPPBCB@T2BR?5Trans@ 300bb8b8     bg_saber.obj
 0002:000098c4       ??_C@_09KFDPDBPP@T2R?5Trans@ 300bb8c4     bg_saber.obj
 0002:000098d0       ??_C@_0L@BGNFMKNK@T2TR?5Trans@ 300bb8d0     bg_saber.obj
 0002:000098dc       ??_C@_0L@HPOEOJMD@T2TL?5Trans@ 300bb8dc     bg_saber.obj
 0002:000098e8       ??_C@_09MMAOBCOG@T2L?5Trans@ 300bb8e8     bg_saber.obj
 0002:000098f4       ??_C@_0L@KADONCDI@T2BL?5Trans@ 300bb8f4     bg_saber.obj
 0002:00009900       ??_C@_0M@PCBFMCFP@TL2BR?5Trans@ 300bb900     bg_saber.obj
 0002:0000990c       ??_C@_0L@NBCMIHNP@TL2R?5Trans@ 300bb90c     bg_saber.obj
 0002:00009918       ??_C@_0M@CNMPPJKE@TL2TR?5Trans@ 300bb918     bg_saber.obj
 0002:00009924       ??_C@_0L@BHEDIOFI@TL2T?5Trans@ 300bb924     bg_saber.obj
 0002:00009930       ??_C@_0L@LIBNKEMG@TL2L?5Trans@ 300bb930     bg_saber.obj
 0002:0000993c       ??_C@_0M@JLCEOBEG@TL2BL?5Trans@ 300bb93c     bg_saber.obj
 0002:00009948       ??_C@_0L@NNDKNEKP@L2BR?5Trans@ 300bb948     bg_saber.obj
 0002:00009954       ??_C@_09JBEGPAOD@L2R?5Trans@ 300bb954     bg_saber.obj
 0002:00009960       ??_C@_0L@COAOPFE@L2TR?5Trans@ 300bb960     bg_saber.obj
 0002:0000996c       ??_C@_09FHCJPJGE@L2T?5Trans@ 300bb96c     bg_saber.obj
 0002:00009978       ??_C@_0L@GLNBMMEN@L2TL?5Trans@ 300bb978     bg_saber.obj
 0002:00009984       ??_C@_0L@LEALPHLG@L2BL?5Trans@ 300bb984     bg_saber.obj
 0002:00009990       ??_C@_0M@BBDAIKED@BL2BR?5Trans@ 300bb990     bg_saber.obj
 0002:0000999c       ??_C@_0L@JHGPIJFH@BL2R?5Trans@ 300bb99c     bg_saber.obj
 0002:000099a8       ??_C@_0M@MOOKLBLI@BL2TR?5Trans@ 300bb9a8     bg_saber.obj
 0002:000099b4       ??_C@_0L@FBAAIANA@BL2T?5Trans@ 300bb9b4     bg_saber.obj
 0002:000099c0       ??_C@_0M@KHNLJCKB@BL2TL?5Trans@ 300bb9c0     bg_saber.obj
 0002:000099cc       ??_C@_0L@POFOKKEO@BL2L?5Trans@ 300bb9cc     bg_saber.obj
 0002:000099d8       ??_C@_09LOMKOKKC@Bounce?5BR@ 300bb9d8     bg_saber.obj
 0002:000099e4       ??_C@_08OFNJAPL@Bounce?5R@ 300bb9e4     bg_saber.obj
 0002:000099f0       ??_C@_09KGGBDFGA@Bounce?5TR@ 300bb9f0     bg_saber.obj
 0002:000099fc       ??_C@_08FIAHDHHN@Bounce?5T@ 300bb9fc     bg_saber.obj
 0002:00009a08       ??_C@_09HCCAAKLP@Bounce?5TL@ 300bba08     bg_saber.obj
 0002:00009a14       ??_C@_08NKBMKPCE@Bounce?5L@ 300bba14     bg_saber.obj
 0002:00009a20       ??_C@_09GKILNFHN@Bounce?5BL@ 300bba20     bg_saber.obj
 0002:00009a2c       ??_C@_0L@GNAHDHGP@Deflect?5BR@ 300bba2c     bg_saber.obj
 0002:00009a38       ??_C@_09BFHEKGJM@Deflect?5R@ 300bba38     bg_saber.obj
 0002:00009a44       ??_C@_0L@HFKMOIKN@Deflect?5TR@ 300bba44     bg_saber.obj
 0002:00009a50       ??_C@_09EDCOABBK@Deflect?5T@ 300bba50     bg_saber.obj
 0002:00009a5c       ??_C@_0L@KBONNHHC@Deflect?5TL@ 300bba5c     bg_saber.obj
 0002:00009a68       ??_C@_09MBDFJJED@Deflect?5L@ 300bba68     bg_saber.obj
 0002:00009a74       ??_C@_0L@LJEGAILA@Deflect?5BL@ 300bba74     bg_saber.obj
 0002:00009a80       ??_C@_09FPLGLEMN@Deflect?5B@ 300bba80     bg_saber.obj
 0002:00009a8c       ??_C@_0N@GFILIJHD@Reflected?5BR@ 300bba8c     bg_saber.obj
 0002:00009a9c       ??_C@_0M@PEPHJHNB@Reflected?5R@ 300bba9c     bg_saber.obj
 0002:00009aa8       ??_C@_0N@HNCAFGLB@Reflected?5TR@ 300bbaa8     bg_saber.obj
 0002:00009ab8       ??_C@_0M@KCKNDAFH@Reflected?5T@ 300bbab8     bg_saber.obj
 0002:00009ac4       ??_C@_0N@KJGBGJGO@Reflected?5TL@ 300bbac4     bg_saber.obj
 0002:00009ad4       ??_C@_0M@CALGKIAO@Reflected?5L@ 300bbad4     bg_saber.obj
 0002:00009ae0       ??_C@_0N@LBMKLGKM@Reflected?5BL@ 300bbae0     bg_saber.obj
 0002:00009af0       ??_C@_0M@LODFIFIA@Reflected?5B@ 300bbaf0     bg_saber.obj
 0002:00009afc       ??_C@_0L@LIOFLEGO@BParry?5Top@ 300bbafc     bg_saber.obj
 0002:00009b08       ??_C@_09GDDODCIC@BParry?5UR@ 300bbb08     bg_saber.obj
 0002:00009b14       ??_C@_09LHHPANFN@BParry?5UL@ 300bbb14     bg_saber.obj
 0002:00009b20       ??_C@_09HAMJKKHN@BParry?5LR@ 300bbb20     bg_saber.obj
 0002:00009b2c       ??_C@_0L@KJPLHJCJ@BParry?5Bot@ 300bbb2c     bg_saber.obj
 0002:00009b38       ??_C@_09KEIIJFKC@BParry?5LL@ 300bbb38     bg_saber.obj
 0002:00009b44       ??_C@_09NGDCGIAE@Knock?5Top@ 300bbb44     bg_saber.obj
 0002:00009b50       ??_C@_08NPOELPBF@Knock?5UR@ 300bbb50     bg_saber.obj
 0002:00009b5c       ??_C@_08LKFIAMK@Knock?5UL@ 300bbb5c     bg_saber.obj
 0002:00009b68       ??_C@_08MMBDCHOK@Knock?5LR@ 300bbb68     bg_saber.obj
 0002:00009b74       ??_C@_08BIFCBIDF@Knock?5LL@ 300bbb74     bg_saber.obj
 0002:00009b80       ??_C@_09LOMMMNNK@Parry?5Top@ 300bbb80     bg_saber.obj
 0002:00009b8c       ??_C@_08PMPCJJMH@Parry?5UR@ 300bbb8c     bg_saber.obj
 0002:00009b98       ??_C@_08CILDKGBI@Parry?5UL@ 300bbb98     bg_saber.obj
 0002:00009ba4       ??_C@_08OPAFABDI@Parry?5LR@ 300bbba4     bg_saber.obj
 0002:00009bb0       ??_C@_08DLEEDOOH@Parry?5LL@ 300bbbb0     bg_saber.obj
 0002:00009bbc       ??_C@_0M@EILLDEJE@Reflect?5Top@ 300bbbbc     bg_saber.obj
 0002:00009bc8       ??_C@_0L@DCCNIMBC@Reflect?5UR@ 300bbbc8     bg_saber.obj
 0002:00009bd4       ??_C@_0L@OGGMLDMN@Reflect?5UL@ 300bbbd4     bg_saber.obj
 0002:00009be0       ??_C@_0L@CBNKBEON@Reflect?5LR@ 300bbbe0     bg_saber.obj
 0002:00009bec       ??_C@_0L@PFJLCLDC@Reflect?5LL@ 300bbbec     bg_saber.obj
 0002:00009bf8       __real@4054000000000000    300bbbf8     bg_saber.obj
 0002:00009c00       __real@41100000            300bbc00     bg_saber.obj
 0002:00009c04       __real@42960000            300bbc04     bg_saber.obj
 0002:00009c08       __real@43240000            300bbc08     bg_saber.obj
 0002:00009c0c       __real@433e0000            300bbc0c     bg_saber.obj
 0002:00009c10       __real@45c80000            300bbc10     bg_saber.obj
 0002:00009c14       ??_C@_0L@PGJIJNF@SABER_NONE@ 300bbc14     bg_saberLoad.obj
 0002:00009c20       ??_C@_0N@OGPMBMML@SABER_SINGLE@ 300bbc20     bg_saberLoad.obj
 0002:00009c30       ??_C@_0M@KCMILOII@SABER_STAFF@ 300bbc30     bg_saberLoad.obj
 0002:00009c3c       ??_C@_0M@DCKEJJCC@SABER_BROAD@ 300bbc3c     bg_saberLoad.obj
 0002:00009c48       ??_C@_0M@FMMLCOEM@SABER_PRONG@ 300bbc48     bg_saberLoad.obj
 0002:00009c54       ??_C@_0N@KPJEOBIO@SABER_DAGGER@ 300bbc54     bg_saberLoad.obj
 0002:00009c64       ??_C@_09JGPFAKGO@SABER_ARC@ 300bbc64     bg_saberLoad.obj
 0002:00009c70       ??_C@_09IIGKGANJ@SABER_SAI@ 300bbc70     bg_saberLoad.obj
 0002:00009c7c       ??_C@_0L@JGOENFGE@SABER_CLAW@ 300bbc7c     bg_saberLoad.obj
 0002:00009c88       ??_C@_0M@INMNJHEK@SABER_LANCE@ 300bbc88     bg_saberLoad.obj
 0002:00009c94       ??_C@_0L@BONOMJND@SABER_STAR@ 300bbc94     bg_saberLoad.obj
 0002:00009ca0       ??_C@_0O@JGGDFEFK@SABER_TRIDENT@ 300bbca0     bg_saberLoad.obj
 0002:00009cb0       ??_C@_0L@BANMOAON@LS_INVALID@ 300bbcb0     bg_saberLoad.obj
 0002:00009cbc       ??_C@_07NILEALPF@LS_NONE@  300bbcbc     bg_saberLoad.obj
 0002:00009cc4       ??_C@_08MBHDPEKF@LS_READY@ 300bbcc4     bg_saberLoad.obj
 0002:00009cd0       ??_C@_07EDNPKLPI@LS_DRAW@  300bbcd0     bg_saberLoad.obj
 0002:00009cd8       ??_C@_0L@CNFOEOOI@LS_PUTAWAY@ 300bbcd8     bg_saberLoad.obj
 0002:00009ce4       ??_C@_0L@CMOFIEAB@LS_A_TL2BR@ 300bbce4     bg_saberLoad.obj
 0002:00009cf0       ??_C@_08CPIDBOEH@LS_A_L2R@ 300bbcf0     bg_saberLoad.obj
 0002:00009cfc       ??_C@_0L@OBMBLKEF@LS_A_BL2TR@ 300bbcfc     bg_saberLoad.obj
 0002:00009d08       ??_C@_0L@OKFAKMHJ@LS_A_BR2TL@ 300bbd08     bg_saberLoad.obj
 0002:00009d14       ??_C@_08ELAEABDE@LS_A_R2L@ 300bbd14     bg_saberLoad.obj
 0002:00009d20       ??_C@_0L@CHHEJCDN@LS_A_TR2BL@ 300bbd20     bg_saberLoad.obj
 0002:00009d2c       ??_C@_08PAOMHDGG@LS_A_T2B@ 300bbd2c     bg_saberLoad.obj
 0002:00009d38       ??_C@_0O@GNJKPOOL@LS_A_BACKSTAB@ 300bbd38     bg_saberLoad.obj
 0002:00009d48       ??_C@_09CAEELJLH@LS_A_BACK@ 300bbd48     bg_saberLoad.obj
 0002:00009d54       ??_C@_0N@ONJIGLHG@LS_A_BACK_CR@ 300bbd54     bg_saberLoad.obj
 0002:00009d64       ??_C@_0N@EDFPDPID@LS_ROLL_STAB@ 300bbd64     bg_saberLoad.obj
 0002:00009d74       ??_C@_0L@IMDBKIFN@LS_A_LUNGE@ 300bbd74     bg_saberLoad.obj
 0002:00009d80       ??_C@_0BA@GOCEHKHO@LS_A_JUMP_T__B_@ 300bbd80     bg_saberLoad.obj
 0002:00009d90       ??_C@_0P@FJCEBKMH@LS_A_FLIP_STAB@ 300bbd90     bg_saberLoad.obj
 0002:00009da0       ??_C@_0BA@HAINKDAA@LS_A_FLIP_SLASH@ 300bbda0     bg_saberLoad.obj
 0002:00009db0       ??_C@_0BD@JIFEIOCK@LS_JUMPATTACK_DUAL@ 300bbdb0     bg_saberLoad.obj
 0002:00009dc4       ??_C@_0BJ@EJKCIIKG@LS_JUMPATTACK_ARIAL_LEFT@ 300bbdc4     bg_saberLoad.obj
 0002:00009de0       ??_C@_0BK@LAIHIPJO@LS_JUMPATTACK_ARIAL_RIGHT@ 300bbde0     bg_saberLoad.obj
 0002:00009dfc       ??_C@_0BI@IHPOFCPB@LS_JUMPATTACK_CART_LEFT@ 300bbdfc     bg_saberLoad.obj
 0002:00009e14       ??_C@_0BJ@EFEGBHBD@LS_JUMPATTACK_CART_RIGHT@ 300bbe14     bg_saberLoad.obj
 0002:00009e30       ??_C@_0BJ@KHELHBKE@LS_JUMPATTACK_STAFF_LEFT@ 300bbe30     bg_saberLoad.obj
 0002:00009e4c       ??_C@_0BK@FOGHAHEL@LS_JUMPATTACK_STAFF_RIGHT@ 300bbe4c     bg_saberLoad.obj
 0002:00009e68       ??_C@_0BC@EPONEONH@LS_BUTTERFLY_LEFT@ 300bbe68     bg_saberLoad.obj
 0002:00009e7c       ??_C@_0BD@JHIDIBPC@LS_BUTTERFLY_RIGHT@ 300bbe7c     bg_saberLoad.obj
 0002:00009e90       ??_C@_0BC@NDKCFACB@LS_A_BACKFLIP_ATK@ 300bbe90     bg_saberLoad.obj
 0002:00009ea4       ??_C@_0BD@MHMCCFJA@LS_SPINATTACK_DUAL@ 300bbea4     bg_saberLoad.obj
 0002:00009eb8       ??_C@_0O@FDMAOBOA@LS_SPINATTACK@ 300bbeb8     bg_saberLoad.obj
 0002:00009ec8       ??_C@_0P@DFOBGGPF@LS_LEAP_ATTACK@ 300bbec8     bg_saberLoad.obj
 0002:00009ed8       ??_C@_0BG@ELLOHBDB@LS_SWOOP_ATTACK_RIGHT@ 300bbed8     bg_saberLoad.obj
 0002:00009ef0       ??_C@_0BF@KEBAECPJ@LS_SWOOP_ATTACK_LEFT@ 300bbef0     bg_saberLoad.obj
 0002:00009f08       ??_C@_0BJ@MJBNLGBI@LS_TAUNTAUN_ATTACK_RIGHT@ 300bbf08     bg_saberLoad.obj
 0002:00009f24       ??_C@_0BI@PCDKKKP@LS_TAUNTAUN_ATTACK_LEFT@ 300bbf24     bg_saberLoad.obj
 0002:00009f3c       ??_C@_09KDPEOKPC@LS_KICK_F@ 300bbf3c     bg_saberLoad.obj
 0002:00009f48       ??_C@_09MHJICPPG@LS_KICK_B@ 300bbf48     bg_saberLoad.obj
 0002:00009f54       ??_C@_09INFKDNKH@LS_KICK_R@ 300bbf54     bg_saberLoad.obj
 0002:00009f60       ??_C@_09FJBLACHI@LS_KICK_L@ 300bbf60     bg_saberLoad.obj
 0002:00009f6c       ??_C@_09JEEBAMOG@LS_KICK_S@ 300bbf6c     bg_saberLoad.obj
 0002:00009f78       ??_C@_0L@PCDKCHIF@LS_KICK_BF@ 300bbf78     bg_saberLoad.obj
 0002:00009f84       ??_C@_0L@BEPDGMHP@LS_KICK_RL@ 300bbf84     bg_saberLoad.obj
 0002:00009f90       ??_C@_0O@NJDILDGK@LS_KICK_F_AIR@ 300bbf90     bg_saberLoad.obj
 0002:00009fa0       ??_C@_0O@ECKJPBHM@LS_KICK_B_AIR@ 300bbfa0     bg_saberLoad.obj
 0002:00009fb0       ??_C@_0O@EBHPPDOH@LS_KICK_R_AIR@ 300bbfb0     bg_saberLoad.obj
 0002:00009fc0       ??_C@_0O@HIKDJAAM@LS_KICK_L_AIR@ 300bbfc0     bg_saberLoad.obj
 0002:00009fd0       ??_C@_0M@ELFCBMHI@LS_STABDOWN@ 300bbfd0     bg_saberLoad.obj
 0002:00009fdc       ??_C@_0BC@DMCCPMIC@LS_STABDOWN_STAFF@ 300bbfdc     bg_saberLoad.obj
 0002:00009ff0       ??_C@_0BB@CODEHDPM@LS_STABDOWN_DUAL@ 300bbff0     bg_saberLoad.obj
 0002:0000a004       ??_C@_0BF@LBNOEGOG@LS_DUAL_SPIN_PROTECT@ 300bc004     bg_saberLoad.obj
 0002:0000a01c       ??_C@_0BB@PAHMPHJI@LS_STAFF_SOULCAL@ 300bc01c     bg_saberLoad.obj
 0002:0000a030       ??_C@_0O@PBIJILDF@LS_A1_SPECIAL@ 300bc030     bg_saberLoad.obj
 0002:0000a040       ??_C@_0O@BKLODADG@LS_A2_SPECIAL@ 300bc040     bg_saberLoad.obj
 0002:0000a050       ??_C@_0O@PFHMFLAI@LS_A3_SPECIAL@ 300bc050     bg_saberLoad.obj
 0002:0000a060       ??_C@_0BG@ONIDDAHL@LS_UPSIDE_DOWN_ATTACK@ 300bc060     bg_saberLoad.obj
 0002:0000a078       ??_C@_0BE@DFLMECJA@LS_PULL_ATTACK_STAB@ 300bc078     bg_saberLoad.obj
 0002:0000a08c       ??_C@_0BF@MEAMFNJP@LS_PULL_ATTACK_SWING@ 300bc08c     bg_saberLoad.obj
 0002:0000a0a4       ??_C@_0BE@NCPALCCM@LS_SPINATTACK_ALORA@ 300bc0a4     bg_saberLoad.obj
 0002:0000a0b8       ??_C@_0L@BHOJNDFA@LS_DUAL_FB@ 300bc0b8     bg_saberLoad.obj
 0002:0000a0c4       ??_C@_0L@FALMEENH@LS_DUAL_LR@ 300bc0c4     bg_saberLoad.obj
 0002:0000a0d0       ??_C@_0N@ILPCADIK@LS_HILT_BASH@ 300bc0d0     bg_saberLoad.obj
 0002:0000a0e0       ??_C@_0L@BCHLLCFH@LS_S_TL2BR@ 300bc0e0     bg_saberLoad.obj
 0002:0000a0ec       ??_C@_08GBJNLNNH@LS_S_L2R@ 300bc0ec     bg_saberLoad.obj
 0002:0000a0f8       ??_C@_0L@NPFPIMBD@LS_S_BL2TR@ 300bc0f8     bg_saberLoad.obj
 0002:0000a104       ??_C@_0L@NEMOJKCP@LS_S_BR2TL@ 300bc104     bg_saberLoad.obj
 0002:0000a110       ??_C@_08FBKKCKE@LS_S_R2L@  300bc110     bg_saberLoad.obj
 0002:0000a11c       ??_C@_0L@BJOKKEGL@LS_S_TR2BL@ 300bc11c     bg_saberLoad.obj
 0002:0000a128       ??_C@_08LOPCNAPG@LS_S_T2B@ 300bc128     bg_saberLoad.obj
 0002:0000a134       ??_C@_0L@NONBLCMJ@LS_R_TL2BR@ 300bc134     bg_saberLoad.obj
 0002:0000a140       ??_C@_08KKMBGOHC@LS_R_L2R@ 300bc140     bg_saberLoad.obj
 0002:0000a14c       ??_C@_0L@BDPFIMIN@LS_R_BL2TR@ 300bc14c     bg_saberLoad.obj
 0002:0000a158       ??_C@_0L@BIGEJKLB@LS_R_BR2TL@ 300bc158     bg_saberLoad.obj
 0002:0000a164       ??_C@_08MOEGHBAB@LS_R_R2L@ 300bc164     bg_saberLoad.obj
 0002:0000a170       ??_C@_0L@NFEAKEPF@LS_R_TR2BL@ 300bc170     bg_saberLoad.obj
 0002:0000a17c       ??_C@_08HFKOADFD@LS_R_T2B@ 300bc17c     bg_saberLoad.obj
 0002:0000a188       ??_C@_0M@NHAEABKF@LS_T1_BR__R@ 300bc188     bg_saberLoad.obj
 0002:0000a194       ??_C@_0M@NLFBOOEE@LS_T1_BR_TR@ 300bc194     bg_saberLoad.obj
 0002:0000a1a0       ??_C@_0M@GOPPJAAJ@LS_T1_BR_T_@ 300bc1a0     bg_saberLoad.obj
 0002:0000a1ac       ??_C@_0M@PBANBJL@LS_T1_BR_TL@ 300bc1ac     bg_saberLoad.obj
 0002:0000a1b8       ??_C@_0M@DEFDOHK@LS_T1_BR__L@ 300bc1b8     bg_saberLoad.obj
 0002:0000a1c4       ??_C@_0M@BHLLAOFJ@LS_T1_BR_BL@ 300bc1c4     bg_saberLoad.obj
 0002:0000a1d0       ??_C@_0M@HMLCCAMD@LS_T1__R_BR@ 300bc1d0     bg_saberLoad.obj
 0002:0000a1dc       ??_C@_0M@GEBJPPAB@LS_T1__R_TR@ 300bc1dc     bg_saberLoad.obj
 0002:0000a1e8       ??_C@_0M@NBLHIBEM@LS_T1__R_T_@ 300bc1e8     bg_saberLoad.obj
 0002:0000a1f4       ??_C@_0M@LAFIMANO@LS_T1__R_TL@ 300bc1f4     bg_saberLoad.obj
 0002:0000a200       ??_C@_0M@LMANCPDP@LS_T1__R__L@ 300bc200     bg_saberLoad.obj
 0002:0000a20c       ??_C@_0M@KIPDBPBM@LS_T1__R_BL@ 300bc20c     bg_saberLoad.obj
 0002:0000a218       ??_C@_0M@BGHFNAAA@LS_T1_TR_BR@ 300bc218     bg_saberLoad.obj
 0002:0000a224       ??_C@_0M@CILOACD@LS_T1_TR__R@ 300bc224     bg_saberLoad.obj
 0002:0000a230       ??_C@_0M@LLHAHBIP@LS_T1_TR_T_@ 300bc230     bg_saberLoad.obj
 0002:0000a23c       ??_C@_0M@NKJPDABN@LS_T1_TR_TL@ 300bc23c     bg_saberLoad.obj
 0002:0000a248       ??_C@_0M@NGMKNPPM@LS_T1_TR__L@ 300bc248     bg_saberLoad.obj
 0002:0000a254       ??_C@_0M@MCDEOPNP@LS_T1_TR_BL@ 300bc254     bg_saberLoad.obj
 0002:0000a260       ??_C@_0M@OOOFBELB@LS_T1_T__BR@ 300bc260     bg_saberLoad.obj
 0002:0000a26c       ??_C@_0M@PKBLCEJC@LS_T1_T___R@ 300bc26c     bg_saberLoad.obj
 0002:0000a278       ??_C@_0M@PGEOMLHD@LS_T1_T__TR@ 300bc278     bg_saberLoad.obj
 0002:0000a284       ??_C@_0M@CCAPPEKM@LS_T1_T__TL@ 300bc284     bg_saberLoad.obj
 0002:0000a290       ??_C@_0M@COFKBLEN@LS_T1_T___L@ 300bc290     bg_saberLoad.obj
 0002:0000a29c       ??_C@_0M@DKKECLGO@LS_T1_T__BL@ 300bc29c     bg_saberLoad.obj
 0002:0000a2a8       ??_C@_0M@MJKFPJOD@LS_T1_TL_BR@ 300bc2a8     bg_saberLoad.obj
 0002:0000a2b4       ??_C@_0M@NNFLMJMA@LS_T1_TL__R@ 300bc2b4     bg_saberLoad.obj
 0002:0000a2c0       ??_C@_0M@NBAOCGCB@LS_T1_TL_TR@ 300bc2c0     bg_saberLoad.obj
 0002:0000a2cc       ??_C@_0M@GEKAFIGM@LS_T1_TL_T_@ 300bc2cc     bg_saberLoad.obj
 0002:0000a2d8       ??_C@_0M@JBKPGBP@LS_T1_TL__L@ 300bc2d8     bg_saberLoad.obj
 0002:0000a2e4       ??_C@_0M@BNOEMGDM@LS_T1_TL_BL@ 300bc2e4     bg_saberLoad.obj
 0002:0000a2f0       ??_C@_0M@KDGCAJCA@LS_T1__L_BR@ 300bc2f0     bg_saberLoad.obj
 0002:0000a2fc       ??_C@_0M@LHJMDJAD@LS_T1__L__R@ 300bc2fc     bg_saberLoad.obj
 0002:0000a308       ??_C@_0M@LLMJNGOC@LS_T1__L_TR@ 300bc308     bg_saberLoad.obj
 0002:0000a314       ??_C@_0M@OGHKIKP@LS_T1__L_T_@ 300bc314     bg_saberLoad.obj
 0002:0000a320       ??_C@_0M@GPIIOJDN@LS_T1__L_TL@ 300bc320     bg_saberLoad.obj
 0002:0000a32c       ??_C@_0M@HHCDDGPP@LS_T1__L_BL@ 300bc32c     bg_saberLoad.obj
 0002:0000a338       ??_C@_0M@BMCKBIGF@LS_T1_BL_BR@ 300bc338     bg_saberLoad.obj
 0002:0000a344       ??_C@_0M@INECIEG@LS_T1_BL__R@ 300bc344     bg_saberLoad.obj
 0002:0000a350       ??_C@_0M@EIBMHKH@LS_T1_BL_TR@ 300bc350     bg_saberLoad.obj
 0002:0000a35c       ??_C@_0M@LBCPLJOK@LS_T1_BL_T_@ 300bc35c     bg_saberLoad.obj
 0002:0000a368       ??_C@_0M@NAMAPIHI@LS_T1_BL_TL@ 300bc368     bg_saberLoad.obj
 0002:0000a374       ??_C@_0M@NMJFBHJJ@LS_T1_BL__L@ 300bc374     bg_saberLoad.obj
 0002:0000a380       ??_C@_08JJEIDFOE@LS_B1_BR@ 300bc380     bg_saberLoad.obj
 0002:0000a38c       ??_C@_08INLGAFMH@LS_B1__R@ 300bc38c     bg_saberLoad.obj
 0002:0000a398       ??_C@_08IBODOKCG@LS_B1_TR@ 300bc398     bg_saberLoad.obj
 0002:0000a3a4       ??_C@_08DEENJEGL@LS_B1_T_@ 300bc3a4     bg_saberLoad.obj
 0002:0000a3b0       ??_C@_08FFKCNFPJ@LS_B1_TL@ 300bc3b0     bg_saberLoad.obj
 0002:0000a3bc       ??_C@_08FJPHDKBI@LS_B1__L@ 300bc3bc     bg_saberLoad.obj
 0002:0000a3c8       ??_C@_08ENAJAKDL@LS_B1_BL@ 300bc3c8     bg_saberLoad.obj
 0002:0000a3d4       ??_C@_08EPBBNGPJ@LS_D1_BR@ 300bc3d4     bg_saberLoad.obj
 0002:0000a3e0       ??_C@_08FLOPOGNK@LS_D1__R@ 300bc3e0     bg_saberLoad.obj
 0002:0000a3ec       ??_C@_08FHLKAJDL@LS_D1_TR@ 300bc3ec     bg_saberLoad.obj
 0002:0000a3f8       ??_C@_08OCBEHHHG@LS_D1_T_@ 300bc3f8     bg_saberLoad.obj
 0002:0000a404       ??_C@_08IDPLDGOE@LS_D1_TL@ 300bc404     bg_saberLoad.obj
 0002:0000a410       ??_C@_08IPKONJAF@LS_D1__L@ 300bc410     bg_saberLoad.obj
 0002:0000a41c       ??_C@_08JLFAOJCG@LS_D1_BL@ 300bc41c     bg_saberLoad.obj
 0002:0000a428       ??_C@_08PKLPKILE@LS_D1_B_@ 300bc428     bg_saberLoad.obj
 0002:0000a434       ??_C@_08BAPHFGJ@LS_V1_BR@  300bc434     bg_saberLoad.obj
 0002:0000a440       ??_C@_08BFPBEFEK@LS_V1__R@ 300bc440     bg_saberLoad.obj
 0002:0000a44c       ??_C@_08BJKEKKKL@LS_V1_TR@ 300bc44c     bg_saberLoad.obj
 0002:0000a458       ??_C@_08KMAKNEOG@LS_V1_T_@ 300bc458     bg_saberLoad.obj
 0002:0000a464       ??_C@_08MNOFJFHE@LS_V1_TL@ 300bc464     bg_saberLoad.obj
 0002:0000a470       ??_C@_08MBLAHKJF@LS_V1__L@ 300bc470     bg_saberLoad.obj
 0002:0000a47c       ??_C@_08NFEOEKLG@LS_V1_BL@ 300bc47c     bg_saberLoad.obj
 0002:0000a488       ??_C@_08LEKBALCE@LS_V1_B_@ 300bc488     bg_saberLoad.obj
 0002:0000a494       ??_C@_08JFNGLHAN@LS_H1_T_@ 300bc494     bg_saberLoad.obj
 0002:0000a4a0       ??_C@_08CAHIMJEA@LS_H1_TR@ 300bc4a0     bg_saberLoad.obj
 0002:0000a4ac       ??_C@_08PEDJPGJP@LS_H1_TL@ 300bc4ac     bg_saberLoad.obj
 0002:0000a4b8       ??_C@_08DINDBGIC@LS_H1_BR@ 300bc4b8     bg_saberLoad.obj
 0002:0000a4c4       ??_C@_08INHNGIMP@LS_H1_B_@ 300bc4c4     bg_saberLoad.obj
 0002:0000a4d0       ??_C@_08OMJCCJFN@LS_H1_BL@ 300bc4d0     bg_saberLoad.obj
 0002:0000a4dc       ??_C@_08BDECMFKD@LS_K1_T_@ 300bc4dc     bg_saberLoad.obj
 0002:0000a4e8       ??_C@_08KGOMLLOO@LS_K1_TR@ 300bc4e8     bg_saberLoad.obj
 0002:0000a4f4       ??_C@_08HCKNIEDB@LS_K1_TL@ 300bc4f4     bg_saberLoad.obj
 0002:0000a500       ??_C@_08LOEHGECM@LS_K1_BR@ 300bc500     bg_saberLoad.obj
 0002:0000a50c       ??_C@_08GKAGFLPD@LS_K1_BL@ 300bc50c     bg_saberLoad.obj
 0002:0000a518       ??_C@_0M@MMIHECH@LS_PARRY_UP@ 300bc518     bg_saberLoad.obj
 0002:0000a524       ??_C@_0M@DOPOBGKF@LS_PARRY_UR@ 300bc524     bg_saberLoad.obj
 0002:0000a530       ??_C@_0M@OKLPCJHK@LS_PARRY_UL@ 300bc530     bg_saberLoad.obj
 0002:0000a53c       ??_C@_0M@CNAJIOFK@LS_PARRY_LR@ 300bc53c     bg_saberLoad.obj
 0002:0000a548       ??_C@_0M@PJEILBIF@LS_PARRY_LL@ 300bc548     bg_saberLoad.obj
 0002:0000a554       ??_C@_0O@CFJCJOOE@LS_REFLECT_UP@ 300bc554     bg_saberLoad.obj
 0002:0000a564       ??_C@_0O@BHKEPMGG@LS_REFLECT_UR@ 300bc564     bg_saberLoad.obj
 0002:0000a574       ??_C@_0O@MDOFMDLJ@LS_REFLECT_UL@ 300bc574     bg_saberLoad.obj
 0002:0000a584       ??_C@_0O@EFDGEJJ@LS_REFLECT_LR@ 300bc584     bg_saberLoad.obj
 0002:0000a594       ??_C@_0O@NABCFLEG@LS_REFLECT_LL@ 300bc594     bg_saberLoad.obj
 0002:0000a5a4       ??_C@_0BA@FOCLBKAP@unexpected?5EOF?6@ 300bc5a4     bg_saberLoad.obj
 0002:0000a5b4       ??_C@_0BO@NBJEGAHB@required?5string?5?8?$CFs?8?5missing?6@ 300bc5b4     bg_saberLoad.obj
 0002:0000a5d4       ??_C@_03FAAAOPJM@red@      300bc5d4     bg_saberLoad.obj
 0002:0000a5d8       ??_C@_06HDDOCMMN@orange@   300bc5d8     bg_saberLoad.obj
 0002:0000a5e0       ??_C@_06ENJNJKEL@yellow@   300bc5e0     bg_saberLoad.obj
 0002:0000a5e8       ??_C@_05GBEEJKMC@green@    300bc5e8     bg_saberLoad.obj
 0002:0000a5f0       ??_C@_04OBGPFBCN@blue@     300bc5f0     bg_saberLoad.obj
 0002:0000a5f8       ??_C@_06GEHONCEN@purple@   300bc5f8     bg_saberLoad.obj
 0002:0000a600       ??_C@_04EDBDANFH@cyan@     300bc600     bg_saberLoad.obj
 0002:0000a608       ??_C@_06NLFCANPD@random@   300bc608     bg_saberLoad.obj
 0002:0000a610       ??_C@_04LBNBHAJC@fast@     300bc610     bg_saberLoad.obj
 0002:0000a618       ??_C@_06HIDOEFBI@medium@   300bc618     bg_saberLoad.obj
 0002:0000a620       ??_C@_06KHACOKFA@strong@   300bc620     bg_saberLoad.obj
 0002:0000a628       ??_C@_06MBIMHMOE@desann@   300bc628     bg_saberLoad.obj
 0002:0000a630       ??_C@_06DBFFGPJE@tavion@   300bc630     bg_saberLoad.obj
 0002:0000a638       ??_C@_04IJNDAMHN@dual@     300bc638     bg_saberLoad.obj
 0002:0000a640       ??_C@_05DDLOIMOJ@staff@    300bc640     bg_saberLoad.obj
 0002:0000a648       ??_C@_04FJIOCDAK@Kyle@     300bc648     bg_saberLoad.obj
 0002:0000a650       ??_C@_0L@CLLBMKKI@lightsaber@ 300bc650     bg_saberLoad.obj
 0002:0000a65c       ??_C@_0CH@BHNNODOL@sound?1weapons?1saber?1enemy_saber@ 300bc65c     bg_saberLoad.obj
 0002:0000a684       ??_C@_0CC@LJCDHDAP@sound?1weapons?1saber?1saberhum3?4w@ 300bc684     bg_saberLoad.obj
 0002:0000a6a8       ??_C@_0CI@MHFGOOAJ@sound?1weapons?1saber?1enemy_saber@ 300bc6a8     bg_saberLoad.obj
 0002:0000a6d0       ??_C@_09KGFNABEN@saberinfo@ 300bc6d0     bg_saberLoad.obj
 0002:0000a6dc       ??_C@_01HCONENDN@?$HL@     300bc6dc     bg_saberLoad.obj
 0002:0000a6e0       ??_C@_0CM@LKMGCIC@?$FO1ERROR?3?5unexpected?5EOF?5while?5p@ 300bc6e0     bg_saberLoad.obj
 0002:0000a70c       ??_C@_01CELHOKLL@?$HN@     300bc70c     bg_saberLoad.obj
 0002:0000a710       ??_C@_04MEMAJGDJ@name@     300bc710     bg_saberLoad.obj
 0002:0000a718       ??_C@_09NAGGCFBE@saberType@ 300bc718     bg_saberLoad.obj
 0002:0000a724       ??_C@_0L@MHEAGHEK@saberModel@ 300bc724     bg_saberLoad.obj
 0002:0000a730       ??_C@_0L@EKGCMDJL@customSkin@ 300bc730     bg_saberLoad.obj
 0002:0000a73c       ??_C@_07IMONDDDH@soundOn@  300bc73c     bg_saberLoad.obj
 0002:0000a744       ??_C@_09LMHPKFJB@soundLoop@ 300bc744     bg_saberLoad.obj
 0002:0000a750       ??_C@_08IFIFNFKF@soundOff@ 300bc750     bg_saberLoad.obj
 0002:0000a75c       ??_C@_09NEDLCGJM@numBlades@ 300bc75c     bg_saberLoad.obj
 0002:0000a768       ??_C@_0EH@EGIFGFD@WP_SaberParseParms?3?5saber?5?$CFs?5ha@ 300bc768     bg_saberLoad.obj
 0002:0000a7b0       ??_C@_0L@OBCIJENM@saberColor@ 300bc7b0     bg_saberLoad.obj
 0002:0000a7bc       ??_C@_0CG@CGJEPIIF@?$FO3WARNING?3?5bad?5saberColor?5?8?$CFs?8?5@ 300bc7bc     bg_saberLoad.obj
 0002:0000a7e4       ??_C@_0M@MOIKADHG@saberLength@ 300bc7e4     bg_saberLoad.obj
 0002:0000a7f0       ??_C@_0CH@KPGIKOPP@?$FO3WARNING?3?5bad?5saberLength?5?8?$CFs?8@ 300bc7f0     bg_saberLoad.obj
 0002:0000a818       ??_C@_0M@GAGBGIMM@saberRadius@ 300bc818     bg_saberLoad.obj
 0002:0000a824       ??_C@_0CH@KBCAKBPO@?$FO3WARNING?3?5bad?5saberRadius?5?8?$CFs?8@ 300bc824     bg_saberLoad.obj
 0002:0000a84c       ??_C@_0L@JFMMKNLG@saberStyle@ 300bc84c     bg_saberLoad.obj
 0002:0000a858       ??_C@_0BC@DDCOJAAO@saberStyleLearned@ 300bc858     bg_saberLoad.obj
 0002:0000a86c       ??_C@_0BE@OMGNGLFP@saberStyleForbidden@ 300bc86c     bg_saberLoad.obj
 0002:0000a880       ??_C@_08GIHANBGF@maxChain@ 300bc880     bg_saberLoad.obj
 0002:0000a88c       ??_C@_08BODNEOME@lockable@ 300bc88c     bg_saberLoad.obj
 0002:0000a898       ??_C@_09ONPKMKJM@throwable@ 300bc898     bg_saberLoad.obj
 0002:0000a8a4       ??_C@_0L@CPEPMKHD@disarmable@ 300bc8a4     bg_saberLoad.obj
 0002:0000a8b0       ??_C@_08NPIAFDOA@blocking@ 300bc8b0     bg_saberLoad.obj
 0002:0000a8bc       ??_C@_09BHFJEHJB@twoHanded@ 300bc8bc     bg_saberLoad.obj
 0002:0000a8c8       ??_C@_0O@IDDONEJ@forceRestrict@ 300bc8c8     bg_saberLoad.obj
 0002:0000a8d8       ??_C@_09FHICMJAA@lockBonus@ 300bc8d8     bg_saberLoad.obj
 0002:0000a8e4       ??_C@_0L@MJIMNAKN@parryBonus@ 300bc8e4     bg_saberLoad.obj
 0002:0000a8f0       ??_C@_0BA@FKMMEMID@breakParryBonus@ 300bc8f0     bg_saberLoad.obj
 0002:0000a900       ??_C@_0BB@JJJLEKKH@breakParryBonus2@ 300bc900     bg_saberLoad.obj
 0002:0000a914       ??_C@_0M@CLGJNKL@disarmBonus@ 300bc914     bg_saberLoad.obj
 0002:0000a920       ??_C@_0N@KMHGJIIM@disarmBonus2@ 300bc920     bg_saberLoad.obj
 0002:0000a930       ??_C@_0BB@MNBBHKPM@singleBladeStyle@ 300bc930     bg_saberLoad.obj
 0002:0000a944       ??_C@_0BF@MFFEBKBA@singleBladeThrowable@ 300bc944     bg_saberLoad.obj
 0002:0000a95c       ??_C@_0N@MAFMJFFN@brokenSaber1@ 300bc95c     bg_saberLoad.obj
 0002:0000a96c       ??_C@_0N@OLHBMGJO@brokenSaber2@ 300bc96c     bg_saberLoad.obj
 0002:0000a97c       ??_C@_0N@BLLLLBJF@returnDamage@ 300bc97c     bg_saberLoad.obj
 0002:0000a98c       ??_C@_09GLMEGEAN@spinSound@ 300bc98c     bg_saberLoad.obj
 0002:0000a998       ??_C@_0M@OLENDEKO@swingSound1@ 300bc998     bg_saberLoad.obj
 0002:0000a9a4       ??_C@_0M@MAGAGHGN@swingSound2@ 300bc9a4     bg_saberLoad.obj
 0002:0000a9b0       ??_C@_0M@NJHLFGCM@swingSound3@ 300bc9b0     bg_saberLoad.obj
 0002:0000a9bc       ??_C@_0P@IOPDDOBC@moveSpeedScale@ 300bc9bc     bg_saberLoad.obj
 0002:0000a9cc       ??_C@_0P@MDHCHDJB@animSpeedScale@ 300bc9cc     bg_saberLoad.obj
 0002:0000a9dc       ??_C@_0O@FCNJCDBE@bounceOnWalls@ 300bc9dc     bg_saberLoad.obj
 0002:0000a9ec       ??_C@_0M@IADKEHHM@boltToWrist@ 300bc9ec     bg_saberLoad.obj
 0002:0000a9f8       ??_C@_08ILNOIMGH@kataMove@ 300bc9f8     bg_saberLoad.obj
 0002:0000aa04       ??_C@_0N@OLLFHDJP@lungeAtkMove@ 300bca04     bg_saberLoad.obj
 0002:0000aa14       ??_C@_0O@DPADFKNO@jumpAtkUpMove@ 300bca14     bg_saberLoad.obj
 0002:0000aa24       ??_C@_0P@OGJOEGIL@jumpAtkFwdMove@ 300bca24     bg_saberLoad.obj
 0002:0000aa34       ??_C@_0BA@BJBMJDFB@jumpAtkBackMove@ 300bca34     bg_saberLoad.obj
 0002:0000aa44       ??_C@_0BB@IGCOPKLJ@jumpAtkRightMove@ 300bca44     bg_saberLoad.obj
 0002:0000aa58       ??_C@_0BA@PFCMNJNA@jumpAtkLeftMove@ 300bca58     bg_saberLoad.obj
 0002:0000aa68       ??_C@_09JOJHIGJB@readyAnim@ 300bca68     bg_saberLoad.obj
 0002:0000aa74       ??_C@_08OENFMDLA@drawAnim@ 300bca74     bg_saberLoad.obj
 0002:0000aa80       ??_C@_0M@BFOJGBIN@putawayAnim@ 300bca80     bg_saberLoad.obj
 0002:0000aa8c       ??_C@_09COHKNEJL@tauntAnim@ 300bca8c     bg_saberLoad.obj
 0002:0000aa98       ??_C@_07EKPFJCKJ@bowAnim@  300bca98     bg_saberLoad.obj
 0002:0000aaa0       ??_C@_0N@BMHFJOOE@meditateAnim@ 300bcaa0     bg_saberLoad.obj
 0002:0000aab0       ??_C@_0N@KBGALCJL@flourishAnim@ 300bcab0     bg_saberLoad.obj
 0002:0000aac0       ??_C@_09IJPFECN@gloatAnim@ 300bcac0     bg_saberLoad.obj
 0002:0000aacc       ??_C@_0L@FFEJLEGF@noRollStab@ 300bcacc     bg_saberLoad.obj
 0002:0000aad8       ??_C@_0N@DKAKOIDA@noPullAttack@ 300bcad8     bg_saberLoad.obj
 0002:0000aae8       ??_C@_0N@DHKJHCGA@noBackAttack@ 300bcae8     bg_saberLoad.obj
 0002:0000aaf8       ??_C@_0L@NJPIIGCJ@noStabDown@ 300bcaf8     bg_saberLoad.obj
 0002:0000ab04       ??_C@_0L@NHANMJOA@noWallRuns@ 300bcb04     bg_saberLoad.obj
 0002:0000ab10       ??_C@_0M@MOOJPGBK@noWallFlips@ 300bcb10     bg_saberLoad.obj
 0002:0000ab1c       ??_C@_0L@LKFPINIG@noWallGrab@ 300bcb1c     bg_saberLoad.obj
 0002:0000ab28       ??_C@_07EMEJLHLJ@noRolls@  300bcb28     bg_saberLoad.obj
 0002:0000ab30       ??_C@_07LBEMCHMC@noFlips@  300bcb30     bg_saberLoad.obj
 0002:0000ab38       ??_C@_0N@MAFHMJM@noCartwheels@ 300bcb38     bg_saberLoad.obj
 0002:0000ab48       ??_C@_07LKPMBHJJ@noKicks@  300bcb48     bg_saberLoad.obj
 0002:0000ab50       ??_C@_0BA@FDGACPGL@noMirrorAttacks@ 300bcb50     bg_saberLoad.obj
 0002:0000ab60       ??_C@_09EHPCDPPK@onInWater@ 300bcb60     bg_saberLoad.obj
 0002:0000ab6c       ??_C@_07POBCBIAL@notInMP@  300bcb6c     bg_saberLoad.obj
 0002:0000ab74       ??_C@_0BB@HJNEKDIH@bladeStyle2Start@ 300bcb74     bg_saberLoad.obj
 0002:0000ab88       ??_C@_0M@MLNFFOGH@noWallMarks@ 300bcb88     bg_saberLoad.obj
 0002:0000ab94       ??_C@_08HEKKGBNH@noDlight@ 300bcb94     bg_saberLoad.obj
 0002:0000aba0       ??_C@_07OINOPDEA@noBlade@  300bcba0     bg_saberLoad.obj
 0002:0000aba8       ??_C@_0L@CJKNEMMH@trailStyle@ 300bcba8     bg_saberLoad.obj
 0002:0000abb4       ??_C@_0O@CECLIKPH@g2MarksShader@ 300bcbb4     bg_saberLoad.obj
 0002:0000abc4       ??_C@_0BD@GHBHNLDP@g2WeaponMarkShader@ 300bcbc4     bg_saberLoad.obj
 0002:0000abd8       ??_C@_0P@DBJANBKK@knockbackScale@ 300bcbd8     bg_saberLoad.obj
 0002:0000abe8       ??_C@_0M@NMNALNNM@damageScale@ 300bcbe8     bg_saberLoad.obj
 0002:0000abf4       ??_C@_0BA@PGNOEGAD@noDismemberment@ 300bcbf4     bg_saberLoad.obj
 0002:0000ac04       ??_C@_0N@NKNLDJCL@noIdleEffect@ 300bcc04     bg_saberLoad.obj
 0002:0000ac14       ??_C@_0M@ONIOEHGI@alwaysBlock@ 300bcc14     bg_saberLoad.obj
 0002:0000ac20       ??_C@_0BD@OBFKEJDF@noManualDeactivate@ 300bcc20     bg_saberLoad.obj
 0002:0000ac34       ??_C@_0BB@JGFIGNIK@transitionDamage@ 300bcc34     bg_saberLoad.obj
 0002:0000ac48       ??_C@_0N@HGGCMKIH@splashRadius@ 300bcc48     bg_saberLoad.obj
 0002:0000ac58       ??_C@_0N@LJPCOLCE@splashDamage@ 300bcc58     bg_saberLoad.obj
 0002:0000ac68       ??_C@_0BA@KAJFJOIC@splashKnockback@ 300bcc68     bg_saberLoad.obj
 0002:0000ac78       ??_C@_09IOEILOPM@hitSound1@ 300bcc78     bg_saberLoad.obj
 0002:0000ac84       ??_C@_09KFGFONDP@hitSound2@ 300bcc84     bg_saberLoad.obj
 0002:0000ac90       ??_C@_09LMHONMHO@hitSound3@ 300bcc90     bg_saberLoad.obj
 0002:0000ac9c       ??_C@_0M@FKNJFEON@blockSound1@ 300bcc9c     bg_saberLoad.obj
 0002:0000aca8       ??_C@_0M@HBPEAHCO@blockSound2@ 300bcca8     bg_saberLoad.obj
 0002:0000acb4       ??_C@_0M@GIOPDGGP@blockSound3@ 300bccb4     bg_saberLoad.obj
 0002:0000acc0       ??_C@_0N@PBILDJLJ@bounceSound1@ 300bccc0     bg_saberLoad.obj
 0002:0000acd0       ??_C@_0N@NKKGGKHK@bounceSound2@ 300bccd0     bg_saberLoad.obj
 0002:0000ace0       ??_C@_0N@MDLNFLDL@bounceSound3@ 300bcce0     bg_saberLoad.obj
 0002:0000acf0       ??_C@_0M@BNIGLEH@blockEffect@ 300bccf0     bg_saberLoad.obj
 0002:0000acfc       ??_C@_0BA@JLPDHEC@hitPersonEffect@ 300bccfc     bg_saberLoad.obj
 0002:0000ad0c       ??_C@_0P@BIDGPGLL@hitOtherEffect@ 300bcd0c     bg_saberLoad.obj
 0002:0000ad1c       ??_C@_0M@GOPKCEAP@bladeEffect@ 300bcd1c     bg_saberLoad.obj
 0002:0000ad28       ??_C@_0N@ECBBMGGL@noClashFlare@ 300bcd28     bg_saberLoad.obj
 0002:0000ad38       ??_C@_0N@DOGNHFNE@noWallMarks2@ 300bcd38     bg_saberLoad.obj
 0002:0000ad48       ??_C@_09PFLDLJGH@noDlight2@ 300bcd48     bg_saberLoad.obj
 0002:0000ad54       ??_C@_08JLEEMLBC@noBlade2@ 300bcd54     bg_saberLoad.obj
 0002:0000ad60       ??_C@_0M@OIFJKOCO@trailStyle2@ 300bcd60     bg_saberLoad.obj
 0002:0000ad6c       ??_C@_0P@MOINBIEE@g2MarksShader2@ 300bcd6c     bg_saberLoad.obj
 0002:0000ad7c       ??_C@_0BE@FLHBGOJH@g2WeaponMarkShader2@ 300bcd7c     bg_saberLoad.obj
 0002:0000ad90       ??_C@_0BA@NLECIOFG@knockbackScale2@ 300bcd90     bg_saberLoad.obj
 0002:0000ada0       ??_C@_0N@GCMJBKDD@damageScale2@ 300bcda0     bg_saberLoad.obj
 0002:0000adb0       ??_C@_0BB@HEIPNLIN@noDismemberment2@ 300bcdb0     bg_saberLoad.obj
 0002:0000adc4       ??_C@_0O@EBBGHGAI@noIdleEffect2@ 300bcdc4     bg_saberLoad.obj
 0002:0000add4       ??_C@_0N@KOPEDDFM@alwaysBlock2@ 300bcdd4     bg_saberLoad.obj
 0002:0000ade4       ??_C@_0BE@LLCCMKBL@noManualDeactivate2@ 300bcde4     bg_saberLoad.obj
 0002:0000adf8       ??_C@_0BC@OAILGGCC@transitionDamage2@ 300bcdf8     bg_saberLoad.obj
 0002:0000ae0c       ??_C@_0O@JONKCADI@splashRadius2@ 300bce0c     bg_saberLoad.obj
 0002:0000ae1c       ??_C@_0O@NBMKECEL@splashDamage2@ 300bce1c     bg_saberLoad.obj
 0002:0000ae2c       ??_C@_0BB@OOGGCDOD@splashKnockback2@ 300bce2c     bg_saberLoad.obj
 0002:0000ae40       ??_C@_0L@LBONBFGJ@hit2Sound1@ 300bce40     bg_saberLoad.obj
 0002:0000ae4c       ??_C@_0L@JKMAEGKK@hit2Sound2@ 300bce4c     bg_saberLoad.obj
 0002:0000ae58       ??_C@_0L@IDNLHHOL@hit2Sound3@ 300bce58     bg_saberLoad.obj
 0002:0000ae64       ??_C@_0N@NLIJKEHB@block2Sound1@ 300bce64     bg_saberLoad.obj
 0002:0000ae74       ??_C@_0N@PAKEPHLC@block2Sound2@ 300bce74     bg_saberLoad.obj
 0002:0000ae84       ??_C@_0N@OJLPMGPD@block2Sound3@ 300bce84     bg_saberLoad.obj
 0002:0000ae94       ??_C@_0O@LHCEGDPB@bounce2Sound1@ 300bce94     bg_saberLoad.obj
 0002:0000aea4       ??_C@_0O@JMAJDADC@bounce2Sound2@ 300bcea4     bg_saberLoad.obj
 0002:0000aeb4       ??_C@_0O@IFBCABHD@bounce2Sound3@ 300bceb4     bg_saberLoad.obj
 0002:0000aec4       ??_C@_0N@FMJFICJ@blockEffect2@ 300bcec4     bg_saberLoad.obj
 0002:0000aed4       ??_C@_0BB@HFKLMLPK@hitPersonEffect2@ 300bced4     bg_saberLoad.obj
 0002:0000aee8       ??_C@_0BA@LBNLAIID@hitOtherEffect2@ 300bcee8     bg_saberLoad.obj
 0002:0000aef8       ??_C@_0N@HNKBLDME@bladeEffect2@ 300bcef8     bg_saberLoad.obj
 0002:0000af08       ??_C@_0O@DHFCPNGH@noClashFlare2@ 300bcf08     bg_saberLoad.obj
 0002:0000af18       ??_C@_04CGFJFPFD@none@     300bcf18     bg_saberLoad.obj
 0002:0000af20       ??_C@_06LEMKAMD@remove@    300bcf20     bg_saberLoad.obj
 0002:0000af28       ??_C@_04CAHIDOMH@?4sab@    300bcf28     bg_saberLoad.obj
 0002:0000af30       ??_C@_0BA@MIBHFBCE@ext_data?1sabers@ 300bcf30     bg_saberLoad.obj
 0002:0000af40       ??_C@_0BD@NNPCBGHA@ext_data?1sabers?1?$CFs@ 300bcf40     bg_saberLoad.obj
 0002:0000af54       ??_C@_0BE@DJGNLOAI@error?5reading?5file?6@ 300bcf54     bg_saberLoad.obj
 0002:0000af68       ??_C@_0CH@GILDEJCA@Saber?5extensions?5?$CI?$CK?4sab?$CJ?5are?5to@ 300bcf68     bg_saberLoad.obj
 0002:0000af90       ??_C@_01EEMJAFIK@?6@       300bcf90     bg_saberLoad.obj
 0002:0000af98       __real@3f847ae147ae147b    300bcf98     bg_saberLoad.obj
 0002:0000afa0       ??_C@_0BB@OIJDKHFE@CFL_MORESABERDMG@ 300bcfa0     bg_saga.obj
 0002:0000afb4       ??_C@_0BK@JLDBMALB@CFL_STRONGAGAINSTPHYSICAL@ 300bcfb4     bg_saga.obj
 0002:0000afd0       ??_C@_0BD@DNMLPLIL@CFL_FASTFORCEREGEN@ 300bcfd0     bg_saga.obj
 0002:0000afe4       ??_C@_0P@DKGINMOP@CFL_STATVIEWER@ 300bcfe4     bg_saga.obj
 0002:0000aff4       ??_C@_0P@NCLEBEDM@CFL_HEAVYMELEE@ 300bcff4     bg_saga.obj
 0002:0000b004       ??_C@_0BC@LICHKKD@CFL_SINGLE_ROCKET@ 300bd004     bg_saga.obj
 0002:0000b018       ??_C@_0P@LBJDDHDM@CFL_CUSTOMSKEL@ 300bd018     bg_saga.obj
 0002:0000b028       ??_C@_0P@KICFDAJ@CFL_EXTRA_AMMO@ 300bd028     bg_saga.obj
 0002:0000b038       ??_C@_07HNCPCIHC@SS_NONE@  300bd038     bg_saga.obj
 0002:0000b040       ??_C@_07OKKHAHLD@SS_FAST@  300bd040     bg_saga.obj
 0002:0000b048       ??_C@_09JHAJINFA@SS_MEDIUM@ 300bd048     bg_saga.obj
 0002:0000b054       ??_C@_09EIDFCCBI@SS_STRONG@ 300bd054     bg_saga.obj
 0002:0000b060       ??_C@_09COLLLEKM@SS_DESANN@ 300bd060     bg_saga.obj
 0002:0000b06c       ??_C@_09NOGCKHNM@SS_TAVION@ 300bd06c     bg_saga.obj
 0002:0000b078       ??_C@_07NCKFHLFM@SS_DUAL@  300bd078     bg_saga.obj
 0002:0000b080       ??_C@_08OKAIMOGC@SS_STAFF@ 300bd080     bg_saga.obj
 0002:0000b08c       ??_C@_04HIBGFPH@NULL@      300bd08c     bg_saga.obj
 0002:0000b094       ??_C@_07MIINDMBF@WP_NONE@  300bd094     bg_saga.obj
 0002:0000b09c       ??_C@_0O@NNFLCPNL@WP_STUN_BATON@ 300bd09c     bg_saga.obj
 0002:0000b0ac       ??_C@_08IGDGHABD@WP_MELEE@ 300bd0ac     bg_saga.obj
 0002:0000b0b8       ??_C@_08KPDGEGJN@WP_SABER@ 300bd0b8     bg_saga.obj
 0002:0000b0c4       ??_C@_0BA@GBAOKNDN@WP_BRYAR_PISTOL@ 300bd0c4     bg_saga.obj
 0002:0000b0d4       ??_C@_0BC@LEINJGEK@WP_BLASTER_PISTOL@ 300bd0d4     bg_saga.obj
 0002:0000b0e8       ??_C@_0L@DIBFNABM@WP_BLASTER@ 300bd0e8     bg_saga.obj
 0002:0000b0f4       ??_C@_0N@KLINONG@WP_DISRUPTOR@ 300bd0f4     bg_saga.obj
 0002:0000b104       ??_C@_0N@ODCPPBBA@WP_BOWCASTER@ 300bd104     bg_saga.obj
 0002:0000b114       ??_C@_0M@GCNBMEBC@WP_REPEATER@ 300bd114     bg_saga.obj
 0002:0000b120       ??_C@_08GDBGMIBE@WP_DEMP2@ 300bd120     bg_saga.obj
 0002:0000b12c       ??_C@_0N@DNBPCFMC@WP_FLECHETTE@ 300bd12c     bg_saga.obj
 0002:0000b13c       ??_C@_0BD@JBJHCOEB@WP_ROCKET_LAUNCHER@ 300bd13c     bg_saga.obj
 0002:0000b150       ??_C@_0L@COCGCIBD@WP_THERMAL@ 300bd150     bg_saga.obj
 0002:0000b15c       ??_C@_0N@OGLOKOOO@WP_TRIP_MINE@ 300bd15c     bg_saga.obj
 0002:0000b16c       ??_C@_0M@EOMDDGDC@WP_DET_PACK@ 300bd16c     bg_saga.obj
 0002:0000b178       ??_C@_0O@MNNKJNKC@WP_CONCUSSION@ 300bd178     bg_saga.obj
 0002:0000b188       ??_C@_0N@OIFGJENP@WP_BRYAR_OLD@ 300bd188     bg_saga.obj
 0002:0000b198       ??_C@_0BA@HPLIMHOO@WP_EMPLACED_GUN@ 300bd198     bg_saga.obj
 0002:0000b1a8       ??_C@_09LJGBHCLN@WP_TURRET@ 300bd1a8     bg_saga.obj
 0002:0000b1b4       ??_C@_07ECPPOEBA@FP_HEAL@  300bd1b4     bg_saga.obj
 0002:0000b1bc       ??_C@_0O@GOCMKMCC@FP_LEVITATION@ 300bd1bc     bg_saga.obj
 0002:0000b1cc       ??_C@_08MIECCDPD@FP_SPEED@ 300bd1cc     bg_saga.obj
 0002:0000b1d8       ??_C@_07DJLINNNG@FP_PUSH@  300bd1d8     bg_saga.obj
 0002:0000b1e0       ??_C@_07EKKOPMJP@FP_PULL@  300bd1e0     bg_saga.obj
 0002:0000b1e8       ??_C@_0N@EOKHLCHN@FP_TELEPATHY@ 300bd1e8     bg_saga.obj
 0002:0000b1f8       ??_C@_07OFAFBAAC@FP_GRIP@  300bd1f8     bg_saga.obj
 0002:0000b200       ??_C@_0N@MLCJOEAL@FP_LIGHTNING@ 300bd200     bg_saga.obj
 0002:0000b210       ??_C@_07DCICDLJP@FP_RAGE@  300bd210     bg_saga.obj
 0002:0000b218       ??_C@_0L@GMEKEMHM@FP_PROTECT@ 300bd218     bg_saga.obj
 0002:0000b224       ??_C@_09MANKLPPB@FP_ABSORB@ 300bd224     bg_saga.obj
 0002:0000b230       ??_C@_0N@MKMKNEAO@FP_TEAM_HEAL@ 300bd230     bg_saga.obj
 0002:0000b240       ??_C@_0O@FDDGJKAO@FP_TEAM_FORCE@ 300bd240     bg_saga.obj
 0002:0000b250       ??_C@_08NAMGMEAJ@FP_DRAIN@ 300bd250     bg_saga.obj
 0002:0000b25c       ??_C@_06NBGCGEAI@FP_SEE@   300bd25c     bg_saga.obj
 0002:0000b264       ??_C@_0BB@IIFNHLOA@FP_SABER_OFFENSE@ 300bd264     bg_saga.obj
 0002:0000b278       ??_C@_0BB@OENPHNCL@FP_SABER_DEFENSE@ 300bd278     bg_saga.obj
 0002:0000b28c       ??_C@_0O@HFIJJPHA@FP_SABERTHROW@ 300bd28c     bg_saga.obj
 0002:0000b29c       ??_C@_07JPFAMGIP@HI_NONE@  300bd29c     bg_saga.obj
 0002:0000b2a4       ??_C@_09FNJEOG@HI_SEEKER@  300bd2a4     bg_saga.obj
 0002:0000b2b0       ??_C@_09IKKFJDFC@HI_SHIELD@ 300bd2b0     bg_saga.obj
 0002:0000b2bc       ??_C@_09NJBEABJH@HI_MEDPAC@ 300bd2bc     bg_saga.obj
 0002:0000b2c8       ??_C@_0BB@PHGOPPGA@HI_SHIELDBOOSTER@ 300bd2c8     bg_saga.obj
 0002:0000b2dc       ??_C@_0O@ELJADNKI@HI_BINOCULARS@ 300bd2dc     bg_saga.obj
 0002:0000b2ec       ??_C@_0O@FBGGHEEG@HI_SENTRY_GUN@ 300bd2ec     bg_saga.obj
 0002:0000b2fc       ??_C@_0L@HECMIPKK@HI_JETPACK@ 300bd2fc     bg_saga.obj
 0002:0000b308       ??_C@_0N@FICGOLOI@HI_SQUADTEAM@ 300bd308     bg_saga.obj
 0002:0000b318       ??_C@_0BA@DCMPJBHE@HI_VEHICLEMOUNT@ 300bd318     bg_saga.obj
 0002:0000b328       ??_C@_0BA@NGNCJBLG@HI_FLAMETHROWER@ 300bd328     bg_saga.obj
 0002:0000b338       ??_C@_0BC@LBGAIKOE@HI_ELECTROSHOCKER@ 300bd338     bg_saga.obj
 0002:0000b34c       ??_C@_07DODJPBMI@HI_EWEB@  300bd34c     bg_saga.obj
 0002:0000b354       ??_C@_08CKJOPOAO@HI_CLOAK@ 300bd354     bg_saga.obj
 0002:0000b360       ??_C@_0BA@MHEPEJFL@HI_SPHERESHIELD@ 300bd360     bg_saga.obj
 0002:0000b370       ??_C@_0M@CJHBFHFB@HI_OVERLOAD@ 300bd370     bg_saga.obj
 0002:0000b37c       ??_C@_0L@GDDBPBFK@HI_GRAPPLE@ 300bd37c     bg_saga.obj
 0002:0000b388       ??_C@_0O@MMBFHIEB@PW_BATTLESUIT@ 300bd388     bg_saga.obj
 0002:0000b398       ??_C@_07DFNNPKLN@PW_PULL@  300bd398     bg_saga.obj
 0002:0000b3a0       ??_C@_0L@EHANBCOH@PW_REDFLAG@ 300bd3a0     bg_saga.obj
 0002:0000b3ac       ??_C@_0M@MJPEKDEL@PW_BLUEFLAG@ 300bd3ac     bg_saga.obj
 0002:0000b3b8       ??_C@_0P@IBLDCDDO@PW_NEUTRALFLAG@ 300bd3b8     bg_saga.obj
 0002:0000b3c8       ??_C@_0N@GHPJGBHC@PW_SHIELDHIT@ 300bd3c8     bg_saga.obj
 0002:0000b3d8       ??_C@_0O@ENGHHLHL@PW_SPEEDBURST@ 300bd3d8     bg_saga.obj
 0002:0000b3e8       ??_C@_0M@FBGLLBBK@PW_DISINT_4@ 300bd3e8     bg_saga.obj
 0002:0000b3f4       ??_C@_08BNFNBBBB@PW_SPEED@ 300bd3f4     bg_saga.obj
 0002:0000b400       ??_C@_0L@LJAIJPE@PW_CLOAKED@ 300bd400     bg_saga.obj
 0002:0000b40c       ??_C@_0BL@EBGCPDCI@PW_FORCE_ENLIGHTENED_LIGHT@ 300bd40c     bg_saga.obj
 0002:0000b428       ??_C@_0BK@MOILIMDA@PW_FORCE_ENLIGHTENED_DARK@ 300bd428     bg_saga.obj
 0002:0000b444       ??_C@_0O@IGDAJBEG@PW_FORCE_BOON@ 300bd444     bg_saga.obj
 0002:0000b454       ??_C@_0N@POBOEFDG@PW_YSALAMIRI@ 300bd454     bg_saga.obj
 0002:0000b464       ??_C@_0BC@NLIMOMDB@PW_SPHERESHIELDED@ 300bd464     bg_saga.obj
 0002:0000b478       ??_C@_0O@KPOBMMCJ@PW_OVERLOADED@ 300bd478     bg_saga.obj
 0002:0000b488       ??_C@_0L@PNAOBMBI@SK_JETPACK@ 300bd488     bg_saga.obj
 0002:0000b494       ??_C@_09IJMDIDHL@SK_PISTOL@ 300bd494     bg_saga.obj
 0002:0000b4a0       ??_C@_0L@FHICNJIB@SK_BLASTER@ 300bd4a0     bg_saga.obj
 0002:0000b4ac       ??_C@_0L@EBLBCBIO@SK_THERMAL@ 300bd4ac     bg_saga.obj
 0002:0000b4b8       ??_C@_09CPBDLMIL@SK_ROCKET@ 300bd4b8     bg_saga.obj
 0002:0000b4c4       ??_C@_08NPDGAEGC@SK_BACTA@ 300bd4c4     bg_saga.obj
 0002:0000b4d0       ??_C@_0BA@MCKIDFAE@SK_FLAMETHROWER@ 300bd4d0     bg_saga.obj
 0002:0000b4e0       ??_C@_0N@FOBMNCHE@SK_BOWCASTER@ 300bd4e0     bg_saga.obj
 0002:0000b4f0       ??_C@_0O@BAPBHPEJ@SK_FORCEFIELD@ 300bd4f0     bg_saga.obj
 0002:0000b500       ??_C@_08EGCOCFNP@SK_CLOAK@ 300bd500     bg_saga.obj
 0002:0000b50c       ??_C@_09PBOFMGHP@SK_SEEKER@ 300bd50c     bg_saga.obj
 0002:0000b518       ??_C@_09HENCNMJJ@SK_SENTRY@ 300bd518     bg_saga.obj
 0002:0000b524       ??_C@_0L@OIIEAOCK@SK_DETPACK@ 300bd524     bg_saga.obj
 0002:0000b530       ??_C@_0M@OMAALMOC@SK_REPEATER@ 300bd530     bg_saga.obj
 0002:0000b53c       ??_C@_0N@LHILPNLC@SK_DISRUPTOR@ 300bd53c     bg_saga.obj
 0002:0000b54c       ??_C@_0N@ECGCMELC@SK_BLUESTYLE@ 300bd54c     bg_saga.obj
 0002:0000b55c       ??_C@_0M@PKCGJKIP@SK_REDSTYLE@ 300bd55c     bg_saga.obj
 0002:0000b568       ??_C@_0P@JBHBIA@SK_PURPLESTYLE@ 300bd568     bg_saga.obj
 0002:0000b578       ??_C@_0O@MHFJMBGJ@SK_GREENSTYLE@ 300bd578     bg_saga.obj
 0002:0000b588       ??_C@_0N@CCHGDKNN@SK_DUALSTYLE@ 300bd588     bg_saga.obj
 0002:0000b598       ??_C@_0O@DEOEBOOP@SK_STAFFSTYLE@ 300bd598     bg_saga.obj
 0002:0000b5a8       ??_C@_0N@IACMAGKG@SK_FLECHETTE@ 300bd5a8     bg_saga.obj
 0002:0000b5b8       ??_C@_0M@CGGMLOFL@SK_TRIPMINE@ 300bd5b8     bg_saga.obj
 0002:0000b5c4       ??_C@_08BPCLLEGF@SK_DEMP2@ 300bd5c4     bg_saga.obj
 0002:0000b5d0       ??_C@_0O@IHLIALMA@SK_CONCUSSION@ 300bd5d0     bg_saga.obj
 0002:0000b5e0       ??_C@_06IBJAMHNA@SK_OLD@   300bd5e0     bg_saga.obj
 0002:0000b5e8       ??_C@_07IIHHMNJM@SK_EWEB@  300bd5e8     bg_saga.obj
 0002:0000b5f0       ??_C@_0O@CEGIPGC@SK_BINOCULARS@ 300bd5f0     bg_saga.obj
 0002:0000b600       ??_C@_08PGCKGKON@SK_WRIST@ 300bd600     bg_saga.obj
 0002:0000b60c       ??_C@_09FBKCKDKO@SK_HEALTH@ 300bd60c     bg_saga.obj
 0002:0000b618       ??_C@_0L@JNFLAIGO@SK_SHIELDS@ 300bd618     bg_saga.obj
 0002:0000b624       ??_C@_09JJDFMMDJ@SK_REPAIR@ 300bd624     bg_saga.obj
 0002:0000b630       ??_C@_0BC@LGCIDFFF@SK_ELECTROSHOCKER@ 300bd630     bg_saga.obj
 0002:0000b644       ??_C@_0BA@NDDFONOJ@SK_SPHERESHIELD@ 300bd644     bg_saga.obj
 0002:0000b654       ??_C@_0M@MJHKHGC@SK_OVERLOAD@ 300bd654     bg_saga.obj
 0002:0000b660       ??_C@_0N@OHNDGMAO@SK_SQUADTEAM@ 300bd660     bg_saga.obj
 0002:0000b670       ??_C@_0O@ODNIACP@SK_SQUADTEAMA@ 300bd670     bg_saga.obj
 0002:0000b680       ??_C@_0O@CFBANDOM@SK_SQUADTEAMB@ 300bd680     bg_saga.obj
 0002:0000b690       ??_C@_0O@DMALOCKN@SK_SQUADTEAMC@ 300bd690     bg_saga.obj
 0002:0000b6a0       ??_C@_0BA@CGLFDFMG@SK_VEHICLEMOUNT@ 300bd6a0     bg_saga.obj
 0002:0000b6b0       ??_C@_0BB@CGNGEOGD@SK_LIGHTVEHICLEA@ 300bd6b0     bg_saga.obj
 0002:0000b6c4       ??_C@_0BC@GHKLGEGD@SK_MEDIUMVEHICLEA@ 300bd6c4     bg_saga.obj
 0002:0000b6d8       ??_C@_0BB@EDIDLJBO@SK_HEAVYVEHICLEA@ 300bd6d8     bg_saga.obj
 0002:0000b6ec       ??_C@_0BA@COCLOIAE@SK_FIGHTERSHIPA@ 300bd6ec     bg_saga.obj
 0002:0000b6fc       ??_C@_0P@MBBHCFFJ@SK_BOMBERSHIPA@ 300bd6fc     bg_saga.obj
 0002:0000b70c       ??_C@_0BC@CLFLFLIP@SK_TRANSPORTSHIPA@ 300bd70c     bg_saga.obj
 0002:0000b720       ??_C@_0BB@NPLBNKA@SK_LIGHTVEHICLEB@ 300bd720     bg_saga.obj
 0002:0000b734       ??_C@_0BC@EMIGDHKA@SK_MEDIUMVEHICLEB@ 300bd734     bg_saga.obj
 0002:0000b748       ??_C@_0BB@GIKOOKNN@SK_HEAVYVEHICLEB@ 300bd748     bg_saga.obj
 0002:0000b75c       ??_C@_0BA@FAGLLMH@SK_FIGHTERSHIPB@ 300bd75c     bg_saga.obj
 0002:0000b76c       ??_C@_0P@OKDKHGJK@SK_BOMBERSHIPB@ 300bd76c     bg_saga.obj
 0002:0000b77c       ??_C@_0BC@HGAIEM@SK_TRANSPORTSHIPB@ 300bd77c     bg_saga.obj
 0002:0000b790       ??_C@_0L@OKBDGCOI@SK_GRAPPLE@ 300bd790     bg_saga.obj
 0002:0000b79c       ??_C@_0L@IJIKJHGI@SK_AGILITY@ 300bd79c     bg_saga.obj
 0002:0000b7a8       ??_C@_0M@LBMANEAB@SK_STRENGTH@ 300bd7a8     bg_saga.obj
 0002:0000b7b4       ??_C@_0BC@JMOEBHNC@SK_BACKPACKROCKET@ 300bd7b4     bg_saga.obj
 0002:0000b7c8       ??_C@_0BD@IBCDCJKL@SK_BACKPACKROCKETA@ 300bd7c8     bg_saga.obj
 0002:0000b7dc       ??_C@_0BE@HHLBHKNH@SK_SPECIALCHARACTER@ 300bd7dc     bg_saga.obj
 0002:0000b7f0       ??_C@_0M@PKPDOIAO@SK_JETPACKA@ 300bd7f0     bg_saga.obj
 0002:0000b7fc       ??_C@_0M@NBNOLLMN@SK_JETPACKB@ 300bd7fc     bg_saga.obj
 0002:0000b808       ??_C@_0M@MIMFIKIM@SK_JETPACKC@ 300bd808     bg_saga.obj
 0002:0000b814       ??_C@_0L@CODMBFHD@SK_PISTOLA@ 300bd814     bg_saga.obj
 0002:0000b820       ??_C@_0L@FBBEGLA@SK_PISTOLB@ 300bd820     bg_saga.obj
 0002:0000b82c       ??_C@_0M@HDIKEPCL@SK_BLASTERA@ 300bd82c     bg_saga.obj
 0002:0000b838       ??_C@_0M@FIKHBMOI@SK_BLASTERB@ 300bd838     bg_saga.obj
 0002:0000b844       ??_C@_0O@MMLKCHBJ@SK_DISRUPTORA@ 300bd844     bg_saga.obj
 0002:0000b854       ??_C@_0O@OHJHHENK@SK_DISRUPTORB@ 300bd854     bg_saga.obj
 0002:0000b864       ??_C@_0O@LOFENHLD@SK_BOWCASTERA@ 300bd864     bg_saga.obj
 0002:0000b874       ??_C@_0O@JFHJIEHA@SK_BOWCASTERB@ 300bd874     bg_saga.obj
 0002:0000b884       ??_C@_0N@KHIKPNKM@SK_REPEATERA@ 300bd884     bg_saga.obj
 0002:0000b894       ??_C@_0N@IMKHKOGP@SK_REPEATERB@ 300bd894     bg_saga.obj
 0002:0000b8a4       ??_C@_09NEKFMACH@SK_DEMP2A@ 300bd8a4     bg_saga.obj
 0002:0000b8b0       ??_C@_09PPIIJDOE@SK_DEMP2B@ 300bd8b0     bg_saga.obj
 0002:0000b8bc       ??_C@_0O@NGFHFEJP@SK_FLECHETTEA@ 300bd8bc     bg_saga.obj
 0002:0000b8cc       ??_C@_0O@PNHKAHFM@SK_FLECHETTEB@ 300bd8cc     bg_saga.obj
 0002:0000b8dc       ??_C@_0P@HCIBAEPP@SK_CONCUSSIONA@ 300bd8dc     bg_saga.obj
 0002:0000b8ec       ??_C@_0P@FJKMFHDM@SK_CONCUSSIONB@ 300bd8ec     bg_saga.obj
 0002:0000b8fc       ??_C@_0L@JDCHDHFA@SK_ROCKETA@ 300bd8fc     bg_saga.obj
 0002:0000b908       ??_C@_0L@LIAKGEJD@SK_ROCKETB@ 300bd908     bg_saga.obj
 0002:0000b914       ??_C@_0M@ODCDGBEC@SK_THERMALA@ 300bd914     bg_saga.obj
 0002:0000b920       ??_C@_0M@MIAODCIB@SK_THERMALB@ 300bd920     bg_saga.obj
 0002:0000b92c       ??_C@_0N@BFPNJKIG@SK_TRIPMINEA@ 300bd92c     bg_saga.obj
 0002:0000b93c       ??_C@_0N@DONAMJEF@SK_TRIPMINEB@ 300bd93c     bg_saga.obj
 0002:0000b94c       ??_C@_0M@DCDBDDJM@SK_DETPACKA@ 300bd94c     bg_saga.obj
 0002:0000b958       ??_C@_0M@BJBMGAFP@SK_DETPACKB@ 300bd958     bg_saga.obj
 0002:0000b964       ??_C@_07GPDADMFH@SK_OLDA@  300bd964     bg_saga.obj
 0002:0000b96c       ??_C@_07EEBNGPJE@SK_OLDB@  300bd96c     bg_saga.obj
 0002:0000b974       ??_C@_0BB@OOMNBCGI@SK_FLAMETHROWERA@ 300bd974     bg_saga.obj
 0002:0000b988       ??_C@_0BD@PCNFPDAK@SK_ELECTROSHOCKERA@ 300bd988     bg_saga.obj
 0002:0000b99c       ??_C@_0O@MPKEMFFA@SK_LIGHTNINGA@ 300bd99c     bg_saga.obj
 0002:0000b9ac       ??_C@_09HPHMJGCE@SK_DRAINA@ 300bd9ac     bg_saga.obj
 0002:0000b9b8       ??_C@_08MAAPDADL@SK_GRIPA@ 300bd9b8     bg_saga.obj
 0002:0000b9c4       ??_C@_0L@CDPHHEOH@SK_ABSORBA@ 300bd9c4     bg_saga.obj
 0002:0000b9d0       ??_C@_0M@KJNBNAHM@SK_PROTECTA@ 300bd9d0     bg_saga.obj
 0002:0000b9dc       ??_C@_0BA@LFHONBJE@SK_DESTRUCTIONA@ 300bd9dc     bg_saga.obj
 0002:0000b9ec       ??_C@_08DDBBLLIH@SK_HEALA@ 300bd9ec     bg_saga.obj
 0002:0000b9f8       ??_C@_08EOGGFIOJ@SK_RAGEA@ 300bd9f8     bg_saga.obj
 0002:0000ba04       ??_C@_0O@HGEHJPAP@SK_TELEPATHYA@ 300bda04     bg_saga.obj
 0002:0000ba14       ??_C@_0L@GIJFCLIP@SK_STASISA@ 300bda14     bg_saga.obj
 0002:0000ba20       ??_C@_08EBGNJLDL@SK_PUSHA@ 300bda20     bg_saga.obj
 0002:0000ba2c       ??_C@_08EOBOHECO@SK_PULLA@ 300bda2c     bg_saga.obj
 0002:0000ba38       ??_C@_08INGIFBIO@SK_POWER@ 300bda38     bg_saga.obj
 0002:0000ba44       ??_C@_0O@CAGBOAJK@SK_RESISTANCE@ 300bda44     bg_saga.obj
 0002:0000ba54       ??_C@_08GMEOELGB@infantry@ 300bda54     bg_saga.obj
 0002:0000ba60       ??_C@_08KMDKBEDF@vanguard@ 300bda60     bg_saga.obj
 0002:0000ba6c       ??_C@_07ILMBEDPO@support@  300bda6c     bg_saga.obj
 0002:0000ba74       ??_C@_0N@DFCFOLOG@jedi_general@ 300bda74     bg_saga.obj
 0002:0000ba84       ??_C@_0O@FEHNADND@demolitionist@ 300bda84     bg_saga.obj
 0002:0000ba94       ??_C@_0O@OALEAKPJ@heavy_weapons@ 300bda94     bg_saga.obj
 0002:0000baa8       ??_C@_0EE@DLMGDLJO@BG_GetNextValueGroup?5couldn?8t?5f@ 300bdaa8     bg_saga.obj
 0002:0000baec       ??_C@_0CM@DMIPCGDB@Unexpected?5EOF?5while?5looking?5fo@ 300bdaec     bg_saga.obj
 0002:0000bb18       ??_C@_0FA@EHNNLFND@Found?5a?5closing?5bracket?5without@ 300bdb18     bg_saga.obj
 0002:0000bb68       ??_C@_0CI@BBIKCBO@Group?5?8?$CFs?8?5is?5missing?5a?5closing@ 300bdb68     bg_saga.obj
 0002:0000bb90       ??_C@_0GA@DIGHOEOC@Error?5parsing?5group?5in?5file?0?5un@ 300bdb90     bg_saga.obj
 0002:0000bbf0       ??_C@_0FJ@KOGMAIHK@Found?5an?5opening?5bracket?5withou@ 300bdbf0     bg_saga.obj
 0002:0000bc50       ??_C@_0EJ@GJJGBCAC@Unexpected?5closing?5bracket?5?$CItoo@ 300bdc50     bg_saga.obj
 0002:0000bca0       ??_C@_0EP@OCHOIPPN@Unexpected?5EOF?5while?5looking?5fo@ 300bdca0     bg_saga.obj
 0002:0000bcf0       ??_C@_0FH@PHDPJEBI@Unexpected?5EOF?5while?5looking?5fo@ 300bdcf0     bg_saga.obj
 0002:0000bd48       ??_C@_0EA@CICFFHLL@Error?5parsing?5file?0?5unexpected?5@ 300bdd48     bg_saga.obj
 0002:0000bd88       ??_C@_0DL@MANGCKOJ@Error?5parsing?5file?0?5found?5comme@ 300bdd88     bg_saga.obj
 0002:0000bdc4       ??_C@_06PFGBHLNK@FP_ALL@   300bddc4     bg_saga.obj
 0002:0000bdcc       ??_C@_07IHELEENG@FP_JUMP@  300bddcc     bg_saga.obj
 0002:0000bdd4       ??_C@_0M@PPJNHBMP@description@ 300bddd4     bg_saga.obj
 0002:0000bde0       ??_C@_0BI@JBHHAHFA@DESCRIPTION?5UNAVAILABLE@ 300bdde0     bg_saga.obj
 0002:0000bdf8       ??_C@_09LPPNDGJE@ClassInfo@ 300bddf8     bg_saga.obj
 0002:0000be04       ??_C@_0BP@JPFHBDB@Siege?5class?5without?5name?5entry@ 300bde04     bg_saga.obj
 0002:0000be24       ??_C@_05NCCFOPHA@model@    300bde24     bg_saga.obj
 0002:0000be2c       ??_C@_04NHPAFEHJ@skin@     300bde2c     bg_saga.obj
 0002:0000be34       ??_C@_06CJJKOFI@saber1@    300bde34     bg_saga.obj
 0002:0000be3c       ??_C@_06CJLEPNJL@saber2@   300bde3c     bg_saga.obj
 0002:0000be44       ??_C@_0L@JCGAKIIA@saberstyle@ 300bde44     bg_saga.obj
 0002:0000be50       ??_C@_0L@OGIEJBOK@sabercolor@ 300bde50     bg_saga.obj
 0002:0000be5c       ??_C@_0M@OOLLFDOG@saber2color@ 300bde5c     bg_saga.obj
 0002:0000be68       ??_C@_07PKKCMMCH@weapons@  300bde68     bg_saga.obj
 0002:0000be70       ??_C@_0CC@FAKKFGGN@Siege?5class?5without?5weapons?5ent@ 300bde70     bg_saga.obj
 0002:0000be94       ??_C@_0M@IOJHBENM@forcepowers@ 300bde94     bg_saga.obj
 0002:0000bea0       ??_C@_06HNCNFAFI@skills@   300bdea0     bg_saga.obj
 0002:0000bea8       ??_C@_0L@GKKNICAL@classflags@ 300bdea8     bg_saga.obj
 0002:0000beb4       ??_C@_09MHNPKMIF@maxhealth@ 300bdeb4     bg_saga.obj
 0002:0000bec0       ??_C@_0M@JKHBPLJM@starthealth@ 300bdec0     bg_saga.obj
 0002:0000becc       ??_C@_08KAGIGECM@maxarmor@ 300bdecc     bg_saga.obj
 0002:0000bed8       ??_C@_0L@GGCEHPNG@startarmor@ 300bded8     bg_saga.obj
 0002:0000bee4       ??_C@_05HJCMGBKF@speed@    300bdee4     bg_saga.obj
 0002:0000beec       ??_C@_08BGECLNMM@uishader@ 300bdeec     bg_saga.obj
 0002:0000bef8       ??_C@_0CD@GDIFDMKP@Siege?5class?5without?5uishader?5en@ 300bdef8     bg_saga.obj
 0002:0000bf1c       ??_C@_0N@NNMCCMOK@class_shader@ 300bdf1c     bg_saga.obj
 0002:0000bf2c       ??_C@_0DE@BHILLBOP@ERROR?3?5could?5not?5find?5class_sha@ 300bdf2c     bg_saga.obj
 0002:0000bf60       ??_C@_0CN@HKDFKNIC@ERROR?3?5no?5class_shader?5defined?5@ 300bdf60     bg_saga.obj
 0002:0000bf90       ??_C@_09LOIGNDON@holdables@ 300bdf90     bg_saga.obj
 0002:0000bf9c       ??_C@_08BOHIELLL@powerups@ 300bdf9c     bg_saga.obj
 0002:0000bfa8       ??_C@_04LNHPMHCH@?4scl@    300bdfa8     bg_saga.obj
 0002:0000bfb0       ??_C@_0BH@NCMEBBFN@ext_data?1Siege?1Classes@ 300bdfb0     bg_saga.obj
 0002:0000bfc8       ??_C@_0BI@HBENBDF@ext_data?1Siege?1Classes?1@ 300bdfc8     bg_saga.obj
 0002:0000bfe0       ??_C@_0CD@FDGFFIBB@Siege?5team?5with?5no?5name?5definit@ 300bdfe0     bg_saga.obj
 0002:0000c004       ??_C@_0P@JEMEFMOF@FriendlyShader@ 300be004     bg_saga.obj
 0002:0000c014       ??_C@_07DPIHKJGF@Classes@  300be014     bg_saga.obj
 0002:0000c01c       ??_C@_07GEGLMCI@class?$CFi@ 300be01c     bg_saga.obj
 0002:0000c024       ??_C@_0BO@LFIIBAMC@Invalid?5class?5specified?3?5?8?$CFs?8@ 300be024     bg_saga.obj
 0002:0000c044       ??_C@_0CI@JBGGEKDP@Team?5defined?5with?5no?5allowable?5@ 300be044     bg_saga.obj
 0002:0000c06c       ??_C@_05OKHHMPNJ@?4team@   300be06c     bg_saga.obj
 0002:0000c074       ??_C@_0BF@KACDOLPP@ext_data?1Siege?1Teams@ 300be074     bg_saga.obj
 0002:0000c08c       ??_C@_0BG@DPLOPEAL@ext_data?1Siege?1Teams?1@ 300be08c     bg_saga.obj
 0002:0000c0a4       ??_C@_0BE@FLPNHHPN@?$CFi?3bend?5can?8t?5step?6@ 300be0a4     bg_slidemove.obj
 0002:0000c0b8       ??_C@_0M@CDHDENEF@?$CFi?3stepped?6@ 300be0b8     bg_slidemove.obj
 0002:0000c0c4       __real@41300000            300be0c4     bg_slidemove.obj
 0002:0000c0c8       __real@42340000            300be0c8     bg_slidemove.obj
 0002:0000c0cc       __real@42840000            300be0cc     bg_slidemove.obj
 0002:0000c0d0       __real@44fa0000            300be0d0     bg_slidemove.obj
 0002:0000c0d4       __real@c2c80000            300be0d4     bg_slidemove.obj
 0002:0000c0d8       ??_C@_0L@BOMCPGNF@projectile@ 300be0d8     bg_vehicleLoad.obj
 0002:0000c0e4       ??_C@_0L@IPNKNAOM@hasGravity@ 300be0e4     bg_vehicleLoad.obj
 0002:0000c0f0       ??_C@_09LOOPDJEK@ionWeapon@ 300be0f0     bg_vehicleLoad.obj
 0002:0000c0fc       ??_C@_0P@MLELMPKF@saberBlockable@ 300be0fc     bg_vehicleLoad.obj
 0002:0000c10c       ??_C@_08OEIEAIMH@muzzleFX@ 300be10c     bg_vehicleLoad.obj
 0002:0000c118       ??_C@_06KCPOJGHJ@shotFX@   300be118     bg_vehicleLoad.obj
 0002:0000c120       ??_C@_08LBKCHJGI@impactFX@ 300be120     bg_vehicleLoad.obj
 0002:0000c12c       ??_C@_0N@LOKNPDPD@g2MarkShader@ 300be12c     bg_vehicleLoad.obj
 0002:0000c13c       ??_C@_0L@NDLIJKLF@g2MarkSize@ 300be13c     bg_vehicleLoad.obj
 0002:0000c148       ??_C@_09DPJGNNNM@loopSound@ 300be148     bg_vehicleLoad.obj
 0002:0000c154       ??_C@_06GMBBIPLD@homing@   300be154     bg_vehicleLoad.obj
 0002:0000c15c       ??_C@_09DIOLNDJN@homingFOV@ 300be15c     bg_vehicleLoad.obj
 0002:0000c168       ??_C@_0L@FFLAGJDE@lockOnTime@ 300be168     bg_vehicleLoad.obj
 0002:0000c174       ??_C@_06GJOIPFFF@damage@   300be174     bg_vehicleLoad.obj
 0002:0000c17c       ??_C@_0M@EIOFGFCL@ammoPerShot@ 300be17c     bg_vehicleLoad.obj
 0002:0000c188       ??_C@_06KJINILIP@health@   300be188     bg_vehicleLoad.obj
 0002:0000c190       ??_C@_05IGKADHGO@width@    300be190     bg_vehicleLoad.obj
 0002:0000c198       ??_C@_06LNLHEAAG@height@   300be198     bg_vehicleLoad.obj
 0002:0000c1a0       ??_C@_08MOKDPMFA@lifetime@ 300be1a0     bg_vehicleLoad.obj
 0002:0000c1ac       ??_C@_0BA@KPKBCLLA@explodeOnExpire@ 300be1ac     bg_vehicleLoad.obj
 0002:0000c1bc       ??_C@_04GPMDFGEJ@type@     300be1bc     bg_vehicleLoad.obj
 0002:0000c1c4       ??_C@_08FEOKBMLD@numHands@ 300be1c4     bg_vehicleLoad.obj
 0002:0000c1d0       ??_C@_09EPEKCJNM@lookPitch@ 300be1d0     bg_vehicleLoad.obj
 0002:0000c1dc       ??_C@_07OIEJFMLD@lookYaw@  300be1dc     bg_vehicleLoad.obj
 0002:0000c1e4       ??_C@_06IJDLPEM@length@    300be1e4     bg_vehicleLoad.obj
 0002:0000c1ec       ??_C@_0BA@BPLGJHPJ@centerOfGravity@ 300be1ec     bg_vehicleLoad.obj
 0002:0000c1fc       ??_C@_08FGAAHLPO@speedMax@ 300be1fc     bg_vehicleLoad.obj
 0002:0000c208       ??_C@_0L@MLDLGLOI@turboSpeed@ 300be208     bg_vehicleLoad.obj
 0002:0000c214       ??_C@_08EEILJPJB@speedMin@ 300be214     bg_vehicleLoad.obj
 0002:0000c220       ??_C@_09JLKIBNNM@speedIdle@ 300be220     bg_vehicleLoad.obj
 0002:0000c22c       ??_C@_09HICLJFH@accelIdle@ 300be22c     bg_vehicleLoad.obj
 0002:0000c238       ??_C@_0N@OKFAMOHD@acceleration@ 300be238     bg_vehicleLoad.obj
 0002:0000c248       ??_C@_09JCLBALJJ@decelIdle@ 300be248     bg_vehicleLoad.obj
 0002:0000c254       ??_C@_0P@HHEMMPFK@throttleSticks@ 300be254     bg_vehicleLoad.obj
 0002:0000c264       ??_C@_0L@FDBPLPOD@strafePerc@ 300be264     bg_vehicleLoad.obj
 0002:0000c270       ??_C@_0N@ENHLHJGE@bankingSpeed@ 300be270     bg_vehicleLoad.obj
 0002:0000c280       ??_C@_0L@CFHLLIPB@pitchLimit@ 300be280     bg_vehicleLoad.obj
 0002:0000c28c       ??_C@_09IPOAKDJE@rollLimit@ 300be28c     bg_vehicleLoad.obj
 0002:0000c298       ??_C@_07HAHFHPDC@braking@  300be298     bg_vehicleLoad.obj
 0002:0000c2a0       ??_C@_08EAELEJGF@mouseYaw@ 300be2a0     bg_vehicleLoad.obj
 0002:0000c2ac       ??_C@_0L@PFPFAHKM@mousePitch@ 300be2ac     bg_vehicleLoad.obj
 0002:0000c2b8       ??_C@_0N@BEECELKI@turningSpeed@ 300be2b8     bg_vehicleLoad.obj
 0002:0000c2c8       ??_C@_0BA@DEALIFEA@turnWhenStopped@ 300be2c8     bg_vehicleLoad.obj
 0002:0000c2d8       ??_C@_08LOEOBHC@traction@  300be2d8     bg_vehicleLoad.obj
 0002:0000c2e4       ??_C@_08LKDNMFOC@friction@ 300be2e4     bg_vehicleLoad.obj
 0002:0000c2f0       ??_C@_08IOPKEDDJ@maxSlope@ 300be2f0     bg_vehicleLoad.obj
 0002:0000c2fc       ??_C@_0BG@HOKPMJKB@speedDependantTurning@ 300be2fc     bg_vehicleLoad.obj
 0002:0000c314       ??_C@_04IJEANHEE@mass@     300be314     bg_vehicleLoad.obj
 0002:0000c31c       ??_C@_05JJEJIJLL@armor@    300be31c     bg_vehicleLoad.obj
 0002:0000c324       ??_C@_07EEEOBDLK@shields@  300be324     bg_vehicleLoad.obj
 0002:0000c32c       ??_C@_0BB@BMKKPECK@shieldRechargeMS@ 300be32c     bg_vehicleLoad.obj
 0002:0000c340       ??_C@_09FGFEKOJH@toughness@ 300be340     bg_vehicleLoad.obj
 0002:0000c34c       ??_C@_0BG@ICOPODEK@malfunctionArmorLevel@ 300be34c     bg_vehicleLoad.obj
 0002:0000c364       ??_C@_0BA@PLDNJPJN@surfDestruction@ 300be364     bg_vehicleLoad.obj
 0002:0000c374       ??_C@_08CCPHKHEL@g2radius@ 300be374     bg_vehicleLoad.obj
 0002:0000c380       ??_C@_09PMPDIAJG@riderAnim@ 300be380     bg_vehicleLoad.obj
 0002:0000c38c       ??_C@_08EJIADHP@droidNPC@  300be38c     bg_vehicleLoad.obj
 0002:0000c398       ??_C@_09FONOLKPA@radarIcon@ 300be398     bg_vehicleLoad.obj
 0002:0000c3a4       ??_C@_0O@DJHCJKGN@dmgIndicFrame@ 300be3a4     bg_vehicleLoad.obj
 0002:0000c3b4       ??_C@_0P@FPBFALOJ@dmgIndicShield@ 300be3b4     bg_vehicleLoad.obj
 0002:0000c3c4       ??_C@_0BD@KLFJKOII@dmgIndicBackground@ 300be3c4     bg_vehicleLoad.obj
 0002:0000c3d8       ??_C@_0L@CBPHNOBK@icon_front@ 300be3d8     bg_vehicleLoad.obj
 0002:0000c3e4       ??_C@_09NHADEJIB@icon_back@ 300be3e4     bg_vehicleLoad.obj
 0002:0000c3f0       ??_C@_0L@GPLJGMFJ@icon_right@ 300be3f0     bg_vehicleLoad.obj
 0002:0000c3fc       ??_C@_09CMMAKMMC@icon_left@ 300be3fc     bg_vehicleLoad.obj
 0002:0000c408       ??_C@_0BA@FMKKHFFJ@crosshairShader@ 300be408     bg_vehicleLoad.obj
 0002:0000c418       ??_C@_0N@JONDFKLC@shieldShader@ 300be418     bg_vehicleLoad.obj
 0002:0000c428       ??_C@_0N@CDHFELM@health_front@ 300be428     bg_vehicleLoad.obj
 0002:0000c438       ??_C@_0M@MOOOFAHG@health_back@ 300be438     bg_vehicleLoad.obj
 0002:0000c444       ??_C@_0N@EMHJOGPP@health_right@ 300be444     bg_vehicleLoad.obj
 0002:0000c454       ??_C@_0M@DFCNLFDF@health_left@ 300be454     bg_vehicleLoad.obj
 0002:0000c460       ??_C@_0N@JPGBMOIF@soundTakeOff@ 300be460     bg_vehicleLoad.obj
 0002:0000c470       ??_C@_0BB@GGMAFHFB@soundEngineStart@ 300be470     bg_vehicleLoad.obj
 0002:0000c484       ??_C@_09IGHJKBGG@soundSpin@ 300be484     bg_vehicleLoad.obj
 0002:0000c490       ??_C@_0L@BNNFFMJG@soundTurbo@ 300be490     bg_vehicleLoad.obj
 0002:0000c49c       ??_C@_0L@PMBLMBGF@soundHyper@ 300be49c     bg_vehicleLoad.obj
 0002:0000c4a8       ??_C@_09HDMMGPMA@soundLand@ 300be4a8     bg_vehicleLoad.obj
 0002:0000c4b4       ??_C@_0L@MNOPHOMD@soundFlyBy@ 300be4b4     bg_vehicleLoad.obj
 0002:0000c4c0       ??_C@_0M@OPNACIAF@soundFlyBy2@ 300be4c0     bg_vehicleLoad.obj
 0002:0000c4cc       ??_C@_0M@CNOCLGAB@soundShift1@ 300be4cc     bg_vehicleLoad.obj
 0002:0000c4d8       ??_C@_0M@GMPOFMC@soundShift2@ 300be4d8     bg_vehicleLoad.obj
 0002:0000c4e4       ??_C@_0M@BPNENEID@soundShift3@ 300be4e4     bg_vehicleLoad.obj
 0002:0000c4f0       ??_C@_0M@FAJFECEE@soundShift4@ 300be4f0     bg_vehicleLoad.obj
 0002:0000c4fc       ??_C@_09EJLKNCKH@exhaustFX@ 300be4fc     bg_vehicleLoad.obj
 0002:0000c508       ??_C@_07MMLPAJOM@turboFX@  300be508     bg_vehicleLoad.obj
 0002:0000c510       ??_C@_0N@KHLFFGCJ@turboStartFX@ 300be510     bg_vehicleLoad.obj
 0002:0000c520       ??_C@_07OJDPNJKI@trailFX@  300be520     bg_vehicleLoad.obj
 0002:0000c528       ??_C@_09BPBLMDGM@explodeFX@ 300be528     bg_vehicleLoad.obj
 0002:0000c534       ??_C@_06GMJLHFJI@wakeFX@   300be534     bg_vehicleLoad.obj
 0002:0000c53c       ??_C@_05BMHOEJHI@dmgFX@    300be53c     bg_vehicleLoad.obj
 0002:0000c544       ??_C@_08NBOBHDEO@injureFX@ 300be544     bg_vehicleLoad.obj
 0002:0000c550       ??_C@_06PEEHBBLG@noseFX@   300be550     bg_vehicleLoad.obj
 0002:0000c558       ??_C@_07JNCLAFON@lwingFX@  300be558     bg_vehicleLoad.obj
 0002:0000c560       ??_C@_07PEBKCGPE@rwingFX@  300be560     bg_vehicleLoad.obj
 0002:0000c568       ??_C@_05BIPOGEJM@weap1@    300be568     bg_vehicleLoad.obj
 0002:0000c570       ??_C@_05DDNDDHFP@weap2@    300be570     bg_vehicleLoad.obj
 0002:0000c578       ??_C@_0L@JOPAPHJC@weap1Delay@ 300be578     bg_vehicleLoad.obj
 0002:0000c584       ??_C@_0L@KPBIONAP@weap2Delay@ 300be584     bg_vehicleLoad.obj
 0002:0000c590       ??_C@_09DOHGDAAC@weap1Link@ 300be590     bg_vehicleLoad.obj
 0002:0000c59c       ??_C@_09LIOCECKM@weap2Link@ 300be59c     bg_vehicleLoad.obj
 0002:0000c5a8       ??_C@_08BLGAOKCJ@weap1Aim@ 300be5a8     bg_vehicleLoad.obj
 0002:0000c5b4       ??_C@_08FMMAJAPJ@weap2Aim@ 300be5b4     bg_vehicleLoad.obj
 0002:0000c5c0       ??_C@_0N@LOHHABAP@weap1AmmoMax@ 300be5c0     bg_vehicleLoad.obj
 0002:0000c5d0       ??_C@_0N@IHPKDNMK@weap2AmmoMax@ 300be5d0     bg_vehicleLoad.obj
 0002:0000c5e0       ??_C@_0BE@DHCAAGBM@weap1AmmoRechargeMS@ 300be5e0     bg_vehicleLoad.obj
 0002:0000c5f4       ??_C@_0BE@BOOILCOO@weap2AmmoRechargeMS@ 300be5f4     bg_vehicleLoad.obj
 0002:0000c608       ??_C@_0BB@EBOBGHDB@weap1SoundNoAmmo@ 300be608     bg_vehicleLoad.obj
 0002:0000c61c       ??_C@_0BB@PMCLALPP@weap2SoundNoAmmo@ 300be61c     bg_vehicleLoad.obj
 0002:0000c630       ??_C@_0M@NHFPHPLB@weapMuzzle1@ 300be630     bg_vehicleLoad.obj
 0002:0000c63c       ??_C@_0M@PMHCCMHC@weapMuzzle2@ 300be63c     bg_vehicleLoad.obj
 0002:0000c648       ??_C@_0M@OFGJBNDD@weapMuzzle3@ 300be648     bg_vehicleLoad.obj
 0002:0000c654       ??_C@_0M@KKCIILPE@weapMuzzle4@ 300be654     bg_vehicleLoad.obj
 0002:0000c660       ??_C@_0M@LDDDLKLF@weapMuzzle5@ 300be660     bg_vehicleLoad.obj
 0002:0000c66c       ??_C@_0M@JIBOOJHG@weapMuzzle6@ 300be66c     bg_vehicleLoad.obj
 0002:0000c678       ??_C@_0M@IBAFNIDH@weapMuzzle7@ 300be678     bg_vehicleLoad.obj
 0002:0000c684       ??_C@_0M@GJNMEPI@weapMuzzle8@ 300be684     bg_vehicleLoad.obj
 0002:0000c690       ??_C@_0M@BPIGPFLJ@weapMuzzle9@ 300be690     bg_vehicleLoad.obj
 0002:0000c69c       ??_C@_0N@GDPHOKJG@weapMuzzle10@ 300be69c     bg_vehicleLoad.obj
 0002:0000c6ac       ??_C@_0O@JIDEEHO@landingHeight@ 300be6ac     bg_vehicleLoad.obj
 0002:0000c6bc       ??_C@_07GFBFDLBM@gravity@  300be6bc     bg_vehicleLoad.obj
 0002:0000c6c4       ??_C@_0M@HKBHLPFK@hoverHeight@ 300be6c4     bg_vehicleLoad.obj
 0002:0000c6d0       ??_C@_0O@JOCPMJAA@hoverStrength@ 300be6d0     bg_vehicleLoad.obj
 0002:0000c6e0       ??_C@_0L@KPACIHBI@waterProof@ 300be6e0     bg_vehicleLoad.obj
 0002:0000c6ec       ??_C@_08DLBCDKOK@bouyancy@ 300be6ec     bg_vehicleLoad.obj
 0002:0000c6f8       ??_C@_07PBHPKAIK@fuelMax@  300be6f8     bg_vehicleLoad.obj
 0002:0000c700       ??_C@_08POLMHDEL@fuelRate@ 300be700     bg_vehicleLoad.obj
 0002:0000c70c       ??_C@_0O@LHGBPOCO@turboDuration@ 300be70c     bg_vehicleLoad.obj
 0002:0000c71c       ??_C@_0O@DAFJHCFD@turboRecharge@ 300be71c     bg_vehicleLoad.obj
 0002:0000c72c       ??_C@_0L@CNKMJODB@visibility@ 300be72c     bg_vehicleLoad.obj
 0002:0000c738       ??_C@_08PPAAKLBH@loudness@ 300be738     bg_vehicleLoad.obj
 0002:0000c744       ??_C@_0BA@LKLGPLNG@explosionRadius@ 300be744     bg_vehicleLoad.obj
 0002:0000c754       ??_C@_0BA@HFCGNKHF@explosionDamage@ 300be754     bg_vehicleLoad.obj
 0002:0000c764       ??_C@_0O@NGNHGBJN@maxPassengers@ 300be764     bg_vehicleLoad.obj
 0002:0000c774       ??_C@_09JBJPOHNK@hideRider@ 300be774     bg_vehicleLoad.obj
 0002:0000c780       ??_C@_0BB@PDHEMPIJ@killRiderOnDeath@ 300be780     bg_vehicleLoad.obj
 0002:0000c794       ??_C@_09FEKLMMFJ@flammable@ 300be794     bg_vehicleLoad.obj
 0002:0000c7a0       ??_C@_0P@OINMICGP@explosionDelay@ 300be7a0     bg_vehicleLoad.obj
 0002:0000c7b0       ??_C@_0BL@MPFJFOIP@VehicleMovementModesActive@ 300be7b0     bg_vehicleLoad.obj
 0002:0000c7cc       ??_C@_0BF@GPMLJGFL@MBFstopprimaryfiring@ 300be7cc     bg_vehicleLoad.obj
 0002:0000c7e4       ??_C@_0BB@LGKMCAAB@MBFstopaltfiring@ 300be7e4     bg_vehicleLoad.obj
 0002:0000c7f8       ??_C@_0BC@HAFDLJBA@MBFdisableshields@ 300be7f8     bg_vehicleLoad.obj
 0002:0000c80c       ??_C@_0BE@INPBIKLG@CantKnockoutShields@ 300be80c     bg_vehicleLoad.obj
 0002:0000c820       ??_C@_0BK@HMHIDDFE@AllWeaponsDoDamageToArmor@ 300be820     bg_vehicleLoad.obj
 0002:0000c83c       ??_C@_0BM@LGBMEDDK@AllWeaponsDoDamageToShields@ 300be83c     bg_vehicleLoad.obj
 0002:0000c858       ??_C@_0P@PMEODJBE@ResistsMarking@ 300be858     bg_vehicleLoad.obj
 0002:0000c868       ??_C@_0BM@FOOHJKCD@SpeedMultiplierForRamDamage@ 300be868     bg_vehicleLoad.obj
 0002:0000c884       ??_C@_0P@FFKEJJLI@CloakingDevice@ 300be884     bg_vehicleLoad.obj
 0002:0000c894       ??_C@_0BG@PFPCOFJB@CloakingDeviceOnSound@ 300be894     bg_vehicleLoad.obj
 0002:0000c8ac       ??_C@_0BH@HMLFHDGJ@CloakingDeviceOffSound@ 300be8ac     bg_vehicleLoad.obj
 0002:0000c8c4       ??_C@_0P@GNOAPEOI@cameraOverride@ 300be8c4     bg_vehicleLoad.obj
 0002:0000c8d4       ??_C@_0M@NABKGBHB@cameraRange@ 300be8d4     bg_vehicleLoad.obj
 0002:0000c8e0       ??_C@_0BB@JIEFMMG@cameraVertOffset@ 300be8e0     bg_vehicleLoad.obj
 0002:0000c8f4       ??_C@_0BB@PHKMDBPA@cameraHorzOffset@ 300be8f4     bg_vehicleLoad.obj
 0002:0000c908       ??_C@_0BC@HAMFPJAF@cameraPitchOffset@ 300be908     bg_vehicleLoad.obj
 0002:0000c91c       ??_C@_09DEDNKOMM@cameraFOV@ 300be91c     bg_vehicleLoad.obj
 0002:0000c928       ??_C@_0M@HCDOHHGA@cameraAlpha@ 300be928     bg_vehicleLoad.obj
 0002:0000c934       ??_C@_0BP@GIMDHKNG@cameraPitchDependantVertOffset@ 300be934     bg_vehicleLoad.obj
 0002:0000c954       ??_C@_0M@KPBBIBLI@turret1Weap@ 300be954     bg_vehicleLoad.obj
 0002:0000c960       ??_C@_0N@FBCEIJCP@turret1Delay@ 300be960     bg_vehicleLoad.obj
 0002:0000c970       ??_C@_0P@FIKBECBF@turret1AmmoMax@ 300be970     bg_vehicleLoad.obj
 0002:0000c980       ??_C@_0BG@IIODCJED@turret1AmmoRechargeMS@ 300be980     bg_vehicleLoad.obj
 0002:0000c998       ??_C@_0P@FFEIIECD@turret1YawBone@ 300be998     bg_vehicleLoad.obj
 0002:0000c9a8       ??_C@_0BB@NILOLCBI@turret1PitchBone@ 300be9a8     bg_vehicleLoad.obj
 0002:0000c9bc       ??_C@_0P@MGPBDCIH@turret1YawAxis@ 300be9bc     bg_vehicleLoad.obj
 0002:0000c9cc       ??_C@_0BB@ELAHAELM@turret1PitchAxis@ 300be9cc     bg_vehicleLoad.obj
 0002:0000c9e0       ??_C@_0BB@HFAPNPOM@turret1ClampYawL@ 300be9e0     bg_vehicleLoad.obj
 0002:0000c9f4       ??_C@_0BB@KBEOOADD@turret1ClampYawR@ 300be9f4     bg_vehicleLoad.obj
 0002:0000ca08       ??_C@_0BD@KDJFDHCF@turret1ClampPitchU@ 300bea08     bg_vehicleLoad.obj
 0002:0000ca1c       ??_C@_0BD@PAEMBEDF@turret1ClampPitchD@ 300bea1c     bg_vehicleLoad.obj
 0002:0000ca30       ??_C@_0P@NDNADLOJ@turret1Muzzle1@ 300bea30     bg_vehicleLoad.obj
 0002:0000ca40       ??_C@_0P@PIPNGICK@turret1Muzzle2@ 300bea40     bg_vehicleLoad.obj
 0002:0000ca50       ??_C@_0BB@PDLGOJAM@turret1TurnSpeed@ 300bea50     bg_vehicleLoad.obj
 0002:0000ca64       ??_C@_09IAHODHIH@turret1AI@ 300bea64     bg_vehicleLoad.obj
 0002:0000ca70       ??_C@_0O@NENBBHAC@turret1AILead@ 300bea70     bg_vehicleLoad.obj
 0002:0000ca80       ??_C@_0P@GACJEEPN@turret1AIRange@ 300bea80     bg_vehicleLoad.obj
 0002:0000ca90       ??_C@_0BE@MNFKLHBD@turret1PassengerNum@ 300bea90     bg_vehicleLoad.obj
 0002:0000caa4       ??_C@_0BF@EJJOIICO@turret1GunnerViewTag@ 300beaa4     bg_vehicleLoad.obj
 0002:0000cabc       ??_C@_0M@CJIFPDBG@turret2Weap@ 300beabc     bg_vehicleLoad.obj
 0002:0000cac8       ??_C@_0N@GAMMJDLC@turret2Delay@ 300beac8     bg_vehicleLoad.obj
 0002:0000cad8       ??_C@_0P@GBCMHONA@turret2AmmoMax@ 300bead8     bg_vehicleLoad.obj
 0002:0000cae8       ??_C@_0BG@KBCLJNLB@turret2AmmoRechargeMS@ 300beae8     bg_vehicleLoad.obj
 0002:0000cb00       ??_C@_0P@GMMFLIOG@turret2YawBone@ 300beb00     bg_vehicleLoad.obj
 0002:0000cb10       ??_C@_0BB@EBFMNEBJ@turret2PitchBone@ 300beb10     bg_vehicleLoad.obj
 0002:0000cb24       ??_C@_0P@PPHMAOEC@turret2YawAxis@ 300beb24     bg_vehicleLoad.obj
 0002:0000cb34       ??_C@_0BB@NCOFGCLN@turret2PitchAxis@ 300beb34     bg_vehicleLoad.obj
 0002:0000cb48       ??_C@_0BB@OMONLJON@turret2ClampYawL@ 300beb48     bg_vehicleLoad.obj
 0002:0000cb5c       ??_C@_0BB@DIKMIGDC@turret2ClampYawR@ 300beb5c     bg_vehicleLoad.obj
 0002:0000cb70       ??_C@_0BD@BOFPFLOL@turret2ClampPitchU@ 300beb70     bg_vehicleLoad.obj
 0002:0000cb84       ??_C@_0BD@ENIGHIPL@turret2ClampPitchD@ 300beb84     bg_vehicleLoad.obj
 0002:0000cb98       ??_C@_0P@OKFNAHCM@turret2Muzzle1@ 300beb98     bg_vehicleLoad.obj
 0002:0000cba8       ??_C@_0P@MBHAFEOP@turret2Muzzle2@ 300beba8     bg_vehicleLoad.obj
 0002:0000cbb8       ??_C@_0BB@GKFEIPAN@turret2TurnSpeed@ 300bebb8     bg_vehicleLoad.obj
 0002:0000cbcc       ??_C@_09JCMLJIGJ@turret2AI@ 300bebcc     bg_vehicleLoad.obj
 0002:0000cbd8       ??_C@_0O@FKFOBAOB@turret2AILead@ 300bebd8     bg_vehicleLoad.obj
 0002:0000cbe8       ??_C@_0P@FJKEHIDI@turret2AIRange@ 300bebe8     bg_vehicleLoad.obj
 0002:0000cbf8       ??_C@_0BE@LBDLJCMI@turret2PassengerNum@ 300bebf8     bg_vehicleLoad.obj
 0002:0000cc0c       ??_C@_0BF@FIODOCFH@turret2GunnerViewTag@ 300bec0c     bg_vehicleLoad.obj
 0002:0000cc24       ??_C@_07FABGOOCC@VH_NONE@  300bec24     bg_vehicleLoad.obj
 0002:0000cc2c       ??_C@_09EMIPDFIK@VH_WALKER@ 300bec2c     bg_vehicleLoad.obj
 0002:0000cc38       ??_C@_0L@NKPJKKBD@VH_FIGHTER@ 300bec38     bg_vehicleLoad.obj
 0002:0000cc44       ??_C@_0L@PJKFHOGE@VH_SPEEDER@ 300bec44     bg_vehicleLoad.obj
 0002:0000cc50       ??_C@_09IHBEGJAE@VH_ANIMAL@ 300bec50     bg_vehicleLoad.obj
 0002:0000cc5c       ??_C@_08GLJJKINI@VH_FLIER@ 300bec5c     bg_vehicleLoad.obj
 0002:0000cc68       ??_C@_0FD@MDELBJLL@?$FO3BG_ParseVehWeaponParm?3?5VEC3?5s@ 300bec68     bg_vehicleLoad.obj
 0002:0000ccbc       ??_C@_0L@MLJDLEMM@vehWeapons@ 300becbc     bg_vehicleLoad.obj
 0002:0000ccc8       ??_C@_0DL@FMGLONEB@?$FO1ERROR?3?5unexpected?5EOF?5while?5p@ 300becc8     bg_vehicleLoad.obj
 0002:0000cd04       ??_C@_0DC@DEIKKAAA@?$FO1ERROR?3?5Vehicle?5Weapon?5token?5?8@ 300bed04     bg_vehicleLoad.obj
 0002:0000cd38       ??_C@_0DL@NMOBCAIH@?$FO1ERROR?3?5Unknown?5Vehicle?5Weapon@ 300bed38     bg_vehicleLoad.obj
 0002:0000cd74       ??_C@_0CH@LCICPJML@sound?1vehicles?1weapons?1common?1t@ 300bed74     bg_vehicleLoad.obj
 0002:0000cd9c       ??_C@_0CH@GDPFBACF@sound?1vehicles?1weapons?1common?1l@ 300bed9c     bg_vehicleLoad.obj
 0002:0000cdc4       ??_C@_0CF@GPLNCJPC@sound?1vehicles?1common?1lockalarm@ 300bedc4     bg_vehicleLoad.obj
 0002:0000cdec       ??_C@_0CF@OJCJFLFM@sound?1vehicles?1common?1lockalarm@ 300bedec     bg_vehicleLoad.obj
 0002:0000ce14       ??_C@_0CF@CCHFIIPJ@sound?1vehicles?1common?1lockalarm@ 300bee14     bg_vehicleLoad.obj
 0002:0000ce3c       ??_C@_0DG@NFPGFPBD@?$FO1ERROR?3?5Trying?5to?5read?5Vehicle@ 300bee3c     bg_vehicleLoad.obj
 0002:0000ce78       ??_C@_0EC@OJBJIBOI@?$FO1ERROR?3?5Too?5many?5Vehicle?5Weapo@ 300bee78     bg_vehicleLoad.obj
 0002:0000cebc       ??_C@_0CM@BOPHHAJF@?$FO1ERROR?3?5Could?5not?5find?5Vehicle@ 300beebc     bg_vehicleLoad.obj
 0002:0000cee8       ??_C@_0FB@JIOAPADB@?$FO3BG_ParseVehicleParm?3?5VEC3?5ssc@ 300beee8     bg_vehicleLoad.obj
 0002:0000cf3c       ??_C@_08HAIKMFBJ@vehicles@ 300bef3c     bg_vehicleLoad.obj
 0002:0000cf48       ??_C@_0DE@EKJMGPEC@?$FO1ERROR?3?5unexpected?5EOF?5while?5p@ 300bef48     bg_vehicleLoad.obj
 0002:0000cf7c       ??_C@_0CL@OGPLJEAB@?$FO1ERROR?3?5Vehicle?5token?5?8?$CFs?8?5has@ 300bef7c     bg_vehicleLoad.obj
 0002:0000cfa8       ??_C@_0BM@KNIODCMI@models?1players?1?$CFs?1model?4glm@ 300befa8     bg_vehicleLoad.obj
 0002:0000cfc4       ??_C@_0CA@ODGGEHPP@models?1players?1?$CFs?1model_?$CFs?4skin@ 300befc4     bg_vehicleLoad.obj
 0002:0000cfe4       ??_C@_0BK@NCALAGBO@ships?1ship_explosion_mark@ 300befe4     bg_vehicleLoad.obj
 0002:0000d000       ??_C@_0CC@DCOMBCFJ@sound?1vehicles?1common?1fire_lp?4w@ 300bf000     bg_vehicleLoad.obj
 0002:0000d024       ??_C@_0BB@DNJHOLNH@ships?1swoop_dust@ 300bf024     bg_vehicleLoad.obj
 0002:0000d038       ??_C@_0BI@IOMIPFAI@gfx?1menus?1radar?1bracket@ 300bf038     bg_vehicleLoad.obj
 0002:0000d050       ??_C@_0BF@FLALHJAP@gfx?1menus?1radar?1lead@ 300bf050     bg_vehicleLoad.obj
 0002:0000d068       ??_C@_0BJ@POPKHPP@gfx?1menus?1radar?1asteroid@ 300bf068     bg_vehicleLoad.obj
 0002:0000d084       ??_C@_0CG@LGHONDOI@sound?1vehicles?1common?1impactala@ 300bf084     bg_vehicleLoad.obj
 0002:0000d0ac       ??_C@_0CE@OLLPDHPF@sound?1vehicles?1common?1linkweaps@ 300bf0ac     bg_vehicleLoad.obj
 0002:0000d0d0       ??_C@_0CC@FMEFNJAG@sound?1vehicles?1common?1release?4w@ 300bf0d0     bg_vehicleLoad.obj
 0002:0000d0f4       ??_C@_0BP@DKDDAPFA@effects?1ships?1dest_burning?4efx@ 300bf0f4     bg_vehicleLoad.obj
 0002:0000d114       ??_C@_0CB@PMCFCAHP@effects?1ships?1dest_destroyed?4ef@ 300bf114     bg_vehicleLoad.obj
 0002:0000d138       ??_C@_0BH@EGNCFGHP@volumetric?1black_smoke@ 300bf138     bg_vehicleLoad.obj
 0002:0000d150       ??_C@_0L@FJMBPMOH@ships?1fire@ 300bf150     bg_vehicleLoad.obj
 0002:0000d15c       ??_C@_0BH@MJMHOIHM@ships?1hyperspace_stars@ 300bf15c     bg_vehicleLoad.obj
 0002:0000d174       ??_C@_0BM@OMIIFOPC@gfx?1menus?1radar?1circle_base@ 300bf174     bg_vehicleLoad.obj
 0002:0000d190       ??_C@_0CC@EFBOPOJ@gfx?1menus?1radar?1circle_base_fra@ 300bf190     bg_vehicleLoad.obj
 0002:0000d1b4       ??_C@_0CD@LFPNGPKF@gfx?1menus?1radar?1circle_base_shi@ 300bf1b4     bg_vehicleLoad.obj
 0002:0000d1d8       ??_C@_0CP@GGAMJIMN@?$FO1ERROR?3?5Trying?5to?5read?5Vehicle@ 300bf1d8     bg_vehicleLoad.obj
 0002:0000d208       ??_C@_0DL@LHHFHKNO@?$FO1ERROR?3?5Too?5many?5Vehicles?5?$CImax@ 300bf208     bg_vehicleLoad.obj
 0002:0000d244       ??_C@_0CF@JDPFBFFF@?$FO1ERROR?3?5Could?5not?5find?5Vehicle@ 300bf244     bg_vehicleLoad.obj
 0002:0000d26c       ??_C@_04HHPJGBOE@?4vwp@    300bf26c     bg_vehicleLoad.obj
 0002:0000d274       ??_C@_0BK@NBKBPLIB@ext_data?1vehicles?1weapons@ 300bf274     bg_vehicleLoad.obj
 0002:0000d290       ??_C@_0BN@HEKLMLDI@ext_data?1vehicles?1weapons?1?$CFs@ 300bf290     bg_vehicleLoad.obj
 0002:0000d2b0       ??_C@_01CLKCMJKC@?5@       300bf2b0     bg_vehicleLoad.obj
 0002:0000d2b4       ??_C@_0DA@KBNENJDB@Vehicle?5Weapon?5extensions?5?$CI?$CK?4vw@ 300bf2b4     bg_vehicleLoad.obj
 0002:0000d2e4       ??_C@_04OKEAIOKD@?4veh@    300bf2e4     bg_vehicleLoad.obj
 0002:0000d2ec       ??_C@_0BC@OPBPEGFG@ext_data?1vehicles@ 300bf2ec     bg_vehicleLoad.obj
 0002:0000d300       ??_C@_0BF@IBNPKGMN@ext_data?1vehicles?1?$CFs@ 300bf300     bg_vehicleLoad.obj
 0002:0000d318       ??_C@_0CF@EBIOONKP@Unable?5to?5alloc?5memory?5for?5vehi@ 300bf318     bg_vehicleLoad.obj
 0002:0000d340       ??_C@_0FG@LMELNMJI@Vehicle?5extensions?5?$CI?$CK?4veh?$CJ?5some@ 300bf340     bg_vehicleLoad.obj
 0002:0000d398       ??_C@_0DB@HIPBNILB@BG_GetVehicleModelName?3?5Invalid@ 300bf398     bg_vehicleLoad.obj
 0002:0000d3cc       ??_C@_0DA@KLIHIFFC@BG_GetVehicleSkinName?3?5Invalid?5@ 300bf3cc     bg_vehicleLoad.obj
 0002:0000d3fc       ??_C@_07ECBLGCPH@?$CKdriver@ 300bf3fc     bg_vehicleLoad.obj
 0002:0000d404       ??_C@_06OFNJOBDK@enable@   300bf404     cg_camera.obj
 0002:0000d40c       ??_C@_04HDMMNHEL@move@     300bf40c     cg_camera.obj
 0002:0000d414       ??_C@_0BA@DOGJNJFB@?$CF?$CKs?5?$CFf?5?$CFf?5?$CFf?5?$CFf@ 300bf414     cg_camera.obj
 0002:0000d424       ??_C@_03HOPGHEB@pan@       300bf424     cg_camera.obj
 0002:0000d428       ??_C@_0BJ@OOCHPCAJ@?$CF?$CKs?5?$CFf?5?$CFf?5?$CFf?5?$CFf?5?$CFf?5?$CFf?5?$CFf@ 300bf428     cg_camera.obj
 0002:0000d444       ??_C@_04PLGBOGHH@fade@     300bf444     cg_camera.obj
 0002:0000d44c       ??_C@_0BP@KINPPADI@?$CF?$CKs?5?$CFf?5?$CFf?5?$CFf?5?$CFf?5?$CFf?5?$CFf?5?$CFf?5?$CFf?5?$CFf@ 300bf44c     cg_camera.obj
 0002:0000d46c       ??_C@_04HKCCIOCO@zoom@     300bf46c     cg_camera.obj
 0002:0000d474       ??_C@_09KDLMAJLD@?$CF?$CKs?5?$CFf?5?$CFf@ 300bf474     cg_camera.obj
 0002:0000d480       ??_C@_07DBNODEFN@disable@  300bf480     cg_camera.obj
 0002:0000d488       ??_C@_05LFFLDGPK@shake@    300bf488     cg_camera.obj
 0002:0000d490       ??_C@_09CECEBFHM@?$CF?$CKs?5?$CFf?5?$CFi@ 300bf490     cg_camera.obj
 0002:0000d49c       ??_C@_06HNJAFFAK@follow@   300bf49c     cg_camera.obj
 0002:0000d4a4       ??_C@_0DK@MNOPPNJO@?$CF?$CKs?5?$CFi?5?$CFi?5?$CFi?5?$CFi?5?$CFi?5?$CFi?5?$CFi?5?$CFi?5?$CFi?5@ 300bf4a4     cg_camera.obj
 0002:0000d4e0       ??_C@_0DB@KOMHDDGO@Bad?5CS_CAMERA?5configstring?5in?5C@ 300bf4e0     cg_camera.obj
 0002:0000d514       __real@3d4ccccd            300bf514     cg_camera.obj
 0002:0000d518       __real@46fffe00            300bf518     cg_camera.obj
 0002:0000d51c       ??_C@_0M@NABCNGBA@cg_viewsize@ 300bf51c     cg_consolecmds.obj
 0002:0000d528       ??_C@_0BE@LIFMFIFG@?$CFs?5?$CI?$CFi?5?$CFi?5?$CFi?$CJ?5?3?5?$CFi?6@ 300bf528     cg_consolecmds.obj
 0002:0000d53c       ??_C@_05DBKDOICH@score@    300bf53c     cg_consolecmds.obj
 0002:0000d544       ??_C@_01FDFGLJHB@2@        300bf544     cg_consolecmds.obj
 0002:0000d548       ??_C@_0P@GDCMABHL@cg_cameraOrbit@ 300bf548     cg_consolecmds.obj
 0002:0000d558       ??_C@_02IEKCLPJC@35@       300bf558     cg_consolecmds.obj
 0002:0000d55c       ??_C@_0BE@EKDKKKAP@cg_cameraOrbitDelay@ 300bf55c     cg_consolecmds.obj
 0002:0000d570       ??_C@_01HIHLOKLC@1@        300bf570     cg_consolecmds.obj
 0002:0000d574       ??_C@_0P@OPFJLCMG@cg_thirdPerson@ 300bf574     cg_consolecmds.obj
 0002:0000d584       ??_C@_01GBGANLPD@0@        300bf584     cg_consolecmds.obj
 0002:0000d588       ??_C@_0BE@HGBFBDIP@cg_thirdPersonAngle@ 300bf588     cg_consolecmds.obj
 0002:0000d59c       ??_C@_03GNABGMEE@100@      300bf59c     cg_consolecmds.obj
 0002:0000d5a0       ??_C@_0BE@FKFEAA@cg_thirdPersonRange@ 300bf5a0     cg_consolecmds.obj
 0002:0000d5b4       ??_C@_07MDJMOPGK@YOU_WIN@  300bf5b4     cg_consolecmds.obj
 0002:0000d5bc       ??_C@_09FBJDPOOB@MP_INGAME@ 300bf5bc     cg_consolecmds.obj
 0002:0000d5c8       ??_C@_08GAPGGIF@YOU_LOSE@  300bf5c8     cg_consolecmds.obj
 0002:0000d5d4       ??_C@_0L@EGAGNODH@tell?5?$CFi?5?$CFs@ 300bf5d4     cg_consolecmds.obj
 0002:0000d5e0       ??_C@_09DNECJBKD@developer@ 300bf5e0     cg_consolecmds.obj
 0002:0000d5ec       ??_C@_01BMBHCPLG@5@        300bf5ec     cg_consolecmds.obj
 0002:0000d5f0       ??_C@_07OFBIMGPG@testgun@  300bf5f0     cg_consolecmds.obj
 0002:0000d5f8       ??_C@_09FDMDKFOH@testmodel@ 300bf5f8     cg_consolecmds.obj
 0002:0000d604       ??_C@_09CEJNBBKD@nextframe@ 300bf604     cg_consolecmds.obj
 0002:0000d610       ??_C@_09KFHKLKJD@prevframe@ 300bf610     cg_consolecmds.obj
 0002:0000d61c       ??_C@_08LEEFJCLI@nextskin@ 300bf61c     cg_consolecmds.obj
 0002:0000d628       ??_C@_08ONPIGPGM@prevskin@ 300bf628     cg_consolecmds.obj
 0002:0000d634       ??_C@_07NBKBBFDF@viewpos@  300bf634     cg_consolecmds.obj
 0002:0000d63c       ??_C@_07PNHLECKB@?$CLscores@ 300bf63c     cg_consolecmds.obj
 0002:0000d644       ??_C@_07DLBEELCG@?9scores@ 300bf644     cg_consolecmds.obj
 0002:0000d64c       ??_C@_06FCHHJILH@sizeup@   300bf64c     cg_consolecmds.obj
 0002:0000d654       ??_C@_08KKGKLAHJ@sizedown@ 300bf654     cg_consolecmds.obj
 0002:0000d660       ??_C@_08IJHOKAF@weapnext@  300bf660     cg_consolecmds.obj
 0002:0000d66c       ??_C@_08DMEBPOGB@weapprev@ 300bf66c     cg_consolecmds.obj
 0002:0000d678       ??_C@_06GEPNGEJI@weapon@   300bf678     cg_consolecmds.obj
 0002:0000d680       ??_C@_0M@IFIOEFBC@weaponclean@ 300bf680     cg_consolecmds.obj
 0002:0000d68c       ??_C@_0M@IEEMCPKO@tell_target@ 300bf68c     cg_consolecmds.obj
 0002:0000d698       ??_C@_0O@CIPPGGPC@tell_attacker@ 300bf698     cg_consolecmds.obj
 0002:0000d6a8       ??_C@_04FNICOANA@tcmd@     300bf6a8     cg_consolecmds.obj
 0002:0000d6b0       ??_C@_05NAPLEAGB@spWin@    300bf6b0     cg_consolecmds.obj
 0002:0000d6b8       ??_C@_06EEKPMAA@spLose@    300bf6b8     cg_consolecmds.obj
 0002:0000d6c0       ??_C@_0L@JEAJCAAH@scoresDown@ 300bf6c0     cg_consolecmds.obj
 0002:0000d6cc       ??_C@_08NILIEBDN@scoresUp@ 300bf6cc     cg_consolecmds.obj
 0002:0000d6d8       ??_C@_0L@FBDGNAPC@startOrbit@ 300bf6d8     cg_consolecmds.obj
 0002:0000d6e4       ??_C@_0N@FDCACBMC@loaddeferred@ 300bf6e4     cg_consolecmds.obj
 0002:0000d6f4       ??_C@_07GIMAAJGF@invnext@  300bf6f4     cg_consolecmds.obj
 0002:0000d6fc       ??_C@_07FMBGBNAB@invprev@  300bf6fc     cg_consolecmds.obj
 0002:0000d704       ??_C@_09HEAPLILA@forcenext@ 300bf704     cg_consolecmds.obj
 0002:0000d710       ??_C@_09EANJKMNE@forceprev@ 300bf710     cg_consolecmds.obj
 0002:0000d71c       ??_C@_08PLKIGCGP@briefing@ 300bf71c     cg_consolecmds.obj
 0002:0000d728       ??_C@_0BA@NFKMJLPI@siegeCvarUpdate@ 300bf728     cg_consolecmds.obj
 0002:0000d738       ??_C@_0BI@HDGHMOHC@siegeCompleteCvarUpdate@ 300bf738     cg_consolecmds.obj
 0002:0000d750       ??_C@_0O@OPDOLMPD@siegeCvarList@ 300bf750     cg_consolecmds.obj
 0002:0000d760       ??_C@_08FJOFODJK@gc?5?$CFi?5?$CFi@ 300bf760     cg_consolecmds.obj
 0002:0000d76c       ??_C@_0N@GENKAHPG@forcechanged@ 300bf76c     cg_consolecmds.obj
 0002:0000d77c       ??_C@_0L@FHBJCIGK@sv_invnext@ 300bf77c     cg_consolecmds.obj
 0002:0000d788       ??_C@_0L@GDMPDMAO@sv_invprev@ 300bf788     cg_consolecmds.obj
 0002:0000d794       ??_C@_0N@LPPOILPI@sv_forcenext@ 300bf794     cg_consolecmds.obj
 0002:0000d7a4       ??_C@_0N@ILCIJPJM@sv_forceprev@ 300bf7a4     cg_consolecmds.obj
 0002:0000d7b4       ??_C@_0P@LACKILCD@sv_saberswitch@ 300bf7b4     cg_consolecmds.obj
 0002:0000d7c4       ??_C@_0M@HCFMJNJ@engage_duel@ 300bf7c4     cg_consolecmds.obj
 0002:0000d7d0       ??_C@_0L@INHFGGPP@force_heal@ 300bf7d0     cg_consolecmds.obj
 0002:0000d7dc       ??_C@_0M@GNLMHCDK@force_speed@ 300bf7dc     cg_consolecmds.obj
 0002:0000d7e8       ??_C@_0M@IBJPDFKD@force_throw@ 300bf7e8     cg_consolecmds.obj
 0002:0000d7f4       ??_C@_0L@IFCEHOHA@force_pull@ 300bf7f4     cg_consolecmds.obj
 0002:0000d800       ??_C@_0P@PMALMCEF@force_distract@ 300bf800     cg_consolecmds.obj
 0002:0000d810       ??_C@_0L@PNAILJHA@force_rage@ 300bf810     cg_consolecmds.obj
 0002:0000d81c       ??_C@_0O@MHNHIGKF@force_protect@ 300bf81c     cg_consolecmds.obj
 0002:0000d82c       ??_C@_0N@LHEDBPBG@force_absorb@ 300bf82c     cg_consolecmds.obj
 0002:0000d83c       ??_C@_0BA@FAEJBFDN@force_healother@ 300bf83c     cg_consolecmds.obj
 0002:0000d84c       ??_C@_0BG@IPJAFHDH@force_forcepowerother@ 300bf84c     cg_consolecmds.obj
 0002:0000d864       ??_C@_0N@PIIHDBOG@force_seeing@ 300bf864     cg_consolecmds.obj
 0002:0000d874       ??_C@_0L@PHNIGFGH@use_seeker@ 300bf874     cg_consolecmds.obj
 0002:0000d880       ??_C@_09IOIGHDGJ@use_field@ 300bf880     cg_consolecmds.obj
 0002:0000d88c       ??_C@_09GPEOCDOP@use_bacta@ 300bf88c     cg_consolecmds.obj
 0002:0000d898       ??_C@_0BG@OOGFIKBA@use_electrobinoculars@ 300bf898     cg_consolecmds.obj
 0002:0000d8b0       ??_C@_0L@HCOPHPIB@use_sentry@ 300bf8b0     cg_consolecmds.obj
 0002:0000d8bc       ??_C@_09CKNLHHEO@bot_order@ 300bf8bc     cg_consolecmds.obj
 0002:0000d8c8       ??_C@_0BB@CFPBIBMB@saberAttackCycle@ 300bf8c8     cg_consolecmds.obj
 0002:0000d8dc       ??_C@_04BJJEOANI@kill@     300bf8dc     cg_consolecmds.obj
 0002:0000d8e4       ??_C@_03BANJEMDJ@say@      300bf8e4     cg_consolecmds.obj
 0002:0000d8e8       ??_C@_08NBFNGOHN@say_team@ 300bf8e8     cg_consolecmds.obj
 0002:0000d8f4       ??_C@_04LBPCFPDD@tell@     300bf8f4     cg_consolecmds.obj
 0002:0000d8fc       ??_C@_04BMBHJADG@give@     300bf8fc     cg_consolecmds.obj
 0002:0000d904       ??_C@_03DKFAMNOH@god@      300bf904     cg_consolecmds.obj
 0002:0000d908       ??_C@_08HPLPOCJL@notarget@ 300bf908     cg_consolecmds.obj
 0002:0000d914       ??_C@_06IHODGGMJ@noclip@   300bf914     cg_consolecmds.obj
 0002:0000d91c       ??_C@_04KADBPNCB@team@     300bf91c     cg_consolecmds.obj
 0002:0000d924       ??_C@_09EFOFPGPE@levelshot@ 300bf924     cg_consolecmds.obj
 0002:0000d930       ??_C@_06CJHCPEHG@addbot@   300bf930     cg_consolecmds.obj
 0002:0000d938       ??_C@_0L@CCEFBCKP@setviewpos@ 300bf938     cg_consolecmds.obj
 0002:0000d944       ??_C@_08NNMLCPB@callvote@  300bf944     cg_consolecmds.obj
 0002:0000d950       ??_C@_04GHHIKFLG@vote@     300bf950     cg_consolecmds.obj
 0002:0000d958       ??_C@_0N@JDBKAFAM@callteamvote@ 300bf958     cg_consolecmds.obj
 0002:0000d968       ??_C@_08OLLMCBNG@teamvote@ 300bf968     cg_consolecmds.obj
 0002:0000d974       ??_C@_05BLKJBNOD@stats@    300bf974     cg_consolecmds.obj
 0002:0000d97c       ??_C@_08OKGPDOIO@teamtask@ 300bf97c     cg_consolecmds.obj
 0002:0000d988       ??_C@_0M@NJBPNDAH@loaddefered@ 300bf988     cg_consolecmds.obj
 0002:0000d994       ??_C@_0M@NOGHMIJC@togglesaber@ 300bf994     cg_consolecmds.obj
 0002:0000d9a0       ??_C@_0L@BDOGHBMH@armor_tic1@ 300bf9a0     cg_draw.obj
 0002:0000d9ac       ??_C@_0L@DIMLCCAE@armor_tic2@ 300bf9ac     cg_draw.obj
 0002:0000d9b8       ??_C@_0L@CBNABDEF@armor_tic3@ 300bf9b8     cg_draw.obj
 0002:0000d9c4       ??_C@_0L@GOJBIFIC@armor_tic4@ 300bf9c4     cg_draw.obj
 0002:0000d9d0       ??_C@_0L@HHIKLEMD@armor_tic5@ 300bf9d0     cg_draw.obj
 0002:0000d9dc       ??_C@_0L@FMKHOHAA@armor_tic6@ 300bf9dc     cg_draw.obj
 0002:0000d9e8       ??_C@_0L@EFLMNGEB@armor_tic7@ 300bf9e8     cg_draw.obj
 0002:0000d9f4       ??_C@_0L@MCCEMKIO@armor_tic8@ 300bf9f4     cg_draw.obj
 0002:0000da00       ??_C@_0L@GOCCFELD@force_tic1@ 300bfa00     cg_draw.obj
 0002:0000da0c       ??_C@_0L@EFAPAHHA@force_tic2@ 300bfa0c     cg_draw.obj
 0002:0000da18       ??_C@_0L@FMBEDGDB@force_tic3@ 300bfa18     cg_draw.obj
 0002:0000da24       ??_C@_0L@BDFFKAPG@force_tic4@ 300bfa24     cg_draw.obj
 0002:0000da30       ??_C@_0L@KEOJBLH@force_tic5@ 300bfa30     cg_draw.obj
 0002:0000da3c       ??_C@_0L@CBGDMCHE@force_tic6@ 300bfa3c     cg_draw.obj
 0002:0000da48       ??_C@_0L@DIHIPDDF@force_tic7@ 300bfa48     cg_draw.obj
 0002:0000da54       ??_C@_0L@LPOAOPPK@force_tic8@ 300bfa54     cg_draw.obj
 0002:0000da60       ??_C@_0L@GNNONIHD@dodge_tic1@ 300bfa60     cg_draw.obj
 0002:0000da6c       ??_C@_0L@EGPDILLA@dodge_tic2@ 300bfa6c     cg_draw.obj
 0002:0000da78       ??_C@_0L@FPOILKPB@dodge_tic3@ 300bfa78     cg_draw.obj
 0002:0000da84       ??_C@_0L@BAKJCMDG@dodge_tic4@ 300bfa84     cg_draw.obj
 0002:0000da90       ??_C@_0L@JLCBNHH@dodge_tic5@ 300bfa90     cg_draw.obj
 0002:0000da9c       ??_C@_0L@CCJPEOLE@dodge_tic6@ 300bfa9c     cg_draw.obj
 0002:0000daa8       ??_C@_0L@DLIEHPPF@dodge_tic7@ 300bfaa8     cg_draw.obj
 0002:0000dab4       ??_C@_0L@LMBMGDDK@dodge_tic8@ 300bfab4     cg_draw.obj
 0002:0000dac0       ??_C@_09ICAECBDN@ammo_tic1@ 300bfac0     cg_draw.obj
 0002:0000dacc       ??_C@_09KJCJHCPO@ammo_tic2@ 300bfacc     cg_draw.obj
 0002:0000dad8       ??_C@_09LADCEDLP@ammo_tic3@ 300bfad8     cg_draw.obj
 0002:0000dae4       ??_C@_09PPHDNFHI@ammo_tic4@ 300bfae4     cg_draw.obj
 0002:0000daf0       ??_C@_09OGGIOEDJ@ammo_tic5@ 300bfaf0     cg_draw.obj
 0002:0000dafc       ??_C@_09MNEFLHPK@ammo_tic6@ 300bfafc     cg_draw.obj
 0002:0000db08       ??_C@_09NEFOIGLL@ammo_tic7@ 300bfb08     cg_draw.obj
 0002:0000db14       ??_C@_09FDMGJKHE@ammo_tic8@ 300bfb14     cg_draw.obj
 0002:0000db20       ??_C@_0M@CIMKKHIN@mishap_tic1@ 300bfb20     cg_draw.obj
 0002:0000db2c       ??_C@_0M@DOHPEEO@mishap_tic2@ 300bfb2c     cg_draw.obj
 0002:0000db38       ??_C@_0M@BKPMMFAP@mishap_tic3@ 300bfb38     cg_draw.obj
 0002:0000db44       ??_C@_0M@FFLNFDMI@mishap_tic4@ 300bfb44     cg_draw.obj
 0002:0000db50       ??_C@_0M@EMKGGCIJ@mishap_tic5@ 300bfb50     cg_draw.obj
 0002:0000db5c       ??_C@_0M@GHILDBEK@mishap_tic6@ 300bfb5c     cg_draw.obj
 0002:0000db68       ??_C@_0M@HOJAAAAL@mishap_tic7@ 300bfb68     cg_draw.obj
 0002:0000db74       ??_C@_0M@PJAIBMME@mishap_tic8@ 300bfb74     cg_draw.obj
 0002:0000db80       ??_C@_0M@OABDCNIF@mishap_tic9@ 300bfb80     cg_draw.obj
 0002:0000db8c       ??_C@_0N@EMGHADMJ@mishap_tic10@ 300bfb8c     cg_draw.obj
 0002:0000db9c       ??_C@_0N@FFHMDCII@mishap_tic11@ 300bfb9c     cg_draw.obj
 0002:0000dbac       ??_C@_0N@HOFBGBEL@mishap_tic12@ 300bfbac     cg_draw.obj
 0002:0000dbbc       ??_C@_0N@GHEKFAAK@mishap_tic13@ 300bfbbc     cg_draw.obj
 0002:0000dbcc       ??_C@_0N@CIALMGMN@mishap_tic14@ 300bfbcc     cg_draw.obj
 0002:0000dbdc       ??_C@_0N@DBBAPHIM@mishap_tic15@ 300bfbdc     cg_draw.obj
 0002:0000dbec       ??_C@_05IKHNBOOJ@HEAL2@    300bfbec     cg_draw.obj
 0002:0000dbf4       ??_C@_05PILPMNMM@JUMP2@    300bfbf4     cg_draw.obj
 0002:0000dbfc       ??_C@_06NKBKNFAH@SPEED2@   300bfbfc     cg_draw.obj
 0002:0000dc04       ??_C@_05PIABDOFF@PUSH2@    300bfc04     cg_draw.obj
 0002:0000dc0c       ??_C@_05PHHCNBEA@PULL2@    300bfc0c     cg_draw.obj
 0002:0000dc14       ??_C@_0L@ILKNLNPA@MINDTRICK2@ 300bfc14     cg_draw.obj
 0002:0000dc20       ??_C@_05HJGDJFFF@GRIP2@    300bfc20     cg_draw.obj
 0002:0000dc28       ??_C@_0L@DOELCCHN@LIGHTNING2@ 300bfc28     cg_draw.obj
 0002:0000dc34       ??_C@_0L@MHGIMFCO@DARK_RAGE2@ 300bfc34     cg_draw.obj
 0002:0000dc40       ??_C@_08MGIMODBK@PROTECT2@ 300bfc40     cg_draw.obj
 0002:0000dc4c       ??_C@_07DKNPJIC@ABSORB2@   300bfc4c     cg_draw.obj
 0002:0000dc54       ??_C@_0L@EOCADFMC@TEAM_HEAL2@ 300bfc54     cg_draw.obj
 0002:0000dc60       ??_C@_0BA@PGEKMKPK@TEAM_REPLENISH2@ 300bfc60     cg_draw.obj
 0002:0000dc70       ??_C@_06IHGKEKOC@DRAIN2@   300bfc70     cg_draw.obj
 0002:0000dc78       ??_C@_07LOFPMPLA@SEEING2@  300bfc78     cg_draw.obj
 0002:0000dc80       ??_C@_0P@EFGPLIOK@SABER_OFFENSE2@ 300bfc80     cg_draw.obj
 0002:0000dc90       ??_C@_0P@EJLFCBNE@SABER_DEFENSE2@ 300bfc90     cg_draw.obj
 0002:0000dca0       ??_C@_0N@PIKOAACM@SABER_THROW2@ 300bfca0     cg_draw.obj
 0002:0000dcb0       ??_C@_05JDGGCPKI@HEAL3@    300bfcb0     cg_draw.obj
 0002:0000dcb8       ??_C@_05OBKEPMIN@JUMP3@    300bfcb8     cg_draw.obj
 0002:0000dcc0       ??_C@_06MDABOEEG@SPEED3@   300bfcc0     cg_draw.obj
 0002:0000dcc8       ??_C@_05OBBKAPBE@PUSH3@    300bfcc8     cg_draw.obj
 0002:0000dcd0       ??_C@_05OOGJOAAB@PULL3@    300bfcd0     cg_draw.obj
 0002:0000dcd8       ??_C@_0L@JCLGIMLB@MINDTRICK3@ 300bfcd8     cg_draw.obj
 0002:0000dce4       ??_C@_05GAHIKEBE@GRIP3@    300bfce4     cg_draw.obj
 0002:0000dcec       ??_C@_0L@CHFABDDM@LIGHTNING3@ 300bfcec     cg_draw.obj
 0002:0000dcf8       ??_C@_0L@NOHDPEGP@DARK_RAGE3@ 300bfcf8     cg_draw.obj
 0002:0000dd04       ??_C@_08NPJHNCFL@PROTECT3@ 300bfd04     cg_draw.obj
 0002:0000dd10       ??_C@_07BKLGMIMD@ABSORB3@  300bfd10     cg_draw.obj
 0002:0000dd18       ??_C@_0L@FHDLAEID@TEAM_HEAL3@ 300bfd18     cg_draw.obj
 0002:0000dd24       ??_C@_0BA@OPFBPLLL@TEAM_REPLENISH3@ 300bfd24     cg_draw.obj
 0002:0000dd34       ??_C@_06JOHBHLKD@DRAIN3@   300bfd34     cg_draw.obj
 0002:0000dd3c       ??_C@_07KHEEPOPB@SEEING3@  300bfd3c     cg_draw.obj
 0002:0000dd44       ??_C@_0P@FMHEIJKL@SABER_OFFENSE3@ 300bfd44     cg_draw.obj
 0002:0000dd54       ??_C@_0P@FAKOBAJF@SABER_DEFENSE3@ 300bfd54     cg_draw.obj
 0002:0000dd64       ??_C@_0N@OBLFDBGN@SABER_THROW3@ 300bfd64     cg_draw.obj
 0002:0000dd74       ??_C@_05EBCGMOIM@NONE2@    300bfd74     cg_draw.obj
 0002:0000dd7c       ??_C@_07JHDHKEK@SEEKER2@   300bfd7c     cg_draw.obj
 0002:0000dd84       ??_C@_07MFPFPFNI@SHIELD2@  300bfd84     cg_draw.obj
 0002:0000dd8c       ??_C@_07COKIHCHF@MEDPAC2@  300bfd8c     cg_draw.obj
 0002:0000dd94       ??_C@_0P@MHGCAHGH@SHIELDBOOSTER2@ 300bfd94     cg_draw.obj
 0002:0000dda4       ??_C@_0M@FNFHHHBB@BINOCULARS2@ 300bfda4     cg_draw.obj
 0002:0000ddb0       ??_C@_0M@BKPPEOCH@SENTRY_GUN2@ 300bfdb0     cg_draw.obj
 0002:0000ddbc       ??_C@_08JFKONLGI@JETPACK2@ 300bfdbc     cg_draw.obj
 0002:0000ddc8       ??_C@_0L@PPNCGHAC@SQUADTEAM2@ 300bfdc8     cg_draw.obj
 0002:0000ddd4       ??_C@_0O@DADMFDFO@VEHICLEMOUNT2@ 300bfdd4     cg_draw.obj
 0002:0000dde4       ??_C@_05KJDPHDII@EWEB2@    300bfde4     cg_draw.obj
 0002:0000ddec       ??_C@_06HFOEDOC@CLOAK2@    300bfdec     cg_draw.obj
 0002:0000ddf4       ??_C@_0O@EFLCONMC@FLAMETHROWER2@ 300bfdf4     cg_draw.obj
 0002:0000de04       ??_C@_0BA@PGKHMGNM@ELECTROSHOCKER2@ 300bfe04     cg_draw.obj
 0002:0000de14       ??_C@_0O@JLBIOONP@SPHERESHIELD2@ 300bfe14     cg_draw.obj
 0002:0000de24       ??_C@_09LMMJIMPF@OVERLOAD2@ 300bfe24     cg_draw.obj
 0002:0000de30       ??_C@_08CIAEDEAK@GRAPPLE2@ 300bfe30     cg_draw.obj
 0002:0000de3c       ??_C@_05FIDNPPMN@NONE3@    300bfe3c     cg_draw.obj
 0002:0000de44       ??_C@_07BAGIELAL@SEEKER3@  300bfe44     cg_draw.obj
 0002:0000de4c       ??_C@_07NMOOMEJJ@SHIELD3@  300bfe4c     cg_draw.obj
 0002:0000de54       ??_C@_07DHLDEDDE@MEDPAC3@  300bfe54     cg_draw.obj
 0002:0000de5c       ??_C@_0P@NOHJDGCG@SHIELDBOOSTER3@ 300bfe5c     cg_draw.obj
 0002:0000de6c       ??_C@_0M@EEEMEGFA@BINOCULARS3@ 300bfe6c     cg_draw.obj
 0002:0000de78       ??_C@_0M@DOEHPGG@SENTRY_GUN3@ 300bfe78     cg_draw.obj
 0002:0000de84       ??_C@_08IMLFOKCJ@JETPACK3@ 300bfe84     cg_draw.obj
 0002:0000de90       ??_C@_0L@OGMJFGED@SQUADTEAM3@ 300bfe90     cg_draw.obj
 0002:0000de9c       ??_C@_0O@CJCHGCBP@VEHICLEMOUNT3@ 300bfe9c     cg_draw.obj
 0002:0000deac       ??_C@_05LACEECMJ@EWEB3@    300bfeac     cg_draw.obj
 0002:0000deb4       ??_C@_06BOEFHCKD@CLOAK3@   300bfeb4     cg_draw.obj
 0002:0000debc       ??_C@_0O@FMKJNMID@FLAMETHROWER3@ 300bfebc     cg_draw.obj
 0002:0000decc       ??_C@_0BA@OPLMPHJN@ELECTROSHOCKER3@ 300bfecc     cg_draw.obj
 0002:0000dedc       ??_C@_0O@ICADNPJO@SPHERESHIELD3@ 300bfedc     cg_draw.obj
 0002:0000deec       ??_C@_09KFNCLNLE@OVERLOAD3@ 300bfeec     cg_draw.obj
 0002:0000def8       ??_C@_08DBBPAFEL@GRAPPLE3@ 300bfef8     cg_draw.obj
 0002:0000df04       ??_C@_05BHHMGJAK@NONE4@    300bff04     cg_draw.obj
 0002:0000df0c       ??_C@_07FPCJNNMM@SEEKER4@  300bff0c     cg_draw.obj
 0002:0000df14       ??_C@_07JDKPFCFO@SHIELD4@  300bff14     cg_draw.obj
 0002:0000df1c       ??_C@_07HIPCNFPD@MEDPAC4@  300bff1c     cg_draw.obj
 0002:0000df24       ??_C@_0P@JBDIKAOB@SHIELDBOOSTER4@ 300bff24     cg_draw.obj
 0002:0000df34       ??_C@_0M@LANNAJH@BINOCULARS4@ 300bff34     cg_draw.obj
 0002:0000df40       ??_C@_0M@EMKFOJKB@SENTRY_GUN4@ 300bff40     cg_draw.obj
 0002:0000df4c       ??_C@_08MDPEHMOO@JETPACK4@ 300bff4c     cg_draw.obj
 0002:0000df58       ??_C@_0L@KJIIMAIE@SQUADTEAM4@ 300bff58     cg_draw.obj
 0002:0000df64       ??_C@_0O@GGGGPENI@VEHICLEMOUNT4@ 300bff64     cg_draw.obj
 0002:0000df74       ??_C@_05PPGFNEAO@EWEB4@    300bff74     cg_draw.obj
 0002:0000df7c       ??_C@_06FBAEOEGE@CLOAK4@   300bff7c     cg_draw.obj
 0002:0000df84       ??_C@_0O@BDOIEKEE@FLAMETHROWER4@ 300bff84     cg_draw.obj
 0002:0000df94       ??_C@_0BA@KAPNGBFK@ELECTROSHOCKER4@ 300bff94     cg_draw.obj
 0002:0000dfa4       ??_C@_0O@MNECEJFJ@SPHERESHIELD4@ 300bffa4     cg_draw.obj
 0002:0000dfb4       ??_C@_09OKJDCLHD@OVERLOAD4@ 300bffb4     cg_draw.obj
 0002:0000dfc0       ??_C@_08HOFOJDIM@GRAPPLE4@ 300bffc0     cg_draw.obj
 0002:0000dfcc       ??_C@_05OGHFIEL@NONE5@     300bffcc     cg_draw.obj
 0002:0000dfd4       ??_C@_07EGDCOMIN@SEEKER5@  300bffd4     cg_draw.obj
 0002:0000dfdc       ??_C@_07IKLEGDBP@SHIELD5@  300bffdc     cg_draw.obj
 0002:0000dfe4       ??_C@_07GBOJOELC@MEDPAC5@  300bffe4     cg_draw.obj
 0002:0000dfec       ??_C@_0P@IICDJBKA@SHIELDBOOSTER5@ 300bffec     cg_draw.obj
 0002:0000dffc       ??_C@_0M@BCBGOBNG@BINOCULARS5@ 300bfffc     cg_draw.obj
 0002:0000e008       ??_C@_0M@FFLONIOA@SENTRY_GUN5@ 300c0008     cg_draw.obj
 0002:0000e014       ??_C@_08NKOPENKP@JETPACK5@ 300c0014     cg_draw.obj
 0002:0000e020       ??_C@_0L@LAJDPBMF@SQUADTEAM5@ 300c0020     cg_draw.obj
 0002:0000e02c       ??_C@_0O@HPHNMFJJ@VEHICLEMOUNT5@ 300c002c     cg_draw.obj
 0002:0000e03c       ??_C@_05OGHOOFEP@EWEB5@    300c003c     cg_draw.obj
 0002:0000e044       ??_C@_06EIBPNFCF@CLOAK5@   300c0044     cg_draw.obj
 0002:0000e04c       ??_C@_0O@KPDHLAF@FLAMETHROWER5@ 300c004c     cg_draw.obj
 0002:0000e05c       ??_C@_0BA@LJOGFABL@ELECTROSHOCKER5@ 300c005c     cg_draw.obj
 0002:0000e06c       ??_C@_0O@NEFJHIBI@SPHERESHIELD5@ 300c006c     cg_draw.obj
 0002:0000e07c       ??_C@_09PDIIBKDC@OVERLOAD5@ 300c007c     cg_draw.obj
 0002:0000e088       ??_C@_08GHEFKCMN@GRAPPLE5@ 300c0088     cg_draw.obj
 0002:0000e094       ??_C@_05CFEKALII@NONE6@    300c0094     cg_draw.obj
 0002:0000e09c       ??_C@_07GNBPLPEO@SEEKER6@  300c009c     cg_draw.obj
 0002:0000e0a4       ??_C@_07KBJJDANM@SHIELD6@  300c00a4     cg_draw.obj
 0002:0000e0ac       ??_C@_07EKMELHHB@MEDPAC6@  300c00ac     cg_draw.obj
 0002:0000e0b4       ??_C@_0P@KDAOMCGD@SHIELDBOOSTER6@ 300c00b4     cg_draw.obj
 0002:0000e0c4       ??_C@_0M@DJDLLCBF@BINOCULARS6@ 300c00c4     cg_draw.obj
 0002:0000e0d0       ??_C@_0M@HOJDILCD@SENTRY_GUN6@ 300c00d0     cg_draw.obj
 0002:0000e0dc       ??_C@_08PBMCBOGM@JETPACK6@ 300c00dc     cg_draw.obj
 0002:0000e0e8       ??_C@_0L@JLLOKCAG@SQUADTEAM6@ 300c00e8     cg_draw.obj
 0002:0000e0f4       ??_C@_0O@FEFAJGFK@VEHICLEMOUNT6@ 300c00f4     cg_draw.obj
 0002:0000e104       ??_C@_05MNFDLGIM@EWEB6@    300c0104     cg_draw.obj
 0002:0000e10c       ??_C@_06GDDCIGOG@CLOAK6@   300c010c     cg_draw.obj
 0002:0000e114       ??_C@_0O@CBNOCIMG@FLAMETHROWER6@ 300c0114     cg_draw.obj
 0002:0000e124       ??_C@_0BA@JCMLADNI@ELECTROSHOCKER6@ 300c0124     cg_draw.obj
 0002:0000e134       ??_C@_0O@PPHECLNL@SPHERESHIELD6@ 300c0134     cg_draw.obj
 0002:0000e144       ??_C@_09NIKFEJPB@OVERLOAD6@ 300c0144     cg_draw.obj
 0002:0000e150       ??_C@_08EMGIPBAO@GRAPPLE6@ 300c0150     cg_draw.obj
 0002:0000e15c       ??_C@_05DMFBDKMJ@NONE7@    300c015c     cg_draw.obj
 0002:0000e164       ??_C@_07HEAEIOAP@SEEKER7@  300c0164     cg_draw.obj
 0002:0000e16c       ??_C@_07LIICABJN@SHIELD7@  300c016c     cg_draw.obj
 0002:0000e174       ??_C@_07FDNPIGDA@MEDPAC7@  300c0174     cg_draw.obj
 0002:0000e17c       ??_C@_0P@LKBFPDCC@SHIELDBOOSTER7@ 300c017c     cg_draw.obj
 0002:0000e18c       ??_C@_0M@CACAIDFE@BINOCULARS7@ 300c018c     cg_draw.obj
 0002:0000e198       ??_C@_0M@GHIILKGC@SENTRY_GUN7@ 300c0198     cg_draw.obj
 0002:0000e1a4       ??_C@_08OINJCPCN@JETPACK7@ 300c01a4     cg_draw.obj
 0002:0000e1b0       ??_C@_0L@ICKFJDEH@SQUADTEAM7@ 300c01b0     cg_draw.obj
 0002:0000e1bc       ??_C@_0O@ENELKHBL@VEHICLEMOUNT7@ 300c01bc     cg_draw.obj
 0002:0000e1cc       ??_C@_05NEEIIHMN@EWEB7@    300c01cc     cg_draw.obj
 0002:0000e1d4       ??_C@_06HKCJLHKH@CLOAK7@   300c01d4     cg_draw.obj
 0002:0000e1dc       ??_C@_0O@DIMFBJIH@FLAMETHROWER7@ 300c01dc     cg_draw.obj
 0002:0000e1ec       ??_C@_0BA@ILNADCJJ@ELECTROSHOCKER7@ 300c01ec     cg_draw.obj
 0002:0000e1fc       ??_C@_0O@OGGPBKJK@SPHERESHIELD7@ 300c01fc     cg_draw.obj
 0002:0000e20c       ??_C@_09MBLOHILA@OVERLOAD7@ 300c020c     cg_draw.obj
 0002:0000e218       ??_C@_08FFHDMAEP@GRAPPLE7@ 300c0218     cg_draw.obj
 0002:0000e224       ??_C@_05LLMJCGAG@NONE8@    300c0224     cg_draw.obj
 0002:0000e22c       ??_C@_07PDJMJCMA@SEEKER8@  300c022c     cg_draw.obj
 0002:0000e234       ??_C@_07DPBKBNFC@SHIELD8@  300c0234     cg_draw.obj
 0002:0000e23c       ??_C@_07NEEHJKPP@MEDPAC8@  300c023c     cg_draw.obj
 0002:0000e244       ??_C@_0P@DNINOPON@SHIELDBOOSTER8@ 300c0244     cg_draw.obj
 0002:0000e254       ??_C@_0M@KHLIJPJL@BINOCULARS8@ 300c0254     cg_draw.obj
 0002:0000e260       ??_C@_0M@OABAKGKN@SENTRY_GUN8@ 300c0260     cg_draw.obj
 0002:0000e26c       ??_C@_08GPEBDDOC@JETPACK8@ 300c026c     cg_draw.obj
 0002:0000e278       ??_C@_0L@FDNIPII@SQUADTEAM8@ 300c0278     cg_draw.obj
 0002:0000e284       ??_C@_0O@MKNDLLNE@VEHICLEMOUNT8@ 300c0284     cg_draw.obj
 0002:0000e294       ??_C@_05FDNAJLAC@EWEB8@    300c0294     cg_draw.obj
 0002:0000e29c       ??_C@_06PNLBKLGI@CLOAK8@   300c029c     cg_draw.obj
 0002:0000e2a4       ??_C@_0O@LPFNAFEI@FLAMETHROWER8@ 300c02a4     cg_draw.obj
 0002:0000e2b4       ??_C@_0BA@MEICOFG@ELECTROSHOCKER8@ 300c02b4     cg_draw.obj
 0002:0000e2c4       ??_C@_0O@GBPHAGFF@SPHERESHIELD8@ 300c02c4     cg_draw.obj
 0002:0000e2d4       ??_C@_09EGCGGEHP@OVERLOAD8@ 300c02d4     cg_draw.obj
 0002:0000e2e0       ??_C@_08NCOLNMIA@GRAPPLE8@ 300c02e0     cg_draw.obj
 0002:0000e2ec       ??_C@_05KCNCBHEH@NONE9@    300c02ec     cg_draw.obj
 0002:0000e2f4       ??_C@_07OKIHKDIB@SEEKER9@  300c02f4     cg_draw.obj
 0002:0000e2fc       ??_C@_07CGABCMBD@SHIELD9@  300c02fc     cg_draw.obj
 0002:0000e304       ??_C@_07MNFMKLLO@MEDPAC9@  300c0304     cg_draw.obj
 0002:0000e30c       ??_C@_0P@CEJGNOKM@SHIELDBOOSTER9@ 300c030c     cg_draw.obj
 0002:0000e31c       ??_C@_0M@LOKDKONK@BINOCULARS9@ 300c031c     cg_draw.obj
 0002:0000e328       ??_C@_0M@PJALJHOM@SENTRY_GUN9@ 300c0328     cg_draw.obj
 0002:0000e334       ??_C@_08HGFKACKD@JETPACK9@ 300c0334     cg_draw.obj
 0002:0000e340       ??_C@_0L@BMCGLOMJ@SQUADTEAM9@ 300c0340     cg_draw.obj
 0002:0000e34c       ??_C@_0O@NDMIIKJF@VEHICLEMOUNT9@ 300c034c     cg_draw.obj
 0002:0000e35c       ??_C@_05EKMLKKED@EWEB9@    300c035c     cg_draw.obj
 0002:0000e364       ??_C@_06OEKKJKCJ@CLOAK9@   300c0364     cg_draw.obj
 0002:0000e36c       ??_C@_0O@KGEGDEAJ@FLAMETHROWER9@ 300c036c     cg_draw.obj
 0002:0000e37c       ??_C@_0BA@BFFDBPBH@ELECTROSHOCKER9@ 300c037c     cg_draw.obj
 0002:0000e38c       ??_C@_0O@HIOMDHBE@SPHERESHIELD9@ 300c038c     cg_draw.obj
 0002:0000e39c       ??_C@_09FPDNFFDO@OVERLOAD9@ 300c039c     cg_draw.obj
 0002:0000e3a8       ??_C@_08MLPAONMB@GRAPPLE9@ 300c03a8     cg_draw.obj
 0002:0000e3b4       ??_C@_0O@NAADLNOK@vehicle_front@ 300c03b4     cg_draw.obj
 0002:0000e3c4       ??_C@_0N@PHICPLFA@vehicle_back@ 300c03c4     cg_draw.obj
 0002:0000e3d4       ??_C@_0N@MEBBOBD@vehicle_left@ 300c03d4     cg_draw.obj
 0002:0000e3e4       ??_C@_0O@JOENAPKJ@vehicle_right@ 300c03e4     cg_draw.obj
 0002:0000e3f4       ??_C@_0M@KEKOKPGF@health_tic1@ 300c03f4     cg_draw.obj
 0002:0000e400       ??_C@_0N@DHHIJOLI@healthamount@ 300c0400     cg_draw.obj
 0002:0000e410       ??_C@_0L@IIAHBFJF@armorshell@ 300c0410     cg_draw.obj
 0002:0000e41c       ??_C@_0M@PBHBEKC@armoramount@ 300c041c     cg_draw.obj
 0002:0000e428       ??_C@_0BA@EHENGAJC@saberstyle_fast@ 300c0428     cg_draw.obj
 0002:0000e438       ??_C@_0BC@GFIJKDOA@saberstyle_medium@ 300c0438     cg_draw.obj
 0002:0000e44c       ??_C@_0BA@HPEPBMHN@saberstyle_dual@ 300c044c     cg_draw.obj
 0002:0000e45c       ??_C@_0BB@DDEIBAPJ@saberstyle_staff@ 300c045c     cg_draw.obj
 0002:0000e470       ??_C@_0BA@CDDGKJGK@saberstyle_slow@ 300c0470     cg_draw.obj
 0002:0000e480       ??_C@_0BC@NMDLJKBM@saberstyle_desann@ 300c0480     cg_draw.obj
 0002:0000e494       ??_C@_0BC@CMOCIJGM@saberstyle_tavion@ 300c0494     cg_draw.obj
 0002:0000e4a8       ??_C@_0L@FCOOONPA@ammoamount@ 300c04a8     cg_draw.obj
 0002:0000e4b4       ??_C@_0N@PHNNNPHC@ammoinfinite@ 300c04b4     cg_draw.obj
 0002:0000e4c4       ??_C@_02BAABKJLB@?9?9@     300c04c4     cg_draw.obj
 0002:0000e4c8       ??_C@_05PPJGDEGI@?$CFi?1?$CFi@ 300c04c8     cg_draw.obj
 0002:0000e4d0       ??_C@_0M@MDGFFLJO@dodgeamount@ 300c04d0     cg_draw.obj
 0002:0000e4dc       ??_C@_0M@FIACGFKC@forceamount@ 300c04dc     cg_draw.obj
 0002:0000e4e8       ??_C@_06NNBCBEFP@AKIMBO@   300c04e8     cg_draw.obj
 0002:0000e4f0       ??_C@_05PICIGLKH@STAFF@    300c04f0     cg_draw.obj
 0002:0000e4f8       ??_C@_06KDCJDEIC@STRONG@   300c04f8     cg_draw.obj
 0002:0000e500       ??_C@_06HMBFJLMK@MEDIUM@   300c0500     cg_draw.obj
 0002:0000e508       ??_C@_04HNOLJCOK@FAST@     300c0508     cg_draw.obj
 0002:0000e510       ??_C@_02DKCKIIND@?$CFs@    300c0510     cg_draw.obj
 0002:0000e514       ??_C@_07LLNBIHJM@lefthud@  300c0514     cg_draw.obj
 0002:0000e51c       ??_C@_08NBKMMBGP@scanline@ 300c051c     cg_draw.obj
 0002:0000e528       ??_C@_05MIJNFGED@frame@    300c0528     cg_draw.obj
 0002:0000e530       ??_C@_05PKDFAPGJ@SCORE@    300c0530     cg_draw.obj
 0002:0000e538       ??_C@_09BGDELMBA@?$CFs?3?5?$CFi?1?$CFi@ 300c0538     cg_draw.obj
 0002:0000e544       ??_C@_06LDLKBCCJ@?$CFs?3?5?$CFi@ 300c0544     cg_draw.obj
 0002:0000e54c       ??_C@_08DNKNJDF@righthud@  300c054c     cg_draw.obj
 0002:0000e558       ??_C@_0L@MALOJPGH@score_line@ 300c0558     cg_draw.obj
 0002:0000e564       ??_C@_09GIPEEPLK@SP_INGAME@ 300c0564     cg_draw.obj
 0002:0000e570       ??_C@_0BA@HGJCONNI@EMPTY?5INVENTORY@ 300c0570     cg_draw.obj
 0002:0000e580       ??_C@_0BA@CCDAELNC@armorbackground@ 300c0580     cg_draw.obj
 0002:0000e590       ??_C@_0M@BPKNBEGN@armor_tic?$CFd@ 300c0590     cg_draw.obj
 0002:0000e59c       ??_C@_0P@CJIFLDBJ@ammobackground@ 300c059c     cg_draw.obj
 0002:0000e5ac       ??_C@_0L@ECFEONDP@ammo_tic?$CFd@ 300c05ac     cg_draw.obj
 0002:0000e5b8       ??_C@_0BE@HBKNAKL@ammoupperbackground@ 300c05b8     cg_draw.obj
 0002:0000e5cc       ??_C@_0BA@KDHCKNDD@ammoupper_tic?$CFd@ 300c05cc     cg_draw.obj
 0002:0000e5dc       ??_C@_0BE@EJGBBGPJ@ammolowerbackground@ 300c05dc     cg_draw.obj
 0002:0000e5f0       ??_C@_0BA@ONBBFBCK@ammolower_tic?$CFd@ 300c05f0     cg_draw.obj
 0002:0000e600       ??_C@_0O@LCKIPAPA@turborecharge@ 300c0600     cg_draw.obj
 0002:0000e610       ??_C@_0O@IPDIHBJJ@weaponslinked@ 300c0610     cg_draw.obj
 0002:0000e620       ??_C@_0BA@BBCNBLC@speedbackground@ 300c0620     cg_draw.obj
 0002:0000e630       ??_C@_0M@JLMPCMAJ@speed_tic?$CFd@ 300c0630     cg_draw.obj
 0002:0000e63c       ??_C@_0BB@BKBBGJEG@shieldbackground@ 300c063c     cg_draw.obj
 0002:0000e650       ??_C@_0N@OMMCLJEJ@shield_tic?$CFd@ 300c0650     cg_draw.obj
 0002:0000e660       ??_C@_0L@EGCKCJDC@background@ 300c0660     cg_draw.obj
 0002:0000e66c       ??_C@_0M@FIHNCPN@outer_frame@ 300c066c     cg_draw.obj
 0002:0000e678       ??_C@_0BA@JPPCKGIP@swoopvehiclehud@ 300c0678     cg_draw.obj
 0002:0000e688       ??_C@_09EJFJOCIH@leftframe@ 300c0688     cg_draw.obj
 0002:0000e694       ??_C@_0L@LKEPCBNP@rightframe@ 300c0694     cg_draw.obj
 0002:0000e6a0       ??_C@_0BB@LKHHKMDL@vehicledamagehud@ 300c06a0     cg_draw.obj
 0002:0000e6b4       ??_C@_0BG@LENGIJP@enemyvehicledamagehud@ 300c06b4     cg_draw.obj
 0002:0000e6cc       ??_C@_03FNPLCCOA@RED@      300c06cc     cg_draw.obj
 0002:0000e6d0       ??_C@_04PFAOODAA@?$CFs?3?5@ 300c06d0     cg_draw.obj
 0002:0000e6d8       ??_C@_01JOAMLHOP@?9@       300c06d8     cg_draw.obj
 0002:0000e6dc       ??_C@_04CNFFLDFF@BLUE@     300c06dc     cg_draw.obj
 0002:0000e6e4       ??_C@_05IFECLAII@?5?$CFs?3?5@ 300c06e4     cg_draw.obj
 0002:0000e6ec       ??_C@_09NAKPECJB@GET_SABER@ 300c06ec     cg_draw.obj
 0002:0000e6f8       ??_C@_07KHFBGKLJ@DUELING@  300c06f8     cg_draw.obj
 0002:0000e700       ??_C@_06DBJEGKDN@LEADER@   300c0700     cg_draw.obj
 0002:0000e708       ??_C@_0BH@OGHHEKME@time?3?$CFi?5snap?3?$CFi?5cmd?3?$CFi@ 300c0708     cg_draw.obj
 0002:0000e720       ??_C@_05MDNADFFP@?$CFifps@ 300c0720     cg_draw.obj
 0002:0000e728       ??_C@_0BD@NPDPLFMD@team?$CFi_objective?$CFi@ 300c0728     cg_draw.obj
 0002:0000e73c       ??_C@_07FFDCCNEB@?$CFi?3?$CFi?$CFi@ 300c073c     cg_draw.obj
 0002:0000e744       ??_C@_07CIFAGBMG@unknown@  300c0744     cg_draw.obj
 0002:0000e74c       ??_C@_07FJAEFGNG@?$CF3i?5?$CF3i@ 300c074c     cg_draw.obj
 0002:0000e754       ??_C@_0BF@IAOLIPJ@gfx?1hud?1mpi_rflag_ys@ 300c0754     cg_draw.obj
 0002:0000e76c       ??_C@_0BF@KEMOPKII@gfx?1hud?1mpi_bflag_ys@ 300c076c     cg_draw.obj
 0002:0000e784       ??_C@_0BF@CNEFMHOP@SERVER_CHANGING_MAPS@ 300c0784     cg_draw.obj
 0002:0000e79c       ??_C@_0M@ONDMCFFB@PLEASE_WAIT@ 300c079c     cg_draw.obj
 0002:0000e7a8       ??_C@_0BH@FMIOKFKB@CONNECTION_INTERRUPTED@ 300c07a8     cg_draw.obj
 0002:0000e7c0       ??_C@_0P@NNJCDNEK@gfx?12d?1net?4tga@ 300c07c0     cg_draw.obj
 0002:0000e7d0       ??_C@_03KLKIPBNP@snc@      300c07d0     cg_draw.obj
 0002:0000e7d4       ??_C@_0BA@JDLOJMCJ@cg_siegeMessage@ 300c07d4     cg_draw.obj
 0002:0000e7e4       ??_C@_0L@MIIDNALC@siegeclass@ 300c07e4     cg_draw.obj
 0002:0000e7f0       ??_C@_0BH@MAPMCHKH@gfx?1effects?1saberFlare@ 300c07f0     cg_draw.obj
 0002:0000e808       ??_C@_0BO@OBMMJBM@sound?1weapons?1rocket?1lock?4wav@ 300c0808     cg_draw.obj
 0002:0000e828       ??_C@_0BO@NPGLCAPC@sound?1weapons?1rocket?1tick?4wav@ 300c0828     cg_draw.obj
 0002:0000e848       ??_C@_0N@HFODKPEP@gfx?12d?1wedge@ 300c0848     cg_draw.obj
 0002:0000e858       ??_C@_0M@GFKDFJGL@gfx?12d?1lock@ 300c0858     cg_draw.obj
 0002:0000e864       ??_C@_0N@MEJHFJDP@?$CKcannonflash@ 300c0864     cg_draw.obj
 0002:0000e874       ??_C@_0L@DNAFAEJK@?$CFs?5?$CIpilot?$CJ@ 300c0874     cg_draw.obj
 0002:0000e880       ??_C@_09GNDCBOBP@SPECTATOR@ 300c0880     cg_draw.obj
 0002:0000e88c       ??_C@_03BDACDFHA@AND@      300c088c     cg_draw.obj
 0002:0000e890       ??_C@_0P@DEEIGBMI@SPECHUD_VERSUS@ 300c0890     cg_draw.obj
 0002:0000e8a0       ??_C@_0BD@KEONDFIM@?$CFs?$FO7?5?$CFs?5?$CFs?$FO7?5?$CFs?5?$CFs@ 300c08a0     cg_draw.obj
 0002:0000e8b4       ??_C@_0L@PHFNKFJL@?$CFs?$FO7?5?$CFs?5?$CFs@ 300c08b4     cg_draw.obj
 0002:0000e8c0       ??_C@_0BA@OGEGDHKE@WAITING_TO_PLAY@ 300c08c0     cg_draw.obj
 0002:0000e8d0       ??_C@_0BA@EJICBNBF@SPEC_CHOOSEJOIN@ 300c08d0     cg_draw.obj
 0002:0000e8e0       ??_C@_0M@NBIMEKNE@map_restart@ 300c08e0     cg_draw.obj
 0002:0000e8ec       ??_C@_0M@FAFEHHMK@RESTART_MAP@ 300c08ec     cg_draw.obj
 0002:0000e8f8       ??_C@_05ONMCFNBF@MENUS@    300c08f8     cg_draw.obj
 0002:0000e900       ??_C@_0N@NPFCFAAA@vstr?5nextmap@ 300c0900     cg_draw.obj
 0002:0000e910       ??_C@_08PBCAHACF@NEXT_MAP@ 300c0910     cg_draw.obj
 0002:0000e91c       ??_C@_0L@LPENDGCI@g_doWarmup@ 300c091c     cg_draw.obj
 0002:0000e928       ??_C@_06LLIEIDDF@WARMUP@   300c0928     cg_draw.obj
 0002:0000e930       ??_C@_0L@GFINLBEC@g_gametype@ 300c0930     cg_draw.obj
 0002:0000e93c       ??_C@_09GKKNBHAH@GAME_TYPE@ 300c093c     cg_draw.obj
 0002:0000e948       ??_C@_0N@PCEMCJC@Free?5For?5All@ 300c0948     cg_draw.obj
 0002:0000e958       ??_C@_0N@OPJELAJP@FREE_FOR_ALL@ 300c0958     cg_draw.obj
 0002:0000e968       ??_C@_04EPBLILKF@Duel@     300c0968     cg_draw.obj
 0002:0000e970       ??_C@_04ECOAEGNJ@DUEL@     300c0970     cg_draw.obj
 0002:0000e978       ??_C@_0M@EBAJNKPF@Jedi?5Master@ 300c0978     cg_draw.obj
 0002:0000e984       ??_C@_0L@EJHINIDC@JEDIMASTER@ 300c0984     cg_draw.obj
 0002:0000e990       ??_C@_09BLDMCLOM@OJP_MENUS@ 300c0990     cg_draw.obj
 0002:0000e99c       ??_C@_0N@BBLBINLJ@Holocron?5FFA@ 300c099c     cg_draw.obj
 0002:0000e9ac       ??_C@_0N@IFFHBAH@HOLOCRON_FFA@ 300c09ac     cg_draw.obj
 0002:0000e9bc       ??_C@_0L@MKHOILHK@Power?5Duel@ 300c09bc     cg_draw.obj
 0002:0000e9c8       ??_C@_09NHOBJKNB@POWERDUEL@ 300c09c8     cg_draw.obj
 0002:0000e9d4       ??_C@_08NFCDKJPC@Team?5FFA@ 300c09d4     cg_draw.obj
 0002:0000e9e0       ??_C@_08JPMGIABA@TEAM_FFA@ 300c09e0     cg_draw.obj
 0002:0000e9ec       ??_C@_05JOPHEEP@Siege@     300c09ec     cg_draw.obj
 0002:0000e9f4       ??_C@_05MFNFJGDH@SIEGE@    300c09f4     cg_draw.obj
 0002:0000e9fc       ??_C@_0BB@OOIHNFAG@Capture?5the?5Flag@ 300c09fc     cg_draw.obj
 0002:0000ea10       ??_C@_0BB@NFDNICPD@CAPTURE_THE_FLAG@ 300c0a10     cg_draw.obj
 0002:0000ea24       ??_C@_0BG@BKPINHAJ@Capture?5the?5Ysalamiri@ 300c0a24     cg_draw.obj
 0002:0000ea3c       ??_C@_0BG@NKPMOGAN@CAPTURE_THE_YSALIMARI@ 300c0a3c     cg_draw.obj
 0002:0000ea54       ??_C@_0O@NNAOEDOE@Single?5Player@ 300c0a54     cg_draw.obj
 0002:0000ea64       ??_C@_04CEIEPFLJ@COOP@     300c0a64     cg_draw.obj
 0002:0000ea6c       ??_C@_04PJHBGHKA@SAGA@     300c0a6c     cg_draw.obj
 0002:0000ea74       ??_C@_03HBNNNHNM@map@      300c0a74     cg_draw.obj
 0002:0000ea78       ??_C@_07LJKMPAIB@NEW_MAP@  300c0a78     cg_draw.obj
 0002:0000ea80       ??_C@_04FNIJDBCC@kick@     300c0a80     cg_draw.obj
 0002:0000ea88       ??_C@_0M@LLJHKPJL@KICK_PLAYER@ 300c0a88     cg_draw.obj
 0002:0000ea94       ??_C@_09KPHKOKCC@timelimit@ 300c0a94     cg_draw.obj
 0002:0000eaa0       ??_C@_09JPILNHNF@TIMELIMIT@ 300c0aa0     cg_draw.obj
 0002:0000eaac       ??_C@_09GCIEGDDN@fraglimit@ 300c0aac     cg_draw.obj
 0002:0000eab8       ??_C@_09FCHFFOMK@FRAGLIMIT@ 300c0ab8     cg_draw.obj
 0002:0000eac4       ??_C@_0N@FCAHJCDA@capturelimit@ 300c0ac4     cg_draw.obj
 0002:0000ead4       ??_C@_0N@EPCFLABN@CAPTURELIMIT@ 300c0ad4     cg_draw.obj
 0002:0000eae4       ??_C@_04KLECEHMO@VOTE@     300c0ae4     cg_draw.obj
 0002:0000eaec       ??_C@_03IPHJCBHH@YES@      300c0aec     cg_draw.obj
 0002:0000eaf0       ??_C@_02NFLNFON@NO@        300c0af0     cg_draw.obj
 0002:0000eaf4       ??_C@_0BL@FBILOGIK@?$CFs?$CI?$CFi?$CJ?3?$DM?$CFs?5?$CFs?$DO?5?$CFs?3?$CFi?5?$CFs?3?$CFi@ 300c0af4     cg_draw.obj
 0002:0000eb10       ??_C@_0BI@PGAFFJKF@?$CFs?$CI?$CFi?$CJ?3?$DM?$CFs?$DO?5?$CFs?3?$CFi?5?$CFs?3?$CFi@ 300c0b10     cg_draw.obj
 0002:0000eb28       ??_C@_0BN@JCPMKMDP@OR_PRESS_ESC_THEN_CLICK_VOTE@ 300c0b28     cg_draw.obj
 0002:0000eb48       ??_C@_06DFLPLEOP@leader@   300c0b48     cg_draw.obj
 0002:0000eb50       ??_C@_0DI@OLEEFICH@TEAMVOTE?$CI?$CFi?$CJ?3?$CIMake?5?$CFs?5the?5new?5t@ 300c0b50     cg_draw.obj
 0002:0000eb88       ??_C@_0BN@CPIJHJOL@TEAMVOTE?$CI?$CFi?$CJ?3?$CFs?5yes?3?$CFi?5no?3?$CFi@ 300c0b88     cg_draw.obj
 0002:0000eba8       ??_C@_0O@ELOHELF@FOLLOWINGLONE@ 300c0ba8     cg_draw.obj
 0002:0000ebb8       ??_C@_0BA@IDFMPEMP@FOLLOWINGDOUBLE@ 300c0bb8     cg_draw.obj
 0002:0000ebc8       ??_C@_09CEHOCBMK@FOLLOWING@ 300c0bc8     cg_draw.obj
 0002:0000ebd4       ??_C@_0BE@ECCNBCF@WAITING_FOR_PLAYERS@ 300c0bd4     cg_draw.obj
 0002:0000ebe8       ??_C@_0BA@BLDJAJGC@?$CFs?5vs?5?$CFs?5and?5?$CFs@ 300c0be8     cg_draw.obj
 0002:0000ebf8       ??_C@_08MFFNPGJB@?$CFs?5vs?5?$CFs@ 300c0bf8     cg_draw.obj
 0002:0000ec04       ??_C@_09FKOGLEJP@STARTS_IN@ 300c0c04     cg_draw.obj
 0002:0000ec10       ??_C@_0BE@LDJCMFIK@gfx?1hud?1mpi_rflag_x@ 300c0c10     cg_draw.obj
 0002:0000ec24       ??_C@_0BE@MPCJPEKB@gfx?1hud?1mpi_bflag_x@ 300c0c24     cg_draw.obj
 0002:0000ec38       ??_C@_08FDNPOCOG@mp_timer@ 300c0c38     cg_draw.obj
 0002:0000ec44       ??_C@_07PKFONIJM@?$CFi?3?$CF02i@ 300c0c44     cg_draw.obj
 0002:0000ec4c       ??_C@_05NAPFDJNG@timer@    300c0c4c     cg_draw.obj
 0002:0000ec54       ??_C@_06EBOOGEEL@?$CFi?30?$CFi@ 300c0c54     cg_draw.obj
 0002:0000ec5c       ??_C@_05JIFBJDMF@?$CFi?3?$CFi@ 300c0c5c     cg_draw.obj
 0002:0000ec64       ??_C@_0L@GCIALBI@deathtimer@ 300c0c64     cg_draw.obj
 0002:0000ec70       ??_C@_0CM@OKKPOFIP@CG_ChatBox_ArrayInsert?3?5Exceede@ 300c0c70     cg_draw.obj
 0002:0000ec9c       ??_C@_0O@NCEDBAEC@ROUNDBEGINSIN@ 300c0c9c     cg_draw.obj
 0002:0000ecac       ??_C@_08IGIILICA@?$CFs?5?$CFi?4?4?4@ 300c0cac     cg_draw.obj
 0002:0000ecb8       ??_C@_0CE@GNKHIBFA@CG_DrawActive?3?5Undefined?5stereo@ 300c0cb8     cg_draw.obj
 0002:0000ecdc       __real@39800000            300c0cdc     cg_draw.obj
 0002:0000ece0       __real@3a800000            300c0ce0     cg_draw.obj
 0002:0000ece4       __real@3c000000            300c0ce4     cg_draw.obj
 0002:0000ece8       __real@3c23d70a            300c0ce8     cg_draw.obj
 0002:0000ecec       __real@3cda740e            300c0cec     cg_draw.obj
 0002:0000ecf0       __real@3d5a740e            300c0cf0     cg_draw.obj
 0002:0000ecf4       __real@3d800000            300c0cf4     cg_draw.obj
 0002:0000ecf8       __real@3ed4f8b588e368f1    300c0cf8     cg_draw.obj
 0002:0000ed00       __real@3f747ae147ae147b    300c0d00     cg_draw.obj
 0002:0000ed08       __real@3f7ae148            300c0d08     cg_draw.obj
 0002:0000ed0c       __real@3f866666            300c0d0c     cg_draw.obj
 0002:0000ed10       __real@3f933333            300c0d10     cg_draw.obj
 0002:0000ed14       __real@3fa00000            300c0d14     cg_draw.obj
 0002:0000ed18       __real@3fa99999a0000000    300c0d18     cg_draw.obj
 0002:0000ed20       __real@3fb47ae140000000    300c0d20     cg_draw.obj
 0002:0000ed28       __real@3fb99999a0000000    300c0d28     cg_draw.obj
 0002:0000ed30       __real@3fc3333333333333    300c0d30     cg_draw.obj
 0002:0000ed38       __real@3fc3333340000000    300c0d38     cg_draw.obj
 0002:0000ed40       __real@3fc999999999999a    300c0d40     cg_draw.obj
 0002:0000ed48       __real@3fd126e978d4fdf4    300c0d48     cg_draw.obj
 0002:0000ed50       __real@3fd3333340000000    300c0d50     cg_draw.obj
 0002:0000ed58       __real@3fd6666660000000    300c0d58     cg_draw.obj
 0002:0000ed60       __real@3fe6666660000000    300c0d60     cg_draw.obj
 0002:0000ed68       __real@3fe99999a0000000    300c0d68     cg_draw.obj
 0002:0000ed70       __real@404e000000000000    300c0d70     cg_draw.obj
 0002:0000ed78       __real@4050400000000000    300c0d78     cg_draw.obj
 0002:0000ed80       __real@4067c00000000000    300c0d80     cg_draw.obj
 0002:0000ed88       __real@406e000000000000    300c0d88     cg_draw.obj
 0002:0000ed90       __real@406f400000000000    300c0d90     cg_draw.obj
 0002:0000ed98       __real@4074000000000000    300c0d98     cg_draw.obj
 0002:0000eda0       __real@4082200000000000    300c0da0     cg_draw.obj
 0002:0000eda8       __real@408f400000000000    300c0da8     cg_draw.obj
 0002:0000edb0       __real@409f400000000000    300c0db0     cg_draw.obj
 0002:0000edb8       __real@40c00000            300c0db8     cg_draw.obj
 0002:0000edbc       __real@41500000            300c0dbc     cg_draw.obj
 0002:0000edc0       __real@41940000            300c0dc0     cg_draw.obj
 0002:0000edc4       __real@41c80000            300c0dc4     cg_draw.obj
 0002:0000edc8       __real@41e00000            300c0dc8     cg_draw.obj
 0002:0000edcc       __real@42400000            300c0dcc     cg_draw.obj
 0002:0000edd0       __real@42440000            300c0dd0     cg_draw.obj
 0002:0000edd4       __real@42652f1b            300c0dd4     cg_draw.obj
 0002:0000edd8       __real@42680000            300c0dd8     cg_draw.obj
 0002:0000eddc       __real@42820000            300c0ddc     cg_draw.obj
 0002:0000ede0       __real@42c00000            300c0de0     cg_draw.obj
 0002:0000ede4       __real@42c60000            300c0de4     cg_draw.obj
 0002:0000ede8       __real@42cc0000            300c0de8     cg_draw.obj
 0002:0000edec       __real@42ce0000            300c0dec     cg_draw.obj
 0002:0000edf0       __real@42f00000            300c0df0     cg_draw.obj
 0002:0000edf4       __real@43060000            300c0df4     cg_draw.obj
 0002:0000edf8       __real@43220000            300c0df8     cg_draw.obj
 0002:0000edfc       __real@43710000            300c0dfc     cg_draw.obj
 0002:0000ee00       __real@438d0000            300c0e00     cg_draw.obj
 0002:0000ee04       __real@43a00000            300c0e04     cg_draw.obj
 0002:0000ee08       __real@43b00000            300c0e08     cg_draw.obj
 0002:0000ee0c       __real@43b78000            300c0e0c     cg_draw.obj
 0002:0000ee10       __real@43c00000            300c0e10     cg_draw.obj
 0002:0000ee14       __real@43cd8000            300c0e14     cg_draw.obj
 0002:0000ee18       __real@43f00000            300c0e18     cg_draw.obj
 0002:0000ee1c       __real@43fa0000            300c0e1c     cg_draw.obj
 0002:0000ee20       __real@44098000            300c0e20     cg_draw.obj
 0002:0000ee24       __real@44110000            300c0e24     cg_draw.obj
 0002:0000ee28       __real@44120000            300c0e28     cg_draw.obj
 0002:0000ee2c       __real@44190000            300c0e2c     cg_draw.obj
 0002:0000ee30       __real@44200000            300c0e30     cg_draw.obj
 0002:0000ee34       __real@44610000            300c0e34     cg_draw.obj
 0002:0000ee38       __real@44bb8000            300c0e38     cg_draw.obj
 0002:0000ee3c       __real@44f78001            300c0e3c     cg_draw.obj
 0002:0000ee40       __real@45160000            300c0e40     cg_draw.obj
 0002:0000ee44       __real@453b8000            300c0e44     cg_draw.obj
 0002:0000ee48       __real@45505555            300c0e48     cg_draw.obj
 0002:0000ee4c       __real@45ce4001            300c0e4c     cg_draw.obj
 0002:0000ee50       __real@460ca000            300c0e50     cg_draw.obj
 0002:0000ee54       __real@461c4000            300c0e54     cg_draw.obj
 0002:0000ee58       __real@48000000            300c0e58     cg_draw.obj
 0002:0000ee60       __real@bfe0000000000000    300c0e60     cg_draw.obj
 0002:0000ee70       __xmm@3dcccccd3e99999a3dcccccd3dcccccd 300c0e70     cg_draw.obj
 0002:0000ee80       __xmm@3dcccccd3f0000003f0000003f000000 300c0e80     cg_draw.obj
 0002:0000ee90       __xmm@3e99999a3e4ccccd3ecccccd3e4ccccd 300c0e90     cg_draw.obj
 0002:0000eea0       __xmm@3ea8f5c300000000000000003f800000 300c0ea0     cg_draw.obj
 0002:0000eeb0       __xmm@3ea8f5c33f8000000000000000000000 300c0eb0     cg_draw.obj
 0002:0000eec0       __xmm@3ecccccd00000000000000003f800000 300c0ec0     cg_draw.obj
 0002:0000eed0       __xmm@3ecccccd000000003f80000000000000 300c0ed0     cg_draw.obj
 0002:0000eee0       __xmm@3ecccccd000000003f8000003f800000 300c0ee0     cg_draw.obj
 0002:0000eef0       __xmm@3ecccccd3f0000003f0000003f000000 300c0ef0     cg_draw.obj
 0002:0000ef00       __xmm@3f4ccccd00000000000000003f000000 300c0f00     cg_draw.obj
 0002:0000ef10       __xmm@3f4ccccd3dc6a7f03f1ced9100000000 300c0f10     cg_draw.obj
 0002:0000ef20       __xmm@3f4ccccd3f19999a0000000000000000 300c0f20     cg_draw.obj
 0002:0000ef30       __xmm@3f4ccccd3f7ef9db3ec000003f00c49c 300c0f30     cg_draw.obj
 0002:0000ef40       __xmm@3f8000003f0000003f0000003f000000 300c0f40     cg_draw.obj
 0002:0000ef50       ??_C@_0DH@GOCFLOGK@Warning?3?5NULL?5string?5passed?5to?5@ 300c0f50     cg_drawtools.obj
 0002:0000ef88       __real@3d000000            300c0f88     cg_drawtools.obj
 0002:0000ef90       __real@3f90000000000000    300c0f90     cg_drawtools.obj
 0002:0000ef98       __real@3f99999a            300c0f98     cg_drawtools.obj
 0002:0000efa0       __real@3fb0000000000000    300c0fa0     cg_drawtools.obj
 0002:0000efa8       __real@403e000000000000    300c0fa8     cg_drawtools.obj
 0002:0000efb0       __real@4040800000000000    300c0fb0     cg_drawtools.obj
 0002:0000efb8       __real@4069000000000000    300c0fb8     cg_drawtools.obj
 0002:0000efc0       ??_C@_0BO@IMOAEHBH@sound?1effects?1glassbreak1?4wav@ 300c0fc0     cg_effects.obj
 0002:0000efe0       ??_C@_0BC@KHOJEJFN@chunks?1glassbreak@ 300c0fe0     cg_effects.obj
 0002:0000eff4       ??_C@_0BE@PFGIPPAI@chunks?1metalexplode@ 300c0ff4     cg_effects.obj
 0002:0000f008       ??_C@_0BE@FIGLPACF@chunks?1sparkexplode@ 300c1008     cg_effects.obj
 0002:0000f01c       ??_C@_0BE@FDCAJCD@chunks?1grateexplode@ 300c101c     cg_effects.obj
 0002:0000f030       ??_C@_0BB@IAFIADNA@chunks?1ropebreak@ 300c1030     cg_effects.obj
 0002:0000f044       ??_C@_0BD@HHBLDKKA@chunks?1rockbreaklg@ 300c1044     cg_effects.obj
 0002:0000f058       ??_C@_0BE@GMAIKFHK@chunks?1rockbreakmed@ 300c1058     cg_effects.obj
 0002:0000f06c       ??_C@_0BL@HGMHPONK@sound?1ambience?1spark?$CFd?4wav@ 300c106c     cg_effects.obj
 0002:0000f088       __real@3c1374bc            300c1088     cg_effects.obj
 0002:0000f08c       __real@3d23d70a            300c108c     cg_effects.obj
 0002:0000f090       __real@3f2a36e2eb1c432d    300c1090     cg_effects.obj
 0002:0000f098       __real@3f9eb851e0000000    300c1098     cg_effects.obj
 0002:0000f0a0       __real@4020000000000000    300c10a0     cg_effects.obj
 0002:0000f0a8       __real@4030000000000000    300c10a8     cg_effects.obj
 0002:0000f0b0       __real@4044000000000000    300c10b0     cg_effects.obj
 0002:0000f0b8       __real@4052c00000000000    300c10b8     cg_effects.obj
 0002:0000f0c0       __real@4062c00000000000    300c10c0     cg_effects.obj
 0002:0000f0c8       __real@435c0000            300c10c8     cg_effects.obj
 0002:0000f0cc       __real@437f0000            300c10cc     cg_effects.obj
 0002:0000f0d0       __xmm@3f8000003f8000003f8000003f800000 300c10d0     cg_effects.obj
 0002:0000f0e0       __xmm@3f80000042aa0000000000003e19999a 300c10e0     cg_effects.obj
 0002:0000f0f0       ??_C@_0CC@LDMLFDGF@models?1map_objects?1mp?1lt_heal?4m@ 300c10f0     cg_ents.obj
 0002:0000f114       ??_C@_0CF@GHNLPHPI@models?1map_objects?1mp?1force_jum@ 300c1114     cg_ents.obj
 0002:0000f13c       ??_C@_0CG@JFCOPPHE@models?1map_objects?1mp?1force_spe@ 300c113c     cg_ents.obj
 0002:0000f164       ??_C@_0CF@IGFBFIHC@models?1map_objects?1mp?1force_pus@ 300c1164     cg_ents.obj
 0002:0000f18c       ??_C@_0CF@IMFGPGED@models?1map_objects?1mp?1force_pul@ 300c118c     cg_ents.obj
 0002:0000f1b4       ??_C@_0CH@EPHIGDHG@models?1map_objects?1mp?1lt_telepa@ 300c11b4     cg_ents.obj
 0002:0000f1dc       ??_C@_0CC@GGPFGOPC@models?1map_objects?1mp?1dk_grip?4m@ 300c11dc     cg_ents.obj
 0002:0000f200       ??_C@_0CH@NPBCBKGE@models?1map_objects?1mp?1dk_lightn@ 300c1200     cg_ents.obj
 0002:0000f228       ??_C@_0CC@HBLCLHHB@models?1map_objects?1mp?1dk_rage?4m@ 300c1228     cg_ents.obj
 0002:0000f24c       ??_C@_0CF@JKKDFLBL@models?1map_objects?1mp?1lt_protec@ 300c124c     cg_ents.obj
 0002:0000f274       ??_C@_0CE@OIMHGLCM@models?1map_objects?1mp?1lt_absorb@ 300c1274     cg_ents.obj
 0002:0000f298       ??_C@_0CH@PGCLJJGA@models?1map_objects?1mp?1lt_healot@ 300c1298     cg_ents.obj
 0002:0000f2c0       ??_C@_0CI@BGHKIJBN@models?1map_objects?1mp?1dk_powero@ 300c12c0     cg_ents.obj
 0002:0000f2e8       ??_C@_0CD@GJNKCFIP@models?1map_objects?1mp?1dk_drain?4@ 300c12e8     cg_ents.obj
 0002:0000f30c       ??_C@_0CG@LFGJGPHI@models?1map_objects?1mp?1force_sig@ 300c130c     cg_ents.obj
 0002:0000f334       ??_C@_0CH@EECFHMAE@models?1map_objects?1mp?1saber_att@ 300c1334     cg_ents.obj
 0002:0000f35c       ??_C@_0CH@GLODINII@models?1map_objects?1mp?1saber_def@ 300c135c     cg_ents.obj
 0002:0000f384       ??_C@_0CG@PIHMAPBC@models?1map_objects?1mp?1saber_thr@ 300c1384     cg_ents.obj
 0002:0000f3ac       ??_C@_09DIABHAFB@cl_paused@ 300c13ac     cg_ents.obj
 0002:0000f3b8       ??_C@_0BH@IJFAKHJP@gfx?1misc?1red_dmgshield@ 300c13b8     cg_ents.obj
 0002:0000f3d0       ??_C@_0BJ@BMIANOGO@gfx?1misc?1red_portashield@ 300c13d0     cg_ents.obj
 0002:0000f3ec       ??_C@_0BI@JOPMALJL@gfx?1misc?1blue_dmgshield@ 300c13ec     cg_ents.obj
 0002:0000f404       ??_C@_0BK@KHIMODAF@gfx?1misc?1blue_portashield@ 300c1404     cg_ents.obj
 0002:0000f420       ??_C@_05FIALHFBO@lhand@    300c1420     cg_ents.obj
 0002:0000f428       ??_C@_0L@OPBBEMAA@model_root@ 300c1428     cg_ents.obj
 0002:0000f434       ??_C@_0P@EIKCKNBB@head_cap_torso@ 300c1434     cg_ents.obj
 0002:0000f444       ??_C@_0P@PJCLBOLM@torso_cap_head@ 300c1444     cg_ents.obj
 0002:0000f454       ??_C@_0BA@JAEGCEPC@?$CKhead_cap_torso@ 300c1454     cg_ents.obj
 0002:0000f464       ??_C@_0BA@CBMPJHFP@?$CKtorso_cap_head@ 300c1464     cg_ents.obj
 0002:0000f474       ??_C@_05LAAIDIGB@torso@    300c1474     cg_ents.obj
 0002:0000f47c       ??_C@_0P@KLJKOMNF@torso_cap_hips@ 300c147c     cg_ents.obj
 0002:0000f48c       ??_C@_0P@HDEGEHBA@hips_cap_torso@ 300c148c     cg_ents.obj
 0002:0000f49c       ??_C@_0BA@HDHOGFDG@?$CKtorso_cap_hips@ 300c149c     cg_ents.obj
 0002:0000f4ac       ??_C@_0BA@KLKCMOPD@?$CKhips_cap_torso@ 300c14ac     cg_ents.obj
 0002:0000f4bc       ??_C@_0N@BAHIHPBK@?$CFs_cap_torso@ 300c14bc     cg_ents.obj
 0002:0000f4cc       ??_C@_0N@CPIELHKO@?$CFs_cap_l_arm@ 300c14cc     cg_ents.obj
 0002:0000f4dc       ??_C@_0BB@OBMDNPC@?$CKl_arm_cap_torso@ 300c14dc     cg_ents.obj
 0002:0000f4f0       ??_C@_0BB@EDANKLOL@?$CKtorso_cap_l_arm@ 300c14f0     cg_ents.obj
 0002:0000f504       ??_C@_07LAEDECAM@rradius@  300c1504     cg_ents.obj
 0002:0000f50c       ??_C@_0N@BGFINEEF@?$CFs_cap_r_arm@ 300c150c     cg_ents.obj
 0002:0000f51c       ??_C@_0BB@MILJPFMH@?$CKr_arm_cap_torso@ 300c151c     cg_ents.obj
 0002:0000f530       ??_C@_0BB@HKNBMIAA@?$CKtorso_cap_r_arm@ 300c1530     cg_ents.obj
 0002:0000f544       ??_C@_05GBNHBGPF@rhand@    300c1544     cg_ents.obj
 0002:0000f54c       ??_C@_0O@EKMLGHDB@?$CFs_cap_r_hand@ 300c154c     cg_ents.obj
 0002:0000f55c       ??_C@_0BC@HJGOBMJP@?$CKr_hand_cap_r_arm@ 300c155c     cg_ents.obj
 0002:0000f570       ??_C@_0BC@LCHBAINC@?$CKr_arm_cap_r_hand@ 300c1570     cg_ents.obj
 0002:0000f584       ??_C@_06IANLMJDK@ltibia@   300c1584     cg_ents.obj
 0002:0000f58c       ??_C@_05JOBIHFHH@l_leg@    300c158c     cg_ents.obj
 0002:0000f594       ??_C@_04IGFCMOIC@hips@     300c1594     cg_ents.obj
 0002:0000f59c       ??_C@_0M@PMPHMNGC@?$CFs_cap_hips@ 300c159c     cg_ents.obj
 0002:0000f5a8       ??_C@_0N@DOGIDCAM@?$CFs_cap_l_leg@ 300c15a8     cg_ents.obj
 0002:0000f5b8       ??_C@_0BA@EEEEHBHJ@?$CKl_leg_cap_hips@ 300c15b8     cg_ents.obj
 0002:0000f5c8       ??_C@_0BA@IFLCIDOF@?$CKhips_cap_l_leg@ 300c15c8     cg_ents.obj
 0002:0000f5d8       ??_C@_06LHDKCOKJ@rtibia@   300c15d8     cg_ents.obj
 0002:0000f5e0       ??_C@_05KHMEBGJM@r_leg@    300c15e0     cg_ents.obj
 0002:0000f5e8       ??_C@_0N@HLEFBOH@?$CFs_cap_r_leg@ 300c15e8     cg_ents.obj
 0002:0000f5f8       ??_C@_0BA@ONFFPGED@?$CKr_leg_cap_hips@ 300c15f8     cg_ents.obj
 0002:0000f608       ??_C@_0BA@LMGOOAAO@?$CKhips_cap_r_leg@ 300c1608     cg_ents.obj
 0002:0000f618       ??_C@_06KLEEIGKC@Bone02@   300c1618     cg_ents.obj
 0002:0000f620       ??_C@_0BD@FDGGIEPJ@model_default?4skin@ 300c1620     cg_ents.obj
 0002:0000f634       ??_C@_0BL@MCJIELFO@gfx?1effects?1turretflashdie@ 300c1634     cg_ents.obj
 0002:0000f650       ??_C@_0DB@JMBCFHFK@models?1map_objects?1imp_mine?1tur@ 300c1650     cg_ents.obj
 0002:0000f684       ??_C@_0BM@OAKPMOJG@sound?1weapons?1force?1see?4wav@ 300c1684     cg_ents.obj
 0002:0000f6a0       ??_C@_0BO@GKODPFDH@sound?1weapons?1force?1lightning@ 300c16a0     cg_ents.obj
 0002:0000f6c0       ??_C@_0CC@PEOLNCAE@sound?1weapons?1saber?1saberhum1?4w@ 300c16c0     cg_ents.obj
 0002:0000f6e4       ??_C@_0BM@DFPOGHOF@Bad?5item?5index?5?$CFi?5on?5entity@ 300c16e4     cg_ents.obj
 0002:0000f700       ??_C@_0CC@EKOKLPLD@gfx?1misc?1mp_light_enlight_disab@ 300c1700     cg_ents.obj
 0002:0000f724       ??_C@_0CB@EEJJHDFD@gfx?1misc?1mp_dark_enlight_disabl@ 300c1724     cg_ents.obj
 0002:0000f748       ??_C@_08PJKKDMJN@?$CKblade?$CFi@ 300c1748     cg_ents.obj
 0002:0000f754       ??_C@_06PDDIJHJI@?$CKflash@ 300c1754     cg_ents.obj
 0002:0000f75c       ??_C@_0DC@FLFAJNGK@CG_InterpolateEntityPosition?3?5c@ 300c175c     cg_ents.obj
 0002:0000f790       ??_C@_0BF@NGFHFBLN@Bad?5entity?5type?3?5?$CFi?6@ 300c1790     cg_ents.obj
 0002:0000f7a8       ??_C@_06HOPIODND@effect@   300c17a8     cg_ents.obj
 0002:0000f7b0       ??_C@_05MHNANJII@sound@    300c17b0     cg_ents.obj
 0002:0000f7b8       ??_C@_04GKOOIABA@loop@     300c17b8     cg_ents.obj
 0002:0000f7c0       ??_C@_0DH@BKFOMJJG@?$FO3Warning?3?5?$CC?$CFs?$CC?5is?5an?5invalid?5R@ 300c17c0     cg_ents.obj
 0002:0000f7f8       ??_C@_0DL@LDBLCIHM@?$FO3Warning?3?5Notetrack?5is?5missing@ 300c17f8     cg_ents.obj
 0002:0000f834       __real@3b03126f            300c1834     cg_ents.obj
 0002:0000f838       __real@3b449ba6            300c1838     cg_ents.obj
 0002:0000f83c       __real@3ba3d70a            300c183c     cg_ents.obj
 0002:0000f840       __real@3ee4f8b588e368f1    300c1840     cg_ents.obj
 0002:0000f848       __real@3f40000000000000    300c1848     cg_ents.obj
 0002:0000f850       __real@3f59999a            300c1850     cg_ents.obj
 0002:0000f858       __real@3f70000000000000    300c1858     cg_ents.obj
 0002:0000f860       __real@3fb47ae147ae147b    300c1860     cg_ents.obj
 0002:0000f868       __real@3fd99999a0000000    300c1868     cg_ents.obj
 0002:0000f870       __real@4010000000000000    300c1870     cg_ents.obj
 0002:0000f878       __real@4034000000000000    300c1878     cg_ents.obj
 0002:0000f880       __real@406fc00000000000    300c1880     cg_ents.obj
 0002:0000f888       __real@406fe00000000000    300c1888     cg_ents.obj
 0002:0000f890       __real@4076800000000000    300c1890     cg_ents.obj
 0002:0000f898       __real@40d33333            300c1898     cg_ents.obj
 0002:0000f89c       __real@44800000            300c189c     cg_ents.obj
 0002:0000f8a0       __real@45000000            300c18a0     cg_ents.obj
 0002:0000f8a4       __real@45480000            300c18a4     cg_ents.obj
 0002:0000f8a8       __real@468ca000            300c18a8     cg_ents.obj
 0002:0000f8ac       __real@ba800000            300c18ac     cg_ents.obj
 0002:0000f8b0       ??_C@_05KNDGHGBL@None?$DP@ 300c18b0     cg_event.obj
 0002:0000f8b8       ??_C@_05KFNPJBME@AT?9ST@   300c18b8     cg_event.obj
 0002:0000f8c0       ??_C@_09KCBKJCAI@Bartender@ 300c18c0     cg_event.obj
 0002:0000f8cc       ??_C@_0L@EAOIAFKJ@Bespin?5Cop@ 300c18cc     cg_event.obj
 0002:0000f8d8       ??_C@_04HOBFCMOG@Claw@     300c18d8     cg_event.obj
 0002:0000f8e0       ??_C@_08HLDJJNHM@Commando@ 300c18e0     cg_event.obj
 0002:0000f8ec       ??_C@_06ODBEFHI@Desann@    300c18ec     cg_event.obj
 0002:0000f8f4       ??_C@_04FDNDCKCE@Fish@     300c18f4     cg_event.obj
 0002:0000f8fc       ??_C@_06PBMDCLOF@Fliers@   300c18fc     cg_event.obj
 0002:0000f904       ??_C@_05EGNOGBLF@Galak@    300c1904     cg_event.obj
 0002:0000f90c       ??_C@_06OPHKMDIA@Glider@   300c190c     cg_event.obj
 0002:0000f914       ??_C@_0L@KPHDIAEJ@Gonk?5Droid@ 300c1914     cg_event.obj
 0002:0000f920       ??_C@_04KAFDADJC@Gran@     300c1920     cg_event.obj
 0002:0000f928       ??_C@_06IFMCMAML@Howler@   300c1928     cg_event.obj
 0002:0000f930       ??_C@_0BB@KLDILBBJ@Imperial?5Officer@ 300c1930     cg_event.obj
 0002:0000f944       ??_C@_0BA@BKNONCLD@Imperial?5Worker@ 300c1944     cg_event.obj
 0002:0000f954       ??_C@_0BD@DCIPHNDK@Interrogator?5Droid@ 300c1954     cg_event.obj
 0002:0000f968       ??_C@_03JIHJHPIE@Jan@      300c1968     cg_event.obj
 0002:0000f96c       ??_C@_04NMIHPMCJ@Jedi@     300c196c     cg_event.obj
 0002:0000f974       ??_C@_0M@MCIKNFFJ@Kyle?5Katarn@ 300c1974     cg_event.obj
 0002:0000f980       ??_C@_0BB@JOOLNBMK@Lando?5Calrissian@ 300c1980     cg_event.obj
 0002:0000f994       ??_C@_06KINPBLIL@Lizard@   300c1994     cg_event.obj
 0002:0000f99c       ??_C@_0P@CACEGALJ@Luke?5Skywalker@ 300c199c     cg_event.obj
 0002:0000f9ac       ??_C@_0N@LGNGCK@Mark?51?5Droid@ 300c19ac     cg_event.obj
 0002:0000f9bc       ??_C@_0N@IODJNBMJ@Mark?52?5Droid@ 300c19bc     cg_event.obj
 0002:0000f9cc       ??_C@_0BC@DJCEHCPK@Galak?8s?5Mech?5Suit@ 300c19cc     cg_event.obj
 0002:0000f9e0       ??_C@_0N@PMOONEOJ@Mine?5Monster@ 300c19e0     cg_event.obj
 0002:0000f9f0       ??_C@_0L@NGMIEPCG@Mon?5Mothma@ 300c19f0     cg_event.obj
 0002:0000f9fc       ??_C@_0O@LFIPBEAF@Morgan?5Katarn@ 300c19fc     cg_event.obj
 0002:0000fa0c       ??_C@_0M@FFDLIJHD@Mouse?5Droid@ 300c1a0c     cg_event.obj
 0002:0000fa18       ??_C@_05NHKNINJN@Murjj@    300c1a18     cg_event.obj
 0002:0000fa20       ??_C@_08IFMHDIIA@Prisoner@ 300c1a20     cg_event.obj
 0002:0000fa2c       ??_C@_0M@CJNJKLLO@Probe?5Droid@ 300c1a2c     cg_event.obj
 0002:0000fa38       ??_C@_0P@KDKNIHDO@Protocol?5Droid@ 300c1a38     cg_event.obj
 0002:0000fa48       ??_C@_04LLMPNFAO@R2D2@     300c1a48     cg_event.obj
 0002:0000fa50       ??_C@_04CGBIONLH@R5D2@     300c1a50     cg_event.obj
 0002:0000fa58       ??_C@_0O@PHNFDCEG@Rebel?5Soldier@ 300c1a58     cg_event.obj
 0002:0000fa68       ??_C@_06KCFMHPJJ@Reborn@   300c1a68     cg_event.obj
 0002:0000fa70       ??_C@_0M@MNMBHECM@Reelo?5Baruk@ 300c1a70     cg_event.obj
 0002:0000fa7c       ??_C@_0N@PGAPMPCB@Droid?5Remote@ 300c1a7c     cg_event.obj
 0002:0000fa8c       ??_C@_06LHIMOLKK@Rodian@   300c1a8c     cg_event.obj
 0002:0000fa94       ??_C@_0N@PJILBFDB@Seeker?5Droid@ 300c1a94     cg_event.obj
 0002:0000faa4       ??_C@_06EDEAMNCE@Sentry@   300c1aa4     cg_event.obj
 0002:0000faac       ??_C@_0O@EPANOECJ@Shadowtrooper@ 300c1aac     cg_event.obj
 0002:0000fabc       ??_C@_0N@HGDMLILJ@Stormtrooper@ 300c1abc     cg_event.obj
 0002:0000facc       ??_C@_0L@OKKCIKCI@Squad?5Team@ 300c1acc     cg_event.obj
 0002:0000fad8       ??_C@_06HLINNJN@Swamp?$DP@ 300c1ad8     cg_event.obj
 0002:0000fae0       ??_C@_0N@NIPODOAM@Swamptrooper@ 300c1ae0     cg_event.obj
 0002:0000faf0       ??_C@_06POOIFGAI@Tavion@   300c1af0     cg_event.obj
 0002:0000faf8       ??_C@_0L@FEAKOFMK@Trandoshan@ 300c1af8     cg_event.obj
 0002:0000fb04       ??_C@_08HJGICLOC@Ugnaught@ 300c1b04     cg_event.obj
 0002:0000fb10       ??_C@_04IFFMPMFP@Jawa@     300c1b10     cg_event.obj
 0002:0000fb18       ??_C@_07GLDCNNJL@Weequay@  300c1b18     cg_event.obj
 0002:0000fb20       ??_C@_09HOKDDNGG@Boba?5Fett@ 300c1b20     cg_event.obj
 0002:0000fb2c       ??_C@_07NAELNENF@Vehicle@  300c1b2c     cg_event.obj
 0002:0000fb34       ??_C@_0BC@BLOELEJM@Fluffy?5the?5Rancor@ 300c1b34     cg_event.obj
 0002:0000fb48       ??_C@_0BB@EKADJCED@Frosty?5the?5Wampa@ 300c1b48     cg_event.obj
 0002:0000fb5c       ??_C@_08OEHKCGHF@Saboteur@ 300c1b5c     cg_event.obj
 0002:0000fb68       ??_C@_0O@MEHIBBDG@Sand?5Creature@ 300c1b68     cg_event.obj
 0002:0000fb78       ??_C@_05JOCNBMFE@Alora@    300c1b78     cg_event.obj
 0002:0000fb80       ??_C@_0O@POBNMFFC@Rockettrooper@ 300c1b80     cg_event.obj
 0002:0000fb90       ??_C@_0M@IOLCAFMP@Saber?5Droid@ 300c1b90     cg_event.obj
 0002:0000fb9c       ??_C@_0P@MLEAAODB@Assassin?5Droid@ 300c1b9c     cg_event.obj
 0002:0000fbac       ??_C@_0P@IDBCABON@Hazard?5Trooper@ 300c1bac     cg_event.obj
 0002:0000fbbc       ??_C@_0BB@JIAFONNM@Player?8s?5Standin@ 300c1bbc     cg_event.obj
 0002:0000fbd0       ??_C@_0O@MJJBPLLD@Tusken?5Raider@ 300c1bd0     cg_event.obj
 0002:0000fbe0       ??_C@_06IHNDPNLA@VC_ATT@   300c1be0     cg_event.obj
 0002:0000fbe8       ??_C@_0P@KHGJOOIF@VC_ATT_PRIMARY@ 300c1be8     cg_event.obj
 0002:0000fbf8       ??_C@_0BB@KLJFCOAG@VC_ATT_SECONDARY@ 300c1bf8     cg_event.obj
 0002:0000fc0c       ??_C@_0M@JFELNFCA@VC_DEF_GUNS@ 300c1c0c     cg_event.obj
 0002:0000fc18       ??_C@_0BA@HLFKBIC@VC_DEF_POSITION@ 300c1c18     cg_event.obj
 0002:0000fc28       ??_C@_0P@HDOJNDEL@VC_DEF_PRIMARY@ 300c1c28     cg_event.obj
 0002:0000fc38       ??_C@_0BB@KGIEEMFH@VC_DEF_SECONDARY@ 300c1c38     cg_event.obj
 0002:0000fc4c       ??_C@_0BA@EFOCDAMI@VC_REPLY_COMING@ 300c1c4c     cg_event.obj
 0002:0000fc5c       ??_C@_0M@JCBGJIEP@VC_REPLY_GO@ 300c1c5c     cg_event.obj
 0002:0000fc68       ??_C@_0M@JNMHKDMA@VC_REPLY_NO@ 300c1c68     cg_event.obj
 0002:0000fc74       ??_C@_0O@IBGMDKJM@VC_REPLY_STAY@ 300c1c74     cg_event.obj
 0002:0000fc84       ??_C@_0N@MKDGOBHE@VC_REPLY_YES@ 300c1c84     cg_event.obj
 0002:0000fc94       ??_C@_0O@EPKPIMNE@VC_REQ_ASSIST@ 300c1c94     cg_event.obj
 0002:0000fca4       ??_C@_0M@BLGAICNA@VC_REQ_DEMO@ 300c1ca4     cg_event.obj
 0002:0000fcb0       ??_C@_0L@PNFMICJA@VC_REQ_HVY@ 300c1cb0     cg_event.obj
 0002:0000fcbc       ??_C@_0N@DBGMMGA@VC_REQ_MEDIC@ 300c1cbc     cg_event.obj
 0002:0000fccc       ??_C@_0O@KBNCBKOL@VC_REQ_SUPPLY@ 300c1ccc     cg_event.obj
 0002:0000fcdc       ??_C@_0M@DOFPKOJP@VC_REQ_TECH@ 300c1cdc     cg_event.obj
 0002:0000fce8       ??_C@_0M@FFBELII@VC_SPOT_AIR@ 300c1ce8     cg_event.obj
 0002:0000fcf4       ??_C@_0M@BFDLJFIL@VC_SPOT_DEF@ 300c1cf4     cg_event.obj
 0002:0000fd00       ??_C@_0BB@OFFPFDGF@VC_SPOT_EMPLACED@ 300c1d00     cg_event.obj
 0002:0000fd14       ??_C@_0P@CPGCNJAC@VC_SPOT_SNIPER@ 300c1d14     cg_event.obj
 0002:0000fd24       ??_C@_0O@DFHBKCFK@VC_SPOT_TROOP@ 300c1d24     cg_event.obj
 0002:0000fd34       ??_C@_0N@LNBDOHMM@VC_TAC_COVER@ 300c1d34     cg_event.obj
 0002:0000fd44       ??_C@_0BA@JEJBIDNE@VC_TAC_FALLBACK@ 300c1d44     cg_event.obj
 0002:0000fd54       ??_C@_0O@HGALIJMC@VC_TAC_FOLLOW@ 300c1d54     cg_event.obj
 0002:0000fd64       ??_C@_0M@FEAKMGNO@VC_TAC_HOLD@ 300c1d64     cg_event.obj
 0002:0000fd70       ??_C@_0N@DMJBAMBN@VC_TAC_SPLIT@ 300c1d70     cg_event.obj
 0002:0000fd80       ??_C@_0BA@CLAAAGCB@VC_TAC_TOGETHER@ 300c1d80     cg_event.obj
 0002:0000fd90       ??_C@_0BE@KOEAJGML@MP_INGAME_NUMBER_ST@ 300c1d90     cg_event.obj
 0002:0000fda4       ??_C@_0BE@PAHMLELJ@MP_INGAME_NUMBER_ND@ 300c1da4     cg_event.obj
 0002:0000fdb8       ??_C@_0BE@OFEAOOKN@MP_INGAME_NUMBER_RD@ 300c1db8     cg_event.obj
 0002:0000fdcc       ??_C@_0BE@ENHINNBD@MP_INGAME_NUMBER_TH@ 300c1dcc     cg_event.obj
 0002:0000fde0       ??_C@_0BD@PKKAIICO@MP_INGAME_TIED_FOR@ 300c1de0     cg_event.obj
 0002:0000fdf4       ??_C@_03KMLIBBBJ@1?$CFs@   300c1df4     cg_event.obj
 0002:0000fdf8       ??_C@_03LOANLOPH@2?$CFs@   300c1df8     cg_event.obj
 0002:0000fdfc       ??_C@_03GLBNJJC@3?$CFs@    300c1dfc     cg_event.obj
 0002:0000fe00       ??_C@_04NHJPKICO@11?$CFs@  300c1e00     cg_event.obj
 0002:0000fe08       ??_C@_04MFCKAHMA@12?$CFs@  300c1e08     cg_event.obj
 0002:0000fe10       ??_C@_04HNJGGAKF@13?$CFs@  300c1e10     cg_event.obj
 0002:0000fe18       ??_C@_04EMEGLOCB@?$CFi?$CFs@ 300c1e18     cg_event.obj
 0002:0000fe20       ??_C@_04HDOCAJNK@?$CFs?$CFs@ 300c1e20     cg_event.obj
 0002:0000fe28       ??_C@_0CB@LLKCBBGA@CG_Obituary?3?5target?5out?5of?5rang@ 300c1e28     cg_event.obj
 0002:0000fe4c       ??_C@_01EFFIKLCJ@n@        300c1e4c     cg_event.obj
 0002:0000fe50       ??_C@_02PGJLIFGD@?$FO7@    300c1e50     cg_event.obj
 0002:0000fe54       ??_C@_0P@MOAKIINA@DIED_ASTEROID1@ 300c1e54     cg_event.obj
 0002:0000fe64       ??_C@_0P@OFCHNLBD@DIED_ASTEROID2@ 300c1e64     cg_event.obj
 0002:0000fe74       ??_C@_0P@PMDMOKFC@DIED_ASTEROID3@ 300c1e74     cg_event.obj
 0002:0000fe84       ??_C@_0N@OIOBBDFO@DIED_GENERIC@ 300c1e84     cg_event.obj
 0002:0000fe94       ??_C@_0BA@ILCLOEBM@DIED_TURBOLASER@ 300c1e94     cg_event.obj
 0002:0000fea4       ??_C@_0BE@BKCBNJLP@SUICIDE_SHOT_FEMALE@ 300c1ea4     cg_event.obj
 0002:0000feb8       ??_C@_0BI@EDLJKFEC@SUICIDE_SHOT_GENDERLESS@ 300c1eb8     cg_event.obj
 0002:0000fed0       ??_C@_0BC@DLPIHFNE@SUICIDE_SHOT_MALE@ 300c1ed0     cg_event.obj
 0002:0000fee4       ??_C@_0BK@GNELLBLD@SUICIDE_EXPLOSIVES_FEMALE@ 300c1ee4     cg_event.obj
 0002:0000ff00       ??_C@_0BO@BONIOHNA@SUICIDE_EXPLOSIVES_GENDERLESS@ 300c1f00     cg_event.obj
 0002:0000ff20       ??_C@_0BI@LOIGJPMB@SUICIDE_EXPLOSIVES_MALE@ 300c1f20     cg_event.obj
 0002:0000ff38       ??_C@_0BM@NIKKDAII@SUICIDE_ELECTROCUTED_FEMALE@ 300c1f38     cg_event.obj
 0002:0000ff54       ??_C@_0CA@CFGLGMGJ@SUICIDE_ELECTROCUTED_GENDERLESS@ 300c1f54     cg_event.obj
 0002:0000ff74       ??_C@_0BK@JOACMNGP@SUICIDE_ELECTROCUTED_MALE@ 300c1f74     cg_event.obj
 0002:0000ff90       ??_C@_0BJ@DCOGPDGK@SUICIDE_FALLDEATH_FEMALE@ 300c1f90     cg_event.obj
 0002:0000ffac       ??_C@_0BN@NGOHMGKM@SUICIDE_FALLDEATH_GENDERLESS@ 300c1fac     cg_event.obj
 0002:0000ffcc       ??_C@_0BH@BDIIPDGM@SUICIDE_FALLDEATH_MALE@ 300c1fcc     cg_event.obj
 0002:0000ffe4       ??_C@_0BM@PFKEEECI@SUICIDE_GENERICDEATH_FEMALE@ 300c1fe4     cg_event.obj
 0002:00010000       ??_C@_0CA@OAKEMEBL@SUICIDE_GENERICDEATH_GENDERLESS@ 300c2000     cg_event.obj
 0002:00010020       ??_C@_0BK@LDDEAKKE@SUICIDE_GENERICDEATH_MALE@ 300c2020     cg_event.obj
 0002:0001003c       ??_C@_0O@FPBPBEEJ@OJP_INGAMEVEH@ 300c203c     cg_event.obj
 0002:0001004c       ??_C@_06IINFAHFO@?$CFs?5?$CFs?6@ 300c204c     cg_event.obj
 0002:00010054       ??_C@_0BJ@KBGFPHJH@MP_INGAME_KILLED_MESSAGE@ 300c2054     cg_event.obj
 0002:00010070       ??_C@_0BJ@NEOJGJCJ@MP_INGAME_JMKILLED_NOTJM@ 300c2070     cg_event.obj
 0002:0001008c       ??_C@_09OEGONCCB@?$CFs?5?$CFs?6?$CFs?6@ 300c208c     cg_event.obj
 0002:00010098       ??_C@_0BF@IKFHMHCC@MP_INGAME_PLACE_WITH@ 300c2098     cg_event.obj
 0002:000100b0       ??_C@_0BB@FMBDAKNB@?$CFs?5?$CFs?4?6?$CFs?5?$CFs?5?$CFi?4@ 300c20b0     cg_event.obj
 0002:000100c4       ??_C@_05DNIIFBMG@?$CFs?5?$CFs@ 300c20c4     cg_event.obj
 0002:000100cc       ??_C@_0M@MHEOJOMG@KILLED_STUN@ 300c20cc     cg_event.obj
 0002:000100d8       ??_C@_0N@LKNGLIHG@KILLED_MELEE@ 300c20d8     cg_event.obj
 0002:000100e8       ??_C@_0N@JDNGIOPI@KILLED_SABER@ 300c20e8     cg_event.obj
 0002:000100f8       ??_C@_0N@PMANMKNG@KILLED_BRYAR@ 300c20f8     cg_event.obj
 0002:00010108       ??_C@_0P@LFCADJJM@KILLED_BLASTER@ 300c2108     cg_event.obj
 0002:00010118       ??_C@_0BB@OIONJBHE@KILLED_DISRUPTOR@ 300c2118     cg_event.obj
 0002:0001012c       ??_C@_0BG@FEEEOEOP@KILLED_DISRUPTORSNIPE@ 300c212c     cg_event.obj
 0002:00010144       ??_C@_0BB@BHKLOLC@KILLED_BOWCASTER@ 300c2144     cg_event.obj
 0002:00010158       ??_C@_0BA@IPOEHCNL@KILLED_REPEATER@ 300c2158     cg_event.obj
 0002:00010168       ??_C@_0BD@LPENDEOH@KILLED_REPEATERALT@ 300c2168     cg_event.obj
 0002:0001017c       ??_C@_0N@FPPGAAHB@KILLED_DEMP2@ 300c217c     cg_event.obj
 0002:0001018c       ??_C@_0BB@NPEKGKGA@KILLED_FLECHETTE@ 300c218c     cg_event.obj
 0002:000101a0       ??_C@_0BG@PKKJJLAL@KILLED_FLECHETTE_MINE@ 300c21a0     cg_event.obj
 0002:000101b8       ??_C@_0O@DFIJLFEC@KILLED_ROCKET@ 300c21b8     cg_event.obj
 0002:000101c8       ??_C@_0BF@GEDPKMGM@KILLED_ROCKET_HOMING@ 300c21c8     cg_event.obj
 0002:000101e0       ??_C@_0P@KDBDMBJD@KILLED_THERMAL@ 300c21e0     cg_event.obj
 0002:000101f0       ??_C@_0BA@EFIIHAGC@KILLED_TRIPMINE@ 300c21f0     cg_event.obj
 0002:00010200       ??_C@_0BG@HOAJDDCM@KILLED_TRIPMINE_TIMED@ 300c2200     cg_event.obj
 0002:00010218       ??_C@_0P@KCGOODH@KILLED_DETPACK@ 300c2218     cg_event.obj
 0002:00010228       ??_C@_0BE@FGPPMLMB@KILLED_VEH_BLASTER3@ 300c2228     cg_event.obj
 0002:0001023c       ??_C@_0BE@EPOEPKIA@KILLED_VEH_BLASTER2@ 300c223c     cg_event.obj
 0002:00010250       ??_C@_0BE@GEMJKJED@KILLED_VEH_BLASTER1@ 300c2250     cg_event.obj
 0002:00010264       ??_C@_0BE@NEONBPJO@KILLED_VEH_MISSILE2@ 300c2264     cg_event.obj
 0002:00010278       ??_C@_0BE@PPMAEMFN@KILLED_VEH_MISSILE1@ 300c2278     cg_event.obj
 0002:0001028c       ??_C@_0BA@KABNDJCE@KILLED_VEH_BOMB@ 300c228c     cg_event.obj
 0002:0001029c       ??_C@_0P@HDCFKIJO@KILLED_VEH_ION@ 300c229c     cg_event.obj
 0002:000102ac       ??_C@_0BC@BCIBMBAN@KILLED_VEH_TURRET@ 300c22ac     cg_event.obj
 0002:000102c0       ??_C@_0P@JAGCHHE@KILLED_GENERIC@ 300c22c0     cg_event.obj
 0002:000102d0       ??_C@_0BB@CDNJLIKH@KILLED_DARKFORCE@ 300c22d0     cg_event.obj
 0002:000102e4       ??_C@_0O@GOEINFFA@KILLED_SENTRY@ 300c22e4     cg_event.obj
 0002:000102f4       ??_C@_0BA@PLHHDAOP@KILLED_TELEFRAG@ 300c22f4     cg_event.obj
 0002:00010304       ??_C@_0BB@OPGILALH@KILLED_FORCETOSS@ 300c2304     cg_event.obj
 0002:00010318       ??_C@_0BG@PJDMAJJM@KILLED_VEH_COLLISION1@ 300c2318     cg_event.obj
 0002:00010330       ??_C@_0BG@NCBBFKFP@KILLED_VEH_COLLISION2@ 300c2330     cg_event.obj
 0002:00010348       ??_C@_0BG@MLAKGLBO@KILLED_VEH_COLLISION3@ 300c2348     cg_event.obj
 0002:00010360       ??_C@_0P@POABEAHB@KILLED_TURRET1@ 300c2360     cg_event.obj
 0002:00010370       ??_C@_0P@NFCMBDLC@KILLED_TURRET2@ 300c2370     cg_event.obj
 0002:00010380       ??_C@_0O@OLHPMPLG@KILLED_SEEKER@ 300c2380     cg_event.obj
 0002:00010390       ??_C@_0N@CBHIKDKB@KILLED_FLAME@ 300c2390     cg_event.obj
 0002:000103a0       ??_C@_0BH@HDIDDPAL@KILLED_FLAME_EXPLOSION@ 300c23a0     cg_event.obj
 0002:000103b8       ??_C@_0O@CGNJIFHI@KILLED_DIOXIS@ 300c23b8     cg_event.obj
 0002:000103c8       ??_C@_0BI@ICCMLJDN@KILLED_DIOXIS_EXPLOSION@ 300c23c8     cg_event.obj
 0002:000103e0       ??_C@_0P@JCGFIHPC@KILLED_FREEZER@ 300c23e0     cg_event.obj
 0002:000103f0       ??_C@_0BJ@IJOKACI@KILLED_FREEZER_EXPLOSION@ 300c23f0     cg_event.obj
 0002:0001040c       ??_C@_0BF@JLOCAHM@KILLED_ION_EXPLOSION@ 300c240c     cg_event.obj
 0002:00010424       ??_C@_0N@DMPDFFFF@KILLED_SONIC@ 300c2424     cg_event.obj
 0002:00010434       ??_C@_0BH@IHJAMNHK@KILLED_SONIC_EXPLOSION@ 300c2434     cg_event.obj
 0002:0001044c       ??_C@_0N@ICGOFDJG@KILLED_FLASH@ 300c244c     cg_event.obj
 0002:0001045c       ??_C@_0BH@KDMNJEIP@KILLED_FLASH_EXPLOSION@ 300c245c     cg_event.obj
 0002:00010474       ??_C@_03IKGEINEE@?$CFs?5@  300c2474     cg_event.obj
 0002:00010478       ??_C@_05HHHBCPMM@?$CI?$CFs?$CJ?5@ 300c2478     cg_event.obj
 0002:00010480       ??_C@_08OFHLEAKP@?5?$CI?$CFs?5?$CFs?$CJ@ 300c2480     cg_event.obj
 0002:0001048c       ??_C@_05DNDNCJEB@?5?$CI?$CFs?$CJ@ 300c248c     cg_event.obj
 0002:00010494       ??_C@_0N@KMACKPKL@SP_INGAME_?$CFs@ 300c2494     cg_event.obj
 0002:000104a4       ??_C@_0L@OMPHCJLG@PICKUPLINE@ 300c24a4     cg_event.obj
 0002:000104b0       ??_C@_0M@FAKIOGIA@?$CKpain25?4wav@ 300c24b0     cg_event.obj
 0002:000104bc       ??_C@_0M@MFMCEJLN@?$CKpain50?4wav@ 300c24bc     cg_event.obj
 0002:000104c8       ??_C@_0M@CJAMJCH@?$CKpain75?4wav@ 300c24c8     cg_event.obj
 0002:000104d4       ??_C@_0N@CIPOKOBF@?$CKpain100?4wav@ 300c24d4     cg_event.obj
 0002:000104e4       ??_C@_04HEDFJGEJ@FREE@     300c24e4     cg_event.obj
 0002:000104ec       ??_C@_0BF@MKAEEDCG@FRAGGED_FLAG_CARRIER@ 300c24ec     cg_event.obj
 0002:00010504       ??_C@_0O@MBPOLPAP@FLAG_RETURNED@ 300c2504     cg_event.obj
 0002:00010514       ??_C@_0BF@DCOFADEE@PLAYER_RETURNED_FLAG@ 300c2514     cg_event.obj
 0002:0001052c       ??_C@_0BF@GDEBPKGL@PLAYER_CAPTURED_FLAG@ 300c252c     cg_event.obj
 0002:00010544       ??_C@_0BA@GOKKEBNJ@PLAYER_GOT_FLAG@ 300c2544     cg_event.obj
 0002:00010554       ??_C@_03OFAPEBGM@?$CFs?6@  300c2554     cg_event.obj
 0002:00010558       ??_C@_0CD@PBPAMPHJ@sound?1movers?1objects?1objectHit?4@ 300c2558     cg_event.obj
 0002:0001057c       ??_C@_0L@LNFPJAAJ@?$CKland1?4wav@ 300c257c     cg_event.obj
 0002:00010588       ??_C@_0L@PAMDLABJ@voice?5chat@ 300c2588     cg_event.obj
 0002:00010594       ??_C@_0BE@HGIJDIOP@ent?3?$CF3i?5?5event?3?$CF3i?5@ 300c2594     cg_event.obj
 0002:000105a8       ??_C@_0L@GMIFJJAD@ZEROEVENT?6@ 300c25a8     cg_event.obj
 0002:000105b4       ??_C@_0P@LEHMHLJF@EV_CLIENTJOIN?6@ 300c25b4     cg_event.obj
 0002:000105c4       ??_C@_0N@KAJBJGHI@EV_FOOTSTEP?6@ 300c25c4     cg_event.obj
 0002:000105d4       ??_C@_0BD@GPGIDOAE@EV_FOOTSTEP_METAL?6@ 300c25d4     cg_event.obj
 0002:000105e8       ??_C@_0P@ECCJNKCN@EV_FOOTSPLASH?6@ 300c25e8     cg_event.obj
 0002:000105f8       ??_C@_0N@DBFBMKGC@EV_FOOTWADE?6@ 300c25f8     cg_event.obj
 0002:00010608       ??_C@_08KPLPEGCK@EV_SWIM?6@ 300c2608     cg_event.obj
 0002:00010614       ??_C@_08CFBICNCF@EV_FALL?6@ 300c2614     cg_event.obj
 0002:00010620       ??_C@_08LGDHLDGB@EV_STEP?6@ 300c2620     cg_event.obj
 0002:0001062c       ??_C@_0CF@KPADFJEL@sound?1weapons?1saber?1saberblock?$CF@ 300c262c     cg_event.obj
 0002:00010654       ??_C@_0BA@GNCBDOLB@EV_GHOUL2_MARK?6@ 300c2654     cg_event.obj
 0002:00010664       ??_C@_0BA@JJCOOCID@EV_GLOBAL_DUEL?6@ 300c2664     cg_event.obj
 0002:00010674       ??_C@_0L@HMDPGPOM@BEGIN_DUEL@ 300c2674     cg_event.obj
 0002:00010680       ??_C@_09HNLILNJH@MP_SVGAME@ 300c2680     cg_event.obj
 0002:0001068c       ??_C@_0BB@MIEMHGH@EV_PRIVATE_DUEL?6@ 300c268c     cg_event.obj
 0002:000106a0       ??_C@_0BC@BIOHEDAP@music?1mp?1duel?4mp3@ 300c26a0     cg_event.obj
 0002:000106b4       ??_C@_08GKDKOBGN@EV_JUMP?6@ 300c26b4     cg_event.obj
 0002:000106c0       ??_C@_0L@FMHDEMAN@?$CKjump1?4wav@ 300c26c0     cg_event.obj
 0002:000106cc       ??_C@_08CGPNDMJ@EV_ROLL?6@ 300c26cc     cg_event.obj
 0002:000106d8       ??_C@_09OAFEJHMF@EV_TAUNT?6@ 300c26d8     cg_event.obj
 0002:000106e4       ??_C@_0N@LFMMGJKI@?$CKanger?$CFd?4wav@ 300c26e4     cg_event.obj
 0002:000106f4       ??_C@_0N@NFOOMBAN@?$CKtaunt?$CFd?4wav@ 300c26f4     cg_event.obj
 0002:00010704       ??_C@_0P@BAFJNLJH@?$CKdeflect?$CFd?4wav@ 300c2704     cg_event.obj
 0002:00010714       ??_C@_0N@IKMJGNPG@?$CKgloat?$CFd?4wav@ 300c2714     cg_event.obj
 0002:00010724       ??_C@_0P@LGDFBLBJ@?$CKvictory?$CFd?4wav@ 300c2724     cg_event.obj
 0002:00010734       ??_C@_0L@FDBCLIPJ@?$CKtaunt?4wav@ 300c2734     cg_event.obj
 0002:00010740       ??_C@_0L@JIMCLEOH@EV_ANGERx?6@ 300c2740     cg_event.obj
 0002:0001074c       ??_C@_0N@JFCHKHG@?$CKanger?$CFi?4wav@ 300c274c     cg_event.obj
 0002:0001075c       ??_C@_0N@HEEPLDGK@EV_VICTORYx?6@ 300c275c     cg_event.obj
 0002:0001076c       ??_C@_0P@KKLAIMH@?$CKvictory?$CFi?4wav@ 300c276c     cg_event.obj
 0002:0001077c       ??_C@_0O@KPIHHDB@EV_CONFUSEDx?6@ 300c277c     cg_event.obj
 0002:0001078c       ??_C@_0P@CMIJNIPJ@?$CKconfuse?$CFi?4wav@ 300c278c     cg_event.obj
 0002:0001079c       ??_C@_0M@EODEDNBM@EV_PUSHEDx?6@ 300c279c     cg_event.obj
 0002:000107a8       ??_C@_0O@NKLIIKEJ@?$CKpushed?$CFi?4wav@ 300c27a8     cg_event.obj
 0002:000107b8       ??_C@_0L@CHJKNFIK@EV_CHOKEx?6@ 300c27b8     cg_event.obj
 0002:000107c4       ??_C@_0N@KALHINPO@?$CKchoke?$CFi?4wav@ 300c27c4     cg_event.obj
 0002:000107d4       ??_C@_0L@HHFIMOOA@EV_FFWARN?6@ 300c27d4     cg_event.obj
 0002:000107e0       ??_C@_0M@GLFHPFHD@?$CKffwarn?4wav@ 300c27e0     cg_event.obj
 0002:000107ec       ??_C@_0L@GEKMINAM@EV_FFTURN?6@ 300c27ec     cg_event.obj
 0002:000107f8       ??_C@_0M@KKCLPGGH@?$CKffturn?4wav@ 300c27f8     cg_event.obj
 0002:00010804       ??_C@_0L@ENAAGILJ@EV_CHASEx?6@ 300c2804     cg_event.obj
 0002:00010810       ??_C@_0N@KJGGFNCE@?$CKchase?$CFi?4wav@ 300c2810     cg_event.obj
 0002:00010820       ??_C@_0L@LEBKGJBA@EV_COVERx?6@ 300c2820     cg_event.obj
 0002:0001082c       ??_C@_0N@OMILNBPP@?$CKcover?$CFi?4wav@ 300c282c     cg_event.obj
 0002:0001083c       ??_C@_0O@JKILKEDL@EV_DETECTEDx?6@ 300c283c     cg_event.obj
 0002:0001084c       ??_C@_0BA@IEJODIMK@?$CKdetected?$CFi?4wav@ 300c284c     cg_event.obj
 0002:0001085c       ??_C@_0M@PMLMFNPD@EV_GIVEUPx?6@ 300c285c     cg_event.obj
 0002:00010868       ??_C@_0O@MKEGNAOE@?$CKgiveup?$CFi?4wav@ 300c2868     cg_event.obj
 0002:00010878       ??_C@_09KCLGOEIJ@EV_LOOKx?6@ 300c2878     cg_event.obj
 0002:00010884       ??_C@_0M@IECJNBN@?$CKlook?$CFi?4wav@ 300c2884     cg_event.obj
 0002:00010890       ??_C@_09HAJHGPIM@EV_LOST1?6@ 300c2890     cg_event.obj
 0002:0001089c       ??_C@_0L@PFPNPDKP@?$CKlost1?4wav@ 300c289c     cg_event.obj
 0002:000108a8       ??_C@_0O@JKGLGHPC@EV_OUTFLANKx?6@ 300c28a8     cg_event.obj
 0002:000108b8       ??_C@_0BA@ECEMECLD@?$CKoutflank?$CFi?4wav@ 300c28b8     cg_event.obj
 0002:000108c8       ??_C@_0O@LBEFKCPP@EV_ESCAPINGx?6@ 300c28c8     cg_event.obj
 0002:000108d8       ??_C@_0BA@IAPJDOKJ@?$CKescaping?$CFi?4wav@ 300c28d8     cg_event.obj
 0002:000108e8       ??_C@_0L@LOAACHFC@EV_SIGHTx?6@ 300c28e8     cg_event.obj
 0002:000108f4       ??_C@_0N@PHGKPCEG@?$CKsight?$CFi?4wav@ 300c28f4     cg_event.obj
 0002:00010904       ??_C@_0L@EMJHBDMH@EV_SOUNDx?6@ 300c2904     cg_event.obj
 0002:00010910       ??_C@_0N@DDCFCBHB@?$CKsound?$CFi?4wav@ 300c2910     cg_event.obj
 0002:00010920       ??_C@_0BA@KBLHFCPH@EV_SUSPICIOUSx?6@ 300c2920     cg_event.obj
 0002:00010930       ??_C@_0BC@PHFLACAM@?$CKsuspicious?$CFi?4wav@ 300c2930     cg_event.obj
 0002:00010944       ??_C@_0M@FOBFLOB@EV_COMBATx?6@ 300c2944     cg_event.obj
 0002:00010950       ??_C@_0O@PPKPFKOD@?$CKcombat?$CFi?4wav@ 300c2950     cg_event.obj
 0002:00010960       ??_C@_0P@GMGCJCFO@EV_JDETECTEDx?6@ 300c2960     cg_event.obj
 0002:00010970       ??_C@_0BB@JDDLJJHL@?$CKjdetected?$CFi?4wav@ 300c2970     cg_event.obj
 0002:00010984       ??_C@_0L@EGHEDGBM@EV_TAUNTx?6@ 300c2984     cg_event.obj
 0002:00010990       ??_C@_0N@GJHANCND@?$CKtaunt?$CFi?4wav@ 300c2990     cg_event.obj
 0002:000109a0       ??_C@_0M@NIMEFBOE@EV_JCHASEx?6@ 300c29a0     cg_event.obj
 0002:000109ac       ??_C@_0O@NFHHFBIJ@?$CKjchase?$CFi?4wav@ 300c29ac     cg_event.obj
 0002:000109bc       ??_C@_0L@HEKPAGAL@EV_JLOSTx?6@ 300c29bc     cg_event.obj
 0002:000109c8       ??_C@_0N@CKMOBFDB@?$CKjlost?$CFi?4wav@ 300c29c8     cg_event.obj
 0002:000109d8       ??_C@_0N@KDIAIIOP@EV_DEFLECTx?6@ 300c29d8     cg_event.obj
 0002:000109e8       ??_C@_0P@KMMHMIEJ@?$CKdeflect?$CFi?4wav@ 300c29e8     cg_event.obj
 0002:000109f8       ??_C@_0L@PFIKNHDI@EV_GLOATx?6@ 300c29f8     cg_event.obj
 0002:00010a04       ??_C@_0N@DGFHHOCI@?$CKgloat?$CFi?4wav@ 300c2a04     cg_event.obj
 0002:00010a14       ??_C@_0N@JMFEBDJA@EV_PUSHFAIL?6@ 300c2a14     cg_event.obj
 0002:00010a24       ??_C@_0O@HILDDGFG@?$CKpushfail?4wav@ 300c2a24     cg_event.obj
 0002:00010a34       ??_C@_0O@LILDLENG@EV_SIEGESPEC?6@ 300c2a34     cg_event.obj
 0002:00010a44       ??_C@_0BA@PBFGAGAE@EV_WATER_TOUCH?6@ 300c2a44     cg_event.obj
 0002:00010a54       ??_C@_0BA@POIDPCHH@EV_WATER_LEAVE?6@ 300c2a54     cg_event.obj
 0002:00010a64       ??_C@_0BA@PFCHBJFN@EV_WATER_UNDER?6@ 300c2a64     cg_event.obj
 0002:00010a74       ??_C@_0BA@OODKPEF@EV_WATER_CLEAR?6@ 300c2a74     cg_event.obj
 0002:00010a84       ??_C@_09OICPJII@?$CKgasp?4wav@ 300c2a84     cg_event.obj
 0002:00010a90       ??_C@_0BA@LGJAHGJL@EV_ITEM_PICKUP?6@ 300c2a90     cg_event.obj
 0002:00010aa0       ??_C@_0BH@BPJPNNOH@EV_GLOBAL_ITEM_PICKUP?6@ 300c2aa0     cg_event.obj
 0002:00010ab8       ??_C@_0N@GJLAOEL@EV_VEH_FIRE?6@ 300c2ab8     cg_event.obj
 0002:00010ac8       ??_C@_0L@CIOCLBPP@EV_NOAMMO?6@ 300c2ac8     cg_event.obj
 0002:00010ad4       ??_C@_0BC@KBHMOJOO@EV_CHANGE_WEAPON?6@ 300c2ad4     cg_event.obj
 0002:00010ae8       ??_C@_0BA@CJMMIDHE@EV_FIRE_WEAPON?6@ 300c2ae8     cg_event.obj
 0002:00010af8       ??_C@_08DFMFBHOP@?$CKflash01@ 300c2af8     cg_event.obj
 0002:00010b04       ??_C@_08BOOIEECM@?$CKflash02@ 300c2b04     cg_event.obj
 0002:00010b10       ??_C@_0N@EEFOAGOF@EV_ALT_FIRE?6@ 300c2b10     cg_event.obj
 0002:00010b20       ??_C@_0BB@EBLNKKNK@EV_SABER_ATTACK?6@ 300c2b20     cg_event.obj
 0002:00010b34       ??_C@_0CD@EBJGEHEE@sound?1weapons?1saber?1saberhup?$CFi?4@ 300c2b34     cg_event.obj
 0002:00010b58       ??_C@_0O@FLLECKKD@EV_SABER_HIT?6@ 300c2b58     cg_event.obj
 0002:00010b68       ??_C@_0CD@IPCIPINL@sound?1weapons?1saber?1saberhit?$CFi?4@ 300c2b68     cg_event.obj
 0002:00010b8c       ??_C@_0BA@NNCAIIDK@EV_SABER_BLOCK?6@ 300c2b8c     cg_event.obj
 0002:00010b9c       ??_C@_0BF@BLJMDOGE@EV_SABER_CLASHFLARE?6@ 300c2b9c     cg_event.obj
 0002:00010bb4       ??_C@_0CD@MINDHCBN@sound?1weapons?1saber?1saberhitwal@ 300c2bb4     cg_event.obj
 0002:00010bd8       ??_C@_0BE@LHAIBFCE@EV_SABER_UNHOLSTER?6@ 300c2bd8     cg_event.obj
 0002:00010bec       ??_C@_0CA@IHKBIIAM@sound?1weapons?1saber?1saberon?4wav@ 300c2bec     cg_event.obj
 0002:00010c0c       ??_C@_0BI@IGJAGMIN@EV_DISRUPTOR_MAIN_SHOT?6@ 300c2c0c     cg_event.obj
 0002:00010c24       ??_C@_0BK@HEJCNNBO@EV_DISRUPTOR_SNIPER_SHOT?6@ 300c2c24     cg_event.obj
 0002:00010c40       ??_C@_0BK@GPKOGJOH@EV_DISRUPTOR_SNIPER_MISS?6@ 300c2c40     cg_event.obj
 0002:00010c5c       ??_C@_0BC@JPMCFDBJ@EV_DISRUPTOR_HIT?6@ 300c2c5c     cg_event.obj
 0002:00010c70       ??_C@_0BI@GNFPMMKN@EV_DISRUPTOR_ZOOMSOUND?6@ 300c2c70     cg_event.obj
 0002:00010c88       ??_C@_0CG@PBOJOFP@sound?1weapons?1disruptor?1zoomsta@ 300c2c88     cg_event.obj
 0002:00010cb0       ??_C@_0CE@PIBAGMCN@sound?1weapons?1disruptor?1zoomend@ 300c2cb0     cg_event.obj
 0002:00010cd4       ??_C@_0BA@OCJLFFOK@EV_PREDEFSOUND?6@ 300c2cd4     cg_event.obj
 0002:00010ce4       ??_C@_0CD@DLMOJGKG@sound?1weapons?1force?1protecthit?4@ 300c2ce4     cg_event.obj
 0002:00010d08       ??_C@_0CA@HJGMCKFK@sound?1weapons?1force?1protect?4mp3@ 300c2d08     cg_event.obj
 0002:00010d28       ??_C@_0CD@LGJAONBO@sound?1weapons?1force?1deathfield?4@ 300c2d28     cg_event.obj
 0002:00010d4c       ??_C@_0CC@JDCLBP@sound?1weapons?1force?1absorbhit?4m@ 300c2d4c     cg_event.obj
 0002:00010d70       ??_C@_0BP@HBDMOEFN@sound?1weapons?1force?1absorb?4mp3@ 300c2d70     cg_event.obj
 0002:00010d90       ??_C@_0CD@MCKLIGEH@sound?1weapons?1force?1deathsight?4@ 300c2d90     cg_event.obj
 0002:00010db4       ??_C@_0BN@OPAMHANO@sound?1weapons?1force?1jump?4mp3@ 300c2db4     cg_event.obj
 0002:00010dd4       ??_C@_0BN@OAMJLKID@sound?1weapons?1force?1grip?4mp3@ 300c2dd4     cg_event.obj
 0002:00010df4       ??_C@_0CE@ILIEADEH@sound?1weapons?1force?1telekinesis@ 300c2df4     cg_event.obj
 0002:00010e18       ??_C@_0P@EFHBOHF@EV_TEAM_POWER?6@ 300c2e18     cg_event.obj
 0002:00010e28       ??_C@_0BA@MNHPKCIL@EV_SCREENSHAKE?6@ 300c2e28     cg_event.obj
 0002:00010e38       ??_C@_0P@PEFPIADP@EV_LOCALTIMER?6@ 300c2e38     cg_event.obj
 0002:00010e48       ??_C@_0O@COHCPJPC@EV_USE_ITEM0?6@ 300c2e48     cg_event.obj
 0002:00010e58       ??_C@_0O@CPLAJDMF@EV_USE_ITEM1?6@ 300c2e58     cg_event.obj
 0002:00010e68       ??_C@_0O@CNPGCNJM@EV_USE_ITEM2?6@ 300c2e68     cg_event.obj
 0002:00010e78       ??_C@_0O@CMDEEHKL@EV_USE_ITEM3?6@ 300c2e78     cg_event.obj
 0002:00010e88       ??_C@_0O@CJHLFBCO@EV_USE_ITEM4?6@ 300c2e88     cg_event.obj
 0002:00010e98       ??_C@_0O@CILJDLBJ@EV_USE_ITEM5?6@ 300c2e98     cg_event.obj
 0002:00010ea8       ??_C@_0O@CKPPIFEA@EV_USE_ITEM6?6@ 300c2ea8     cg_event.obj
 0002:00010eb8       ??_C@_0O@CLDNOPHH@EV_USE_ITEM7?6@ 300c2eb8     cg_event.obj
 0002:00010ec8       ??_C@_0O@CAGBKIEK@EV_USE_ITEM8?6@ 300c2ec8     cg_event.obj
 0002:00010ed8       ??_C@_0O@CBKDMCHN@EV_USE_ITEM9?6@ 300c2ed8     cg_event.obj
 0002:00010ee8       ??_C@_0P@DIDCAOGA@EV_USE_ITEM10?6@ 300c2ee8     cg_event.obj
 0002:00010ef8       ??_C@_0P@DJPAGEFH@EV_USE_ITEM11?6@ 300c2ef8     cg_event.obj
 0002:00010f08       ??_C@_0P@DLLGNKAO@EV_USE_ITEM12?6@ 300c2f08     cg_event.obj
 0002:00010f18       ??_C@_0P@DKHELADJ@EV_USE_ITEM13?6@ 300c2f18     cg_event.obj
 0002:00010f28       ??_C@_0P@DPDLKGLM@EV_USE_ITEM14?6@ 300c2f28     cg_event.obj
 0002:00010f38       ??_C@_0P@DOPJMMIL@EV_USE_ITEM15?6@ 300c2f38     cg_event.obj
 0002:00010f48       ??_C@_0BA@HPBPKKLD@EV_ITEMUSEFAIL?6@ 300c2f48     cg_event.obj
 0002:00010f58       ??_C@_0O@HOCAFJFE@SENTRY_NOROOM@ 300c2f58     cg_event.obj
 0002:00010f68       ??_C@_0BF@BCPBOCCJ@SENTRY_ALREADYPLACED@ 300c2f68     cg_event.obj
 0002:00010f80       ??_C@_0O@EGAENPND@SHIELD_NOROOM@ 300c2f80     cg_event.obj
 0002:00010f90       ??_C@_0BH@LIEHOCMA@SEEKER_ALREADYDEPLOYED@ 300c2f90     cg_event.obj
 0002:00010fa8       ??_C@_0BH@EMPINMBK@EV_PLAYER_TELEPORT_IN?6@ 300c2fa8     cg_event.obj
 0002:00010fc0       ??_C@_0BI@GJLLMPKI@EV_PLAYER_TELEPORT_OUT?6@ 300c2fc0     cg_event.obj
 0002:00010fd8       ??_C@_0N@PBHGFCFD@EV_ITEM_POP?6@ 300c2fd8     cg_event.obj
 0002:00010fe8       ??_C@_0BB@JFDGENII@EV_ITEM_RESPAWN?6@ 300c2fe8     cg_event.obj
 0002:00010ffc       ??_C@_0BD@EIBAGLKH@EV_GRENADE_BOUNCE?6@ 300c2ffc     cg_event.obj
 0002:00011010       ??_C@_0O@HHOHODHG@EV_SCOREPLUM?6@ 300c3010     cg_event.obj
 0002:00011020       ??_C@_0P@FDEPALG@EV_CTFMESSAGE?6@ 300c3020     cg_event.obj
 0002:00011030       ??_C@_0BA@HOIEJEJL@head_eyes_mouth@ 300c3030     cg_event.obj
 0002:00011040       ??_C@_0BE@BNOHOFLM@EV_SIEGE_ROUNDOVER?6@ 300c3040     cg_event.obj
 0002:00011054       ??_C@_0BM@BABMLOOH@EV_SIEGE_OBJECTIVECOMPLETE?6@ 300c3054     cg_event.obj
 0002:00011070       ??_C@_0BM@PCLPFHBH@EV_DESTROY_GHOUL2_INSTANCE?6@ 300c3070     cg_event.obj
 0002:0001108c       ??_C@_0BJ@BCHDFDJB@EV_DESTROY_WEAPON_MODEL?6@ 300c308c     cg_event.obj
 0002:000110a8       ??_C@_0BC@HOMJNHOI@EV_GIVE_NEW_RANK?6@ 300c30a8     cg_event.obj
 0002:000110bc       ??_C@_0O@LNLHFCCF@ui_rankChange@ 300c30bc     cg_event.obj
 0002:000110cc       ??_C@_09CPHDILCP@ui_myteam@ 300c30cc     cg_event.obj
 0002:000110d8       ??_C@_0BD@BKAJJBKD@EV_SET_FREE_SABER?6@ 300c30d8     cg_event.obj
 0002:000110ec       ??_C@_0N@KGLGFCPL@ui_freeSaber@ 300c30ec     cg_event.obj
 0002:000110fc       ??_C@_0BG@MIJCAGDM@EV_SET_FORCE_DISABLE?6@ 300c30fc     cg_event.obj
 0002:00011114       ??_C@_0BF@LBOIACLJ@ui_forcePowerDisable@ 300c3114     cg_event.obj
 0002:0001112c       ??_C@_0BE@NNBFEJOK@EV_CONC_ALT_IMPACT?6@ 300c312c     cg_event.obj
 0002:00011140       ??_C@_0BC@KFHMIOIE@EV_MISSILE_STICK?6@ 300c3140     cg_event.obj
 0002:00011154       ??_C@_0BA@IGKGMCOM@EV_MISSILE_HIT?6@ 300c3154     cg_event.obj
 0002:00011164       ??_C@_0BB@PNKCFMCO@EV_MISSILE_MISS?6@ 300c3164     cg_event.obj
 0002:00011178       ??_C@_0BH@JAOAMPDI@EV_MISSILE_MISS_METAL?6@ 300c3178     cg_event.obj
 0002:00011190       ??_C@_0BA@EOBPNDFA@EV_PLAY_EFFECT?6@ 300c3190     cg_event.obj
 0002:000111a0       ??_C@_0BH@FLIFKKNH@EV_PLAY_EFFECT_BOLTED?6@ 300c31a0     cg_event.obj
 0002:000111b8       ??_C@_0BD@NADCCPEN@EV_PLAY_EFFECT_ID?6@ 300c31b8     cg_event.obj
 0002:000111cc       ??_C@_0BB@IGHFLFFN@EV_BMODEL_SOUND?6@ 300c31cc     cg_event.obj
 0002:000111e0       ??_C@_0P@MFMNPEFJ@EV_MUTE_SOUND?6@ 300c31e0     cg_event.obj
 0002:000111f0       ??_C@_0BD@MDIAINNI@EV_VOICECMD_SOUND?6@ 300c31f0     cg_event.obj
 0002:00011204       ??_C@_09CLANNEJM@?$DM?$CFs?3?5?$CFs?$DO?6@ 300c3204     cg_event.obj
 0002:00011210       ??_C@_0BC@BJDFIFFI@EV_GENERAL_SOUND?6@ 300c3210     cg_event.obj
 0002:00011224       ??_C@_0BB@DOBOGIIM@EV_GLOBAL_SOUND?6@ 300c3224     cg_event.obj
 0002:00011238       ??_C@_0BG@DDNACAKH@EV_GLOBAL_TEAM_SOUND?6@ 300c3238     cg_event.obj
 0002:00011250       ??_C@_0BB@MGFHJKEO@EV_ENTITY_SOUND?6@ 300c3250     cg_event.obj
 0002:00011264       ??_C@_0BI@PJOLKDFG@SOUND?1CHARS?1JADEN_MALE?1@ 300c3264     cg_event.obj
 0002:0001127c       ??_C@_0BN@NHBJGBAH@SOUND?1CHARS?1JADEN_MALE?1MISC?1@ 300c327c     cg_event.obj
 0002:0001129c       ??_C@_0BI@FGNMLOJE@SOUND?1CHARS?1JADEN_FMLE?1@ 300c329c     cg_event.obj
 0002:000112b4       ??_C@_0BN@OOAEAGMN@SOUND?1CHARS?1JADEN_FMLE?1MISC?1@ 300c32b4     cg_event.obj
 0002:000112d4       ??_C@_0O@NJJBGPF@EV_PLAY_ROFF?6@ 300c32d4     cg_event.obj
 0002:000112e4       ??_C@_0BC@OFECDCPE@EV_GLASS_SHATTER?6@ 300c32e4     cg_event.obj
 0002:000112f8       ??_C@_0L@ODCIENMH@EV_DEBRIS?6@ 300c32f8     cg_event.obj
 0002:00011304       ??_C@_0BD@CICJADGK@EV_MISC_MODEL_EXP?6@ 300c3304     cg_event.obj
 0002:00011318       ??_C@_08MEMNOIPP@EV_PAIN?6@ 300c3318     cg_event.obj
 0002:00011324       ??_C@_0L@GGFIAEKN@EV_DEATHx?6@ 300c3324     cg_event.obj
 0002:00011330       ??_C@_0N@OJAOIBLE@?$CKdeath?$CFi?4wav@ 300c3330     cg_event.obj
 0002:00011340       ??_C@_0N@NHOCPMCE@EV_OBITUARY?6@ 300c3340     cg_event.obj
 0002:00011350       ??_C@_0BH@DMMEDNOI@EV_POWERUP_BATTLESUIT?6@ 300c3350     cg_event.obj
 0002:00011368       ??_C@_0BC@MLCHKGFI@EV_FORCE_DRAINED?6@ 300c3368     cg_event.obj
 0002:0001137c       ??_C@_0BC@FFDKJGK@EV_FORCE_SEVERED?6@ 300c337c     cg_event.obj
 0002:00011390       ??_C@_0BB@CDMPIKGM@EV_FORCE_HEALED?6@ 300c3390     cg_event.obj
 0002:000113a4       ??_C@_0BG@BGGAKHLC@EV_FORCE_REGENERATED?6@ 300c33a4     cg_event.obj
 0002:000113bc       ??_C@_0BB@HCLIDKHF@EV_FORCE_STASIS?6@ 300c33bc     cg_event.obj
 0002:000113d0       ??_C@_0BD@NGPMHOHJ@EV_FORCE_INSANITY?6@ 300c33d0     cg_event.obj
 0002:000113e4       ??_C@_0BE@FNFPLDLP@EV_FORCE_LIGHTNING?6@ 300c33e4     cg_event.obj
 0002:000113f8       ??_C@_0BE@PEHICDAP@EV_FORCE_JUDGEMENT?6@ 300c33f8     cg_event.obj
 0002:0001140c       ??_C@_0BH@DAPDLILJ@EV_FORCE_DEATHFIELDED?6@ 300c340c     cg_event.obj
 0002:00011424       ??_C@_0BH@LKEKHLDK@EV_FORCE_DEATHSIGHTED?6@ 300c3424     cg_event.obj
 0002:0001143c       ??_C@_0BC@LFFGJKLF@EV_FORCE_BLINDED?6@ 300c343c     cg_event.obj
 0002:00011450       ??_C@_0L@LHOAKKNL@EV_BURNED?6@ 300c3450     cg_event.obj
 0002:0001145c       ??_C@_0L@NBLCDPHO@EV_FROZEN?6@ 300c345c     cg_event.obj
 0002:00011468       ??_C@_0M@HAEDOGKK@EV_SHOCKED?6@ 300c3468     cg_event.obj
 0002:00011474       ??_C@_0M@IHOGKIDM@EV_SOUNDED?6@ 300c3474     cg_event.obj
 0002:00011480       ??_C@_0M@GBHOMHI@EV_FLASHED?6@ 300c3480     cg_event.obj
 0002:0001148c       ??_C@_0P@OAKOFJEN@EV_GIB_PLAYER?6@ 300c348c     cg_event.obj
 0002:0001149c       ??_C@_0BG@LDMGNCJJ@EV_STARTLOOPINGSOUND?6@ 300c349c     cg_event.obj
 0002:000114b4       ??_C@_0BF@JEGDHJFI@EV_STOPLOOPINGSOUND?6@ 300c34b4     cg_event.obj
 0002:000114cc       ??_C@_0BC@FFJFINLG@EV_WEAPON_CHARGE?6@ 300c34cc     cg_event.obj
 0002:000114e0       ??_C@_0BG@LPILCDGP@EV_WEAPON_CHARGE_ALT?6@ 300c34e0     cg_event.obj
 0002:000114f8       ??_C@_0P@NNMMBHMG@EV_SHIELD_HIT?6@ 300c34f8     cg_event.obj
 0002:00011508       ??_C@_0P@DKFKJLCN@EV_DEBUG_LINE?6@ 300c3508     cg_event.obj
 0002:00011518       ??_C@_0N@JKOMGMLA@EV_TESTLINE?6@ 300c3518     cg_event.obj
 0002:00011528       ??_C@_0BC@LEJDILCN@EV_WEAPINVCHANGE?6@ 300c3528     cg_event.obj
 0002:0001153c       ??_C@_08GCOIMFOL@UNKNOWN?6@ 300c353c     cg_event.obj
 0002:00011548       ??_C@_0BC@OKELKAPM@Unknown?5event?3?5?$CFi@ 300c3548     cg_event.obj
 0002:00011560       __xmm@3f800000000000003f8000003f800000 300c3560     cg_event.obj
 0002:00011570       ??_C@_08JIKCGKJJ@HLR_NONE@ 300c3570     cg_holster.obj
 0002:0001157c       ??_C@_0BC@BELBMKJC@HLR_SINGLESABER_1@ 300c357c     cg_holster.obj
 0002:00011590       ??_C@_0BC@DPJMJJFB@HLR_SINGLESABER_2@ 300c3590     cg_holster.obj
 0002:000115a4       ??_C@_0P@BBAAIAOI@HLR_STAFFSABER@ 300c35a4     cg_holster.obj
 0002:000115b4       ??_C@_0N@LLEONIAI@HLR_PISTOL_L@ 300c35b4     cg_holster.obj
 0002:000115c4       ??_C@_0N@GPAPOHNH@HLR_PISTOL_R@ 300c35c4     cg_holster.obj
 0002:000115d4       ??_C@_0O@EIFCIPHM@HLR_BLASTER_L@ 300c35d4     cg_holster.obj
 0002:000115e4       ??_C@_0O@JMBDLAKD@HLR_BLASTER_R@ 300c35e4     cg_holster.obj
 0002:000115f4       ??_C@_0BC@FLJFAIJA@HLR_BRYARPISTOL_L@ 300c35f4     cg_holster.obj
 0002:00011608       ??_C@_0BC@IPNEDHEP@HLR_BRYARPISTOL_R@ 300c3608     cg_holster.obj
 0002:0001161c       ??_C@_0O@PAPFKAHE@HLR_BOWCASTER@ 300c361c     cg_holster.obj
 0002:0001162c       ??_C@_0BE@FAAIMBKC@HLR_ROCKET_LAUNCHER@ 300c362c     cg_holster.obj
 0002:00011640       ??_C@_09IHEICIEJ@HLR_DEMP2@ 300c3640     cg_holster.obj
 0002:0001164c       ??_C@_0P@IHBGOCLC@HLR_CONCUSSION@ 300c364c     cg_holster.obj
 0002:0001165c       ??_C@_0N@NEBIPGAK@HLR_REPEATER@ 300c365c     cg_holster.obj
 0002:0001166c       ??_C@_0O@COMFHEKG@HLR_FLECHETTE@ 300c366c     cg_holster.obj
 0002:0001167c       ??_C@_0O@BJGCIPLC@HLR_DISRUPTOR@ 300c367c     cg_holster.obj
 0002:0001168c       ??_C@_0M@MPKJEKHG@MAX_HOLSTER@ 300c368c     cg_holster.obj
 0002:00011698       ??_C@_0N@PGMEONP@HOLSTER_NONE@ 300c3698     cg_holster.obj
 0002:000116a8       ??_C@_0BC@FCLBAFHB@HOLSTER_UPPERBACK@ 300c36a8     cg_holster.obj
 0002:000116bc       ??_C@_0BC@PALGCLOK@HOLSTER_LOWERBACK@ 300c36bc     cg_holster.obj
 0002:000116d0       ??_C@_0BA@GAPNMCFP@HOLSTER_LEFTHIP@ 300c36d0     cg_holster.obj
 0002:000116e0       ??_C@_0BB@KOJKCMBC@HOLSTER_RIGHTHIP@ 300c36e0     cg_holster.obj
 0002:000116f4       ??_C@_0DC@BKFLJBLH@Error?3?5Could?5not?5allocate?5memor@ 300c36f4     cg_holster.obj
 0002:00011728       ??_C@_07DLHCIBDH@default@  300c3728     cg_holster.obj
 0002:00011730       ??_C@_0BO@IBBJADIK@models?1players?1?$CFs?1holster?4cfg@ 300c3730     cg_holster.obj
 0002:00011750       ??_C@_0CA@OEOCNHFL@models?1players?1kyle?1holster?4cfg@ 300c3750     cg_holster.obj
 0002:00011770       ??_C@_0CB@KNEIAPJG@models?1players?1?$CFs?1holster_?$CFs?4cf@ 300c3770     cg_holster.obj
 0002:00011798       ??_C@_0ED@OGNCNLPG@Error?3?5holster?4cfg?5for?5?$CFs?5is?5ov@ 300c3798     cg_holster.obj
 0002:000117dc       ??_C@_0M@ELAMHLDL@holsterType@ 300c37dc     cg_holster.obj
 0002:000117e8       ??_C@_0GA@HCAONLDF@Error?3?5The?5holster?4cfg?5for?5?$CFs?5a@ 300c37e8     cg_holster.obj
 0002:00011848       ??_C@_0FC@KOIJHDDO@Error?3?5The?5holster?4cfg?5for?5?$CFs?5h@ 300c3848     cg_holster.obj
 0002:0001189c       ??_C@_09EFLJNEJD@boneIndex@ 300c389c     cg_holster.obj
 0002:000118a8       ??_C@_08BEHKFNNO@disabled@ 300c38a8     cg_holster.obj
 0002:000118b4       ??_C@_09ENGABLGG@posOffset@ 300c38b4     cg_holster.obj
 0002:000118c0       ??_C@_0L@MIPDNFDN@?$CFf?0?5?$CFf?0?5?$CFf@ 300c38c0     cg_holster.obj
 0002:000118cc       ??_C@_09GKIGNKCC@angOffset@ 300c38cc     cg_holster.obj
 0002:000118d8       ??_C@_0BA@DANNDEJB@LOADING_MAPNAME@ 300c38d8     cg_info.obj
 0002:000118e8       ??_C@_07KMNEBLH@mapname@   300c38e8     cg_info.obj
 0002:000118f0       ??_C@_0O@OBEFLHGN@levelshots?1?$CFs@ 300c38f0     cg_info.obj
 0002:00011900       ??_C@_0BH@NKLBLPLI@menu?1art?1unknownmap_mp@ 300c3900     cg_info.obj
 0002:00011918       ??_C@_0BC@OMJIFLDI@AWAITING_SNAPSHOT@ 300c3918     cg_info.obj
 0002:0001192c       ??_C@_0L@MPAGGMDN@sv_running@ 300c392c     cg_info.obj
 0002:00011938       ??_C@_0M@NHCIKFPA@sv_hostname@ 300c3938     cg_info.obj
 0002:00011944       ??_C@_07CAKOHKGL@sv_pure@  300c3944     cg_info.obj
 0002:0001194c       ??_C@_0M@LJLDHHA@PURE_SERVER@ 300c394c     cg_info.obj
 0002:00011958       ??_C@_0O@GJFLJONJ@cl_motdString@ 300c3958     cg_info.obj
 0002:00011968       ??_C@_09NFOPKLIK@sv_cheats@ 300c3968     cg_info.obj
 0002:00011974       ??_C@_0BB@FMGHLLBN@CHEATSAREENABLED@ 300c3974     cg_info.obj
 0002:00011988       ??_C@_05INKFKLBN@?$CFs?5?$CFi@ 300c3988     cg_info.obj
 0002:00011990       ??_C@_0P@CFJBJECC@duel_fraglimit@ 300c3990     cg_info.obj
 0002:000119a0       ??_C@_08MILIEONM@WINLIMIT@ 300c39a0     cg_info.obj
 0002:000119ac       ??_C@_0BC@PJKMCDAC@g_forceBasedTeams@ 300c39ac     cg_info.obj
 0002:000119c0       ??_C@_0BA@DGPADPIF@FORCEBASEDTEAMS@ 300c39c0     cg_info.obj
 0002:000119d0       ??_C@_0BE@EDCPOKDI@g_forcePowerDisable@ 300c39d0     cg_info.obj
 0002:000119e4       ??_C@_0P@CHCANPBO@g_maxForceRank@ 300c39e4     cg_info.obj
 0002:000119f4       ??_C@_0BH@INBNAGOD@MP_INGAME_MAXFORCERANK@ 300c39f4     cg_info.obj
 0002:00011a0c       ??_C@_07IEKFKEFE@NOFPSET@  300c3a0c     cg_info.obj
 0002:00011a14       ??_C@_0BA@NLKEDGKK@Force?5Jump?5Only@ 300c3a14     cg_info.obj
 0002:00011a24       ??_C@_0BK@MHGNDGPH@Neutral?5Force?5Powers?5Only@ 300c3a24     cg_info.obj
 0002:00011a40       ??_C@_0BD@NKKLJIKF@Custom?5Force?5Setup@ 300c3a40     cg_info.obj
 0002:00011a54       ??_C@_0BE@OBOCPLPN@g_duelWeaponDisable@ 300c3a54     cg_info.obj
 0002:00011a68       ??_C@_0BA@DKHOJHPN@g_weaponDisable@ 300c3a68     cg_info.obj
 0002:00011a78       ??_C@_0N@JNDANCJI@SABERONLYSET@ 300c3a78     cg_info.obj
 0002:00011a88       ??_C@_0L@PMHONAIH@Melee?5Only@ 300c3a88     cg_info.obj
 0002:00011a94       ??_C@_0BE@LCKIKPIN@Sabers?5?$CG?5Melee?5Only@ 300c3a94     cg_info.obj
 0002:00011aa8       ??_C@_0O@MAICHMNL@No?5Explosives@ 300c3aa8     cg_info.obj
 0002:00011ab8       ??_C@_0BE@LEBPOFON@Custom?5Weapon?5Setup@ 300c3ab8     cg_info.obj
 0002:00011acc       ??_C@_0O@NKDJOJCH@g_itemDisable@ 300c3acc     cg_info.obj
 0002:00011adc       ??_C@_08KFDANAJD@No?5Items@ 300c3adc     cg_info.obj
 0002:00011ae8       ??_C@_0BD@ECFGGHGO@Grapple?5?$CG?5Jetpacks@ 300c3ae8     cg_info.obj
 0002:00011afc       ??_C@_0BM@KMGIAJAL@Grapple?0?5Jetpack?5?$CG?5Vehicles@ 300c3afc     cg_info.obj
 0002:00011b18       ??_C@_0M@DKIEJALL@No?5Vehicles@ 300c3b18     cg_info.obj
 0002:00011b24       ??_C@_0BC@CLEMHBBL@Custom?5Item?5Setup@ 300c3b24     cg_info.obj
 0002:00011b38       ??_C@_0M@MPJDFFIH@RULES_FFA_1@ 300c3b38     cg_info.obj
 0002:00011b44       ??_C@_0N@CILONNPF@RULES_HOLO_1@ 300c3b44     cg_info.obj
 0002:00011b54       ??_C@_0N@DJDIODG@RULES_HOLO_2@ 300c3b54     cg_info.obj
 0002:00011b64       ??_C@_0N@LKBPLKH@RULES_JEDI_1@ 300c3b64     cg_info.obj
 0002:00011b74       ??_C@_0N@CAIMKIGE@RULES_JEDI_2@ 300c3b74     cg_info.obj
 0002:00011b84       ??_C@_0N@FCPGFLOD@RULES_DUEL_1@ 300c3b84     cg_info.obj
 0002:00011b94       ??_C@_0N@HJNLAICA@RULES_DUEL_2@ 300c3b94     cg_info.obj
 0002:00011ba4       ??_C@_0BC@BPHJIFMA@RULES_POWERDUEL_1@ 300c3ba4     cg_info.obj
 0002:00011bb8       ??_C@_0BC@DEFENGAD@RULES_POWERDUEL_2@ 300c3bb8     cg_info.obj
 0002:00011bcc       ??_C@_0N@HLMCAEBD@RULES_TEAM_1@ 300c3bcc     cg_info.obj
 0002:00011bdc       ??_C@_0N@FAOPFHNA@RULES_TEAM_2@ 300c3bdc     cg_info.obj
 0002:00011bec       ??_C@_0M@BIKJDIGP@RULES_CTF_1@ 300c3bec     cg_info.obj
 0002:00011bf8       ??_C@_0M@DDIEGLKM@RULES_CTF_2@ 300c3bf8     cg_info.obj
 0002:00011c04       ??_C@_0M@BANDHPKG@RULES_CTY_1@ 300c3c04     cg_info.obj
 0002:00011c10       ??_C@_0M@DLPOCMGF@RULES_CTY_2@ 300c3c10     cg_info.obj
 0002:00011c1c       ??_C@_0BJ@JHLHMDHN@svc_lightstyle?5length?$DN?$CFi@ 300c3c1c     cg_light.obj
 0002:00011c38       ??_C@_0CN@JCOLNMPP@CG_FreeLocalEntity?3?5NULL?5localE@ 300c3c38     cg_localents.obj
 0002:00011c68       ??_C@_0GC@OHIFGFHJ@CG_FreeLocalEntity?3?5LocalEntity@ 300c3c68     cg_localents.obj
 0002:00011cd0       ??_C@_0FG@LBAFOJDN@CG_FreeLocalEntity?3?5LocalEntity@ 300c3cd0     cg_localents.obj
 0002:00011d28       ??_C@_0FG@LGPEKPN@CG_FreeLocalEntity?3?5LocalEntity@ 300c3d28     cg_localents.obj
 0002:00011d80       ??_C@_0P@JBCHHKP@Bad?5leType?3?5?$CFi@ 300c3d80     cg_localents.obj
 0002:00011d90       __real@3fd51eb851eb851f    300c3d90     cg_localents.obj
 0002:00011d98       __real@4024000000000000    300c3d98     cg_localents.obj
 0002:00011da0       __real@4045000000000000    300c3da0     cg_localents.obj
 0002:00011da8       __real@42dc0000            300c3da8     cg_localents.obj
 0002:00011dac       __real@447f0000            300c3dac     cg_localents.obj
 0002:00011db0       __real@c0000000            300c3db0     cg_localents.obj
 0002:00011db4       ??_C@_0BG@BKINAJCK@gfx?1mp?1f_icon_lt_heal@ 300c3db4     cg_main.obj
 0002:00011dcc       ??_C@_0BJ@DCGHGAMM@gfx?1mp?1f_icon_levitation@ 300c3dcc     cg_main.obj
 0002:00011de8       ??_C@_0BE@GACMMIP@gfx?1mp?1f_icon_speed@ 300c3de8     cg_main.obj
 0002:00011dfc       ??_C@_0BD@CDNNBOGJ@gfx?1mp?1f_icon_push@ 300c3dfc     cg_main.obj
 0002:00011e10       ??_C@_0BD@FAMLDPCA@gfx?1mp?1f_icon_pull@ 300c3e10     cg_main.obj
 0002:00011e24       ??_C@_0BL@GPKCAHJD@gfx?1mp?1f_icon_lt_telepathy@ 300c3e24     cg_main.obj
 0002:00011e40       ??_C@_0BG@PPAEAKKK@gfx?1mp?1f_icon_dk_grip@ 300c3e40     cg_main.obj
 0002:00011e58       ??_C@_0BE@FIGKNCGE@gfx?1mp?1f_icon_dk_l1@ 300c3e58     cg_main.obj
 0002:00011e6c       ??_C@_0BG@CIIDCBDH@gfx?1mp?1f_icon_dk_rage@ 300c3e6c     cg_main.obj
 0002:00011e84       ??_C@_0BJ@BNJGHMKP@gfx?1mp?1f_icon_lt_protect@ 300c3e84     cg_main.obj
 0002:00011ea0       ??_C@_0BI@JGABMFHN@gfx?1mp?1f_icon_lt_absorb@ 300c3ea0     cg_main.obj
 0002:00011eb8       ??_C@_0BL@PHMODMPE@gfx?1mp?1f_icon_lt_healother@ 300c3eb8     cg_main.obj
 0002:00011ed4       ??_C@_0BM@INELODPO@gfx?1mp?1f_icon_dk_forceother@ 300c3ed4     cg_main.obj
 0002:00011ef0       ??_C@_0BH@JNFFMKGL@gfx?1mp?1f_icon_dk_drain@ 300c3ef0     cg_main.obj
 0002:00011f08       ??_C@_0BE@IDOBHAPF@gfx?1mp?1f_icon_sight@ 300c3f08     cg_main.obj
 0002:00011f1c       ??_C@_0BL@FEKHDPBD@gfx?1mp?1f_icon_saber_attack@ 300c3f1c     cg_main.obj
 0002:00011f38       ??_C@_0BL@NEBHBNKD@gfx?1mp?1f_icon_saber_defend@ 300c3f38     cg_main.obj
 0002:00011f54       ??_C@_0BK@FEFIMOAO@gfx?1mp?1f_icon_saber_throw@ 300c3f54     cg_main.obj
 0002:00011f70       ??_C@_0BG@FIPOPOLI@gfx?1mp?1f_icon_dk_heal@ 300c3f70     cg_main.obj
 0002:00011f88       ??_C@_0BL@ELCNKGHD@gfx?1mp?1f_icon_dk_telepathy@ 300c3f88     cg_main.obj
 0002:00011fa4       ??_C@_0BG@LNHHPNDI@gfx?1mp?1f_icon_lt_grip@ 300c3fa4     cg_main.obj
 0002:00011fbc       ??_C@_0BE@FGIJFAFK@gfx?1mp?1f_icon_lt_l1@ 300c3fbc     cg_main.obj
 0002:00011fd0       ??_C@_0BG@GKPANGKF@gfx?1mp?1f_icon_lt_rage@ 300c3fd0     cg_main.obj
 0002:00011fe8       ??_C@_0BJ@HBPAEHIP@gfx?1mp?1f_icon_dk_protect@ 300c3fe8     cg_main.obj
 0002:00012004       ??_C@_0BI@PGKPAICJ@gfx?1mp?1f_icon_dk_absorb@ 300c4004     cg_main.obj
 0002:0001201c       ??_C@_0BL@NDEBJNBE@gfx?1mp?1f_icon_dk_healother@ 300c401c     cg_main.obj
 0002:00012038       ??_C@_0BM@CNGFIOCH@gfx?1mp?1f_icon_lt_forceother@ 300c4038     cg_main.obj
 0002:00012054       ??_C@_0BH@IDBGELPE@gfx?1mp?1f_icon_lt_drain@ 300c4054     cg_main.obj
 0002:0001206c       ??_C@_09JDMGBOIM@cg_ignore@ 300c406c     cg_main.obj
 0002:00012078       ??_C@_0O@JKEEFDLF@cg_autoswitch@ 300c4078     cg_main.obj
 0002:00012088       ??_C@_0L@MLBFCMPB@cg_drawGun@ 300c4088     cg_main.obj
 0002:00012094       ??_C@_0L@DPFDGKBB@cg_zoomfov@ 300c4094     cg_main.obj
 0002:000120a0       ??_C@_04HAMCLDBM@40?40@    300c40a0     cg_main.obj
 0002:000120a8       ??_C@_06FDNMOLLD@cg_fov@   300c40a8     cg_main.obj
 0002:000120b0       ??_C@_02PFIAKEDG@80@       300c40b0     cg_main.obj
 0002:000120b4       ??_C@_0BE@EMBJACLB@cg_stereoSeparation@ 300c40b4     cg_main.obj
 0002:000120c8       ??_C@_03KHGJEAFP@0?44@     300c40c8     cg_main.obj
 0002:000120cc       ??_C@_0L@MAOLAFLC@cg_shadows@ 300c40cc     cg_main.obj
 0002:000120d8       ??_C@_0BF@NCEBGBDJ@cg_renderToTextureFX@ 300c40d8     cg_main.obj
 0002:000120f0       ??_C@_09EKPCJMOG@cg_draw2D@ 300c40f0     cg_main.obj
 0002:000120fc       ??_C@_0O@IIACNNIF@cg_drawStatus@ 300c40fc     cg_main.obj
 0002:0001210c       ??_C@_0N@FOINMAON@cg_drawTimer@ 300c410c     cg_main.obj
 0002:0001211c       ??_C@_0L@CHMHIHCB@cg_drawFPS@ 300c411c     cg_main.obj
 0002:00012128       ??_C@_0BA@MIPMDAEB@cg_drawSnapshot@ 300c4128     cg_main.obj
 0002:00012138       ??_C@_0P@DMBICICD@cg_draw3dIcons@ 300c4138     cg_main.obj
 0002:00012148       ??_C@_0N@BEDCNPCC@cg_drawIcons@ 300c4148     cg_main.obj
 0002:00012158       ??_C@_0BD@FJPGADGN@cg_drawAmmoWarning@ 300c4158     cg_main.obj
 0002:0001216c       ??_C@_0BB@LBKBMNKM@cg_drawEnemyInfo@ 300c416c     cg_main.obj
 0002:00012180       ??_C@_0BB@KBADOJHA@cg_drawCrosshair@ 300c4180     cg_main.obj
 0002:00012194       ??_C@_0BG@PFLNOEEN@cg_drawCrosshairNames@ 300c4194     cg_main.obj
 0002:000121ac       ??_C@_0N@MCKFIPGH@cg_drawRadar@ 300c41ac     cg_main.obj
 0002:000121bc       ??_C@_0BI@NGOBKLCO@cg_drawVehLeadIndicator@ 300c41bc     cg_main.obj
 0002:000121d4       ??_C@_0O@BAKMKNGL@cg_drawScores@ 300c41d4     cg_main.obj
 0002:000121e4       ??_C@_0BE@DIOLLFIC@cg_dynamicCrosshair@ 300c41e4     cg_main.obj
 0002:000121f8       ??_C@_0BN@BFHNKEKL@cg_dynamicCrosshairPrecision@ 300c41f8     cg_main.obj
 0002:00012218       ??_C@_0P@GNHKLMJL@cg_drawRewards@ 300c4218     cg_main.obj
 0002:00012228       ??_C@_0BB@NJOFJDCL@cg_crosshairSize@ 300c4228     cg_main.obj
 0002:0001223c       ??_C@_02JMHLOEOE@24@       300c423c     cg_main.obj
 0002:00012240       ??_C@_0BD@JJIJCGAH@cg_crosshairHealth@ 300c4240     cg_main.obj
 0002:00012254       ??_C@_0O@IHFEICLM@cg_crosshairX@ 300c4254     cg_main.obj
 0002:00012264       ??_C@_0O@JOEPLDPN@cg_crosshairY@ 300c4264     cg_main.obj
 0002:00012274       ??_C@_0P@CCFIBNOJ@cg_simpleItems@ 300c4274     cg_main.obj
 0002:00012284       ??_C@_08OCDFECFG@cg_marks@ 300c4284     cg_main.obj
 0002:00012290       ??_C@_0N@IBNNIGPC@cg_lagometer@ 300c4290     cg_main.obj
 0002:000122a0       ??_C@_07DAKIIFAC@cg_gunX@  300c42a0     cg_main.obj
 0002:000122a8       ??_C@_07CJLDLEED@cg_gunY@  300c42a8     cg_main.obj
 0002:000122b0       ??_C@_07CJOOHIA@cg_gunZ@   300c42b0     cg_main.obj
 0002:000122b8       ??_C@_0O@CMEJDJHP@cg_centertime@ 300c42b8     cg_main.obj
 0002:000122c8       ??_C@_0M@JHJCCBOJ@cg_runpitch@ 300c42c8     cg_main.obj
 0002:000122d4       ??_C@_05NIGIBNE@0?4002@    300c42d4     cg_main.obj
 0002:000122dc       ??_C@_0L@MJJHGKNK@cg_runroll@ 300c42dc     cg_main.obj
 0002:000122e8       ??_C@_05ECMHBHBD@0?4005@   300c42e8     cg_main.obj
 0002:000122f0       ??_C@_08MBNPMEME@cg_bobup@ 300c42f0     cg_main.obj
 0002:000122fc       ??_C@_0M@BBIJCEAP@cg_bobpitch@ 300c42fc     cg_main.obj
 0002:00012308       ??_C@_0L@BEAFIAK@cg_bobroll@ 300c4308     cg_main.obj
 0002:00012314       ??_C@_0N@EMGODPLM@cg_animspeed@ 300c4314     cg_main.obj
 0002:00012324       ??_C@_0N@OLFHJPEJ@cg_debuganim@ 300c4324     cg_main.obj
 0002:00012334       ??_C@_0O@HLOFHCH@cg_debugsaber@ 300c4334     cg_main.obj
 0002:00012344       ??_C@_0BB@PNGPLJB@cg_debugposition@ 300c4344     cg_main.obj
 0002:00012358       ??_C@_0P@NKGOJNHN@cg_debugevents@ 300c4358     cg_main.obj
 0002:00012368       ??_C@_0O@MAANEMBM@cg_errordecay@ 300c4368     cg_main.obj
 0002:00012378       ??_C@_0N@BMAKLHMK@cg_nopredict@ 300c4378     cg_main.obj
 0002:00012388       ??_C@_0BB@HOMHKKFN@cg_noplayeranims@ 300c4388     cg_main.obj
 0002:0001239c       ??_C@_0M@DOMGGLDE@cg_showmiss@ 300c439c     cg_main.obj
 0002:000123a8       ??_C@_0P@KLOAANMO@cg_showVehMiss@ 300c43a8     cg_main.obj
 0002:000123b8       ??_C@_0N@GHAOKDNB@cg_footsteps@ 300c43b8     cg_main.obj
 0002:000123c8       ??_C@_01FAMBOPH@4@         300c43c8     cg_main.obj
 0002:000123cc       ??_C@_0P@JLFLAMIK@cg_swingAngles@ 300c43cc     cg_main.obj
 0002:000123dc       ??_C@_0BB@FEDAIAGH@cg_oldPainSounds@ 300c43dc     cg_main.obj
 0002:000123f0       ??_C@_0L@HNPLAEJB@broadsword@ 300c43f0     cg_main.obj
 0002:000123fc       ??_C@_0O@KGIKKFB@cg_jumpSounds@ 300c43fc     cg_main.obj
 0002:0001240c       ??_C@_09GFLGOEGI@r_autoMap@ 300c440c     cg_main.obj
 0002:00012418       ??_C@_0L@DBGOIINC@r_autoMapX@ 300c4418     cg_main.obj
 0002:00012424       ??_C@_03DFEAAHP@496@       300c4424     cg_main.obj
 0002:00012428       ??_C@_0L@CIHFLJJD@r_autoMapY@ 300c4428     cg_main.obj
 0002:00012434       ??_C@_02MLODCJFF@32@       300c4434     cg_main.obj
 0002:00012438       ??_C@_0L@LGPGJEBN@r_autoMapW@ 300c4438     cg_main.obj
 0002:00012444       ??_C@_03KGFMDCCC@128@      300c4444     cg_main.obj
 0002:00012448       ??_C@_0L@HLKMJKID@r_autoMapH@ 300c4448     cg_main.obj
 0002:00012454       ??_C@_0BF@KOOBPECE@bg_fighterAltControl@ 300c4454     cg_main.obj
 0002:0001246c       ??_C@_0L@HPCJPPPL@cg_chatBox@ 300c446c     cg_main.obj
 0002:00012478       ??_C@_05CLDMBJBA@10000@    300c4478     cg_main.obj
 0002:00012480       ??_C@_0BB@CHDPLIJE@cg_chatBoxHeight@ 300c4480     cg_main.obj
 0002:00012494       ??_C@_03MBMDGGCE@350@      300c4494     cg_main.obj
 0002:00012498       ??_C@_0BJ@MEKKLEGB@cg_saberModelTraceEffect@ 300c4498     cg_main.obj
 0002:000124b4       ??_C@_0CB@MPIDIEDG@cg_saberClientVisualCompensatio@ 300c44b4     cg_main.obj
 0002:000124d8       ??_C@_0O@FGBOGFDL@cg_g2TraceLod@ 300c44d8     cg_main.obj
 0002:000124e8       ??_C@_0M@HOONILKL@cg_trueguns@ 300c44e8     cg_main.obj
 0002:000124f4       ??_C@_07EPOCHFIH@cg_fpls@  300c44f4     cg_main.obj
 0002:000124fc       ??_C@_0P@LOAKBPJB@cg_ghoul2Marks@ 300c44fc     cg_main.obj
 0002:0001250c       ??_C@_02KMALDIDP@16@       300c450c     cg_main.obj
 0002:00012510       ??_C@_0BA@DKCLACHI@com_optvehtrace@ 300c4510     cg_main.obj
 0002:00012520       ??_C@_0BF@NABJAOEA@cg_saberDynamicMarks@ 300c4520     cg_main.obj
 0002:00012538       ??_C@_0BI@OHDIIEFC@cg_saberDynamicMarkTime@ 300c4538     cg_main.obj
 0002:00012550       ??_C@_05DGDJCJKI@60000@    300c4550     cg_main.obj
 0002:00012558       ??_C@_0BA@JIJPALDE@cg_saberContact@ 300c4558     cg_main.obj
 0002:00012568       ??_C@_0O@DCMCBFNO@cg_saberTrail@ 300c4568     cg_main.obj
 0002:00012578       ??_C@_0BC@JMPFMIDA@cg_duelHeadAngles@ 300c4578     cg_main.obj
 0002:0001258c       ??_C@_0O@JKMBDLDF@cg_speedTrail@ 300c458c     cg_main.obj
 0002:0001259c       ??_C@_0N@BELOMMOL@cg_auraShell@ 300c459c     cg_main.obj
 0002:000125ac       ??_C@_0P@KJEOPEGG@cg_repeaterOrb@ 300c45ac     cg_main.obj
 0002:000125bc       ??_C@_0N@CKANHONG@cg_animBlend@ 300c45bc     cg_main.obj
 0002:000125cc       ??_C@_0N@OPONILAJ@cg_dismember@ 300c45cc     cg_main.obj
 0002:000125dc       ??_C@_0BJ@GCJEPJEL@cg_thirdPersonSpecialCam@ 300c45dc     cg_main.obj
 0002:000125f8       ??_C@_0BK@MPOHHNJK@cg_thirdPersonPitchOffset@ 300c45f8     cg_main.obj
 0002:00012614       ??_C@_0BJ@PLGBNFPF@cg_thirdPersonVertOffset@ 300c4614     cg_main.obj
 0002:00012630       ??_C@_0BJ@BBJMCCPF@cg_thirdPersonCameraDamp@ 300c4630     cg_main.obj
 0002:0001264c       ??_C@_03OICINGJI@0?43@     300c464c     cg_main.obj
 0002:00012650       ??_C@_0BJ@FGGPEIAI@cg_thirdPersonTargetDamp@ 300c4650     cg_main.obj
 0002:0001266c       ??_C@_03LOHCHBBO@0?45@     300c466c     cg_main.obj
 0002:00012670       ??_C@_0BJ@FEJLIMD@cg_thirdPersonHorzOffset@ 300c4670     cg_main.obj
 0002:0001268c       ??_C@_0BE@KCHOECBB@cg_thirdPersonAlpha@ 300c468c     cg_main.obj
 0002:000126a0       ??_C@_03HLLJOCDO@1?40@     300c46a0     cg_main.obj
 0002:000126a4       ??_C@_0M@CHJHPOFC@cg_trueroll@ 300c46a4     cg_main.obj
 0002:000126b0       ??_C@_0M@EAPOPPEI@cg_trueflip@ 300c46b0     cg_main.obj
 0002:000126bc       ??_C@_0M@CGHADAEC@cg_truespin@ 300c46bc     cg_main.obj
 0002:000126c8       ??_C@_0BA@LKFOGNLI@cg_truemoveroll@ 300c46c8     cg_main.obj
 0002:000126d8       ??_C@_0BB@JIKADKPP@cg_truesaberonly@ 300c46d8     cg_main.obj
 0002:000126ec       ??_C@_0BD@EEAKGOKF@cg_trueeyeposition@ 300c46ec     cg_main.obj
 0002:00012700       ??_C@_03MDAFIFFL@0?40@     300c4700     cg_main.obj
 0002:00012704       ??_C@_0BD@PILGLDEI@cg_trueinvertsaber@ 300c4704     cg_main.obj
 0002:00012718       ??_C@_0L@LOONOPBB@cg_truefov@ 300c4718     cg_main.obj
 0002:00012724       ??_C@_0O@LJBBKNGE@cg_forceModel@ 300c4724     cg_main.obj
 0002:00012734       ??_C@_0BA@PKAEEJJB@cg_predictItems@ 300c4734     cg_main.obj
 0002:00012744       ??_C@_0BA@PFOJHBKN@cg_deferPlayers@ 300c4744     cg_main.obj
 0002:00012754       ??_C@_0BD@BNGDPIGC@cg_drawTeamOverlay@ 300c4754     cg_main.obj
 0002:00012768       ??_C@_0M@IKKMOBIP@teamoverlay@ 300c4768     cg_main.obj
 0002:00012774       ??_C@_08CGDPCFHD@cg_stats@ 300c4774     cg_main.obj
 0002:00012780       ??_C@_0O@KGJIDOMN@cg_drawFriend@ 300c4780     cg_main.obj
 0002:00012790       ??_C@_0BB@GFOCPFOA@cg_teamChatsOnly@ 300c4790     cg_main.obj
 0002:000127a4       ??_C@_0BA@MOHNLIKA@com_buildScript@ 300c47a4     cg_main.obj
 0002:000127b4       ??_C@_09DKNLLEN@com_blood@ 300c47b4     cg_main.obj
 0002:000127c0       ??_C@_0BF@LICFCALK@g_synchronousClients@ 300c47c0     cg_main.obj
 0002:000127d8       ??_C@_0BJ@CEJCFKCN@cg_currentSelectedPlayer@ 300c47d8     cg_main.obj
 0002:000127f4       ??_C@_0BN@HANLGBBD@cg_currentSelectedPlayerName@ 300c47f4     cg_main.obj
 0002:00012814       ??_C@_0BA@OHINOCDN@ui_recordSPDemo@ 300c4814     cg_main.obj
 0002:00012824       ??_C@_0BE@CELIAELA@ui_recordSPDemoName@ 300c4824     cg_main.obj
 0002:00012838       ??_C@_02PNFIDHGF@50@       300c4838     cg_main.obj
 0002:0001283c       ??_C@_0BE@INLNOCBP@cg_timescaleFadeEnd@ 300c483c     cg_main.obj
 0002:00012850       ??_C@_0BG@HODAAIBP@cg_timescaleFadeSpeed@ 300c4850     cg_main.obj
 0002:00012868       ??_C@_09IIOBMIO@timescale@ 300c4868     cg_main.obj
 0002:00012874       ??_C@_0O@ECBGLFLJ@cg_scorePlums@ 300c4874     cg_main.obj
 0002:00012884       ??_C@_0M@OADJJKKA@cg_hudFiles@ 300c4884     cg_main.obj
 0002:00012890       ??_C@_0N@NPDEHAEG@ui?1jahud?4txt@ 300c4890     cg_main.obj
 0002:000128a0       ??_C@_0BB@EPNKMEEL@cg_smoothClients@ 300c48a0     cg_main.obj
 0002:000128b4       ??_C@_0P@JODJDBEF@ojp_sabermelee@ 300c48b4     cg_main.obj
 0002:000128c4       ??_C@_0P@EIAPFKBF@com_cameraMode@ 300c48c4     cg_main.obj
 0002:000128d4       ??_C@_0M@HOGKGHBI@pmove_fixed@ 300c48d4     cg_main.obj
 0002:000128e0       ??_C@_0L@JLBEBBAD@pmove_msec@ 300c48e0     cg_main.obj
 0002:000128ec       ??_C@_01KJLJFBPL@8@        300c48ec     cg_main.obj
 0002:000128f0       ??_C@_0L@BNLHLPGL@cg_noTaunt@ 300c48f0     cg_main.obj
 0002:000128fc       ??_C@_0BF@IHAIMPIG@cg_noProjectileTrail@ 300c48fc     cg_main.obj
 0002:00012914       ??_C@_0BB@GNCGINEC@cg_showVehBounds@ 300c4914     cg_main.obj
 0002:00012928       ??_C@_0N@LNIKGPCC@ui_menubrief@ 300c4928     cg_main.obj
 0002:00012938       ??_C@_0BD@PBCOGHDJ@cg_snapshotTimeout@ 300c4938     cg_main.obj
 0002:0001294c       ??_C@_02PKFBJPLJ@10@       300c494c     cg_main.obj
 0002:00012950       ??_C@_07HEFMJHOI@debugBB@  300c4950     cg_main.obj
 0002:00012958       ??_C@_0L@JPJEHMLJ@rgb_saber1@ 300c4958     cg_main.obj
 0002:00012964       ??_C@_09BGEFPGPE@0?0150?0150@ 300c4964     cg_main.obj
 0002:00012970       ??_C@_0L@LELJCPHK@rgb_saber2@ 300c4970     cg_main.obj
 0002:0001297c       ??_C@_09MHAILAGD@150?00?0150@ 300c497c     cg_main.obj
 0002:00012988       ??_C@_0M@PJJOOBPF@rgb_script1@ 300c4988     cg_main.obj
 0002:00012994       ??_C@_0BM@HBFPEHDG@?3255?00?0255?3500?30?00?0255?3500?3@ 300c4994     cg_main.obj
 0002:000129b0       ??_C@_0M@NCLDLCDG@rgb_script2@ 300c49b0     cg_main.obj
 0002:000129bc       ??_C@_0BM@BLGHELCB@?30?0255?0255?3500?30?0255?00?3500?3@ 300c49bc     cg_main.obj
 0002:000129d8       ??_C@_0BC@PPHDFDHA@ojp_teamrgbsabers@ 300c49d8     cg_main.obj
 0002:000129ec       ??_C@_0L@EKHJCNCP@sfx_sabers@ 300c49ec     cg_main.obj
 0002:000129f8       ??_C@_0BC@GBPGONMC@cg_MovieSaberType@ 300c49f8     cg_main.obj
 0002:00012a0c       ??_C@_0BB@LPCOMELA@ojp_clientplugin@ 300c4a0c     cg_main.obj
 0002:00012a20       ??_C@_0BG@FBLIGGEJ@OJP?5Enhanced?5Universe@ 300c4a20     cg_main.obj
 0002:00012a38       ??_C@_0BF@HKBODJNH@ojp_holsteredweapons@ 300c4a38     cg_main.obj
 0002:00012a50       ??_C@_0BB@BFGNBIPN@ojp_holsterdebug@ 300c4a50     cg_main.obj
 0002:00012a64       ??_C@_0BL@DJIEIOIN@ojp_holsterdebug_boneindex@ 300c4a64     cg_main.obj
 0002:00012a80       ??_C@_0BL@PJEMHNNC@ojp_holsterdebug_posoffset@ 300c4a80     cg_main.obj
 0002:00012a9c       ??_C@_0M@GMKBDHHD@0?40?50?40?50?40@ 300c4a9c     cg_main.obj
 0002:00012aa8       ??_C@_0BL@NOKKLMJG@ojp_holsterdebug_angoffset@ 300c4aa8     cg_main.obj
 0002:00012ac4       ??_C@_0BE@EPHCALE@gfx?12d?1numbers?1zero@ 300c4ac4     cg_main.obj
 0002:00012ad8       ??_C@_0BD@JPBKBBJF@gfx?12d?1numbers?1one@ 300c4ad8     cg_main.obj
 0002:00012aec       ??_C@_0BD@PBBKLBHO@gfx?12d?1numbers?1two@ 300c4aec     cg_main.obj
 0002:00012b00       ??_C@_0BF@BLIPDPEA@gfx?12d?1numbers?1three@ 300c4b00     cg_main.obj
 0002:00012b18       ??_C@_0BE@DEHJMAMK@gfx?12d?1numbers?1four@ 300c4b18     cg_main.obj
 0002:00012b2c       ??_C@_0BE@BGNHKFNJ@gfx?12d?1numbers?1five@ 300c4b2c     cg_main.obj
 0002:00012b40       ??_C@_0BD@HPPGIDCL@gfx?12d?1numbers?1six@ 300c4b40     cg_main.obj
 0002:00012b54       ??_C@_0BF@JCIMIFNF@gfx?12d?1numbers?1seven@ 300c4b54     cg_main.obj
 0002:00012b6c       ??_C@_0BF@NCKDNACA@gfx?12d?1numbers?1eight@ 300c4b6c     cg_main.obj
 0002:00012b84       ??_C@_0BE@DEJCBMNA@gfx?12d?1numbers?1nine@ 300c4b84     cg_main.obj
 0002:00012b98       ??_C@_0BF@BIEHLLCD@gfx?12d?1numbers?1minus@ 300c4b98     cg_main.obj
 0002:00012bb0       ??_C@_0BG@KEMEHAOG@gfx?12d?1numbers?1t_zero@ 300c4bb0     cg_main.obj
 0002:00012bc8       ??_C@_0BF@KGKIDLHF@gfx?12d?1numbers?1t_one@ 300c4bc8     cg_main.obj
 0002:00012be0       ??_C@_0BF@MIKIJLJO@gfx?12d?1numbers?1t_two@ 300c4be0     cg_main.obj
 0002:00012bf8       ??_C@_0BH@JOEKDMMI@gfx?12d?1numbers?1t_three@ 300c4bf8     cg_main.obj
 0002:00012c10       ??_C@_0BG@JEEKJAJI@gfx?12d?1numbers?1t_four@ 300c4c10     cg_main.obj
 0002:00012c28       ??_C@_0BG@LGOEPFIL@gfx?12d?1numbers?1t_five@ 300c4c28     cg_main.obj
 0002:00012c40       ??_C@_0BF@EGEEKJML@gfx?12d?1numbers?1t_six@ 300c4c40     cg_main.obj
 0002:00012c58       ??_C@_0BH@BHEJIGFN@gfx?12d?1numbers?1t_seven@ 300c4c58     cg_main.obj
 0002:00012c70       ??_C@_0BH@FHGGNDKI@gfx?12d?1numbers?1t_eight@ 300c4c70     cg_main.obj
 0002:00012c88       ??_C@_0BG@JEKBEMIC@gfx?12d?1numbers?1t_nine@ 300c4c88     cg_main.obj
 0002:00012ca0       ??_C@_0BH@JNICLIKL@gfx?12d?1numbers?1t_minus@ 300c4ca0     cg_main.obj
 0002:00012cb8       ??_C@_0BG@GLNNCKG@gfx?12d?1numbers?1c_zero@ 300c4cb8     cg_main.obj
 0002:00012cd0       ??_C@_0BF@LIHLAJFG@gfx?12d?1numbers?1c_one@ 300c4cd0     cg_main.obj
 0002:00012ce8       ??_C@_0BF@NGHLKJLN@gfx?12d?1numbers?1c_two@ 300c4ce8     cg_main.obj
 0002:00012d00       ??_C@_0BH@OIDEAEPK@gfx?12d?1numbers?1c_three@ 300c4d00     cg_main.obj
 0002:00012d18       ??_C@_0BG@DGDDDCNI@gfx?12d?1numbers?1c_four@ 300c4d18     cg_main.obj
 0002:00012d30       ??_C@_0BG@BEJNFHML@gfx?12d?1numbers?1c_five@ 300c4d30     cg_main.obj
 0002:00012d48       ??_C@_0BF@FIJHJLOI@gfx?12d?1numbers?1c_six@ 300c4d48     cg_main.obj
 0002:00012d60       ??_C@_0BH@GBDHLOGP@gfx?12d?1numbers?1c_seven@ 300c4d60     cg_main.obj
 0002:00012d78       ??_C@_0BH@CBBIOLJK@gfx?12d?1numbers?1c_eight@ 300c4d78     cg_main.obj
 0002:00012d90       ??_C@_0BG@DGNIOOMC@gfx?12d?1numbers?1c_nine@ 300c4d90     cg_main.obj
 0002:00012da8       ??_C@_09CNJINBGN@classname@ 300c4da8     cg_main.obj
 0002:00012db4       ??_C@_06NHCMNMEH@origin@   300c4db4     cg_main.obj
 0002:00012dbc       ??_C@_06GNEAMJOC@angles@   300c4dbc     cg_main.obj
 0002:00012dc4       ??_C@_05FECBCJJD@angle@    300c4dc4     cg_main.obj
 0002:00012dcc       ??_C@_0L@HDLPNNAF@modelscale@ 300c4dcc     cg_main.obj
 0002:00012dd8       ??_C@_0P@OMAFFCFF@modelscale_vec@ 300c4dd8     cg_main.obj
 0002:00012de8       ??_C@_04FIAKMPII@mins@     300c4de8     cg_main.obj
 0002:00012df0       ??_C@_04IFBFDIKF@maxs@     300c4df0     cg_main.obj
 0002:00012df8       ??_C@_07GOKJEFCD@zoffset@  300c4df8     cg_main.obj
 0002:00012e00       ??_C@_0M@NPFLFEBE@onlyfoghere@ 300c4e00     cg_main.obj
 0002:00012e0c       ??_C@_08GPANHKMJ@fogstart@ 300c4e0c     cg_main.obj
 0002:00012e18       ??_C@_0L@GHJELKA@radarrange@ 300c4e18     cg_main.obj
 0002:00012e24       ??_C@_0BL@MDCOCEP@vmMain?3?5unknown?5command?5?$CFi@ 300c4e24     cg_main.obj
 0002:00012e40       ??_C@_0CC@NJMNCFMP@sound?1player?1bodyfall_human?$CFi?4w@ 300c4e40     cg_main.obj
 0002:00012e64       ??_C@_0CD@PGGCPIMP@Invalid?5callType?5in?5CG_RagCallb@ 300c4e64     cg_main.obj
 0002:00012e88       ??_C@_0CK@MLAIPOAD@client_model?5has?5invalid?5model?5@ 300c4e88     cg_main.obj
 0002:00012eb4       ??_C@_0BC@CEGLMIAL@ui_about_gametype@ 300c4eb4     cg_main.obj
 0002:00012ec8       ??_C@_0BD@ECBGHOAM@ui_about_fraglimit@ 300c4ec8     cg_main.obj
 0002:00012edc       ??_C@_0BG@JGMDIDMD@ui_about_capturelimit@ 300c4edc     cg_main.obj
 0002:00012ef4       ??_C@_0BD@KEMPJJPI@ui_about_duellimit@ 300c4ef4     cg_main.obj
 0002:00012f08       ??_C@_0BD@IPOIPHBD@ui_about_timelimit@ 300c4f08     cg_main.obj
 0002:00012f1c       ??_C@_0BE@MLNAEEGH@ui_about_maxclients@ 300c4f1c     cg_main.obj
 0002:00012f30       ??_C@_0BB@JGBJLNBF@ui_about_dmflags@ 300c4f30     cg_main.obj
 0002:00012f44       ??_C@_0BB@PALGEOKN@ui_about_mapname@ 300c4f44     cg_main.obj
 0002:00012f58       ??_C@_0BC@LKDAODDF@ui_about_hostname@ 300c4f58     cg_main.obj
 0002:00012f6c       ??_C@_0BC@IKMCDPFG@ui_about_needpass@ 300c4f6c     cg_main.obj
 0002:00012f80       ??_C@_0BH@MDOIMJCC@ui_about_botminplayers@ 300c4f80     cg_main.obj
 0002:00012f98       ??_C@_0L@MIDCNNH@ui_tm1_cnt@ 300c4f98     cg_main.obj
 0002:00012fa4       ??_C@_0L@IKBHFPHJ@ui_tm2_cnt@ 300c4fa4     cg_main.obj
 0002:00012fb0       ??_C@_0L@EBELIMNM@ui_tm3_cnt@ 300c4fb0     cg_main.obj
 0002:00012fbc       ??_C@_0O@HMEBNOGL@ui_tm1_c0_cnt@ 300c4fbc     cg_main.obj
 0002:00012fcc       ??_C@_0O@LHBNANMO@ui_tm1_c1_cnt@ 300c4fcc     cg_main.obj
 0002:00012fdc       ??_C@_0O@DBIJHPGA@ui_tm1_c2_cnt@ 300c4fdc     cg_main.obj
 0002:00012fec       ??_C@_0O@PKNFKMMF@ui_tm1_c3_cnt@ 300c4fec     cg_main.obj
 0002:00012ffc       ??_C@_0O@OHNAJMHN@ui_tm1_c4_cnt@ 300c4ffc     cg_main.obj
 0002:0001300c       ??_C@_0O@CMIMEPNI@ui_tm1_c5_cnt@ 300c500c     cg_main.obj
 0002:0001301c       ??_C@_0O@EFMMOCKO@ui_tm2_c0_cnt@ 300c501c     cg_main.obj
 0002:0001302c       ??_C@_0O@IOJADBAL@ui_tm2_c1_cnt@ 300c502c     cg_main.obj
 0002:0001303c       ??_C@_0O@IAEEDKF@ui_tm2_c2_cnt@ 300c503c     cg_main.obj
 0002:0001304c       ??_C@_0O@MDFIJAAA@ui_tm2_c3_cnt@ 300c504c     cg_main.obj
 0002:0001305c       ??_C@_0O@NOFNKALI@ui_tm2_c4_cnt@ 300c505c     cg_main.obj
 0002:0001306c       ??_C@_0O@BFABHDBN@ui_tm2_c5_cnt@ 300c506c     cg_main.obj
 0002:0001307c       ??_C@_02IJDFDKEE@95@       300c507c     cg_main.obj
 0002:00013080       ??_C@_02ICGJHNHJ@65@       300c5080     cg_main.obj
 0002:00013084       ??_C@_0CJ@CMOPAMCG@PrecacheItem?3?5?$CFs?5has?5bad?5precac@ 300c5084     cg_main.obj
 0002:000130b0       ??_C@_03HJPPGDLO@efx@      300c50b0     cg_main.obj
 0002:000130b4       ??_C@_06BGIAFJGK@?$CDclear@ 300c50b4     cg_main.obj
 0002:000130bc       ??_C@_0BP@IIEIAOMN@sound?1weapons?1melee?1punch1?4mp3@ 300c50bc     cg_main.obj
 0002:000130dc       ??_C@_0BP@ONMHMGD@sound?1weapons?1melee?1punch2?4mp3@ 300c50dc     cg_main.obj
 0002:000130fc       ??_C@_0BP@MFIAKPMG@sound?1weapons?1melee?1punch3?4mp3@ 300c50fc     cg_main.obj
 0002:0001311c       ??_C@_0BP@NIIFJPHO@sound?1weapons?1melee?1punch4?4mp3@ 300c511c     cg_main.obj
 0002:0001313c       ??_C@_0CA@CHBAPCJN@sound?1movers?1objects?1saber_slam@ 300c513c     cg_main.obj
 0002:0001315c       ??_C@_0CB@HLKABIEI@sound?1player?1bodyfall_human1?4wa@ 300c515c     cg_main.obj
 0002:00013180       ??_C@_0CB@PNDEGKOG@sound?1player?1bodyfall_human2?4wa@ 300c5180     cg_main.obj
 0002:000131a4       ??_C@_0CB@DGGILJED@sound?1player?1bodyfall_human3?4wa@ 300c51a4     cg_main.obj
 0002:000131c8       ??_C@_0BL@GPCFCJHH@effects?1mp?1test_sparks?4efx@ 300c51c8     cg_main.obj
 0002:000131e4       ??_C@_0CA@HECOILHC@effects?1mp?1test_wall_impact?4efx@ 300c51e4     cg_main.obj
 0002:00013204       ??_C@_0CD@MEAHMLPM@sound?1chars?1protocol?1misc?140MOM@ 300c5204     cg_main.obj
 0002:00013228       ??_C@_0CD@NNBMPKLN@sound?1chars?1protocol?1misc?140MOM@ 300c5228     cg_main.obj
 0002:0001324c       ??_C@_0CD@LJHADPLJ@sound?1chars?1protocol?1misc?140MOM@ 300c524c     cg_main.obj
 0002:00013270       ??_C@_0CD@JCFNGMHK@sound?1chars?1protocol?1misc?140MOM@ 300c5270     cg_main.obj
 0002:00013294       ??_C@_0CD@ILEGFNDL@sound?1chars?1protocol?1misc?140MOM@ 300c5294     cg_main.obj
 0002:000132b8       ??_C@_0CD@NPFKEEOE@sound?1chars?1protocol?1misc?140MOM@ 300c52b8     cg_main.obj
 0002:000132dc       ??_C@_0CD@PEHHBHCH@sound?1chars?1protocol?1misc?140MOM@ 300c52dc     cg_main.obj
 0002:00013300       ??_C@_0CD@ONGMCGGG@sound?1chars?1protocol?1misc?140MOM@ 300c5300     cg_main.obj
 0002:00013324       ??_C@_0CD@GKPEDKKJ@sound?1chars?1protocol?1misc?140MOM@ 300c5324     cg_main.obj
 0002:00013348       ??_C@_0BD@CMBDLFG@gfx?1mp?1c_icon_tech@ 300c5348     cg_main.obj
 0002:0001335c       ??_C@_0BM@GFPNKFNM@gfx?1effects?1sabers?1red_glow@ 300c535c     cg_main.obj
 0002:00013378       ??_C@_0BM@FMMFHOBL@gfx?1effects?1sabers?1red_line@ 300c5378     cg_main.obj
 0002:00013394       ??_C@_0BP@PNPBNGNI@gfx?1effects?1sabers?1orange_glow@ 300c5394     cg_main.obj
 0002:000133b4       ??_C@_0BP@MEMJANBP@gfx?1effects?1sabers?1orange_line@ 300c53b4     cg_main.obj
 0002:000133d4       ??_C@_0BP@GBLFHKOI@gfx?1effects?1sabers?1yellow_glow@ 300c53d4     cg_main.obj
 0002:000133f4       ??_C@_0BP@FIINKBCP@gfx?1effects?1sabers?1yellow_line@ 300c53f4     cg_main.obj
 0002:00013414       ??_C@_0BO@BBHPNJME@gfx?1effects?1sabers?1green_glow@ 300c5414     cg_main.obj
 0002:00013434       ??_C@_0BO@CIEHACAD@gfx?1effects?1sabers?1green_line@ 300c5434     cg_main.obj
 0002:00013454       ??_C@_0BN@EHAIJJIG@gfx?1effects?1sabers?1blue_glow@ 300c5454     cg_main.obj
 0002:00013474       ??_C@_0BN@HODAECEB@gfx?1effects?1sabers?1blue_line@ 300c5474     cg_main.obj
 0002:00013494       ??_C@_0BP@FPLHAOII@gfx?1effects?1sabers?1purple_glow@ 300c5494     cg_main.obj
 0002:000134b4       ??_C@_0BP@GGIPNFEP@gfx?1effects?1sabers?1purple_line@ 300c54b4     cg_main.obj
 0002:000134d4       ??_C@_0BN@LEGLJOKN@gfx?1effects?1sabers?1cyan_glow@ 300c54d4     cg_main.obj
 0002:000134f4       ??_C@_0BN@INFDEFGK@gfx?1effects?1sabers?1cyan_line@ 300c54f4     cg_main.obj
 0002:00013514       ??_C@_0BM@EEAIJHJL@gfx?1effects?1sabers?1rgb_glow@ 300c5514     cg_main.obj
 0002:00013530       ??_C@_0BM@HNDAEMFM@gfx?1effects?1sabers?1rgb_line@ 300c5530     cg_main.obj
 0002:0001354c       ??_C@_0BM@MPDHNOEF@gfx?1effects?1sabers?1rgb_core@ 300c554c     cg_main.obj
 0002:00013568       ??_C@_0BO@JAPELDPB@gfx?1effects?1sabers?1black_glow@ 300c5568     cg_main.obj
 0002:00013588       ??_C@_0CC@KCKBDCDA@gfx?1effects?1sabers?1blacksaberBl@ 300c5588     cg_main.obj
 0002:000135ac       ??_C@_0BH@ONIAEPDG@SFX_Sabers?1saber_trail@ 300c55ac     cg_main.obj
 0002:000135c4       ??_C@_0BH@DOMFKPEJ@SFX_Sabers?1saber_blade@ 300c55c4     cg_main.obj
 0002:000135dc       ??_C@_0BL@CCPCNHMH@SFX_Sabers?1saber_blade_rgb@ 300c55dc     cg_main.obj
 0002:000135f8       ??_C@_0BF@KAFEADJJ@SFX_Sabers?1saber_end@ 300c55f8     cg_main.obj
 0002:00013610       ??_C@_0BJ@KLCJMPEC@SFX_Sabers?1saber_end_rgb@ 300c5610     cg_main.obj
 0002:0001362c       ??_C@_0BG@MBEGJFI@OTsabers?1ot_saberCore@ 300c562c     cg_main.obj
 0002:00013644       ??_C@_0BE@PNCNBFND@OTsabers?1ot_redGlow@ 300c5644     cg_main.obj
 0002:00013658       ??_C@_0BH@KBKDPKBH@OTsabers?1ot_orangeGlow@ 300c5658     cg_main.obj
 0002:00013670       ??_C@_0BH@OMAJGDND@OTsabers?1ot_yellowGlow@ 300c5670     cg_main.obj
 0002:00013688       ??_C@_0BG@ECPCLEFJ@OTsabers?1ot_greenGlow@ 300c5688     cg_main.obj
 0002:000136a0       ??_C@_0BF@PBIKGIGE@OTsabers?1ot_blueGlow@ 300c56a0     cg_main.obj
 0002:000136b8       ??_C@_0BH@IAAKNIDE@OTsabers?1ot_purpleGlow@ 300c56b8     cg_main.obj
 0002:000136d0       ??_C@_0BF@CLPMALHG@OTsabers?1ot_cyanGlow@ 300c56d0     cg_main.obj
 0002:000136e8       ??_C@_0BF@OIKJFFL@Ep1Sabers?1saber_core@ 300c56e8     cg_main.obj
 0002:00013700       ??_C@_0BE@JIABGIOK@Ep1Sabers?1red_glowa@ 300c5700     cg_main.obj
 0002:00013714       ??_C@_0BH@BOMLIHB@Ep1Sabers?1orange_glowa@ 300c5714     cg_main.obj
 0002:0001372c       ??_C@_0BH@CHKJMMHB@Ep1Sabers?1yellow_glowa@ 300c572c     cg_main.obj
 0002:00013744       ??_C@_0BG@BAHDNDMB@Ep1Sabers?1green_glowa@ 300c5744     cg_main.obj
 0002:0001375c       ??_C@_0BF@PKBJGHPK@Ep1Sabers?1blue_glowa@ 300c575c     cg_main.obj
 0002:00013774       ??_C@_0BH@GKCFKPFN@Ep1Sabers?1purple_glowa@ 300c5774     cg_main.obj
 0002:0001378c       ??_C@_0BF@FGFGPNLN@Ep1Sabers?1cyan_glowa@ 300c578c     cg_main.obj
 0002:000137a4       ??_C@_0BF@KNNMBDPC@Ep2Sabers?1saber_core@ 300c57a4     cg_main.obj
 0002:000137bc       ??_C@_0BN@BJKOOKOL@Ep2Sabers?1white_ignite_flare@ 300c57bc     cg_main.obj
 0002:000137dc       ??_C@_0BN@EBPPABBM@Ep3Sabers?1black_ignite_flare@ 300c57dc     cg_main.obj
 0002:000137fc       ??_C@_0BE@HCIHLFII@Ep2Sabers?1red_glowa@ 300c57fc     cg_main.obj
 0002:00013810       ??_C@_0BH@HKPCDKJC@Ep2Sabers?1orange_glowa@ 300c5810     cg_main.obj
 0002:00013828       ??_C@_0BH@FMLHEOJC@Ep2Sabers?1yellow_glowa@ 300c5828     cg_main.obj
 0002:00013840       ??_C@_0BG@LPNKJOAL@Ep2Sabers?1green_glowa@ 300c5840     cg_main.obj
 0002:00013858       ??_C@_0BF@FJEPOBFD@Ep2Sabers?1blue_glowa@ 300c5858     cg_main.obj
 0002:00013870       ??_C@_0BH@BBDLCNLO@Ep2Sabers?1purple_glowa@ 300c5870     cg_main.obj
 0002:00013888       ??_C@_0BF@PFAAHLBE@Ep2Sabers?1cyan_glowa@ 300c5888     cg_main.obj
 0002:000138a0       ??_C@_0BF@HKDOJDKK@Ep3Sabers?1saber_core@ 300c58a0     cg_main.obj
 0002:000138b8       ??_C@_0BN@HHCCPBKK@Ep3Sabers?1white_ignite_flare@ 300c58b8     cg_main.obj
 0002:000138d8       ??_C@_0BL@NDIBOD@Ep3Sabers?1red_ignite_flare@ 300c58d8     cg_main.obj
 0002:000138f4       ??_C@_0BN@FLOFDCJH@Ep3Sabers?1green_ignite_flare@ 300c58f4     cg_main.obj
 0002:00013914       ??_C@_0BO@GCMPFFEO@Ep3Sabers?1purple_ignite_flare@ 300c5914     cg_main.obj
 0002:00013934       ??_C@_0BM@DCIHDGPG@Ep3Sabers?1cyan_ignite_flare@ 300c5934     cg_main.obj
 0002:00013950       ??_C@_0BM@NCMICBAB@Ep3Sabers?1blue_ignite_flare@ 300c5950     cg_main.obj
 0002:0001396c       ??_C@_0BO@HMCDMOCN@Ep3Sabers?1orange_ignite_flare@ 300c596c     cg_main.obj
 0002:0001398c       ??_C@_0BO@PJNKKGCB@Ep3Sabers?1yellow_ignite_flare@ 300c598c     cg_main.obj
 0002:000139ac       ??_C@_0BE@JNNFADGJ@Ep3Sabers?1red_glowa@ 300c59ac     cg_main.obj
 0002:000139c0       ??_C@_0BH@OFCILJAM@Ep3Sabers?1orange_glowa@ 300c59c0     cg_main.obj
 0002:000139d8       ??_C@_0BH@MDGNMNAM@Ep3Sabers?1yellow_glowa@ 300c59d8     cg_main.obj
 0002:000139f0       ??_C@_0BG@NKLNKFEN@Ep3Sabers?1green_glowa@ 300c59f0     cg_main.obj
 0002:00013a08       ??_C@_0BF@IOKNGBAL@Ep3Sabers?1blue_glowa@ 300c5a08     cg_main.obj
 0002:00013a20       ??_C@_0BH@IOOBKOCA@Ep3Sabers?1purple_glowa@ 300c5a20     cg_main.obj
 0002:00013a38       ??_C@_0BF@CCOCPLEM@Ep3Sabers?1cyan_glowa@ 300c5a38     cg_main.obj
 0002:00013a50       ??_C@_0BN@NGIAMIEK@gfx?1effects?1sabers?1saberBlur@ 300c5a50     cg_main.obj
 0002:00013a70       ??_C@_0BO@DDEPMPOP@gfx?1effects?1sabers?1swordTrail@ 300c5a70     cg_main.obj
 0002:00013a90       ??_C@_0BE@EAAEGHFK@gfx?1hud?1force_swirl@ 300c5a90     cg_main.obj
 0002:00013aa4       ??_C@_0BI@JJNNJHJD@gfx?1effects?1yellow_glow@ 300c5aa4     cg_main.obj
 0002:00013abc       ??_C@_0BF@DJENGLFO@gfx?1damage?1rivetmark@ 300c5abc     cg_main.obj
 0002:00013ad4       ??_C@_0BI@MCAJLALH@powerups?1ysalimarishell@ 300c5ad4     cg_main.obj
 0002:00013aec       ??_C@_0BG@BOFAMPFG@gfx?1effects?1forcePush@ 300c5aec     cg_main.obj
 0002:00013b04       ??_C@_0CB@OBLHKBLD@sound?1weapons?1saber?1saberblock?$CF@ 300c5b04     cg_main.obj
 0002:00013b28       ??_C@_0CB@GJGHKLLB@sound?1weapons?1saber?1saberknock?$CF@ 300c5b28     cg_main.obj
 0002:00013b4c       ??_C@_0CB@KIOLPEIM@sound?1weapons?1saber?1bounce?$CFi?4wa@ 300c5b4c     cg_main.obj
 0002:00013b70       ??_C@_0CG@LENDFJGC@sound?1weapons?1saber?1saberoffqui@ 300c5b70     cg_main.obj
 0002:00013b98       ??_C@_0CC@BOODJDJL@sound?1weapons?1saber?1saberhitwal@ 300c5b98     cg_main.obj
 0002:00013bbc       ??_C@_0CC@DFMOMAFI@sound?1weapons?1saber?1saberhitwal@ 300c5bbc     cg_main.obj
 0002:00013be0       ??_C@_0CC@CMNFPBBJ@sound?1weapons?1saber?1saberhitwal@ 300c5be0     cg_main.obj
 0002:00013c04       ??_C@_0CB@ELDLDPNJ@sound?1weapons?1saber?1saberhit?4wa@ 300c5c04     cg_main.obj
 0002:00013c28       ??_C@_0CC@CNLJCPHN@sound?1weapons?1saber?1saberhit1?4w@ 300c5c28     cg_main.obj
 0002:00013c4c       ??_C@_0CC@KLCNFNND@sound?1weapons?1saber?1saberhit2?4w@ 300c5c4c     cg_main.obj
 0002:00013c70       ??_C@_0CC@GAHBIOHG@sound?1weapons?1saber?1saberhit3?4w@ 300c5c70     cg_main.obj
 0002:00013c94       ??_C@_0CE@CFCKGBNH@sound?1weapons?1saber?1saber_catch@ 300c5c94     cg_main.obj
 0002:00013cb8       ??_C@_0BN@KBLLAEBL@sound?1weapons?1force?1heal?4wav@ 300c5cb8     cg_main.obj
 0002:00013cd8       ??_C@_0BO@CMLBKDJG@sound?1weapons?1force?1speed?4wav@ 300c5cd8     cg_main.obj
 0002:00013cf8       ??_C@_0BN@FIMAKGPM@sound?1weapons?1force?1rage?4wav@ 300c5cf8     cg_main.obj
 0002:00013d18       ??_C@_0CC@HMAOBKHB@sound?1weapons?1force?1lightninghi@ 300c5d18     cg_main.obj
 0002:00013d3c       ??_C@_0CC@FHCDEJLC@sound?1weapons?1force?1lightninghi@ 300c5d3c     cg_main.obj
 0002:00013d60       ??_C@_0CC@EODIHIPD@sound?1weapons?1force?1lightninghi@ 300c5d60     cg_main.obj
 0002:00013d84       ??_C@_0BO@CFEEFGGJ@sound?1weapons?1force?1drain?4wav@ 300c5d84     cg_main.obj
 0002:00013da4       ??_C@_0CC@IDPNPIJB@sound?1weapons?1force?1jumpbuild?4w@ 300c5da4     cg_main.obj
 0002:00013dc8       ??_C@_0CB@DHCOJIOI@sound?1weapons?1force?1distract?4wa@ 300c5dc8     cg_main.obj
 0002:00013dec       ??_C@_0CF@GAOMGDBJ@sound?1weapons?1force?1distractsto@ 300c5dec     cg_main.obj
 0002:00013e14       ??_C@_0BN@KLMPLEJJ@sound?1weapons?1force?1pull?4wav@ 300c5e14     cg_main.obj
 0002:00013e34       ??_C@_0BN@KBMIBKKI@sound?1weapons?1force?1push?4wav@ 300c5e34     cg_main.obj
 0002:00013e54       ??_C@_0CD@DFAKCMJE@sound?1weapons?1thermal?1bounce?$CFi?4@ 300c5e54     cg_main.obj
 0002:00013e78       ??_C@_0CC@PJOHFIIG@sound?1movers?1switches?1switch2?4w@ 300c5e78     cg_main.obj
 0002:00013e9c       ??_C@_0CC@DCLLILCD@sound?1movers?1switches?1switch3?4w@ 300c5e9c     cg_main.obj
 0002:00013ec0       ??_C@_0BK@BIGBMHEG@sound?1ambience?1spark5?4wav@ 300c5ec0     cg_main.obj
 0002:00013edc       ??_C@_0BM@MAPGBELF@sound?1chars?1turret?1ping?4wav@ 300c5edc     cg_main.obj
 0002:00013ef8       ??_C@_0BP@OJENPHJJ@sound?1chars?1turret?1startup?4wav@ 300c5ef8     cg_main.obj
 0002:00013f18       ??_C@_0CA@DICAJEGI@sound?1chars?1turret?1shutdown?4wav@ 300c5f18     cg_main.obj
 0002:00013f38       ??_C@_0BM@ECOPMLLG@sound?1chars?1turret?1move?4wav@ 300c5f38     cg_main.obj
 0002:00013f54       ??_C@_0CC@ONCGEBCD@sound?1weapons?1force?1speedloop?4w@ 300c5f54     cg_main.obj
 0002:00013f78       ??_C@_0CD@PBDIABKC@sound?1chars?1protocol?1misc?140MOM@ 300c5f78     cg_main.obj
 0002:00013f9c       ??_C@_0CD@NKBFFCGB@sound?1chars?1protocol?1misc?140MOM@ 300c5f9c     cg_main.obj
 0002:00013fc0       ??_C@_0CD@JABLNCCD@sound?1chars?1protocol?1misc?140MOM@ 300c5fc0     cg_main.obj
 0002:00013fe4       ??_C@_0CD@MDAOGDCA@sound?1chars?1protocol?1misc?140MOM@ 300c5fe4     cg_main.obj
 0002:00014008       ??_C@_0CD@IMEPPFOH@sound?1chars?1protocol?1misc?140MOM@ 300c6008     cg_main.obj
 0002:0001402c       ??_C@_0CD@JFFEMEKG@sound?1chars?1protocol?1misc?140MOM@ 300c602c     cg_main.obj
 0002:00014050       ??_C@_0CD@LOHJJHGF@sound?1chars?1protocol?1misc?140MOM@ 300c6050     cg_main.obj
 0002:00014074       ??_C@_0CD@KHGCKGCE@sound?1chars?1protocol?1misc?140MOM@ 300c6074     cg_main.obj
 0002:00014098       ??_C@_0CD@HDOPALOI@sound?1chars?1protocol?1misc?140MOM@ 300c6098     cg_main.obj
 0002:000140bc       ??_C@_0CD@KGKAMMBD@sound?1chars?1protocol?1misc?140MOM@ 300c60bc     cg_main.obj
 0002:000140e0       ??_C@_0CD@HGKABNGN@sound?1chars?1protocol?1misc?140MOM@ 300c60e0     cg_main.obj
 0002:00014104       ??_C@_0CD@GPLLCMCM@sound?1chars?1protocol?1misc?140MOM@ 300c6104     cg_main.obj
 0002:00014128       ??_C@_0CD@OICDDAOD@sound?1chars?1protocol?1misc?140MOM@ 300c6128     cg_main.obj
 0002:0001414c       ??_C@_0CA@IFIECLL@sound?1weapons?1force?1drained?4mp3@ 300c614c     cg_main.obj
 0002:0001416c       ??_C@_0BE@CAAOHOKG@music?1goodsmall?4mp3@ 300c616c     cg_main.obj
 0002:00014180       ??_C@_0BD@PKCEDEMI@music?1badsmall?4mp3@ 300c6180     cg_main.obj
 0002:00014194       ??_C@_0BJ@EFMFEOAN@sound?1weapons?1change?4wav@ 300c6194     cg_main.obj
 0002:000141b0       ??_C@_0BI@HJOEIPHG@sound?1player?1telein?4wav@ 300c61b0     cg_main.obj
 0002:000141c8       ??_C@_0BJ@JHMBBENI@sound?1player?1teleout?4wav@ 300c61c8     cg_main.obj
 0002:000141e4       ??_C@_0BJ@LOHBFELN@sound?1items?1respawn1?4wav@ 300c61e4     cg_main.obj
 0002:00014200       ??_C@_0BG@MOPKJEGA@sound?1player?1talk?4wav@ 300c6200     cg_main.obj
 0002:00014218       ??_C@_0BH@BPJFFDHG@sound?1player?1land1?4wav@ 300c6218     cg_main.obj
 0002:00014230       ??_C@_0BL@NBPAAOGK@sound?1player?1fallsplat?4wav@ 300c6230     cg_main.obj
 0002:0001424c       ??_C@_0CB@HLPMFIDJ@sound?1effects?1energy_crackle?4wa@ 300c624c     cg_main.obj
 0002:00014270       ??_C@_0BK@LDJMAKPB@sound?1effects?1fire_lp?4wav@ 300c6270     cg_main.obj
 0002:0001428c       ??_C@_0BH@JPPKHAKF@sound?1player?1roll1?4wav@ 300c628c     cg_main.obj
 0002:000142a4       ??_C@_0BM@BFNDNDLL@sound?1weapons?1force?1noforce@ 300c62a4     cg_main.obj
 0002:000142c0       ??_C@_0BJ@CLKANPDE@sound?1player?1watr_in?4wav@ 300c62c0     cg_main.obj
 0002:000142dc       ??_C@_0BK@PEBHADE@sound?1player?1watr_out?4wav@ 300c62dc     cg_main.obj
 0002:000142f8       ??_C@_0BJ@ILNOCJIO@sound?1player?1watr_un?4wav@ 300c62f8     cg_main.obj
 0002:00014314       ??_C@_0CB@JPBIOOOD@models?1map_objects?1mp?1sphere?4md@ 300c6314     cg_main.obj
 0002:00014338       ??_C@_0BB@LJELJCEE@surfaceExplosion@ 300c6338     cg_main.obj
 0002:0001434c       ??_C@_0BB@HDBIPJEB@gfx?1effects?1burn@ 300c634c     cg_main.obj
 0002:00014360       ??_C@_0BM@DLLLNEPJ@gfx?1effects?1solidWhite_cull@ 300c6360     cg_main.obj
 0002:0001437c       ??_C@_0BK@PNDKAKFC@sound?1player?1holocron?4wav@ 300c637c     cg_main.obj
 0002:00014398       ??_C@_0BO@IJNKLFAF@sound?1interface?1zoomstart?4wav@ 300c6398     cg_main.obj
 0002:000143b8       ??_C@_0BN@CGCJIHAN@sound?1interface?1zoomloop?4wav@ 300c63b8     cg_main.obj
 0002:000143d8       ??_C@_0BM@LGCAPPLD@sound?1interface?1zoomend?4wav@ 300c63d8     cg_main.obj
 0002:000143f4       ??_C@_0CI@DPHHBNJK@sound?1player?1footsteps?1stone_st@ 300c63f4     cg_main.obj
 0002:0001441c       ??_C@_0CH@JGCHGDKG@sound?1player?1footsteps?1stone_ru@ 300c641c     cg_main.obj
 0002:00014444       ??_C@_0CI@GKNKFENB@sound?1player?1footsteps?1metal_st@ 300c6444     cg_main.obj
 0002:0001446c       ??_C@_0CH@DOEIAHBB@sound?1player?1footsteps?1metal_ru@ 300c646c     cg_main.obj
 0002:00014494       ??_C@_0CH@GKBLNPHE@sound?1player?1footsteps?1pipe_ste@ 300c6494     cg_main.obj
 0002:000144bc       ??_C@_0CG@PPMDKCBB@sound?1player?1footsteps?1pipe_run@ 300c64bc     cg_main.obj
 0002:000144e4       ??_C@_0CH@IDDALCLE@sound?1player?1footsteps?1water_ru@ 300c64e4     cg_main.obj
 0002:0001450c       ??_C@_0CI@DAPHNJAL@sound?1player?1footsteps?1water_wa@ 300c650c     cg_main.obj
 0002:00014534       ??_C@_0CK@POKBBDJH@sound?1player?1footsteps?1water_wa@ 300c6534     cg_main.obj
 0002:00014560       ??_C@_0CH@DMKPPPJH@sound?1player?1footsteps?1snow_ste@ 300c6560     cg_main.obj
 0002:00014588       ??_C@_0CG@PICHGCCE@sound?1player?1footsteps?1snow_run@ 300c6588     cg_main.obj
 0002:000145b0       ??_C@_0CH@MJLFGA@sound?1player?1footsteps?1sand_wal@ 300c65b0     cg_main.obj
 0002:000145d8       ??_C@_0CG@IKDDAFL@sound?1player?1footsteps?1sand_run@ 300c65d8     cg_main.obj
 0002:00014600       ??_C@_0CI@CAGGOHIJ@sound?1player?1footsteps?1grass_st@ 300c6600     cg_main.obj
 0002:00014628       ??_C@_0CH@FNFOBOHF@sound?1player?1footsteps?1grass_ru@ 300c6628     cg_main.obj
 0002:00014650       ??_C@_0CH@NAPCBGJP@sound?1player?1footsteps?1dirt_ste@ 300c6650     cg_main.obj
 0002:00014678       ??_C@_0CG@MGDMEMOF@sound?1player?1footsteps?1dirt_run@ 300c6678     cg_main.obj
 0002:000146a0       ??_C@_0CG@DJANFOAN@sound?1player?1footsteps?1mud_walk@ 300c66a0     cg_main.obj
 0002:000146c8       ??_C@_0CF@MPPLJPLI@sound?1player?1footsteps?1mud_run?$CF@ 300c66c8     cg_main.obj
 0002:000146f0       ??_C@_0CJ@MJFKMPMO@sound?1player?1footsteps?1gravel_w@ 300c66f0     cg_main.obj
 0002:0001471c       ??_C@_0CI@JHPJBICI@sound?1player?1footsteps?1gravel_r@ 300c671c     cg_main.obj
 0002:00014744       ??_C@_0CG@GIABMMBJ@sound?1player?1footsteps?1rug_step@ 300c6744     cg_main.obj
 0002:0001476c       ??_C@_0CF@IIEDMFNC@sound?1player?1footsteps?1rug_run?$CF@ 300c676c     cg_main.obj
 0002:00014794       ??_C@_0CH@KEIEAAOE@sound?1player?1footsteps?1wood_wal@ 300c6794     cg_main.obj
 0002:000147bc       ??_C@_0CG@JENCNJDN@sound?1player?1footsteps?1wood_run@ 300c67bc     cg_main.obj
 0002:000147e4       ??_C@_0BN@KKOEBMCN@sound?1chars?1seeker?1misc?1hiss@ 300c67e4     cg_main.obj
 0002:00014804       ??_C@_0BK@FFKIOHJN@sound?1items?1use_bacta?4wav@ 300c6804     cg_main.obj
 0002:00014820       ??_C@_0CD@PGDBKJHO@sound?1chars?1protocol?1misc?140MOM@ 300c6820     cg_main.obj
 0002:00014844       ??_C@_0CD@KBKJGEMP@sound?1chars?1protocol?1misc?140MOM@ 300c6844     cg_main.obj
 0002:00014868       ??_C@_0O@MGCCPCPC@materials?1mud@ 300c6868     cg_main.obj
 0002:00014878       ??_C@_0P@FPNIHDJM@materials?1sand@ 300c6878     cg_main.obj
 0002:00014888       ??_C@_0P@GHJGEIGP@materials?1snow@ 300c6888     cg_main.obj
 0002:00014898       ??_C@_0BB@PNDPFHAF@materials?1gravel@ 300c6898     cg_main.obj
 0002:000148ac       ??_C@_0BE@GPGKBELK@materials?1mud_large@ 300c68ac     cg_main.obj
 0002:000148c0       ??_C@_0BF@MKALJGAO@materials?1sand_large@ 300c68c0     cg_main.obj
 0002:000148d8       ??_C@_0BF@GIFOIHPM@materials?1dirt_large@ 300c68d8     cg_main.obj
 0002:000148f0       ??_C@_0BF@NOEPOPAI@materials?1snow_large@ 300c68f0     cg_main.obj
 0002:00014908       ??_C@_0BH@FFHHKIMO@materials?1gravel_large@ 300c6908     cg_main.obj
 0002:00014920       ??_C@_0BB@JJBGBOML@env?1water_impact@ 300c6920     cg_main.obj
 0002:00014934       ??_C@_0BA@LJAMMEG@env?1lava_splash@ 300c6934     cg_main.obj
 0002:00014944       ??_C@_0BA@FBGBOLED@env?1acid_splash@ 300c6944     cg_main.obj
 0002:00014954       ??_C@_0BH@HELDPHNE@gfx?1mp?1pduel_icon_lone@ 300c6954     cg_main.obj
 0002:0001496c       ??_C@_0BJ@CGMCGOPM@gfx?1mp?1pduel_icon_double@ 300c696c     cg_main.obj
 0002:00014988       ??_C@_0BB@EPCKOLB@gfx?1mp?1chat_icon@ 300c6988     cg_main.obj
 0002:0001499c       ??_C@_0BC@OGJIGJAP@gfx?1mp?1vchat_icon@ 300c699c     cg_main.obj
 0002:000149b0       ??_C@_0BB@OIENEINL@gfx?12d?1defer?4tga@ 300c69b0     cg_main.obj
 0002:000149c4       ??_C@_0BK@IEPPFEFE@gfx?1menus?1radar?1radar?4png@ 300c69c4     cg_main.obj
 0002:000149e0       ??_C@_0BJ@NPICMJA@gfx?1menus?1radar?1goalitem@ 300c69e0     cg_main.obj
 0002:000149fc       ??_C@_0BI@FIOLLEHN@gfx?1menus?1radar?1arrow_w@ 300c69fc     cg_main.obj
 0002:00014a14       ??_C@_0BH@BPNHLMKG@gfx?1menus?1radar?1rocket@ 300c6a14     cg_main.obj
 0002:00014a2c       ??_C@_0CB@FGMDPPAE@gfx?1mp_automap?1mpauto_frame_lef@ 300c6a2c     cg_main.obj
 0002:00014a50       ??_C@_0CC@BNMEAIIP@gfx?1mp_automap?1mpauto_frame_rig@ 300c6a50     cg_main.obj
 0002:00014a74       ??_C@_0CA@KDPBNNGB@gfx?1mp_automap?1mpauto_frame_top@ 300c6a74     cg_main.obj
 0002:00014a94       ??_C@_0CD@DBDCHJGE@gfx?1mp_automap?1mpauto_frame_bot@ 300c6a94     cg_main.obj
 0002:00014ab8       ??_C@_0L@KHBCPNIG@gfx?12d?1lag@ 300c6ab8     cg_main.obj
 0002:00014ac4       ??_C@_0L@GLPNNMED@gfx?12d?1net@ 300c6ac4     cg_main.obj
 0002:00014ad0       ??_C@_0BC@DOELBOML@gfx?1misc?1blueLine@ 300c6ad0     cg_main.obj
 0002:00014ae4       ??_C@_0BH@KMFDMOME@gfx?1misc?1lightningline@ 300c6ae4     cg_main.obj
 0002:00014afc       ??_C@_0BH@LNEGAPAM@gfx?1misc?1judgementline@ 300c6afc     cg_main.obj
 0002:00014b14       ??_C@_0BK@IAGLMEFD@gfx?1misc?1electroshockbolt@ 300c6b14     cg_main.obj
 0002:00014b30       ??_C@_0BI@DFPFFJME@emplaced?1dead_smoke?4efx@ 300c6b30     cg_main.obj
 0002:00014b48       ??_C@_0BF@JBOEDKLA@emplaced?1explode?4efx@ 300c6b48     cg_main.obj
 0002:00014b60       ??_C@_0BD@CIEJDHGF@turret?1explode?4efx@ 300c6b60     cg_main.obj
 0002:00014b74       ??_C@_0BL@GALBHNII@sparks?1spark_explosion?4efx@ 300c6b74     cg_main.obj
 0002:00014b90       ??_C@_0BH@IGPEPEKB@flechette?1alt_blow?4efx@ 300c6b90     cg_main.obj
 0002:00014ba8       ??_C@_0BL@ENBMGPII@stunBaton?1flesh_impact?4efx@ 300c6ba8     cg_main.obj
 0002:00014bc4       ??_C@_0BG@JJPEKAJ@demp2?1altDetonate?4efx@ 300c6bc4     cg_main.obj
 0002:00014bdc       ??_C@_0BH@HKDCPBHI@sparks?1spark_exp_nosnd@ 300c6bdc     cg_main.obj
 0002:00014bf4       ??_C@_0BO@JELNEKOO@effects?1emplaced?1muzzle_flash@ 300c6bf4     cg_main.obj
 0002:00014c14       ??_C@_0BE@EJCDPDIJ@concussion?1alt_ring@ 300c6c14     cg_main.obj
 0002:00014c28       ??_C@_0CD@CIDLLAIC@effects?1rockettrooper?1flamenew?4@ 300c6c28     cg_main.obj
 0002:00014c4c       ??_C@_0CA@HGFMJEIC@effects?1turret?1muzzle_flash?4efx@ 300c6c4c     cg_main.obj
 0002:00014c6c       ??_C@_0BH@JDPGNKAL@sparks?1spark_nosnd?4efx@ 300c6c6c     cg_main.obj
 0002:00014c84       ??_C@_0BE@JLBEFIFN@saber?1saber_cut?4efx@ 300c6c84     cg_main.obj
 0002:00014c98       ??_C@_0BG@NKEPHOMN@saber?1saber_block?4efx@ 300c6c98     cg_main.obj
 0002:00014cb0       ??_C@_0BK@POKMLLAA@saber?1blood_sparks_mp?4efx@ 300c6cb0     cg_main.obj
 0002:00014ccc       ??_C@_0BN@JCMGEEBK@saber?1blood_sparks_25_mp?4efx@ 300c6ccc     cg_main.obj
 0002:00014cec       ??_C@_0BN@DKINBKCM@saber?1blood_sparks_50_mp?4efx@ 300c6cec     cg_main.obj
 0002:00014d0c       ??_C@_0BJ@LJIHBMG@saber?1saber_friction?4efx@ 300c6d0c     cg_main.obj
 0002:00014d28       ??_C@_0N@LLGCPGGE@mp?1spawn?4efx@ 300c6d28     cg_main.obj
 0002:00014d38       ??_C@_0BE@EDNJGAOC@blaster?1deflect?4efx@ 300c6d38     cg_main.obj
 0002:00014d4c       ??_C@_0BF@BPNBJBAC@blaster?1smoke_bolton@ 300c6d4c     cg_main.obj
 0002:00014d64       ??_C@_0BG@KLAJLGNE@disruptor?1death_smoke@ 300c6d64     cg_main.obj
 0002:00014d7c       ??_C@_0M@DOBEFLEE@turret?1shot@ 300c6d7c     cg_main.obj
 0002:00014d88       ??_C@_0BM@PFBHLOPA@effects?1force?1lightning?4efx@ 300c6d88     cg_main.obj
 0002:00014da4       ??_C@_0CA@PJMOHHIO@effects?1force?1lightningwide?4efx@ 300c6da4     cg_main.obj
 0002:00014dc4       ??_C@_0BM@OEACHPDI@effects?1force?1judgement?4efx@ 300c6dc4     cg_main.obj
 0002:00014de0       ??_C@_0CA@IHFPILPG@effects?1force?1judgementwide?4efx@ 300c6de0     cg_main.obj
 0002:00014e00       ??_C@_0BH@CKBEHNDL@effects?1boba?1fthrw?4efx@ 300c6e00     cg_main.obj
 0002:00014e18       ??_C@_0BL@PGCKKKBG@effects?1boba?1fthrwwide?4efx@ 300c6e18     cg_main.obj
 0002:00014e34       ??_C@_0BH@COOBKNAG@effects?1boba?1dthrw?4efx@ 300c6e34     cg_main.obj
 0002:00014e4c       ??_C@_0BL@BHEEGOLL@effects?1boba?1dthrwwide?4efx@ 300c6e4c     cg_main.obj
 0002:00014e68       ??_C@_0BH@NLBPCGLG@effects?1boba?1ithrw?4efx@ 300c6e68     cg_main.obj
 0002:00014e80       ??_C@_0BL@KALOBOOA@effects?1boba?1ithrwwide?4efx@ 300c6e80     cg_main.obj
 0002:00014e9c       ??_C@_0BK@PHJOIOPF@effects?1officer?1elctr?4efx@ 300c6e9c     cg_main.obj
 0002:00014eb8       ??_C@_0BI@LMCKACFE@effects?1officer?1lsr?4efx@ 300c6eb8     cg_main.obj
 0002:00014ed0       ??_C@_0BK@HBMIOEKK@effects?1officer?1orbtl?4efx@ 300c6ed0     cg_main.obj
 0002:00014eec       ??_C@_0BF@DOMCBFFK@effects?1mp?1drain?4efx@ 300c6eec     cg_main.obj
 0002:00014f04       ??_C@_0BJ@POMMBGAM@effects?1mp?1drainwide?4efx@ 300c6f04     cg_main.obj
 0002:00014f20       ??_C@_0BI@FFKPJFGI@effects?1mp?1drainhit?4efx@ 300c6f20     cg_main.obj
 0002:00014f38       ??_C@_0BF@PGNLDANF@effects?1mp?1sever?4efx@ 300c6f38     cg_main.obj
 0002:00014f50       ??_C@_0BJ@HLMPNHPA@effects?1mp?1severwide?4efx@ 300c6f50     cg_main.obj
 0002:00014f6c       ??_C@_0BI@DDFOLBDK@effects?1mp?1severhit?4efx@ 300c6f6c     cg_main.obj
 0002:00014f84       ??_C@_0BI@PHEDEBBN@effects?1force?1heal2?4efx@ 300c6f84     cg_main.obj
 0002:00014f9c       ??_C@_0BI@DMBPJCLI@effects?1force?1heal3?4efx@ 300c6f9c     cg_main.obj
 0002:00014fb4       ??_C@_0BI@EICKBCDA@effects?1force?1shockwave@ 300c6fb4     cg_main.obj
 0002:00014fcc       ??_C@_0BG@OEGMJOEP@effects?1mp?1deathfield@ 300c6fcc     cg_main.obj
 0002:00014fe4       ??_C@_0BG@FALFHPGB@effects?1mp?1deathsight@ 300c6fe4     cg_main.obj
 0002:00014ffc       ??_C@_0BO@OPHLOKAP@effects?1force?1destruction?4efx@ 300c6ffc     cg_main.obj
 0002:0001501c       ??_C@_0BL@PANFDOBE@effects?1force?1blinding?4efx@ 300c701c     cg_main.obj
 0002:00015038       ??_C@_0BC@PJAEMEMB@fire?1fire_old?4efx@ 300c7038     cg_main.obj
 0002:0001504c       ??_C@_0BA@NBKIILCM@ice?1ice_old?4efx@ 300c704c     cg_main.obj
 0002:0001505c       ??_C@_0BM@JKHHLDPP@gfx?1effects?1bryarFrontFlash@ 300c705c     cg_main.obj
 0002:00015078       ??_C@_0BO@PGGJONHJ@gfx?1effects?1blasterFrontFlash@ 300c7078     cg_main.obj
 0002:00015098       ??_C@_0BL@JCOBMCDN@gfx?1effects?1blueFrontFlash@ 300c7098     cg_main.obj
 0002:000150b4       ??_C@_0BN@LONKFBDE@gfx?1effects?1yellowFrontFlash@ 300c70b4     cg_main.obj
 0002:000150d4       ??_C@_0BN@IBPENOKB@gfx?1effects?1purpleFrontFlash@ 300c70d4     cg_main.obj
 0002:000150f4       ??_C@_0BM@GFMCAJED@gfx?1effects?1greenFrontFlash@ 300c70f4     cg_main.obj
 0002:00015110       ??_C@_0BM@JCHOJPPI@gfx?1effects?1whiteFrontFlash@ 300c7110     cg_main.obj
 0002:0001512c       ??_C@_0BI@BPJONCHM@gfx?1misc?1lightningFlash@ 300c712c     cg_main.obj
 0002:00015144       ??_C@_0L@OLAIOCBJ@bryar?1shot@ 300c7144     cg_main.obj
 0002:00015150       ??_C@_0M@GLAIONOD@SE?944C?1shot@ 300c7150     cg_main.obj
 0002:0001515c       ??_C@_0L@KHHKHLOO@dc?917?1shot@ 300c715c     cg_main.obj
 0002:00015168       ??_C@_09JCPCHLLM@w?934?1shot@ 300c7168     cg_main.obj
 0002:00015174       ??_C@_0N@JBKNBDED@Glie?944?1shot@ 300c7174     cg_main.obj
 0002:00015184       ??_C@_0P@GMPHEOPG@bryar_old?1shot@ 300c7184     cg_main.obj
 0002:00015194       ??_C@_0O@NBGBCEJK@gauntlet?1shot@ 300c7194     cg_main.obj
 0002:000151a4       ??_C@_0BC@EBGIPNAG@bryar?1wall_impact@ 300c71a4     cg_main.obj
 0002:000151b8       ??_C@_0BD@FELCOKJA@bryar?1flesh_impact@ 300c71b8     cg_main.obj
 0002:000151cc       ??_C@_0BG@NKLCGOMM@disruptor?1wall_impact@ 300c71cc     cg_main.obj
 0002:000151e4       ??_C@_0BH@CPJIBLKN@disruptor?1flesh_impact@ 300c71e4     cg_main.obj
 0002:000151fc       ??_C@_0BD@GMJOGKFI@disruptor?1alt_miss@ 300c71fc     cg_main.obj
 0002:00015210       ??_C@_0BC@CJGMPDCH@disruptor?1alt_hit@ 300c7210     cg_main.obj
 0002:00015224       ??_C@_0BD@EJMIPBKG@gfx?12d?1cropCircle2@ 300c7224     cg_main.obj
 0002:00015238       ??_C@_0BC@GJGBLKGG@gfx?12d?1cropCircle@ 300c7238     cg_main.obj
 0002:0001524c       ??_C@_0BG@CGNKPPMN@gfx?12d?1cropCircleGlow@ 300c724c     cg_main.obj
 0002:00015264       ??_C@_0BC@MNEMOCHO@gfx?12d?1insertTick@ 300c7264     cg_main.obj
 0002:00015278       ??_C@_0BD@FIJJMHEA@gfx?12d?1crop_charge@ 300c7278     cg_main.obj
 0002:0001528c       ??_C@_0CF@DBNAAJNN@sound?1weapons?1disruptor?1zoomloo@ 300c728c     cg_main.obj
 0002:000152b4       ??_C@_0BE@MHMDAGJH@repeater?1projectile@ 300c72b4     cg_main.obj
 0002:000152c8       ??_C@_0BL@GFLPKBO@dlt?918_repeater?1projectile@ 300c72c8     cg_main.obj
 0002:000152e4       ??_C@_0BC@CDNOLFDO@dc?915a?1projectile@ 300c72e4     cg_main.obj
 0002:000152f8       ??_C@_0BA@BMJAEPFK@t?921?1projectile@ 300c72f8     cg_main.obj
 0002:00015308       ??_C@_0BC@FIAKMIGI@dc?917m?1projectile@ 300c7308     cg_main.obj
 0002:0001531c       ??_C@_0BD@MDHBBKPI@FWMB?910?1projectile@ 300c731c     cg_main.obj
 0002:00015330       ??_C@_0BI@KJBEKPOJ@repeater?1alt_projectile@ 300c7330     cg_main.obj
 0002:00015348       ??_C@_0BG@GGEPDFC@dc?915a?1alt_projectile@ 300c7348     cg_main.obj
 0002:00015360       ??_C@_0BG@JGKIPAIA@dc?917m?1alt_projectile@ 300c7360     cg_main.obj
 0002:00015378       ??_C@_0BF@PBONOCOL@repeater?1wall_impact@ 300c7378     cg_main.obj
 0002:00015390       ??_C@_0BG@IKLJPBEK@repeater?1flesh_impact@ 300c7390     cg_main.obj
 0002:000153a8       ??_C@_0BE@BNCJIELK@repeater?1concussion@ 300c73a8     cg_main.obj
 0002:000153bc       ??_C@_0BC@PJDEDHBD@dc?915a?1concussion@ 300c73bc     cg_main.obj
 0002:000153d0       ??_C@_0BC@ICOAEKEF@dc?917m?1concussion@ 300c73d0     cg_main.obj
 0002:000153e4       ??_C@_0BB@KGIAAOJD@demp2?1projectile@ 300c73e4     cg_main.obj
 0002:000153f8       ??_C@_0BM@NEKCGGIB@CR?924_flamerifle?1projectile@ 300c73f8     cg_main.obj
 0002:00015414       ??_C@_0BK@NLAEKBBN@CR?925_icerifle?1projectile@ 300c7414     cg_main.obj
 0002:00015430       ??_C@_0BK@HIEJNPNG@CarboniteRifle?1projectile@ 300c7430     cg_main.obj
 0002:0001544c       ??_C@_0BC@PGOBGFPK@demp2?1wall_impact@ 300c744c     cg_main.obj
 0002:00015460       ??_C@_0BN@FCKDGNK@CR?924_flamerifle?1wall_impact@ 300c7460     cg_main.obj
 0002:00015480       ??_C@_0BL@PMJMEPHC@CR?925_icerifle?1wall_impact@ 300c7480     cg_main.obj
 0002:0001549c       ??_C@_0BL@PAIJBJDE@CarboniteRifle?1wall_impact@ 300c749c     cg_main.obj
 0002:000154b8       ??_C@_0BD@OAAONNDP@demp2?1flesh_impact@ 300c74b8     cg_main.obj
 0002:000154cc       ??_C@_0BO@NLJDDGKE@CR?924_flamerifle?1flesh_impact@ 300c74cc     cg_main.obj
 0002:000154ec       ??_C@_0BM@DGHKLAH@CR?925_icerifle?1flesh_impact@ 300c74ec     cg_main.obj
 0002:00015508       ??_C@_0BM@JMNEFKPE@CarboniteRifle?1flesh_impact@ 300c7508     cg_main.obj
 0002:00015524       ??_C@_0BI@EMCCKEMO@models?1items?1sphere?4md3@ 300c7524     cg_main.obj
 0002:0001553c       ??_C@_0BH@IBMEBMI@gfx?1effects?1demp2shell@ 300c753c     cg_main.obj
 0002:00015554       ??_C@_0P@JNBALAPP@flechette?1shot@ 300c7554     cg_main.obj
 0002:00015564       ??_C@_0BB@NAEGGFBN@Bryar_Rifle?1shot@ 300c7564     cg_main.obj
 0002:00015578       ??_C@_0BL@NFNLIDPO@DoubleBarrel_ArrayGun?1shot@ 300c7578     cg_main.obj
 0002:00015594       ??_C@_0BC@LPMOAEHM@ACP_ArrayGun?1shot@ 300c7594     cg_main.obj
 0002:000155a8       ??_C@_09CKFFNIDH@cr?91?1shot@ 300c75a8     cg_main.obj
 0002:000155b4       ??_C@_0BB@PEMOMADH@junglerifle?1shot@ 300c75b4     cg_main.obj
 0002:000155c8       ??_C@_0BD@JJNBCJJJ@flechette?1alt_shot@ 300c75c8     cg_main.obj
 0002:000155dc       ??_C@_0BG@GOLBMPPF@ACP_ArrayGun?1alt_shot@ 300c75dc     cg_main.obj
 0002:000155f4       ??_C@_0BF@FFAMLGEN@junglerifle?1alt_shot@ 300c75f4     cg_main.obj
 0002:0001560c       ??_C@_0BG@HOJKOENE@flechette?1wall_impact@ 300c760c     cg_main.obj
 0002:00015624       ??_C@_0BH@DMFAKLHB@flechette?1flesh_impact@ 300c7624     cg_main.obj
 0002:0001563c       ??_C@_0M@FFHPHMBH@rocket?1shot@ 300c763c     cg_main.obj
 0002:00015648       ??_C@_0BC@NHJFLKCE@thermal?1explosion@ 300c7648     cg_main.obj
 0002:0001565c       ??_C@_0BN@LPLACFFO@incinerary_grenade?1explosion@ 300c765c     cg_main.obj
 0002:0001567c       ??_C@_0BJ@OPJEPGIO@dioxis_grenade?1explosion@ 300c767c     cg_main.obj
 0002:00015698       ??_C@_0BG@LKLEMDIG@ion_grenade?1explosion@ 300c7698     cg_main.obj
 0002:000156b0       ??_C@_0BI@BKLJJJJH@sonic_grenade?1explosion@ 300c76b0     cg_main.obj
 0002:000156c8       ??_C@_0BI@JPCOLNDA@flash_grenade?1explosion@ 300c76c8     cg_main.obj
 0002:000156e0       ??_C@_0CC@NPFLGFIJ@sound?1weapons?1thermal?1bounce1?4w@ 300c76e0     cg_main.obj
 0002:00015704       ??_C@_0CC@FJMPBHCH@sound?1weapons?1thermal?1bounce2?4w@ 300c7704     cg_main.obj
 0002:00015728       ??_C@_0BF@MMIBFHCA@tripMine?1laserMP?4efx@ 300c7728     cg_main.obj
 0002:00015740       ??_C@_0BF@BCFHNODM@tripMine?1glowbit?4efx@ 300c7740     cg_main.obj
 0002:00015758       ??_C@_0BA@LLBDOLLK@concussion?1shot@ 300c7758     cg_main.obj
 0002:00015768       ??_C@_0BF@ILJOJDCL@LJ?970_ConcRifle?1shot@ 300c7768     cg_main.obj
 0002:00015780       ??_C@_0BB@LKIJIKEN@PulseCannon?1shot@ 300c7780     cg_main.obj
 0002:00015794       ??_C@_0P@EGBFNJCA@geonosian?1shot@ 300c7794     cg_main.obj
 0002:000157a4       ??_C@_0BF@IMIJKLAL@concussion?1explosion@ 300c77a4     cg_main.obj
 0002:000157bc       ??_C@_0BK@PIMPJDPI@LJ?970_ConcRifle?1explosion@ 300c77bc     cg_main.obj
 0002:000157d8       ??_C@_0BG@BMJILLEH@PulseCannon?1explosion@ 300c77d8     cg_main.obj
 0002:000157f0       ??_C@_0BE@OIICEHNC@geonosian?1explosion@ 300c77f0     cg_main.obj
 0002:00015804       ??_C@_0BD@PPPBDMEH@gfx?12d?1crosshair?$CFc@ 300c7804     cg_main.obj
 0002:00015818       ??_C@_0BA@PJMLIFEA@gfx?12d?1backtile@ 300c7818     cg_main.obj
 0002:00015828       ??_C@_0BF@KCKLAPFP@powerups?1placeholder@ 300c7828     cg_main.obj
 0002:00015840       ??_C@_0BA@PEFPEMDE@powerups?1rezout@ 300c7840     cg_main.obj
 0002:00015850       ??_C@_0BI@MGAOKANG@gfx?1misc?1personalshield@ 300c7850     cg_main.obj
 0002:00015868       ??_C@_0BG@LLDBPCCL@gfx?1misc?1forceprotect@ 300c7868     cg_main.obj
 0002:00015880       ??_C@_0BF@NLDNMFFP@gfx?1misc?1sightbubble@ 300c7880     cg_main.obj
 0002:00015898       ??_C@_0BE@DDKEHNDP@powerups?1forceshell@ 300c7898     cg_main.obj
 0002:000158ac       ??_C@_0BE@JLIPOJOD@powerups?1sightshell@ 300c78ac     cg_main.obj
 0002:000158c0       ??_C@_0BP@JIAHAICB@models?1map_objects?1mp?1holo?4md3@ 300c78c0     cg_main.obj
 0002:000158e0       ??_C@_0BK@NHEDDPHF@models?1flag2?1flagpole?4md3@ 300c78e0     cg_main.obj
 0002:000158fc       ??_C@_0BL@NNONIMAN@models?1flag2?1flagflap3?4md3@ 300c78fc     cg_main.obj
 0002:00015918       ??_C@_0CI@PFOOJNMO@models?1mapobjects?1flagbase?1red_@ 300c7918     cg_main.obj
 0002:00015940       ??_C@_0CJ@MEDKOFPD@models?1mapobjects?1flagbase?1blue@ 300c7940     cg_main.obj
 0002:0001596c       ??_C@_0CJ@PBONGGD@models?1mapobjects?1flagbase?1ntrl@ 300c796c     cg_main.obj
 0002:00015998       ??_C@_0BB@NJDEKCOL@sprites?1team_red@ 300c7998     cg_main.obj
 0002:000159ac       ??_C@_0BC@CPIHIBPP@sprites?1team_blue@ 300c79ac     cg_main.obj
 0002:000159c0       ??_C@_0BE@MEJHIMJO@gfx?12d?1colorbar?4tga@ 300c79c0     cg_main.obj
 0002:000159d4       ??_C@_0CH@BGFFCLAG@ui?1assets?1statusbar?1selectedhea@ 300c79d4     cg_main.obj
 0002:000159fc       ??_C@_0BH@CBLAHDFN@powerups?1ysaliredshell@ 300c79fc     cg_main.obj
 0002:00015a14       ??_C@_0BI@PCIGPAA@powerups?1ysaliblueshell@ 300c7a14     cg_main.obj
 0002:00015a2c       ??_C@_0BD@FDOCLGBJ@powerups?1boonshell@ 300c7a2c     cg_main.obj
 0002:00015a40       ??_C@_0BL@JAOFPJCP@powerups?1endarkenmentshell@ 300c7a40     cg_main.obj
 0002:00015a5c       ??_C@_0BM@CILICBLC@powerups?1enlightenmentshell@ 300c7a5c     cg_main.obj
 0002:00015a78       ??_C@_0BO@PBALHOFA@powerups?1invulnerabilityshell@ 300c7a78     cg_main.obj
 0002:00015a98       ??_C@_0BB@ENOKEJMK@gfx?12d?1binCircle@ 300c7a98     cg_main.obj
 0002:00015aac       ??_C@_0P@LHEFCKJK@gfx?12d?1binMask@ 300c7aac     cg_main.obj
 0002:00015abc       ??_C@_0BE@IIMHDGMO@gfx?12d?1binSideArrow@ 300c7abc     cg_main.obj
 0002:00015ad0       ??_C@_0BB@JEPLFKJJ@gfx?12d?1binTopTri@ 300c7ad0     cg_main.obj
 0002:00015ae4       ??_C@_0BH@MANIHANO@gfx?12d?1binocularWindow@ 300c7ae4     cg_main.obj
 0002:00015afc       ??_C@_0BL@MMBFBAIB@gfx?12d?1binocularNumOverlay@ 300c7afc     cg_main.obj
 0002:00015b18       ??_C@_0CC@GKPEHNOE@models?1chunks?1metal?1metal1_?$CFi?4m@ 300c7b18     cg_main.obj
 0002:00015b3c       ??_C@_0CC@FDHJEBCB@models?1chunks?1metal?1metal2_?$CFi?4m@ 300c7b3c     cg_main.obj
 0002:00015b60       ??_C@_0CA@LNLFMHFJ@models?1chunks?1rock?1rock1_?$CFi?4md3@ 300c7b60     cg_main.obj
 0002:00015b80       ??_C@_0CA@IEDIPLJM@models?1chunks?1rock?1rock2_?$CFi?4md3@ 300c7b80     cg_main.obj
 0002:00015ba0       ??_C@_0CA@JDEDOPNP@models?1chunks?1rock?1rock3_?$CFi?4md3@ 300c7ba0     cg_main.obj
 0002:00015bc0       ??_C@_0CC@GLENOMLP@models?1chunks?1crate?1crate1_?$CFi?4m@ 300c7bc0     cg_main.obj
 0002:00015be4       ??_C@_0CC@FCMANAHK@models?1chunks?1crate?1crate2_?$CFi?4m@ 300c7be4     cg_main.obj
 0002:00015c08       ??_C@_0CD@KGJEJJO@models?1chunks?1metal?1wmetal1_?$CFi?4@ 300c7c08     cg_main.obj
 0002:00015c2c       ??_C@_0CD@JACKJPA@sound?1weapons?1explosions?1glassl@ 300c7c2c     cg_main.obj
 0002:00015c50       ??_C@_0BM@OAFICFND@sound?1effects?1grate_destroy@ 300c7c50     cg_main.obj
 0002:00015c6c       ??_C@_0BJ@DLLIGKEF@sound?1effects?1wall_smash@ 300c7c6c     cg_main.obj
 0002:00015c88       ??_C@_0BL@MIMICCND@sound?1effects?1stone_bounce@ 300c7c88     cg_main.obj
 0002:00015ca4       ??_C@_0BM@PCGCBPDN@sound?1effects?1stone_bounce2@ 300c7ca4     cg_main.obj
 0002:00015cc0       ??_C@_0BL@MBOLIHHD@sound?1effects?1metal_bounce@ 300c7cc0     cg_main.obj
 0002:00015cdc       ??_C@_0BM@CELNJPHA@sound?1effects?1metal_bounce2@ 300c7cdc     cg_main.obj
 0002:00015cf8       ??_C@_0CF@BGPACEFC@sound?1weapons?1explosions?1glassb@ 300c7cf8     cg_main.obj
 0002:00015d20       ??_C@_0CE@NAAHHAPB@sound?1weapons?1explosions?1crateB@ 300c7d20     cg_main.obj
 0002:00015d44       ??_C@_0CE@PLCKCDDC@sound?1weapons?1explosions?1crateB@ 300c7d44     cg_main.obj
 0002:00015d68       ??_C@_0BG@JIBKAJPC@gfx?1misc?1test_crackle@ 300c7d68     cg_main.obj
 0002:00015d80       ??_C@_0BC@KOPBJOAL@gfx?1misc?1electric@ 300c7d80     cg_main.obj
 0002:00015d94       ??_C@_0BL@KONNHIGJ@gfx?1misc?1fullbodyelectric2@ 300c7d94     cg_main.obj
 0002:00015db0       ??_C@_0L@KKACDDLD@footstep_r@ 300c7db0     cg_main.obj
 0002:00015dbc       ??_C@_0L@HOEDAMGM@footstep_l@ 300c7dbc     cg_main.obj
 0002:00015dc8       ??_C@_0BB@OJCIKJGO@footstep_heavy_r@ 300c7dc8     cg_main.obj
 0002:00015ddc       ??_C@_0BB@DNGJJGLB@footstep_heavy_l@ 300c7ddc     cg_main.obj
 0002:00015df0       ??_C@_0BD@MCDAOGIB@effects?1refraction@ 300c7df0     cg_main.obj
 0002:00015e04       ??_C@_0BK@IBFDCHFF@gfx?1effects?1cloakedShader@ 300c7e04     cg_main.obj
 0002:00015e20       ??_C@_0L@KHLAIOEE@markShadow@ 300c7e20     cg_main.obj
 0002:00015e2c       ??_C@_04KNLNBPHI@wake@     300c7e2c     cg_main.obj
 0002:00015e34       ??_C@_0BG@HJJFHBCH@gfx?1misc?1borgeyeflare@ 300c7e34     cg_main.obj
 0002:00015e4c       ??_C@_0BJ@DBMHLADB@gfx?1mp?1dmgshader_shields@ 300c7e4c     cg_main.obj
 0002:00015e68       ??_C@_0CC@BMBLEHAM@gfx?1mp?1dmgshader_shieldsandheal@ 300c7e68     cg_main.obj
 0002:00015e8c       ??_C@_03JLINDLFM@?$CK?$CFi@ 300c7e8c     cg_main.obj
 0002:00015e90       ??_C@_04HAEDHBJD@?4glm@    300c7e90     cg_main.obj
 0002:00015e98       ??_C@_06FPMCFOBA@?$CK?$CFd?9?$CFd@ 300c7e98     cg_main.obj
 0002:00015ea0       ??_C@_0BP@JMKNBDMD@ui?1assets?1statusbar?1patrol?4tga@ 300c7ea0     cg_main.obj
 0002:00015ec0       ??_C@_0CA@BMENIIHA@ui?1assets?1statusbar?1assault?4tga@ 300c7ec0     cg_main.obj
 0002:00015ee0       ??_C@_0BN@IFHLAFIM@ui?1assets?1statusbar?1camp?4tga@ 300c7ee0     cg_main.obj
 0002:00015f00       ??_C@_0BP@NDBPBMNA@ui?1assets?1statusbar?1follow?4tga@ 300c7f00     cg_main.obj
 0002:00015f20       ??_C@_0BP@DFAFNPOM@ui?1assets?1statusbar?1defend?4tga@ 300c7f20     cg_main.obj
 0002:00015f40       ??_C@_0CE@MMLKAKOP@ui?1assets?1statusbar?1team_leader@ 300c7f40     cg_main.obj
 0002:00015f64       ??_C@_0CB@LAIMNJFD@ui?1assets?1statusbar?1retrieve?4tg@ 300c7f64     cg_main.obj
 0002:00015f88       ??_C@_0BP@KGMEFMCF@ui?1assets?1statusbar?1escort?4tga@ 300c7f88     cg_main.obj
 0002:00015fa8       ??_C@_0BD@CHEDBJDN@menu?1art?13_cursor2@ 300c7fa8     cg_main.obj
 0002:00015fbc       ??_C@_0BJ@LEDAGAI@ui?1assets?1sizecursor?4tga@ 300c7fbc     cg_main.obj
 0002:00015fd8       ??_C@_0BL@LPJJLJJG@ui?1assets?1selectcursor?4tga@ 300c7fd8     cg_main.obj
 0002:00015ff4       ??_C@_0CF@ENDMFFOH@ui?1assets?1statusbar?1flag_in_bas@ 300c7ff4     cg_main.obj
 0002:0001601c       ??_C@_0CF@LPJBOID@ui?1assets?1statusbar?1flag_captur@ 300c801c     cg_main.obj
 0002:00016044       ??_C@_0CF@BBPPIJMH@ui?1assets?1statusbar?1flag_missin@ 300c8044     cg_main.obj
 0002:0001606c       ??_C@_0BN@OJIAAIJF@models?1weaphits?1testboom?4md3@ 300c806c     cg_main.obj
 0002:0001608c       ??_C@_0BA@GPIBLNDH@halfShieldShell@ 300c808c     cg_main.obj
 0002:0001609c       ??_C@_0BC@LNMDPJLI@force?1force_touch@ 300c809c     cg_main.obj
 0002:000160b0       ??_C@_05ONEOBAM@?$CFs_?$CFs@ 300c80b0     cg_main.obj
 0002:000160b8       ??_C@_02DPKJAMEF@?$CFd@    300c80b8     cg_main.obj
 0002:000160bc       ??_C@_0BH@OELCJKFF@gfx?1mp?1c_icon_infantry@ 300c80bc     cg_main.obj
 0002:000160d4       ??_C@_0BM@GFHJFCLE@gfx?1mp?1c_icon_heavy_weapons@ 300c80d4     cg_main.obj
 0002:000160f0       ??_C@_0BM@NBLAFLJO@gfx?1mp?1c_icon_demolitionist@ 300c80f0     cg_main.obj
 0002:0001610c       ??_C@_0BH@CEMGMFAB@gfx?1mp?1c_icon_vanguard@ 300c810c     cg_main.obj
 0002:00016124       ??_C@_0BG@HPEKJBCG@gfx?1mp?1c_icon_support@ 300c8124     cg_main.obj
 0002:0001613c       ??_C@_0BL@JNENHOLE@gfx?1mp?1c_icon_jedi_general@ 300c813c     cg_main.obj
 0002:00016158       ??_C@_07DNFNGBFM@?$CFs?5?5?5?5?5@ 300c8158     cg_main.obj
 0002:00016160       ??_C@_0CK@ECPONHFG@?$FO1menu?5file?5not?5found?3?5?$CFs?0?5usin@ 300c8160     cg_main.obj
 0002:0001618c       ??_C@_0DD@JILOANNP@?$FO1menu?5file?5too?5large?3?5?$CFs?5is?5?$CFi@ 300c818c     cg_main.obj
 0002:000161c0       ??_C@_04EFPADHIC@font@     300c81c0     cg_main.obj
 0002:000161c8       ??_C@_09DOKKJGBA@smallFont@ 300c81c8     cg_main.obj
 0002:000161d4       ??_C@_0L@KDLFEFGB@small2Font@ 300c81d4     cg_main.obj
 0002:000161e0       ??_C@_07HPOBIOOE@bigfont@  300c81e0     cg_main.obj
 0002:000161e8       ??_C@_0M@KMLBJNNP@gradientbar@ 300c81e8     cg_main.obj
 0002:000161f4       ??_C@_0P@HOFNPEDB@menuEnterSound@ 300c81f4     cg_main.obj
 0002:00016204       ??_C@_0O@CCIDDBMD@menuExitSound@ 300c8204     cg_main.obj
 0002:00016214       ??_C@_0P@IGAMHAPB@itemFocusSound@ 300c8214     cg_main.obj
 0002:00016224       ??_C@_0O@JDBLIAHI@menuBuzzSound@ 300c8224     cg_main.obj
 0002:00016234       ??_C@_06CHDIMBDP@cursor@   300c8234     cg_main.obj
 0002:0001623c       ??_C@_09DPBPOIDH@fadeClamp@ 300c823c     cg_main.obj
 0002:00016248       ??_C@_09LGBLEGN@fadeCycle@ 300c8248     cg_main.obj
 0002:00016254       ??_C@_0L@JDDHILPC@fadeAmount@ 300c8254     cg_main.obj
 0002:00016260       ??_C@_07OPNIPHMJ@shadowX@  300c8260     cg_main.obj
 0002:00016268       ??_C@_07PGMDMGII@shadowY@  300c8268     cg_main.obj
 0002:00016270       ??_C@_0M@JPJLLJDB@shadowColor@ 300c8270     cg_main.obj
 0002:0001627c       ??_C@_0BA@HHBGDHLB@ui?1testhud?4menu@ 300c827c     cg_main.obj
 0002:0001628c       ??_C@_0P@JJKHBDCP@assetGlobalDef@ 300c828c     cg_main.obj
 0002:0001629c       ??_C@_07MCIOFCJF@menudef@  300c829c     cg_main.obj
 0002:000162a4       ??_C@_09BCJOCADI@Spectator@ 300c82a4     cg_main.obj
 0002:000162b0       ??_C@_06PKACINHD@Leader@   300c82b0     cg_main.obj
 0002:000162b8       ??_C@_03NOAKOCEN@?$CF4i@   300c82b8     cg_main.obj
 0002:000162bc       ??_C@_0L@FJAFPCBC@connecting@ 300c82bc     cg_main.obj
 0002:000162c8       ??_C@_06DAMJBNEB@Empire@   300c82c8     cg_main.obj
 0002:000162d0       ??_C@_09CBAPOGED@Rebellion@ 300c82d0     cg_main.obj
 0002:000162e0       ??_C@_0EA@NOKNMOHD@?$FO1default?5menu?5file?5not?5found?3?5@ 300c82e0     cg_main.obj
 0002:00016320       ??_C@_08GJJFPOLP@loadmenu@ 300c8320     cg_main.obj
 0002:0001632c       ??_C@_0BL@LDKEDAHM@ui?1assets?1gradientbar2?4tga@ 300c832c     cg_main.obj
 0002:00016348       ??_C@_0BB@OMABGHIG@menu?1art?1fx_base@ 300c8348     cg_main.obj
 0002:0001635c       ??_C@_0BA@NNOEOMD@menu?1art?1fx_red@ 300c835c     cg_main.obj
 0002:0001636c       ??_C@_0BA@BCAGEDMK@menu?1art?1fx_yel@ 300c836c     cg_main.obj
 0002:0001637c       ??_C@_0BA@IJJPLEBB@menu?1art?1fx_grn@ 300c837c     cg_main.obj
 0002:0001638c       ??_C@_0BB@ECKDFOKE@menu?1art?1fx_teal@ 300c838c     cg_main.obj
 0002:000163a0       ??_C@_0BB@BKOGMDOJ@menu?1art?1fx_blue@ 300c83a0     cg_main.obj
 0002:000163b4       ??_C@_0BB@LIJKJPJD@menu?1art?1fx_cyan@ 300c83b4     cg_main.obj
 0002:000163c8       ??_C@_0BC@GAPGDHHF@menu?1art?1fx_white@ 300c83c8     cg_main.obj
 0002:000163dc       ??_C@_0BI@FDOMFDJL@gfx?1menus?1scrollbar?4tga@ 300c83dc     cg_main.obj
 0002:000163f4       ??_C@_0CE@COBFEBJB@gfx?1menus?1scrollbar_arrow_dwn_a@ 300c83f4     cg_main.obj
 0002:00016418       ??_C@_0CD@CMMKEMFC@gfx?1menus?1scrollbar_arrow_up_a?4@ 300c8418     cg_main.obj
 0002:0001643c       ??_C@_0CD@HGBCPEJO@gfx?1menus?1scrollbar_arrow_left?4@ 300c843c     cg_main.obj
 0002:00016460       ??_C@_0CE@EBDHDKAC@gfx?1menus?1scrollbar_arrow_right@ 300c8460     cg_main.obj
 0002:00016484       ??_C@_0BO@OGCKOCFI@gfx?1menus?1scrollbar_thumb?4tga@ 300c8484     cg_main.obj
 0002:000164a4       ??_C@_0BA@IIPDBPAH@menu?1new?1slider@ 300c84a4     cg_main.obj
 0002:000164b4       ??_C@_0BF@IMFGDGLA@menu?1new?1sliderthumb@ 300c84b4     cg_main.obj
 0002:000164cc       ??_C@_0DK@MEMBGKNJ@You?5exceeded?5the?5cgame?5string?5p@ 300c84cc     cg_main.obj
 0002:00016508       ??_C@_0GN@MCPHADGE@Too?5many?5misc_model_static?8s?5on@ 300c8508     cg_main.obj
 0002:00016578       ??_C@_0CB@IEGPOIHD@misc_model_static?5with?5no?5model@ 300c8578     cg_main.obj
 0002:0001659c       ??_C@_0CM@COEPIPFK@misc_model_static?5failed?5to?5loa@ 300c859c     cg_main.obj
 0002:000165c8       ??_C@_0CE@KFIMGHLL@CG_AddSpawnVarToken?3?5MAX_SPAWN_@ 300c85c8     cg_main.obj
 0002:000165ec       ??_C@_0CN@LHOGJKHF@CG_ParseSpawnVars?3?5found?5?$CFs?5whe@ 300c85ec     cg_main.obj
 0002:0001661c       ??_C@_0CN@KDIJEMJC@CG_ParseSpawnVars?3?5EOF?5without?5@ 300c861c     cg_main.obj
 0002:0001664c       ??_C@_0CO@LBIGDOPL@CG_ParseSpawnVars?3?5closing?5brac@ 300c864c     cg_main.obj
 0002:0001667c       ??_C@_0CC@FFKCCAOL@CG_ParseSpawnVars?3?5MAX_SPAWN_VA@ 300c867c     cg_main.obj
 0002:000166a0       ??_C@_0L@BIFLFHPF@worldspawn@ 300c86a0     cg_main.obj
 0002:000166ac       ??_C@_0BC@LMMEGHFB@misc_model_static@ 300c86ac     cg_main.obj
 0002:000166c0       ??_C@_0BG@DHHABGNA@misc_skyportal_orient@ 300c86c0     cg_main.obj
 0002:000166d8       ??_C@_0P@IFKMPLOL@misc_skyportal@ 300c86d8     cg_main.obj
 0002:000166e8       ??_C@_0BC@CAFACOKO@misc_weather_zone@ 300c86e8     cg_main.obj
 0002:000166fc       ??_C@_0BM@BLBJHDKM@no?5entities?5for?5cgame?5parse@ 300c86fc     cg_main.obj
 0002:00016718       ??_C@_05LDDNLFDC@ocr_a@    300c8718     cg_main.obj
 0002:00016720       ??_C@_06LFGMJCKO@ergoec@   300c8720     cg_main.obj
 0002:00016728       ??_C@_0BF@NCICKGDM@gfx?12d?1charsgrid_med@ 300c8728     cg_main.obj
 0002:00016740       ??_C@_05PMAELIEO@white@    300c8740     cg_main.obj
 0002:00016748       ??_C@_0BC@EMACFANC@gfx?1hud?1load_tick@ 300c8748     cg_main.obj
 0002:0001675c       ??_C@_0BG@FIEHOIIN@gfx?1hud?1load_tick_cap@ 300c875c     cg_main.obj
 0002:00016774       ??_C@_0BF@EGEEPHON@gfx?1hud?1mp_levelload@ 300c8774     cg_main.obj
 0002:0001678c       ??_C@_0BJ@EGEFIBHF@gfx?1hud?1w_icon_dh?917?4tga@ 300c878c     cg_main.obj
 0002:000167a8       ??_C@_0BM@MJJHIGL@gfx?1hud?1w_icon_dh?917_na?4tga@ 300c87a8     cg_main.obj
 0002:000167c4       ??_C@_0CB@GOPPCDCF@gfx?1hud?1w_icon_clonepistol_1?4tg@ 300c87c4     cg_main.obj
 0002:000167e8       ??_C@_0CE@NHKANCAK@gfx?1hud?1w_icon_clonepistol_1_na@ 300c87e8     cg_main.obj
 0002:0001680c       ??_C@_0BI@EOMDJOG@gfx?1hud?1w_icon_w?934?4tga@ 300c880c     cg_main.obj
 0002:00016824       ??_C@_0BL@HANKEBHM@gfx?1hud?1w_icon_w?934_na?4tga@ 300c8824     cg_main.obj
 0002:00016840       ??_C@_0BL@JFIIJAEL@gfx?1hud?1w_icon_glie?944?4tga@ 300c8840     cg_main.obj
 0002:0001685c       ??_C@_0BO@JEGACNDP@gfx?1hud?1w_icon_glie?944_na?4tga@ 300c885c     cg_main.obj
 0002:0001687c       ??_C@_0BK@NALAJOMO@gfx?1hud?1w_icon_se?944c?4tga@ 300c887c     cg_main.obj
 0002:00016898       ??_C@_0BN@MFBPGBAB@gfx?1hud?1w_icon_se?944c_na?4tga@ 300c8898     cg_main.obj
 0002:000168b8       ??_C@_0BI@OHDLDHHG@gfx?1hud?1w_icon_a280?4tga@ 300c88b8     cg_main.obj
 0002:000168d0       ??_C@_0BL@LPNJDJG@gfx?1hud?1w_icon_a280_na?4tga@ 300c88d0     cg_main.obj
 0002:000168ec       ??_C@_0BK@LHCCDIIK@gfx?1hud?1w_icon_dc?915s?4tga@ 300c88ec     cg_main.obj
 0002:00016908       ??_C@_0BN@FENAKNHN@gfx?1hud?1w_icon_dc?915s_na?4tga@ 300c8908     cg_main.obj
 0002:00016928       ??_C@_0CA@CHPDJMCD@gfx?1hud?1w_icon_droidblaster?4tga@ 300c8928     cg_main.obj
 0002:00016948       ??_C@_0CD@LJMGFAKN@gfx?1hud?1w_icon_droidblaster_na?4@ 300c8948     cg_main.obj
 0002:0001696c       ??_C@_0BM@OCAENIMH@gfx?1hud?1w_icon_el?916hfe?4tga@ 300c896c     cg_main.obj
 0002:00016988       ??_C@_0BP@KAOBMFKK@gfx?1hud?1w_icon_el?916hfe_na?4tga@ 300c8988     cg_main.obj
 0002:000169a8       ??_C@_0BH@JGNHBOAG@gfx?1hud?1w_icon_f11?4tga@ 300c89a8     cg_main.obj
 0002:000169c0       ??_C@_0BK@LCPGMKAP@gfx?1hud?1w_icon_f11_na?4tga@ 300c89c0     cg_main.obj
 0002:000169dc       ??_C@_0BK@EBEBBBFK@gfx?1hud?1w_icon_DLT20a?4tga@ 300c89dc     cg_main.obj
 0002:000169f8       ??_C@_0BN@EJKEDHLC@gfx?1hud?1w_icon_DLT20a_na?4tga@ 300c89f8     cg_main.obj
 0002:00016a18       ??_C@_0BO@CFNFABIK@gfx?1hud?1w_icon_clonerifle?4tga@ 300c8a18     cg_main.obj
 0002:00016a38       ??_C@_0CB@HJINEHOK@gfx?1hud?1w_icon_clonerifle_na?4tg@ 300c8a38     cg_main.obj
 0002:00016a5c       ??_C@_0BO@BECALFLH@gfx?1hud?1w_icon_proj_rifle?4tga@ 300c8a5c     cg_main.obj
 0002:00016a7c       ??_C@_0CB@BIEAFMDH@gfx?1hud?1w_icon_proj_rifle_na?4tg@ 300c8a7c     cg_main.obj
 0002:00016aa0       ??_C@_0CA@EBEAFJG@gfx?1hud?1w_icon_tusken_rifle?4tga@ 300c8aa0     cg_main.obj
 0002:00016ac0       ??_C@_0CD@OELOCKPN@gfx?1hud?1w_icon_tusken_rifle_na?4@ 300c8ac0     cg_main.obj
 0002:00016ae4       ??_C@_0BH@CFEAKJBA@gfx?1hud?1w_icon_psg?4tga@ 300c8ae4     cg_main.obj
 0002:00016afc       ??_C@_0BK@GPLCCLOG@gfx?1hud?1w_icon_psg_na?4tga@ 300c8afc     cg_main.obj
 0002:00016b18       ??_C@_0BI@FGEGFNGC@gfx?1hud?1w_icon_ee?93?4tga@ 300c8b18     cg_main.obj
 0002:00016b30       ??_C@_0BL@KBHEBGCH@gfx?1hud?1w_icon_ee?93_na?4tga@ 300c8b30     cg_main.obj
 0002:00016b4c       ??_C@_0BP@IMPOAFPH@gfx?1hud?1w_icon_wbowcaster1?4tga@ 300c8b4c     cg_main.obj
 0002:00016b6c       ??_C@_0CC@ONHEIAAE@gfx?1hud?1w_icon_wbowcaster1_na?4t@ 300c8b6c     cg_main.obj
 0002:00016b90       ??_C@_0BP@LHPIOALG@gfx?1hud?1w_icon_candblaster?4tga@ 300c8b90     cg_main.obj
 0002:00016bb0       ??_C@_0CC@FGEGMFFE@gfx?1hud?1w_icon_candblaster_na?4t@ 300c8bb0     cg_main.obj
 0002:00016bd4       ??_C@_0BP@KGKHHFJ@gfx?1hud?1w_icon_wbowcaster2?4tga@ 300c8bd4     cg_main.obj
 0002:00016bf4       ??_C@_0CC@NEPJLMMB@gfx?1hud?1w_icon_wbowcaster2_na?4t@ 300c8bf4     cg_main.obj
 0002:00016c18       ??_C@_0BL@NBGIMJDN@gfx?1hud?1w_icon_st_comp?4tga@ 300c8c18     cg_main.obj
 0002:00016c34       ??_C@_0BO@PGPDNPM@gfx?1hud?1w_icon_st_comp_na?4tga@ 300c8c34     cg_main.obj
 0002:00016c54       ??_C@_0BK@CCBMGOPC@gfx?1hud?1w_icon_dlt?918?4tga@ 300c8c54     cg_main.obj
 0002:00016c70       ??_C@_0BN@CDLCHDHJ@gfx?1hud?1w_icon_dlt?918_na?4tga@ 300c8c70     cg_main.obj
 0002:00016c90       ??_C@_0BK@PJDMJLBK@gfx?1hud?1w_icon_dc?915a?4tga@ 300c8c90     cg_main.obj
 0002:00016cac       ??_C@_0BN@NGOGMHIK@gfx?1hud?1w_icon_dc?915a_na?4tga@ 300c8cac     cg_main.obj
 0002:00016ccc       ??_C@_0BI@MLNLJPCE@gfx?1hud?1w_icon_t?921?4tga@ 300c8ccc     cg_main.obj
 0002:00016ce4       ??_C@_0BL@KCBBLNPN@gfx?1hud?1w_icon_t?921_na?4tga@ 300c8ce4     cg_main.obj
 0002:00016d00       ??_C@_0BK@BJGBEKEI@gfx?1hud?1w_icon_dc?917m?4tga@ 300c8d00     cg_main.obj
 0002:00016d1c       ??_C@_0BN@DECHOEKD@gfx?1hud?1w_icon_dc?917m_na?4tga@ 300c8d1c     cg_main.obj
 0002:00016d3c       ??_C@_0BL@CHNJDPKJ@gfx?1hud?1w_icon_fwmb?910?4tga@ 300c8d3c     cg_main.obj
 0002:00016d58       ??_C@_0BO@LPFOIAH@gfx?1hud?1w_icon_fwmb?910_na?4tga@ 300c8d58     cg_main.obj
 0002:00016d78       ??_C@_0BN@JIDOEDNL@gfx?1hud?1w_icon_beamrifle?4tga@ 300c8d78     cg_main.obj
 0002:00016d98       ??_C@_0CA@OBGEBFKH@gfx?1hud?1w_icon_beamrifle_na?4tga@ 300c8d98     cg_main.obj
 0002:00016db8       ??_C@_0BK@KGCJFLAN@gfx?1hud?1w_icon_dc?917p?4tga@ 300c8db8     cg_main.obj
 0002:00016dd4       ??_C@_0BN@GJKIEBIF@gfx?1hud?1w_icon_dc?917p_na?4tga@ 300c8dd4     cg_main.obj
 0002:00016df4       ??_C@_0BO@JLCKGBEB@gfx?1hud?1w_icon_flamerifle?4tga@ 300c8df4     cg_main.obj
 0002:00016e14       ??_C@_0CB@KMIILKNP@gfx?1hud?1w_icon_flamerifle_na?4tg@ 300c8e14     cg_main.obj
 0002:00016e38       ??_C@_0BM@PDNHJJP@gfx?1hud?1w_icon_icerifle?4tga@ 300c8e38     cg_main.obj
 0002:00016e54       ??_C@_0BP@CKFHLPOP@gfx?1hud?1w_icon_icerifle_na?4tga@ 300c8e54     cg_main.obj
 0002:00016e74       ??_C@_0BJ@KDCCIHKC@gfx?1hud?1w_icon_briar?4tga@ 300c8e74     cg_main.obj
 0002:00016e90       ??_C@_0BM@BNDAIEG@gfx?1hud?1w_icon_briar_na?4tga@ 300c8e90     cg_main.obj
 0002:00016eac       ??_C@_0BM@MLHKPCBP@gfx?1hud?1w_icon_golancr1?4tga@ 300c8eac     cg_main.obj
 0002:00016ec8       ??_C@_0BP@PLKNDBBI@gfx?1hud?1w_icon_golancr1_na?4tga@ 300c8ec8     cg_main.obj
 0002:00016ee8       ??_C@_0BH@OMFMDGEI@gfx?1hud?1w_icon_acp?4tga@ 300c8ee8     cg_main.obj
 0002:00016f00       ??_C@_0BK@OPMFJOLN@gfx?1hud?1w_icon_acp_na?4tga@ 300c8f00     cg_main.obj
 0002:00016f1c       ??_C@_0BH@KLNEHPIG@gfx?1hud?1w_icon_cr1?4tga@ 300c8f1c     cg_main.obj
 0002:00016f34       ??_C@_0BK@LGCMNKOO@gfx?1hud?1w_icon_cr1_na?4tga@ 300c8f34     cg_main.obj
 0002:00016f50       ??_C@_0BP@MLIJCGLD@gfx?1hud?1w_icon_junglerifle?4tga@ 300c8f50     cg_main.obj
 0002:00016f70       ??_C@_0CC@OKCPDGKB@gfx?1hud?1w_icon_junglerifle_na?4t@ 300c8f70     cg_main.obj
 0002:00016f94       ??_C@_0BI@PBGAFJJC@gfx?1hud?1w_icon_lj50?4tga@ 300c8f94     cg_main.obj
 0002:00016fac       ??_C@_0BL@KCNBCFKJ@gfx?1hud?1w_icon_lj50_na?4tga@ 300c8fac     cg_main.obj
 0002:00016fc8       ??_C@_0BP@BJODPMPL@gfx?1hud?1w_icon_pulsecannon?4tga@ 300c8fc8     cg_main.obj
 0002:00016fe8       ??_C@_0CC@ECBGEPNI@gfx?1hud?1w_icon_pulsecannon_na?4t@ 300c8fe8     cg_main.obj
 0002:0001700c       ??_C@_0BO@FMGNEBFH@gfx?1hud?1w_icon_sonicrifle?4tga@ 300c900c     cg_main.obj
 0002:0001702c       ??_C@_0CB@MJBPJFEL@gfx?1hud?1w_icon_sonicrifle_na?4tg@ 300c902c     cg_main.obj
 0002:00017050       ??_C@_0CB@EIKMJGP@gfx?1hud?1w_icon_rotary_cannon?4tg@ 300c9050     cg_main.obj
 0002:00017074       ??_C@_0CE@COFDEEKD@gfx?1hud?1w_icon_rotary_cannon_na@ 300c9074     cg_main.obj
 0002:00017098       ??_C@_0BL@PNDELHHM@gfx?1hud?1w_icon_minigun?4tga@ 300c9098     cg_main.obj
 0002:000170b4       ??_C@_0BO@KNFGJDIA@gfx?1hud?1w_icon_minigun_na?4tga@ 300c90b4     cg_main.obj
 0002:000170d4       ??_C@_0BL@DJCNPLAP@gfx?1hud?1w_icon_MiniMag?4tga@ 300c90d4     cg_main.obj
 0002:000170f0       ??_C@_0BO@MDEGONIE@gfx?1hud?1w_icon_MiniMag_na?4tga@ 300c90f0     cg_main.obj
 0002:00017110       ??_C@_0BP@GJEAMIIC@gfx?1hud?1w_icon_cw_launcher?4tga@ 300c9110     cg_main.obj
 0002:00017130       ??_C@_0CC@ONMDBNNC@gfx?1hud?1w_icon_cw_launcher_na?4t@ 300c9130     cg_main.obj
 0002:00017154       ??_C@_0CB@DBFEHGCH@gfx?1hud?1w_icon_e60r_launcher?4tg@ 300c9154     cg_main.obj
 0002:00017178       ??_C@_0CE@FCOMNFEK@gfx?1hud?1w_icon_e60r_launcher_na@ 300c9178     cg_main.obj
 0002:0001719c       ??_C@_0BH@BCKBEOID@gfx?1hud?1w_icon_pmg?4tga@ 300c919c     cg_main.obj
 0002:000171b4       ??_C@_0BK@FGNFJKLN@gfx?1hud?1w_icon_pmg_na?4tga@ 300c91b4     cg_main.obj
 0002:000171d0       ??_C@_0BK@FFDMOFIN@gfx?1hud?1w_icon_plasma?4tga@ 300c91d0     cg_main.obj
 0002:000171ec       ??_C@_0BN@JPAGDNCL@gfx?1hud?1w_icon_plasma_na?4tga@ 300c91ec     cg_main.obj
 0002:0001720c       ??_C@_0CC@KBCMCBJJ@gfx?1hud?1w_icon_oldfraggrenade?4t@ 300c920c     cg_main.obj
 0002:00017230       ??_C@_0CF@DGAIDEFN@gfx?1hud?1w_icon_oldfraggrenade_n@ 300c9230     cg_main.obj
 0002:00017258       ??_C@_0BN@ELNEOOIG@gfx?1hud?1w_icon_V?959_conc?4tga@ 300c9258     cg_main.obj
 0002:00017278       ??_C@_0CA@NOHGGBFF@gfx?1hud?1w_icon_V?959_conc_na?4tga@ 300c9278     cg_main.obj
 0002:00017298       ??_C@_0BN@BBOBNEAK@gfx?1hud?1w_icon_sonic_det?4tga@ 300c9298     cg_main.obj
 0002:000172b8       ??_C@_0CA@EFEDJJLB@gfx?1hud?1w_icon_sonic_det_na?4tga@ 300c92b8     cg_main.obj
 0002:000172d8       ??_C@_0BM@HLIENAGH@gfx?1hud?1w_icon_StormiTD?4tga@ 300c92d8     cg_main.obj
 0002:000172f4       ??_C@_0BP@FMPIJBHL@gfx?1hud?1w_icon_StormiTD_na?4tga@ 300c92f4     cg_main.obj
 0002:00017314       ??_C@_0BG@EEEOHNMB@gfx?1hud?1w_icon_s5?4tga@ 300c9314     cg_main.obj
 0002:0001732c       ??_C@_0BJ@OBBFFJJM@gfx?1hud?1w_icon_s5_na?4tga@ 300c932c     cg_main.obj
 0002:00017348       ??_C@_0CB@PBAFDMKC@gfx?1hud?1w_icon_sc?910_holdout?4tg@ 300c9348     cg_main.obj
 0002:0001736c       ??_C@_0CE@KDOIMKAM@gfx?1hud?1w_icon_sc?910_holdout_na@ 300c936c     cg_main.obj
 0002:00017390       ??_C@_0BM@BLNJGDBO@gfx?1hud?1w_icon_gauntlet?4tga@ 300c9390     cg_main.obj
 0002:000173ac       ??_C@_0BP@NNOKBCPG@gfx?1hud?1w_icon_gauntlet_na?4tga@ 300c93ac     cg_main.obj
 0002:000173cc       ??_C@_0BK@EAEKOMHK@gfx?1hud?1w_icon_sbdarm?4tga@ 300c93cc     cg_main.obj
 0002:000173e8       ??_C@_0BN@EHCJDHCL@gfx?1hud?1w_icon_sbdarm_na?4tga@ 300c93e8     cg_main.obj
 0002:00017408       ??_C@_05KOPPDPO@?$CFs_na@  300c9408     cg_main.obj
 0002:00017410       ??_C@_0BA@BMAIBDM@com_buildscript@ 300c9410     cg_main.obj
 0002:00017420       ??_C@_0BK@DOBGMPNF@gfx?1hud?1w_icon_saberstaff@ 300c9420     cg_main.obj
 0002:0001743c       ??_C@_0BO@FFKCLDKB@gfx?1hud?1w_icon_duallightsaber@ 300c943c     cg_main.obj
 0002:0001745c       ??_C@_0BD@GDEFAJLE@gfx?1hud?1background@ 300c945c     cg_main.obj
 0002:00017470       ??_C@_0BF@KNDCBFPB@gfx?1hud?1background_f@ 300c9470     cg_main.obj
 0002:00017488       ??_C@_0BF@CKKKAJDO@gfx?1hud?1background_i@ 300c9488     cg_main.obj
 0002:000174a0       ??_C@_0BK@FEJEBBPL@gfx?1hud?1i_icon_poison?4tga@ 300c94a0     cg_main.obj
 0002:000174bc       ??_C@_0BH@MFLDDJOP@gfx?1hud?1i_icon_ice?4tga@ 300c94bc     cg_main.obj
 0002:000174d4       ??_C@_0BJ@GHOHKBLO@gfx?1hud?1i_icon_laser?4tga@ 300c94d4     cg_main.obj
 0002:000174f0       ??_C@_0BL@CNLGIIGA@gfx?1hud?1i_icon_orbital?4tga@ 300c94f0     cg_main.obj
 0002:0001750c       ??_C@_0BN@FKAFFOLI@gfx?1hud?1i_icon_rebellion?4tga@ 300c950c     cg_main.obj
 0002:0001752c       ??_C@_0BP@NHFONMCF@gfx?1hud?1i_icon_mercenaries?4tga@ 300c952c     cg_main.obj
 0002:0001754c       ??_C@_0BP@DLFBLMNN@gfx?1hud?1i_icon_confederacy?4tga@ 300c954c     cg_main.obj
 0002:0001756c       ??_C@_0BM@OAHJBIBL@gfx?1hud?1i_icon_republic?4tga@ 300c956c     cg_main.obj
 0002:00017588       ??_C@_0CA@PPHLGEOK@gfx?1hud?1i_icon_mandalorians?4tga@ 300c9588     cg_main.obj
 0002:000175a8       ??_C@_0BO@DKFKBIA@gfx?1hud?1i_icon_sithempire?4tga@ 300c95a8     cg_main.obj
 0002:000175c8       ??_C@_0BP@CDPOAMAJ@gfx?1hud?1i_icon_oldrepublic?4tga@ 300c95c8     cg_main.obj
 0002:000175e8       ??_C@_0BG@BLLMADBO@gfx?1mp?1f_icon_ragerec@ 300c95e8     cg_main.obj
 0002:00017600       ??_C@_0BJ@KJBKAEPO@gfx?1damage?1bodyburnmark1@ 300c9600     cg_main.obj
 0002:0001761c       ??_C@_0BJ@PPPMPMKG@gfx?1damage?1saberglowmark@ 300c961c     cg_main.obj
 0002:00017638       ??_C@_0BM@CCKANNO@gfx?1damage?1bodybigburnmark1@ 300c9638     cg_main.obj
 0002:00017654       ??_C@_0BM@EGCEFOFI@gfx?1effects?1saberDamageGlow@ 300c9654     cg_main.obj
 0002:00017670       ??_C@_09ELPBALBF@basejka?91@ 300c9670     cg_main.obj
 0002:0001767c       ??_C@_0CD@GOCPBDLD@Client?1Server?5game?5mismatch?3?5?$CFs@ 300c967c     cg_main.obj
 0002:000176a0       ??_C@_0CJ@BAJLPPAG@Unable?5to?5find?5map?5?$CFs?4?6Download@ 300c96a0     cg_main.obj
 0002:000176cc       ??_C@_04HCCHHEEF@rate@     300c96cc     cg_main.obj
 0002:000176d8       ??_C@_0GA@HJNJJPA@?$FO3WARNING?3?5Default?5?1rate?5value?5@ 300c96d8     cg_main.obj
 0002:00017738       ??_C@_03DFHDCPPK@die@      300c9738     cg_main.obj
 0002:00017740       __real@407e000000000000    300c9740     cg_main.obj
 0002:00017748       __real@4084000000000000    300c9748     cg_main.obj
 0002:00017750       __xmm@00000002000000020000000200000002 300c9750     cg_main.obj
 0002:00017760       ??_C@_08MEIODECE@explode1@ 300c9760     cg_marks.obj
 0002:0001776c       ??_C@_0BO@MGEBPFOO@CG_FreeMarkPoly?3?5?8le?8?5is?5NULL@ 300c976c     cg_marks.obj
 0002:0001778c       ??_C@_0CI@ECGFOJMD@CG_FreeMarkPoly?3?5?8le?9?$DOprevMark?8@ 300c978c     cg_marks.obj
 0002:000177b4       ??_C@_0CG@NBPMFGF@CG_ImpactMark?5called?5with?5?$DM?$DN?50?5@ 300c97b4     cg_marks.obj
 0002:000177dc       __real@3e6147ae            300c97dc     cg_marks.obj
 0002:000177e0       __real@3f7ff972            300c97e0     cg_marks.obj
 0002:000177e8       __real@4000000000000000    300c97e8     cg_marks.obj
 0002:000177f0       __real@4049000000000000    300c97f0     cg_marks.obj
 0002:000177f8       ??_C@_08BENANNLH@KILLEDBY@ 300c97f8     cg_newDraw.obj
 0002:00017804       ??_C@_08PPGKHGBD@?$CFs?5?$CFs?5?$CFi@ 300c9804     cg_newDraw.obj
 0002:00017810       ??_C@_06LGLENBHF@TIEDAT@   300c9810     cg_newDraw.obj
 0002:00017818       ??_C@_09GAPPNLAA@RED_LEADS@ 300c9818     cg_newDraw.obj
 0002:00017824       ??_C@_0M@HFOGODEL@?$CFs?0?5?$CFi?5?1?5?$CFi@ 300c9824     cg_newDraw.obj
 0002:00017830       ??_C@_0L@DPNLFBAA@BLUE_LEADS@ 300c9830     cg_newDraw.obj
 0002:0001783c       ??_C@_0M@PCGKGEOC@Cooperative@ 300c983c     cg_newDraw.obj
 0002:00017848       ??_C@_08JIDHMNC@teamMenu@  300c9848     cg_newDraw.obj
 0002:00017854       ??_C@_07LFFEFFPB@getMenu@  300c9854     cg_newDraw.obj
 0002:0001785c       ??_C@_07BFDNFMAL@?$CKdeath1@ 300c985c     cg_players.obj
 0002:00017864       ??_C@_07DOBAAPMI@?$CKdeath2@ 300c9864     cg_players.obj
 0002:0001786c       ??_C@_07CHALDOIJ@?$CKdeath3@ 300c986c     cg_players.obj
 0002:00017874       ??_C@_06MKODEFOM@?$CKjump1@ 300c9874     cg_players.obj
 0002:0001787c       ??_C@_07BHKODEJI@?$CKpain25@ 300c987c     cg_players.obj
 0002:00017884       ??_C@_07GPJGNGFI@?$CKpain50@ 300c9884     cg_players.obj
 0002:0001788c       ??_C@_07BBGFPGHD@?$CKpain75@ 300c988c     cg_players.obj
 0002:00017894       ??_C@_08DFPLOOLE@?$CKpain100@ 300c9894     cg_players.obj
 0002:000178a0       ??_C@_09IAAMPKDA@?$CKfalling1@ 300c98a0     cg_players.obj
 0002:000178ac       ??_C@_07NDJGBLKA@?$CKchoke1@ 300c98ac     cg_players.obj
 0002:000178b4       ??_C@_07PILLEIGD@?$CKchoke2@ 300c98b4     cg_players.obj
 0002:000178bc       ??_C@_07OBKAHJCC@?$CKchoke3@ 300c98bc     cg_players.obj
 0002:000178c4       ??_C@_05DJAKOMMI@?$CKgasp@ 300c98c4     cg_players.obj
 0002:000178cc       ??_C@_06IAEADDPB@?$CKland1@ 300c98cc     cg_players.obj
 0002:000178d4       ??_C@_06GIEEFNAP@?$CKtaunt@ 300c98d4     cg_players.obj
 0002:000178dc       ??_C@_08LNKGKNOM@?$CKpushed1@ 300c98dc     cg_players.obj
 0002:000178e8       ??_C@_08JGILPOCP@?$CKpushed2@ 300c98e8     cg_players.obj
 0002:000178f4       ??_C@_08IPJAMPGO@?$CKpushed3@ 300c98f4     cg_players.obj
 0002:00017900       ??_C@_07FLJGGAJD@?$CKanger1@ 300c9900     cg_players.obj
 0002:00017908       ??_C@_07HALLDDFA@?$CKanger2@ 300c9908     cg_players.obj
 0002:00017910       ??_C@_07GJKAACBB@?$CKanger3@ 300c9910     cg_players.obj
 0002:00017918       ??_C@_09GFNDMABG@?$CKvictory1@ 300c9918     cg_players.obj
 0002:00017924       ??_C@_09EOPOJDNF@?$CKvictory2@ 300c9924     cg_players.obj
 0002:00017930       ??_C@_09FHOFKCJE@?$CKvictory3@ 300c9930     cg_players.obj
 0002:0001793c       ??_C@_09ONPCLOKN@?$CKconfuse1@ 300c993c     cg_players.obj
 0002:00017948       ??_C@_09MGNPONGO@?$CKconfuse2@ 300c9948     cg_players.obj
 0002:00017954       ??_C@_09NPMENMCP@?$CKconfuse3@ 300c9954     cg_players.obj
 0002:00017960       ??_C@_07KAMDJNDO@?$CKffwarn@ 300c9960     cg_players.obj
 0002:00017968       ??_C@_07DIBICHCG@?$CKffturn@ 300c9968     cg_players.obj
 0002:00017970       ??_C@_07PJALNKLB@?$CKchase1@ 300c9970     cg_players.obj
 0002:00017978       ??_C@_07NCCGIJHC@?$CKchase2@ 300c9978     cg_players.obj
 0002:00017980       ??_C@_07MLDNLIDD@?$CKchase3@ 300c9980     cg_players.obj
 0002:00017988       ??_C@_07FKNFBMCN@?$CKcover1@ 300c9988     cg_players.obj
 0002:00017990       ??_C@_07HBPIEPOO@?$CKcover2@ 300c9990     cg_players.obj
 0002:00017998       ??_C@_07GIODHOKP@?$CKcover3@ 300c9998     cg_players.obj
 0002:000179a0       ??_C@_07CHKCOIGI@?$CKcover4@ 300c99a0     cg_players.obj
 0002:000179a8       ??_C@_07DOLJNJCJ@?$CKcover5@ 300c99a8     cg_players.obj
 0002:000179b0       ??_C@_0L@MIGOFNAN@?$CKdetected1@ 300c99b0     cg_players.obj
 0002:000179bc       ??_C@_0L@ODEDAOMO@?$CKdetected2@ 300c99bc     cg_players.obj
 0002:000179c8       ??_C@_0L@PKFIDPIP@?$CKdetected3@ 300c99c8     cg_players.obj
 0002:000179d4       ??_C@_0L@LFBJKJEI@?$CKdetected4@ 300c99d4     cg_players.obj
 0002:000179e0       ??_C@_0L@KMACJIAJ@?$CKdetected5@ 300c99e0     cg_players.obj
 0002:000179ec       ??_C@_06IBCFKBKC@?$CKlost1@ 300c99ec     cg_players.obj
 0002:000179f4       ??_C@_0L@CIKNJEAN@?$CKoutflank1@ 300c99f4     cg_players.obj
 0002:00017a00       ??_C@_0L@DIAMHMO@?$CKoutflank2@ 300c9a00     cg_players.obj
 0002:00017a0c       ??_C@_0L@LCDCALLH@?$CKescaping1@ 300c9a0c     cg_players.obj
 0002:00017a18       ??_C@_0L@JJBPFIHE@?$CKescaping2@ 300c9a18     cg_players.obj
 0002:00017a24       ??_C@_0L@IAAEGJDF@?$CKescaping3@ 300c9a24     cg_players.obj
 0002:00017a30       ??_C@_08IIMNGKFF@?$CKgiveup1@ 300c9a30     cg_players.obj
 0002:00017a3c       ??_C@_08KDOADJJG@?$CKgiveup2@ 300c9a3c     cg_players.obj
 0002:00017a48       ??_C@_08LKPLAINH@?$CKgiveup3@ 300c9a48     cg_players.obj
 0002:00017a54       ??_C@_08PFLKJOBA@?$CKgiveup4@ 300c9a54     cg_players.obj
 0002:00017a60       ??_C@_06IMJAKNMI@?$CKlook1@ 300c9a60     cg_players.obj
 0002:00017a68       ??_C@_06KHLNPOAL@?$CKlook2@ 300c9a68     cg_players.obj
 0002:00017a70       ??_C@_07EADFHJKD@?$CKsight1@ 300c9a70     cg_players.obj
 0002:00017a78       ??_C@_07GLBICKGA@?$CKsight2@ 300c9a78     cg_players.obj
 0002:00017a80       ??_C@_07HCADBLCB@?$CKsight3@ 300c9a80     cg_players.obj
 0002:00017a88       ??_C@_07LFABKCPA@?$CKsound1@ 300c9a88     cg_players.obj
 0002:00017a90       ??_C@_07JOCMPBDD@?$CKsound2@ 300c9a90     cg_players.obj
 0002:00017a98       ??_C@_07IHDHMAHC@?$CKsound3@ 300c9a98     cg_players.obj
 0002:00017aa0       ??_C@_0N@MFLOBGKG@?$CKsuspicious1@ 300c9aa0     cg_players.obj
 0002:00017ab0       ??_C@_0N@OOJDEFGF@?$CKsuspicious2@ 300c9ab0     cg_players.obj
 0002:00017ac0       ??_C@_0N@PHIIHECE@?$CKsuspicious3@ 300c9ac0     cg_players.obj
 0002:00017ad0       ??_C@_0N@LIMJOCOD@?$CKsuspicious4@ 300c9ad0     cg_players.obj
 0002:00017ae0       ??_C@_0N@KBNCNDKC@?$CKsuspicious5@ 300c9ae0     cg_players.obj
 0002:00017af0       ??_C@_08GMBEBHMJ@?$CKcombat1@ 300c9af0     cg_players.obj
 0002:00017afc       ??_C@_08EHDJEEAK@?$CKcombat2@ 300c9afc     cg_players.obj
 0002:00017b08       ??_C@_08FOCCHFEL@?$CKcombat3@ 300c9b08     cg_players.obj
 0002:00017b14       ??_C@_0M@PMHCAAPI@?$CKjdetected1@ 300c9b14     cg_players.obj
 0002:00017b20       ??_C@_0M@NHFPFDDL@?$CKjdetected2@ 300c9b20     cg_players.obj
 0002:00017b2c       ??_C@_0M@MOEEGCHK@?$CKjdetected3@ 300c9b2c     cg_players.obj
 0002:00017b38       ??_C@_07FGIKFOHO@?$CKtaunt1@ 300c9b38     cg_players.obj
 0002:00017b40       ??_C@_07HNKHANLN@?$CKtaunt2@ 300c9b40     cg_players.obj
 0002:00017b48       ??_C@_07GELMDMPM@?$CKtaunt3@ 300c9b48     cg_players.obj
 0002:00017b50       ??_C@_08EEGCNLKG@?$CKjchase1@ 300c9b50     cg_players.obj
 0002:00017b5c       ??_C@_08GPEPIIGF@?$CKjchase2@ 300c9b5c     cg_players.obj
 0002:00017b68       ??_C@_08HGFELJCE@?$CKjchase3@ 300c9b68     cg_players.obj
 0002:00017b74       ??_C@_07FFNGKKFC@?$CKjlost1@ 300c9b74     cg_players.obj
 0002:00017b7c       ??_C@_07HOPLPJJB@?$CKjlost2@ 300c9b7c     cg_players.obj
 0002:00017b84       ??_C@_07GHOAMINA@?$CKjlost3@ 300c9b84     cg_players.obj
 0002:00017b8c       ??_C@_09KHDKKLPH@?$CKdeflect1@ 300c9b8c     cg_players.obj
 0002:00017b98       ??_C@_09IMBHPIDE@?$CKdeflect2@ 300c9b98     cg_players.obj
 0002:00017ba4       ??_C@_09JFAMMJHF@?$CKdeflect3@ 300c9ba4     cg_players.obj
 0002:00017bb0       ??_C@_07MOBBFEIG@?$CKgloat1@ 300c9bb0     cg_players.obj
 0002:00017bb8       ??_C@_07OFDMAHEF@?$CKgloat2@ 300c9bb8     cg_players.obj
 0002:00017bc0       ??_C@_07PMCHDGAE@?$CKgloat3@ 300c9bc0     cg_players.obj
 0002:00017bc8       ??_C@_09HCJINJLP@?$CKpushfail@ 300c9bc8     cg_players.obj
 0002:00017bd4       ??_C@_09PNKHLONK@AEV_SOUND@ 300c9bd4     cg_players.obj
 0002:00017be0       ??_C@_0N@GPBLCBDN@AEV_FOOTSTEP@ 300c9be0     cg_players.obj
 0002:00017bf0       ??_C@_0L@GOCDIAMO@AEV_EFFECT@ 300c9bf0     cg_players.obj
 0002:00017bfc       ??_C@_08NPCGKNPD@AEV_FIRE@ 300c9bfc     cg_players.obj
 0002:00017c08       ??_C@_08IKJEGLOC@AEV_MOVE@ 300c9c08     cg_players.obj
 0002:00017c14       ??_C@_0O@PKDCPJFP@AEV_SOUNDCHAN@ 300c9c14     cg_players.obj
 0002:00017c24       ??_C@_0BA@CIODMBIG@AEV_SABER_SWING@ 300c9c24     cg_players.obj
 0002:00017c34       ??_C@_0P@JEBGPELC@AEV_SABER_SPIN@ 300c9c34     cg_players.obj
 0002:00017c44       ??_C@_0M@EOJDNIAK@AEV_AMBIENT@ 300c9c44     cg_players.obj
 0002:00017c50       ??_C@_0L@CECCMHHD@FOOTSTEP_R@ 300c9c50     cg_players.obj
 0002:00017c5c       ??_C@_0L@PAGDPIKM@FOOTSTEP_L@ 300c9c5c     cg_players.obj
 0002:00017c68       ??_C@_0BB@DCILEAMB@FOOTSTEP_HEAVY_R@ 300c9c68     cg_players.obj
 0002:00017c7c       ??_C@_0BB@OGMKHPBO@FOOTSTEP_HEAVY_L@ 300c9c7c     cg_players.obj
 0002:00017c90       ??_C@_06KFNDIJM@rtalus@    300c9c90     cg_players.obj
 0002:00017c98       ??_C@_06DNLMNPAP@ltalus@   300c9c98     cg_players.obj
 0002:00017ca0       ??_C@_08BPGGEBNG@lradiusX@ 300c9ca0     cg_players.obj
 0002:00017cac       ??_C@_07NMKDNJHN@rfemurX@  300c9cac     cg_players.obj
 0002:00017cb4       ??_C@_07LFJCPKGE@lfemurX@  300c9cb4     cg_players.obj
 0002:00017cc0       ??_C@_0FB@MCGFNKCO@ParseAnimationEvtBlock?3?5number?5@ 300c9cc0     cg_players.obj
 0002:00017d14       ??_C@_0BB@EAIMOIAK@CHAN_VOICE_ATTEN@ 300c9d14     cg_players.obj
 0002:00017d28       ??_C@_0BC@LBLHAJCE@CHAN_VOICE_GLOBAL@ 300c9d28     cg_players.obj
 0002:00017d3c       ??_C@_0P@PGMEJIPP@CHAN_ANNOUNCER@ 300c9d3c     cg_players.obj
 0002:00017d4c       ??_C@_09PNMHHMAD@CHAN_BODY@ 300c9d4c     cg_players.obj
 0002:00017d58       ??_C@_0M@EGDHGLJA@CHAN_WEAPON@ 300c9d58     cg_players.obj
 0002:00017d64       ??_C@_0L@GPGGJDHA@CHAN_VOICE@ 300c9d64     cg_players.obj
 0002:00017d70       ??_C@_0DC@LINDEPHM@?$FO3WARNING?3?5Unknown?5token?5?$CFs?5in?5@ 300c9d70     cg_players.obj
 0002:00017da4       ??_C@_0DO@HMMANOI@?$FO3WARNING?3?5?$CFs?5animevents?4cfg?3?5a@ 300c9da4     cg_players.obj
 0002:00017de8       ??_C@_0EB@NPKNEELF@Memory?5allocation?5for?5animEvent@ 300c9de8     cg_players.obj
 0002:00017e2c       ??_C@_0BN@MFOGPCAH@sound?1weapons?1saber?1saberhup@ 300c9e2c     cg_players.obj
 0002:00017e4c       ??_C@_0BO@FGMGPLCG@sound?1weapons?1saber?1saberspin@ 300c9e4c     cg_players.obj
 0002:00017e6c       ??_C@_0BB@DEPPJPMH@?$CFsanimevents?4cfg@ 300c9e6c     cg_players.obj
 0002:00017e80       ??_C@_0EB@NMHMDBFM@Error?3?5Could?5not?5allocate?5memor@ 300c9e80     cg_players.obj
 0002:00017ec4       ??_C@_0BC@NFDFKMPA@File?5?$CFs?5too?5long?6@ 300c9ec4     cg_players.obj
 0002:00017ed8       ??_C@_07FHOHOHLG@include@  300c9ed8     cg_players.obj
 0002:00017ee0       ??_C@_0BD@MMOHBCGG@models?1players?1?$CFs?1@ 300c9ee0     cg_players.obj
 0002:00017ef4       ??_C@_0M@LPEBDMOL@UPPEREVENTS@ 300c9ef4     cg_players.obj
 0002:00017f00       ??_C@_0M@PBCCMAPC@LOWEREVENTS@ 300c9f00     cg_players.obj
 0002:00017f0c       ??_C@_0CA@ILAKKBMK@models?1players?1?$CFs?1model_?$CFs?4surf@ 300c9f0c     cg_players.obj
 0002:00017f2c       ??_C@_0CP@NGDECCFP@Memory?5allocation?5failed?5in?5CG_@ 300c9f2c     cg_players.obj
 0002:00017f5c       ??_C@_07OKEAFEJG@surfOff@  300c9f5c     cg_players.obj
 0002:00017f64       ??_C@_01IHBHIGKO@?0@       300c9f64     cg_players.obj
 0002:00017f68       ??_C@_06PJBLOBOB@surfOn@   300c9f68     cg_players.obj
 0002:00017f70       ??_C@_0HG@JDBGMCOG@WARNING?3?5Attempted?5to?5load?5an?5u@ 300c9f70     cg_players.obj
 0002:00017fe8       ??_C@_05IPJEPLHL@lower@    300c9fe8     cg_players.obj
 0002:00017ff0       ??_C@_0BG@BBLNABEM@models?1players?1?$CFs?1?$HM?$CFs@ 300c9ff0     cg_players.obj
 0002:00018008       ??_C@_0CF@FIHHFCC@models?1players?1?$CFs?1model_default@ 300ca008     cg_players.obj
 0002:00018030       ??_C@_0P@BNFHKDFH@?1animation?4cfg@ 300ca030     cg_players.obj
 0002:00018040       ??_C@_0CH@JMNIMDPG@models?1players?1_humanoid?1animat@ 300ca040     cg_players.obj
 0002:00018068       ??_C@_0DA@JJDBLPFJ@Model?5does?5not?5use?5supported?5an@ 300ca068     cg_players.obj
 0002:00018098       ??_C@_0EG@ONAEEHHL@Failed?5to?5load?5animation?5file?5m@ 300ca098     cg_players.obj
 0002:000180e0       ??_C@_0BK@HAPHLECL@models?1players?1_humanoid?1@ 300ca0e0     cg_players.obj
 0002:000180fc       ??_C@_07CKKFCGNI@?$CKl_hand@ 300ca0fc     cg_players.obj
 0002:00018104       ??_C@_07PNIOEPOE@?$CKchestg@ 300ca104     cg_players.obj
 0002:0001810c       ??_C@_0BC@BGMHBOJP@?$CKl_hand_cap_l_arm@ 300ca10c     cg_players.obj
 0002:00018120       ??_C@_09LHLEBJNE@?$CKhead_top@ 300ca120     cg_players.obj
 0002:0001812c       ??_C@_08MEOLNMOI@ceyebrow@ 300ca12c     cg_players.obj
 0002:00018138       ??_C@_06EMGELNAF@Motion@   300ca138     cg_players.obj
 0002:00018140       ??_C@_0P@CCBJNGIA@?$CKholster_saber@ 300ca140     cg_players.obj
 0002:00018150       ??_C@_0BA@OKMOIH@?$CKholster_saber2@ 300ca150     cg_players.obj
 0002:00018160       ??_C@_0P@LEEEAIJA@?$CKholster_staff@ 300ca160     cg_players.obj
 0002:00018170       ??_C@_0BB@JKLPMACJ@?$CKholster_blaster@ 300ca170     cg_players.obj
 0002:00018184       ??_C@_0BC@KPFIHDNN@?$CKholster_blaster2@ 300ca184     cg_players.obj
 0002:00018198       ??_C@_0P@EMPKKNO@?$CKholster_golan@ 300ca198     cg_players.obj
 0002:000181a8       ??_C@_0BC@BJPMHNLJ@?$CKholster_launcher@ 300ca1a8     cg_players.obj
 0002:000181bc       ??_C@_08GPPOHBLB@rfemurYZ@ 300ca1bc     cg_players.obj
 0002:000181c8       ??_C@_08LPMOIFC@lfemurYZ@  300ca1c8     cg_players.obj
 0002:000181d4       ??_C@_09KELKOKG@boba_fett@ 300ca1d4     cg_players.obj
 0002:000181e0       ??_C@_0L@FEAFNKGA@torso_rjet@ 300ca1e0     cg_players.obj
 0002:000181ec       ??_C@_0L@JIFGEFC@torso_cjet@ 300ca1ec     cg_players.obj
 0002:000181f8       ??_C@_0L@ILNFPDID@torso_ljet@ 300ca1f8     cg_players.obj
 0002:00018204       ??_C@_0BK@DLHLILP@models?1players?1?$CFs?1icon_?$CFs@ 300ca204     cg_players.obj
 0002:00018220       ??_C@_05KDHLENLH@icon_@    300ca220     cg_players.obj
 0002:00018228       ??_C@_0BF@PKIKNPLA@models?1players?1?$CFs?1?$CFs@ 300ca228     cg_players.obj
 0002:00018240       ??_C@_0BN@CHNFAMLI@models?1players?1?$CFs?1sounds?4cfg@ 300ca240     cg_players.obj
 0002:00018260       ??_C@_0CF@NEPCHIHA@models?1players?1?$CFs?1sounds_defaul@ 300ca260     cg_players.obj
 0002:00018288       ??_C@_0CA@JPONKMJK@models?1players?1?$CFs?1sounds_?$CFs?4cfg@ 300ca288     cg_players.obj
 0002:000182a8       ??_C@_0BH@FNMNDJNM@sound?1chars?1?$CFs?1misc?1?$CFs@ 300ca2a8     cg_players.obj
 0002:000182c0       ??_C@_0BN@JCOIBIKF@chars?1mp_generic_female?1misc@ 300ca2c0     cg_players.obj
 0002:000182e0       ??_C@_0M@NGJBOEHI@sound?1?$CFs?1?$CFs@ 300ca2e0     cg_players.obj
 0002:000182ec       ??_C@_0BL@JMBOPOOA@chars?1mp_generic_male?1misc@ 300ca2ec     cg_players.obj
 0002:00018308       ??_C@_03DIELNALK@jan@      300ca308     cg_players.obj
 0002:0001830c       ??_C@_01KMDKNFGN@?1@       300ca30c     cg_players.obj
 0002:00018310       ??_C@_0CG@NFMPGJHJ@DEFAULT_MODEL?5?$CI?$CFs?$CJ?5failed?5to?5re@ 300ca310     cg_players.obj
 0002:00018338       ??_C@_0DA@IABNNPOG@DEFAULT_MODEL?5?1?5skin?5?$CI?$CFs?1?$CFs?$CJ?5fa@ 300ca338     cg_players.obj
 0002:00018368       ??_C@_04POCOPAPC@face@     300ca368     cg_players.obj
 0002:00018370       ??_C@_08BPBKIHMF@tag_flag@ 300ca370     cg_players.obj
 0002:0001837c       ??_C@_02IMHCFECG@c1@       300ca37c     cg_players.obj
 0002:00018380       ??_C@_02KHFPAHOF@c2@       300ca380     cg_players.obj
 0002:00018384       ??_C@_05ODMCMJAJ@skill@    300ca384     cg_players.obj
 0002:0001838c       ??_C@_02IKKIEBB@hc@        300ca38c     cg_players.obj
 0002:00018390       ??_C@_01NOFIACDB@w@        300ca390     cg_players.obj
 0002:00018394       ??_C@_01HHGOMJKL@l@        300ca394     cg_players.obj
 0002:00018398       ??_C@_01PFHFFBPC@t@        300ca398     cg_players.obj
 0002:0001839c       ??_C@_07EHHPJLF@ui_team@   300ca39c     cg_players.obj
 0002:000183a4       ??_C@_02ELHCGPCE@ds@       300ca3a4     cg_players.obj
 0002:000183a8       ??_C@_03LGCKGFOD@tc1@      300ca3a8     cg_players.obj
 0002:000183ac       ??_C@_03JNAHDGCA@tc2@      300ca3ac     cg_players.obj
 0002:000183b0       ??_C@_03DHNLPOCK@ss1@      300ca3b0     cg_players.obj
 0002:000183b4       ??_C@_0BL@CIMOGGPG@?3255?00?0255?3500?30?00?0255?3500@ 300ca3b4     cg_players.obj
 0002:000183d0       ??_C@_03BMPGKNOJ@ss2@      300ca3d0     cg_players.obj
 0002:000183d4       ??_C@_0BL@MDKOGEH@?30?0255?0255?3500?30?00?0255?3500@ 300ca3d4     cg_players.obj
 0002:000183f0       ??_C@_02BIBFFKJD@tt@       300ca3f0     cg_players.obj
 0002:000183f4       ??_C@_02JKAOMCMK@tl@       300ca3f4     cg_players.obj
 0002:000183f8       ??_C@_03KDLMPAJP@sdt@      300ca3f8     cg_players.obj
 0002:000183fc       ??_C@_02BNFKEMBG@st@       300ca3fc     cg_players.obj
 0002:00018400       ??_C@_03BJLJLLGM@st2@      300ca400     cg_players.obj
 0002:00018404       ??_C@_02EDDPJOD@dt@        300ca404     cg_players.obj
 0002:00018408       ??_C@_0M@HEAHHNIP@?$CKr_leg_foot@ 300ca408     cg_players.obj
 0002:00018414       ??_C@_0M@IIIHJCEC@?$CKl_leg_foot@ 300ca414     cg_players.obj
 0002:00018420       ??_C@_0CF@NMGCPJNB@sound?1weapons?1saber?1saberspinof@ 300ca420     cg_players.obj
 0002:00018448       ??_C@_0CC@JLAJJOPN@sound?1weapons?1saber?1saberspin?4w@ 300ca448     cg_players.obj
 0002:0001846c       ??_C@_0CD@BBGKPJAN@sound?1weapons?1saber?1saberspin1?4@ 300ca46c     cg_players.obj
 0002:00018490       ??_C@_0CD@JHPOILKD@sound?1weapons?1saber?1saberspin2?4@ 300ca490     cg_players.obj
 0002:000184b4       ??_C@_0CD@FMKCFIAG@sound?1weapons?1saber?1saberspin3?4@ 300ca4b4     cg_players.obj
 0002:000184d8       ??_C@_0CE@GDIPEJOP@sound?1weapons?1saber?1saberspin?$CFd@ 300ca4d8     cg_players.obj
 0002:000184fc       ??_C@_06MEGOBODG@?$CKblade@ 300ca4fc     cg_players.obj
 0002:00018508       ??_C@_0FA@CELEIPLF@ERROR?3?5CG_PlayerAnimEvents?$CI?$CJ?5tr@ 300ca508     cg_players.obj
 0002:00018558       ??_C@_0DN@MAELLKKL@ERROR?3?5No?5eventType?5for?5animeve@ 300ca558     cg_players.obj
 0002:00018598       ??_C@_0BJ@OHDPKGG@Bad?5animation?5number?3?5?$CFi@ 300ca598     cg_players.obj
 0002:000185b4       ??_C@_0BN@MKPFOCIE@?$CFd?3?5?$CFd?5TORSO?5Anim?3?5?$CFi?0?5?8?$CFs?8?6@ 300ca5b4     cg_players.obj
 0002:000185d4       ??_C@_0BM@FOJNPCCA@?$CFd?3?5?$CFd?5LEGS?5Anim?3?5?$CFi?0?5?8?$CFs?8?6@ 300ca5d4     cg_players.obj
 0002:000185f0       ??_C@_08HLGENIDF@rradiusX@ 300ca5f0     cg_players.obj
 0002:000185fc       ??_C@_09KELMCPPM@rhumerusX@ 300ca5fc     cg_players.obj
 0002:00018608       ??_C@_08IFLEIKA@rhumerus@  300ca608     cg_players.obj
 0002:00018614       ??_C@_04PFJNHAEB@reye@     300ca614     cg_players.obj
 0002:0001861c       ??_C@_04CKENFJKC@leye@     300ca61c     cg_players.obj
 0002:00018624       ??_C@_0BC@GCOANANI@effects?1refract_2@ 300ca624     cg_players.obj
 0002:00018638       ??_C@_06CKEMEABK@?$CFs?1?$HM?$CFs@ 300ca638     cg_players.obj
 0002:00018640       ??_C@_0BB@HCAEDMI@?$CFs?1model_?$CFs?4skin@ 300ca640     cg_players.obj
 0002:00018654       ??_C@_0BJ@OHOJGDLI@sound?1weapons?1noammo?4wav@ 300ca654     cg_players.obj
 0002:00018670       ??_C@_0L@JEAMIDKG@?$CKdroidunit@ 300ca670     cg_players.obj
 0002:0001867c       ??_C@_0L@CJEIKOKF@?$CKexhaust?$CFi@ 300ca67c     cg_players.obj
 0002:00018688       ??_C@_09DFLEJFMN@?$CKmuzzle?$CFi@ 300ca688     cg_players.obj
 0002:00018694       ??_C@_08FNEKKBCI@?$CKflash?$CFi@ 300ca694     cg_players.obj
 0002:000186a0       ??_C@_0O@BKEPGGED@?$CKr_wingdamage@ 300ca6a0     cg_players.obj
 0002:000186b0       ??_C@_0O@FEKOMMCJ@?$CKl_wingdamage@ 300ca6b0     cg_players.obj
 0002:000186c0       ??_C@_0M@ODMGMNB@?$CKnosedamage@ 300ca6c0     cg_players.obj
 0002:000186cc       ??_C@_09ILKHDDNA@?$CKexhaust1@ 300ca6cc     cg_players.obj
 0002:000186d8       ??_C@_0CF@FECOKLKD@Bad?5modelPath?5passed?5to?5FindGen@ 300ca6d8     cg_players.obj
 0002:00018700       ??_C@_0O@PBKKAPLB@?$CFs?1sounds?4cfg@ 300ca700     cg_players.obj
 0002:00018710       ??_C@_0DC@CEKFOBIF@FindGender?5Error?3?5Couldnt?5find?5@ 300ca710     cg_players.obj
 0002:00018744       ??_C@_0N@HHJGGMON@?$CKl_arm_elbow@ 300ca744     cg_players.obj
 0002:00018754       ??_C@_0N@JCLPFCAP@?$CKr_arm_elbow@ 300ca754     cg_players.obj
 0002:00018764       ??_C@_0N@BNEPHBPB@?$CKhips_l_knee@ 300ca764     cg_players.obj
 0002:00018774       ??_C@_0N@CKKOJGGC@?$CKhips_r_knee@ 300ca774     cg_players.obj
 0002:00018784       ??_C@_09BKJBOOKM@?$CKbicep_lg@ 300ca784     cg_players.obj
 0002:00018790       ??_C@_09MCJGANG@?$CKbicep_rg@ 300ca790     cg_players.obj
 0002:0001879c       ??_C@_07LFHEGECL@?$CKhand_l@ 300ca79c     cg_players.obj
 0002:000187a4       ??_C@_07PEAFBKBB@?$CKweapon@ 300ca7a4     cg_players.obj
 0002:000187ac       ??_C@_09LAMJPHMP@?$CKthigh_lg@ 300ca7ac     cg_players.obj
 0002:000187b8       ??_C@_09KGHBHJLF@?$CKthigh_rg@ 300ca7b8     cg_players.obj
 0002:000187c4       ??_C@_08GILMFNAM@?$CKfoot_lg@ 300ca7c4     cg_players.obj
 0002:000187d0       ??_C@_08HOAENDHG@?$CKfoot_rg@ 300ca7d0     cg_players.obj
 0002:000187dc       ??_C@_0CC@JOOHECEC@models?1weapons2?1jetpack?1model?4g@ 300ca7dc     cg_players.obj
 0002:00018800       ??_C@_0CH@JJACFCPJ@models?1weapons2?1jetpack_blue?1mo@ 300ca800     cg_players.obj
 0002:00018828       ??_C@_0CE@BEPFNHFM@models?1weapons2?1b_jetpack?1model@ 300ca828     cg_players.obj
 0002:0001884c       ??_C@_0CI@GGHOBEFP@models?1weapons2?1jetpack_metal?1m@ 300ca84c     cg_players.obj
 0002:00018874       ??_C@_0CI@GNCNIBIO@models?1weapons2?1jetpack_white?1m@ 300ca874     cg_players.obj
 0002:0001889c       ??_C@_0BP@HCDPIBJM@models?1weapons2?1jetc?1model?4glm@ 300ca89c     cg_players.obj
 0002:000188bc       ??_C@_0CD@GAHEAJNK@models?1weapons2?1spacejet?1model?4@ 300ca8bc     cg_players.obj
 0002:000188e0       ??_C@_0CE@BMEEKBDB@models?1weapons2?1spacejetw?1model@ 300ca8e0     cg_players.obj
 0002:00018904       ??_C@_0CC@ILDMIJKG@models?1weapons2?1noweap?1noweap?4g@ 300ca904     cg_players.obj
 0002:00018928       ??_C@_08EEKJBGNE@?$CKtrail?$CFd@ 300ca928     cg_players.obj
 0002:00018934       ??_C@_0DD@NEOCHPPA@Error?3?5?5Bad?5rotType?5?$CFi?5given?5to@ 300ca934     cg_players.obj
 0002:00018968       ??_C@_0EE@LCPDMCFD@Unknown?5weaponType?5for?5holsterT@ 300ca968     cg_players.obj
 0002:000189b0       ??_C@_0EC@PIMBHDMP@Unknown?5offsetBolt?5for?5boneInde@ 300ca9b0     cg_players.obj
 0002:000189f4       ??_C@_0BP@EEHJJPLA@Bad?5clientNum?5on?5player?5entity@ 300ca9f4     cg_players.obj
 0002:00018a14       ??_C@_05KCNFNHOP@?$CKjet1@ 300caa14     cg_players.obj
 0002:00018a1c       ??_C@_05IJPIIECM@?$CKjet2@ 300caa1c     cg_players.obj
 0002:00018a24       ??_C@_0BH@GDOELEIF@rockettrooper?1flameNEW@ 300caa24     cg_players.obj
 0002:00018a3c       ??_C@_0BK@LODACALO@sound?1chars?1boba?1jethover@ 300caa3c     cg_players.obj
 0002:00018a58       ??_C@_0BG@ECFPMGGA@sound?1effects?1fire_lp@ 300caa58     cg_players.obj
 0002:00018a70       ??_C@_0BE@ONCAFADF@sound?1boba?1JETHOVER@ 300caa70     cg_players.obj
 0002:00018a84       ??_C@_0L@LHAEFPAL@?$CKhead_eyes@ 300caa84     cg_players.obj
 0002:00018a90       ??_C@_0M@FGDBPCNN@?$CKhead_front@ 300caa90     cg_players.obj
 0002:00018aa0       ??_C@_0GO@DNMEGDJE@WARNING?3?5?5This?5Model?5seems?5to?5h@ 300caaa0     cg_players.obj
 0002:00018b10       ??_C@_0BO@ONFNHDOG@sound?1weapons?1force?1sever?4wav@ 300cab10     cg_players.obj
 0002:00018b30       ??_C@_0CC@KPLLOOKF@sound?1weapons?1force?1judgement?4w@ 300cab30     cg_players.obj
 0002:00018b54       ??_C@_0CC@LOKOCPGN@sound?1weapons?1force?1lightning?4w@ 300cab54     cg_players.obj
 0002:00018b78       ??_C@_0BN@PLJLAFDF@sound?1weapons?1baton?1idle?4wav@ 300cab78     cg_players.obj
 0002:00018b98       ??_C@_0CF@LJNBJIDP@sound?1movers?1doors?1forcefield_l@ 300cab98     cg_players.obj
 0002:00018bc0       ??_C@_0CB@NNJAIGPH@sound?1weapons?1overchargeloop?4wa@ 300cabc0     cg_players.obj
 0002:00018be4       ??_C@_0BN@FKDGBGEH@?$CFi?5ResetPlayerEntity?5yaw?$DN?$CFi?6@ 300cabe4     cg_players.obj
 0002:00018c04       __real@3b83126f            300cac04     cg_players.obj
 0002:00018c08       __real@3cf5c28f            300cac08     cg_players.obj
 0002:00018c0c       __real@3d99999a            300cac0c     cg_players.obj
 0002:00018c10       __real@3ef9db23            300cac10     cg_players.obj
 0002:00018c14       __real@3f28f5c3            300cac14     cg_players.obj
 0002:00018c18       __real@3f70624dd2f1a9fc    300cac18     cg_players.obj
 0002:00018c20       __real@3f70a3d7            300cac20     cg_players.obj
 0002:00018c24       __real@3f733333            300cac24     cg_players.obj
 0002:00018c28       __real@3f91eb85            300cac28     cg_players.obj
 0002:00018c2c       __real@3fa66666            300cac2c     cg_players.obj
 0002:00018c30       __real@3fb33333            300cac30     cg_players.obj
 0002:00018c34       __real@3fd9999a            300cac34     cg_players.obj
 0002:00018c38       __real@3ff921fb60000000    300cac38     cg_players.obj
 0002:00018c40       __real@4022000000000000    300cac40     cg_players.obj
 0002:00018c48       __real@4039999a            300cac48     cg_players.obj
 0002:00018c50       __real@4060000000000000    300cac50     cg_players.obj
 0002:00018c58       __real@40b00000            300cac58     cg_players.obj
 0002:00018c5c       __real@40c90fdb            300cac5c     cg_players.obj
 0002:00018c60       __real@41180000            300cac60     cg_players.obj
 0002:00018c64       __real@41280000            300cac64     cg_players.obj
 0002:00018c68       __real@41580000            300cac68     cg_players.obj
 0002:00018c6c       __real@41840000            300cac6c     cg_players.obj
 0002:00018c70       __real@418c0000            300cac70     cg_players.obj
 0002:00018c74       __real@42280000            300cac74     cg_players.obj
 0002:00018c78       __real@425c0000            300cac78     cg_players.obj
 0002:00018c7c       __real@43570000            300cac7c     cg_players.obj
 0002:00018c80       __real@43740000            300cac80     cg_players.obj
 0002:00018c84       __real@4ab71b00            300cac84     cg_players.obj
 0002:00018c88       __real@4cbebc20            300cac88     cg_players.obj
 0002:00018c8c       __real@c25c0000            300cac8c     cg_players.obj
 0002:00018c90       __xmm@0000000000000000000000003f800000 300cac90     cg_players.obj
 0002:00018ca0       __xmm@000000000000000040c0000040c00000 300caca0     cg_players.obj
 0002:00018cb0       __xmm@000000003f8000000000000000000000 300cacb0     cg_players.obj
 0002:00018cc0       __xmm@00000000408000000000000000000000 300cacc0     cg_players.obj
 0002:00018cd0       __xmm@00000000408000000000000040800000 300cacd0     cg_players.obj
 0002:00018ce0       __xmm@00000000437f0000000000003f800000 300cace0     cg_players.obj
 0002:00018cf0       __xmm@3f800000000000000000000000000000 300cacf0     cg_players.obj
 0002:00018d00       __xmm@3f80000000000000408000003fc00000 300cad00     cg_players.obj
 0002:00018d10       __xmm@3f8000003f800000000000003f000000 300cad10     cg_players.obj
 0002:00018d20       __xmm@3f8000003f8000003f80000000000000 300cad20     cg_players.obj
 0002:00018d30       __xmm@40800000408000004080000000000000 300cad30     cg_players.obj
 0002:00018d40       __xmm@40800000408000004080000040800000 300cad40     cg_players.obj
 0002:00018d50       __xmm@80000000000000008000000000000000 300cad50     cg_players.obj
 0002:00018d60       ??_C@_0CE@JCAHPAJ@exceeded?5PACKET_BACKUP?5on?5comma@ 300cad60     cg_predict.obj
 0002:00018d84       ??_C@_02NCPIBIBE@33@       300cad84     cg_predict.obj
 0002:00018d88       ??_C@_0BI@BEHCKC@VEH?5PredictionTeleport?6@ 300cad88     cg_predict.obj
 0002:00018da0       ??_C@_0BG@EBLEHBAE@VEH?5prediction?5error?6@ 300cada0     cg_predict.obj
 0002:00018db8       ??_C@_0BJ@HCFMGHKL@VEH?5Prediction?5miss?3?5?$CFf?6@ 300cadb8     cg_predict.obj
 0002:00018dd4       ??_C@_0CB@NOHEDLOG@VEH?5Double?5prediction?5decay?3?5?$CFf@ 300cadd4     cg_predict.obj
 0002:00018df8       ??_C@_0BN@PFOHEJFJ@VEH?5orient?5prediction?5error?6@ 300cadf8     cg_predict.obj
 0002:00018e18       ??_C@_0BP@EMNHCEKM@VEH?5pitch?5prediction?5miss?3?5?$CFf?6@ 300cae18     cg_predict.obj
 0002:00018e38       ??_C@_0BN@FDMMHJCM@VEH?5yaw?5prediction?5miss?3?5?$CFf?6@ 300cae38     cg_predict.obj
 0002:00018e58       ??_C@_0BO@EJDICJHE@VEH?5roll?5prediction?5miss?3?5?$CFf?6@ 300cae58     cg_predict.obj
 0002:00018e78       ??_C@_0BE@DPKKIGLP@PredictionTeleport?6@ 300cae78     cg_predict.obj
 0002:00018e8c       ??_C@_0BC@GIKLPGML@prediction?5error?6@ 300cae8c     cg_predict.obj
 0002:00018ea0       ??_C@_0BF@BBGFLFIG@Prediction?5miss?3?5?$CFf?6@ 300caea0     cg_predict.obj
 0002:00018eb8       ??_C@_0BN@HNLMAFPF@Double?5prediction?5decay?3?5?$CFf?6@ 300caeb8     cg_predict.obj
 0002:00018ed8       ??_C@_0L@NKHFPHNI@?$FL?$CFi?5?3?5?$CFi?$FN?5@ 300caed8     cg_predict.obj
 0002:00018ee4       ??_C@_0L@DOJHFFNN@not?5moved?6@ 300caee4     cg_predict.obj
 0002:00018ef0       ??_C@_0BI@ELMKHMCD@WARNING?3?5dropped?5event?6@ 300caef0     cg_predict.obj
 0002:00018f08       ??_C@_0BH@JOJLKMBP@WARNING?3?5double?5event?6@ 300caf08     cg_predict.obj
 0002:00018f20       __real@4be6ca08            300caf20     cg_predict.obj
 0002:00018f24       ??_C@_0N@EKFFDIFK@ui_siegeInfo@ 300caf24     cg_saga.obj
 0002:00018f34       ??_C@_02BBAHNLBA@?$CFp@    300caf34     cg_saga.obj
 0002:00018f38       ??_C@_09DOINKFHP@?7?$CFs?5?$CC?$CFs?$CC?6@ 300caf38     cg_saga.obj
 0002:00018f44       ??_C@_0BA@MGGJEBOG@?$CFd?5total?5cvars?6@ 300caf44     cg_saga.obj
 0002:00018f54       ??_C@_0CG@DGOPCHAC@Siege?5data?5does?5not?5exist?5on?5cl@ 300caf54     cg_saga.obj
 0002:00018f80       ??_C@_0EE@EJLFNFJA@Memory?5allocation?5failed?5in?5CG_@ 300caf80     cg_saga.obj
 0002:00018fc4       ??_C@_0M@IHDPCFPD@Objective?$CFi@ 300cafc4     cg_saga.obj
 0002:00018fd0       ??_C@_0M@NFIGFDNC@sound_team1@ 300cafd0     cg_saga.obj
 0002:00018fdc       ??_C@_0M@POKLAABB@sound_team2@ 300cafdc     cg_saga.obj
 0002:00018fe8       ??_C@_06IEJOFGOG@objgfx@   300cafe8     cg_saga.obj
 0002:00018ff0       ??_C@_07PCJEFIIJ@mapicon@  300caff0     cg_saga.obj
 0002:00018ff8       ??_C@_0L@CGECIPJA@litmapicon@ 300caff8     cg_saga.obj
 0002:00019004       ??_C@_0M@NNMBIECO@donemapicon@ 300cb004     cg_saga.obj
 0002:00019010       ??_C@_0CN@LEDKONOK@Memory?5allocation?5failed?5in?5CG_@ 300cb010     cg_saga.obj
 0002:00019040       ??_C@_08CMLDNHCK@?$CFs?4siege@ 300cb040     cg_saga.obj
 0002:0001904c       ??_C@_05EPHHAOKA@Teams@    300cb04c     cg_saga.obj
 0002:00019054       ??_C@_0O@HPPEFNIJ@cg_siegeTeam1@ 300cb054     cg_saga.obj
 0002:00019064       ??_C@_05IKJECGBB@team1@    300cb064     cg_saga.obj
 0002:0001906c       ??_C@_0BC@HIIDLNJJ@cg_siegeTeam1Name@ 300cb06c     cg_saga.obj
 0002:00019080       ??_C@_0O@FENJAOEK@cg_siegeTeam2@ 300cb080     cg_saga.obj
 0002:00019090       ??_C@_05KBLJHFNC@team2@    300cb090     cg_saga.obj
 0002:00019098       ??_C@_0BC@POBHMPDH@cg_siegeTeam2Name@ 300cb098     cg_saga.obj
 0002:000190ac       ??_C@_0BI@IFMEDMFB@Siege?5teams?5not?5defined@ 300cb0ac     cg_saga.obj
 0002:000190c4       ??_C@_08PDGNKGMA@TeamIcon@ 300cb0c4     cg_saga.obj
 0002:000190d0       ??_C@_0L@BLDDBDPK@team1_icon@ 300cb0d0     cg_saga.obj
 0002:000190dc       ??_C@_05MLMBIJDH@Timed@    300cb0dc     cg_saga.obj
 0002:000190e4       ??_C@_0BI@HADAPHEO@No?5team?5entry?5for?5?8?$CFs?8?6@ 300cb0e4     cg_saga.obj
 0002:000190fc       ??_C@_0L@KNFJHKAA@mapgraphic@ 300cb0fc     cg_saga.obj
 0002:00019108       ??_C@_0BB@BJLPFOEO@siege_mapgraphic@ 300cb108     cg_saga.obj
 0002:0001911c       ??_C@_0BJ@MIDFBPDP@gfx?1mplevels?1siege1_hoth@ 300cb11c     cg_saga.obj
 0002:00019138       ??_C@_0M@LAKHEKCN@missionname@ 300cb138     cg_saga.obj
 0002:00019144       ??_C@_0BC@CBHHMAJO@siege_missionname@ 300cb144     cg_saga.obj
 0002:00019158       ??_C@_0L@CKNLAJGH@team2_icon@ 300cb158     cg_saga.obj
 0002:00019164       ??_C@_0CL@BBGLILIJ@Couldn?8t?5find?5any?5player?5classe@ 300cb164     cg_saga.obj
 0002:00019190       ??_C@_0CJ@KLKCMJCL@Couldn?8t?5find?5any?5player?5teams?5@ 300cb190     cg_saga.obj
 0002:000191bc       ??_C@_07FKIPFDKM@UseTeam@  300cb1bc     cg_saga.obj
 0002:000191c4       ??_C@_0BM@OPMJLBOG@team?$CFi_objective?$CFi_longdesc@ 300cb1c4     cg_saga.obj
 0002:000191e0       ??_C@_07FOHNNLKA@objdesc@  300cb1e0     cg_saga.obj
 0002:000191e8       ??_C@_0M@GLJPNNOF@UNSPECIFIED@ 300cb1e8     cg_saga.obj
 0002:000191f4       ??_C@_0BH@FONBELKG@team?$CFi_objective?$CFi_gfx@ 300cb1f4     cg_saga.obj
 0002:0001920c       ??_C@_0BL@LNEPILJL@team?$CFi_objective?$CFi_mapicon@ 300cb20c     cg_saga.obj
 0002:00019228       ??_C@_0BO@ICPEGFEB@team?$CFi_objective?$CFi_litmapicon@ 300cb228     cg_saga.obj
 0002:00019248       ??_C@_0BP@CMLBNAIG@team?$CFi_objective?$CFi_donemapicon@ 300cb248     cg_saga.obj
 0002:00019268       ??_C@_0BK@JKAPHHID@team?$CFi_objective?$CFi_mappos@ 300cb268     cg_saga.obj
 0002:00019284       ??_C@_06JOCODHCA@mappos@   300cb284     cg_saga.obj
 0002:0001928c       ??_C@_09IOGHMDJA@0?50?532?532@ 300cb28c     cg_saga.obj
 0002:00019298       ??_C@_0CN@BEHJJGAC@ERROR?3?5Siege?5data?5does?5not?5exis@ 300cb298     cg_saga.obj
 0002:000192c8       ??_C@_08BNMHJEJD@wonround@ 300cb2c8     cg_saga.obj
 0002:000192d4       ??_C@_09CMDNALDI@lostround@ 300cb2d4     cg_saga.obj
 0002:000192e0       ??_C@_0BG@LLHJNGLO@roundover_sound_wewon@ 300cb2e0     cg_saga.obj
 0002:000192f8       ??_C@_0BH@GEPPMNBP@roundover_sound_welost@ 300cb2f8     cg_saga.obj
 0002:00019310       ??_C@_08IHNFKDIA@goalname@ 300cb310     cg_saga.obj
 0002:0001931c       ??_C@_05FPBGKCKL@final@    300cb31c     cg_saga.obj
 0002:00019324       ??_C@_0BE@CPFHCKII@siege_primobj_inuse@ 300cb324     cg_saga.obj
 0002:00019338       ??_C@_0O@EMONNPOK@siege_primobj@ 300cb338     cg_saga.obj
 0002:00019348       ??_C@_0BC@ONOHELI@siege_objective?$CFi@ 300cb348     cg_saga.obj
 0002:0001935c       ??_C@_0BH@CHBOEPOM@siege_primobj_longdesc@ 300cb35c     cg_saga.obj
 0002:00019374       ??_C@_0BL@FHIGMJGO@siege_objective?$CFi_longdesc@ 300cb374     cg_saga.obj
 0002:00019390       ??_C@_0BC@BMKDIAIH@siege_primobj_gfx@ 300cb390     cg_saga.obj
 0002:000193a4       ??_C@_0BG@MEDDLAKD@siege_objective?$CFi_gfx@ 300cb3a4     cg_saga.obj
 0002:000193bc       ??_C@_0BG@LNOAABKJ@siege_primobj_mapicon@ 300cb3bc     cg_saga.obj
 0002:000193d4       ??_C@_0BK@EPJCAMKM@siege_objective?$CFi_mapicon@ 300cb3d4     cg_saga.obj
 0002:000193f0       ??_C@_0BF@DFIFEFID@siege_primobj_mappos@ 300cb3f0     cg_saga.obj
 0002:00019408       ??_C@_0BJ@CFIIAONA@siege_objective?$CFi_mappos@ 300cb408     cg_saga.obj
 0002:00019424       ??_C@_0BD@GEFALHLI@siege_primobj_desc@ 300cb424     cg_saga.obj
 0002:00019438       ??_C@_0BI@PIGGCDBC@siege_objective?$CFi_inuse@ 300cb438     cg_saga.obj
 0002:00019450       ??_C@_0BJ@KPHOGGCB@team?$CFi_objective?$CFi_inuse@ 300cb450     cg_saga.obj
 0002:0001946c       ??_C@_0BH@FIILMDFJ@siege_objective?$CFi_desc@ 300cb46c     cg_saga.obj
 0002:00019484       ??_C@_0CO@CBGJHFOF@Failed?5to?5allocate?5memory?5for?5f@ 300cb484     cg_saga.obj
 0002:000194b4       ??_C@_0O@LNLDLLBO@message_team1@ 300cb4b4     cg_saga.obj
 0002:000194c4       ??_C@_0O@JGJOOINN@message_team2@ 300cb4c4     cg_saga.obj
 0002:000194d4       ??_C@_0O@EBADDJCE@ui_siegeTimer@ 300cb4d4     cg_saga.obj
 0002:000194e4       ??_C@_0N@EIDMFNAP@trueview?4cfg@ 300cb4e4     cg_saga.obj
 0002:000194f4       ??_C@_0CF@FMFPFLLF@Error?3?5File?5Not?5Found?3?5trueview@ 300cb4f4     cg_saga.obj
 0002:0001951c       ??_C@_0DO@FIPLBDBC@Error?3?5trueview?4cfg?5is?5over?5the@ 300cb51c     cg_saga.obj
 0002:0001955c       ??_C@_0CF@FBOHGFNE@True?5View?5Eye?5Adjust?5Loaded?5for@ 300cb55c     cg_saga.obj
 0002:00019584       ??_C@_0BH@DLHNHBEG@Bad?5score?9?$DOclient?3?5?$CFi?6@ 300cb584     cg_scoreboard.obj
 0002:0001959c       ??_C@_05KACKNMMA@READY@    300cb59c     cg_scoreboard.obj
 0002:000195a4       ??_C@_09CLFCPHPN@DUEL_WINS@ 300cb5a4     cg_scoreboard.obj
 0002:000195b0       ??_C@_07EJOIIKAD@?$CFs?$FO7?5?$CFs@ 300cb5b0     cg_scoreboard.obj
 0002:000195b8       ??_C@_0BA@HAPNLPLG@MP_INGAME_PLACE@ 300cb5b8     cg_scoreboard.obj
 0002:000195c8       ??_C@_0N@FJCIJIB@MP_INGAME_OF@ 300cb5c8     cg_scoreboard.obj
 0002:000195d8       ??_C@_0P@ONBKBIGI@MP_INGAME_WITH@ 300cb5d8     cg_scoreboard.obj
 0002:000195e8       ??_C@_0BE@NFGIJENK@?$CFs?5?$CFs?5?$CI?$CFs?5?$CFi?$CJ?5?$CFs?5?$CFi@ 300cb5e8     cg_scoreboard.obj
 0002:000195fc       ??_C@_0O@KEEFDKDA@SIEGETEAM1WIN@ 300cb5fc     cg_scoreboard.obj
 0002:0001960c       ??_C@_0O@ODOFEAOA@SIEGETEAM2WIN@ 300cb60c     cg_scoreboard.obj
 0002:0001961c       ??_C@_0BO@OHCPGADJ@gfx?1menus?1menu_buttonback?4tga@ 300cb61c     cg_scoreboard.obj
 0002:0001963c       ??_C@_04IPKHEEB@NAME@      300cb63c     cg_scoreboard.obj
 0002:00019644       ??_C@_0O@EACMMGLJ@MP_INGAME_W_L@ 300cb644     cg_scoreboard.obj
 0002:00019654       ??_C@_04CCOOKJJG@PING@     300cb654     cg_scoreboard.obj
 0002:0001965c       ??_C@_04OHBONDIN@TIME@     300cb65c     cg_scoreboard.obj
 0002:00019664       ??_C@_05CIFECOEH@SKILL@    300cb664     cg_scoreboard.obj
 0002:0001966c       ??_C@_0N@HGBPBCI@g_debugMelee@ 300cb66c     cg_servercmds.obj
 0002:0001967c       ??_C@_0P@HJKJKMBJ@g_stepSlideFix@ 300cb67c     cg_servercmds.obj
 0002:0001968c       ??_C@_0N@NEBLEAPN@g_noSpecMove@ 300cb68c     cg_servercmds.obj
 0002:0001969c       ??_C@_0BC@HHPGHHIK@g_siegeTeamSwitch@ 300cb69c     cg_servercmds.obj
 0002:000196b0       ??_C@_0BC@FPNNEGCD@g_showDuelHealths@ 300cb6b0     cg_servercmds.obj
 0002:000196c4       ??_C@_08HHFKLNCD@needpass@ 300cb6c4     cg_servercmds.obj
 0002:000196d0       ??_C@_0M@HDALJKN@g_jediVmerc@ 300cb6d0     cg_servercmds.obj
 0002:000196dc       ??_C@_08CGDHFBIG@wdisable@ 300cb6dc     cg_servercmds.obj
 0002:000196e8       ??_C@_08JNIMAHLE@fdisable@ 300cb6e8     cg_servercmds.obj
 0002:000196f4       ??_C@_07GMGCLCAP@dmflags@  300cb6f4     cg_servercmds.obj
 0002:000196fc       ??_C@_09ELHMOKHN@teamflags@ 300cb6fc     cg_servercmds.obj
 0002:00019708       ??_C@_0O@OCOCOONB@sv_maxclients@ 300cb708     cg_servercmds.obj
 0002:00019718       ??_C@_06HNKPDEND@mapURL@   300cb718     cg_servercmds.obj
 0002:00019720       ??_C@_06DLACAJIE@m_nerf@   300cb720     cg_servercmds.obj
 0002:00019728       ??_C@_09DMFMMPEE@m_grapple@ 300cb728     cg_servercmds.obj
 0002:00019734       ??_C@_0M@DKNJHPLK@maps?1?$CFs?4bsp@ 300cb734     cg_servercmds.obj
 0002:00019740       ??_C@_0L@MLCEEGBP@g_needpass@ 300cb740     cg_servercmds.obj
 0002:0001974c       ??_C@_0P@IGNPDGBD@bot_minplayers@ 300cb74c     cg_servercmds.obj
 0002:0001975c       ??_C@_0N@FBIHMIDO@g_siegeTeam1@ 300cb75c     cg_servercmds.obj
 0002:0001976c       ??_C@_0N@HKKKJLPN@g_siegeTeam2@ 300cb76c     cg_servercmds.obj
 0002:0001977c       ??_C@_03HIMFCAJL@RMG@      300cb77c     cg_servercmds.obj
 0002:00019780       ??_C@_0M@IFFNJHPN@RMG_weather@ 300cb780     cg_servercmds.obj
 0002:0001978c       ??_C@_01NEMOKFLO@?$DN@     300cb78c     cg_servercmds.obj
 0002:00019790       ??_C@_01JLIPDDHJ@?3@       300cb790     cg_servercmds.obj
 0002:00019794       ??_C@_01EOFPKCAF@?$EA@     300cb794     cg_servercmds.obj
 0002:00019798       ??_C@_05DJHCPMHD@1?4wav@   300cb798     cg_servercmds.obj
 0002:000197a0       ??_C@_0P@HFBEHELF@CG_MapRestart?6@ 300cb7a0     cg_servercmds.obj
 0002:000197b0       ??_C@_03PMECLINK@sxd@      300cb7b0     cg_servercmds.obj
 0002:000197b4       ??_C@_02BMCPJMB@sb@        300cb7b4     cg_servercmds.obj
 0002:000197b8       ??_C@_03CEOIHOED@scl@      300cb7b8     cg_servercmds.obj
 0002:000197bc       ??_C@_09KCOOEDFG@briefmenu@ 300cb7bc     cg_servercmds.obj
 0002:000197c8       ??_C@_03LNBAHPKF@spc@      300cb7c8     cg_servercmds.obj
 0002:000197cc       ??_C@_01EKENIIDA@3@        300cb7cc     cg_servercmds.obj
 0002:000197d0       ??_C@_03FEBBAMDF@nfr@      300cb7d0     cg_servercmds.obj
 0002:000197d4       ??_C@_03JCHENJDF@kg2@      300cb7d4     cg_servercmds.obj
 0002:000197d8       ??_C@_03HHEDEIJA@kls@      300cb7d8     cg_servercmds.obj
 0002:000197dc       ??_C@_04MOEPNNA@ircg@      300cb7dc     cg_servercmds.obj
 0002:000197e4       ??_C@_03HPKAMAON@rcg@      300cb7e4     cg_servercmds.obj
 0002:000197e8       ??_C@_02GFBACKGC@cp@       300cb7e8     cg_servercmds.obj
 0002:000197ec       ??_C@_03KHMLDKGL@cps@      300cb7ec     cg_servercmds.obj
 0002:000197f0       ??_C@_02EODNHJKB@cs@       300cb7f0     cg_servercmds.obj
 0002:000197f4       ??_C@_05IJDJACGD@print@    300cb7f4     cg_servercmds.obj
 0002:000197fc       ??_C@_04BLJLMHHG@chat@     300cb7fc     cg_servercmds.obj
 0002:00019804       ??_C@_04IJBIFOMI@?$CK?$CFs?6@ 300cb804     cg_servercmds.obj
 0002:0001980c       ??_C@_05PMMINOBP@tchat@    300cb80c     cg_servercmds.obj
 0002:00019814       ??_C@_05BDENFOOJ@lchat@    300cb814     cg_servercmds.obj
 0002:0001981c       ??_C@_0M@HPOJCEBD@?$CFs?$DM?$CFs?$DO?$FO?$CFs?$CFs@ 300cb81c     cg_servercmds.obj
 0002:00019828       ??_C@_06JMHAIGFD@ltchat@   300cb828     cg_servercmds.obj
 0002:00019830       ??_C@_0N@GMGFOMKM@?$CFs?$DM?$CFs?$DO?5?$FO?$CFs?$CFs@ 300cb830     cg_servercmds.obj
 0002:00019840       ??_C@_06KBCJDMLG@scores@   300cb840     cg_servercmds.obj
 0002:00019848       ??_C@_05DPGKEEHN@tinfo@    300cb848     cg_servercmds.obj
 0002:00019850       ??_C@_0M@BLBAMFDN@remapShader@ 300cb850     cg_servercmds.obj
 0002:0001985c       ??_C@_0BA@GNMFKLDC@clientLevelShot@ 300cb85c     cg_servercmds.obj
 0002:0001986c       ??_C@_0BA@FMENIEPN@inGameCinematic@ 300cb86c     cg_servercmds.obj
 0002:0001987c       ??_C@_0N@PBHFAMDA@video?1?$CFs?4roq@ 300cb87c     cg_servercmds.obj
 0002:0001988c       ??_C@_06MHOPBCLI@LMSWin@   300cb88c     cg_servercmds.obj
 0002:00019894       ??_C@_07PLFCICCC@LMSLose@  300cb894     cg_servercmds.obj
 0002:0001989c       ??_C@_0CB@KPHIIGNM@Unknown?5client?5game?5command?3?5?$CFs@ 300cb89c     cg_servercmds.obj
 0002:000198c0       ??_C@_0DJ@OLNOPAEM@WARNING?3?5CG_ReadNextSnapshot?3?5w@ 300cb8c0     cg_snapshot.obj
 0002:000198fc       ??_C@_0CO@FFJEMNFE@CG_ProcessSnapshots?3?5n?5?$DM?5cg?4lat@ 300cb8fc     cg_snapshot.obj
 0002:0001992c       ??_C@_0DA@GODLLJKJ@CG_ProcessSnapshots?3?5Server?5tim@ 300cb92c     cg_snapshot.obj
 0002:0001995c       ??_C@_0CF@EPBFNJFD@CG_ProcessSnapshots?3?5cg?4snap?5?$DN?$DN@ 300cb95c     cg_snapshot.obj
 0002:00019984       ??_C@_0DI@NCDIEGIG@CG_ProcessSnapshots?3?5cg?4nextSna@ 300cb984     cg_snapshot.obj
 0002:000199c0       ??_C@_0EG@LNAHOGNJ@trap_FX_AddScheduledEffects?3?5sy@ 300cb9c0     cg_syscalls.obj
 0002:00019a08       ??_C@_0DJ@LAICKAEP@trap_FX_AddScheduledEffects?3?5In@ 300cba08     cg_syscalls.obj
 0002:00019a44       ??_C@_0L@JLHFAJNM@bone_hinge@ 300cba44     cg_turret.obj
 0002:00019a50       ??_C@_0L@NMBKBPBM@bone_gback@ 300cba50     cg_turret.obj
 0002:00019a5c       ??_C@_0M@MMECMPFA@bone_barrel@ 300cba5c     cg_turret.obj
 0002:00019a68       __real@3f9eb851eb851eb8    300cba68     cg_turret.obj
 0002:00019a70       __real@43b48000            300cba70     cg_turret.obj
 0002:00019a74       ??_C@_0BG@GCFGCMGP@Can?8t?5register?5model?6@ 300cba74     cg_view.obj
 0002:00019a8c       ??_C@_09FLAEHDCJ@frame?5?$CFi?6@ 300cba8c     cg_view.obj
 0002:00019a98       ??_C@_08JKENKHJN@skin?5?$CFi?6@ 300cba98     cg_view.obj
 0002:00019aa4       ??_C@_02PJNFELNH@30@       300cbaa4     cg_view.obj
 0002:00019aa8       ??_C@_0DI@FBMMMHLO@CG_DrawSkyBoxPortal?3?5error?5pars@ 300cbaa8     cg_view.obj
 0002:00019ae0       ??_C@_0EH@HBCAEGHH@CG_DrawSkyBoxPortal?3?5error?5pars@ 300cbae0     cg_view.obj
 0002:00019b28       ??_C@_0EE@BEKLHJKK@CG_DrawSkyBoxPortal?3?5error?5pars@ 300cbb28     cg_view.obj
 0002:00019b70       ??_C@_0EE@KMBHBOMP@CG_DrawSkyBoxPortal?3?5error?5pars@ 300cbb70     cg_view.obj
 0002:00019bb8       ??_C@_0EE@LOKCLBCB@CG_DrawSkyBoxPortal?3?5error?5pars@ 300cbbb8     cg_view.obj
 0002:00019bfc       ??_C@_02NJPGOMH@?$CFf@     300cbbfc     cg_view.obj
 0002:00019c00       ??_C@_0M@OGBIOKHN@s_musicMult@ 300cbc00     cg_view.obj
 0002:00019c0c       ??_C@_06PAOMPDJH@?$DMnone?$DO@ 300cbc0c     cg_view.obj
 0002:00019c14       ??_C@_0BA@NOFPOCEH@ui_mySiegeClass@ 300cbc14     cg_view.obj
 0002:00019c24       ??_C@_0N@BFFGCGIH@EndCinematic@ 300cbc24     cg_view.obj
 0002:00019c34       ??_C@_0BD@PLOBIDP@cg?4clientFrame?3?$CFi?6@ 300cbc34     cg_view.obj
 0002:00019c48       __real@3f947ae147ae147b    300cbc48     cg_view.obj
 0002:00019c50       __real@4056800000000000    300cbc50     cg_view.obj
 0002:00019c58       __real@405cc00000000000    300cbc58     cg_view.obj
 0002:00019c60       __real@42b20000            300cbc60     cg_view.obj
 0002:00019c64       __real@43020000            300cbc64     cg_view.obj
 0002:00019c68       __real@43200000            300cbc68     cg_view.obj
 0002:00019c6c       __real@43e10000            300cbc6c     cg_view.obj
 0002:00019c70       __real@bfe8000000000000    300cbc70     cg_view.obj
 0002:00019c78       __real@c2a00000            300cbc78     cg_view.obj
 0002:00019c7c       __real@c2b20000            300cbc7c     cg_view.obj
 0002:00019c80       __real@c32a0000            300cbc80     cg_view.obj
 0002:00019c84       ??_C@_0BI@JJFMDMDC@Couldn?8t?5find?5weapon?5?$CFi@ 300cbc84     cg_weaponinit.obj
 0002:00019c9c       ??_C@_0M@GGMINFPA@_barrel?4md3@ 300cbc9c     cg_weaponinit.obj
 0002:00019ca8       ??_C@_0CM@BAIIJBLO@models?1weapons2?1stun_baton?1bato@ 300cbca8     cg_weaponinit.obj
 0002:00019cd4       ??_C@_0CN@KHBOOEOM@models?1weapons2?1stun_baton?1bato@ 300cbcd4     cg_weaponinit.obj
 0002:00019d04       ??_C@_0CN@GMECDHEJ@models?1weapons2?1stun_baton?1bato@ 300cbd04     cg_weaponinit.obj
 0002:00019d34       ??_C@_09OLHEALFG@_hand?4md3@ 300cbd34     cg_weaponinit.obj
 0002:00019d40       ??_C@_0BH@HJDNBHMB@stunBaton?1flesh_impact@ 300cbd40     cg_weaponinit.obj
 0002:00019d58       ??_C@_0BG@OPFKBBGL@models?1items?1hook?4md3@ 300cbd58     cg_weaponinit.obj
 0002:00019d70       ??_C@_0CD@DIOPMINH@sound?1weapons?1grapple?1hookfire?4@ 300cbd70     cg_weaponinit.obj
 0002:00019d94       ??_C@_0CE@KGGFKOKK@sound?1weapons?1concussion?1select@ 300cbd94     cg_weaponinit.obj
 0002:00019db8       ??_C@_0BN@CHIIPNFK@sound?1weapons?1baton?1fire?4mp3@ 300cbdb8     cg_weaponinit.obj
 0002:00019dd8       ??_C@_0CC@PMHFGFB@sound?1weapons?1bryar?1altcharge?4w@ 300cbdd8     cg_weaponinit.obj
 0002:00019dfc       ??_C@_0BF@JPNAFPJM@gfx?1effects?1blueLine@ 300cbdfc     cg_weaponinit.obj
 0002:00019e14       ??_C@_0BE@DCALKONJ@gfx?1misc?1whiteline2@ 300cbe14     cg_weaponinit.obj
 0002:00019e28       ??_C@_0BP@FGCADJJP@sound?1weapons?1bryar?1select?4wav@ 300cbe28     cg_weaponinit.obj
 0002:00019e48       ??_C@_0BN@JIOEMEHN@sound?1weapons?1bryar?1fire?4wav@ 300cbe48     cg_weaponinit.obj
 0002:00019e68       ??_C@_0BN@FMMMEEDO@sound?1weapons?1dh?917?1fire?4wav@ 300cbe68     cg_weaponinit.obj
 0002:00019e88       ??_C@_0BN@BDPEHPND@sound?1weapons?1dc?917?1fire?4wav@ 300cbe88     cg_weaponinit.obj
 0002:00019ea8       ??_C@_0BM@IICLKJMC@sound?1weapons?1w?934?1fire?4wav@ 300cbea8     cg_weaponinit.obj
 0002:00019ec4       ??_C@_0BP@PJHPNGKO@sound?1weapons?1Glie?944?1fire?4wav@ 300cbec4     cg_weaponinit.obj
 0002:00019ee4       ??_C@_0BO@PCDEBNKC@sound?1weapons?1SE?944C?1fire?4wav@ 300cbee4     cg_weaponinit.obj
 0002:00019f04       ??_C@_0BD@FEAFGDCF@bryar?1muzzle_flash@ 300cbf04     cg_weaponinit.obj
 0002:00019f18       ??_C@_0BD@PNMFCHHF@dh?917?1muzzle_flash@ 300cbf18     cg_weaponinit.obj
 0002:00019f2c       ??_C@_0BD@BCFEBL@dc?917?1muzzle_flash@ 300cbf2c     cg_weaponinit.obj
 0002:00019f40       ??_C@_0BC@IMDDABOD@w?934?1muzzle_flash@ 300cbf40     cg_weaponinit.obj
 0002:00019f54       ??_C@_0BF@KIFJMFHF@Glie?944?1muzzle_flash@ 300cbf54     cg_weaponinit.obj
 0002:00019f6c       ??_C@_0BE@HNAAKLNM@SE?944C?1muzzle_flash@ 300cbf6c     cg_weaponinit.obj
 0002:00019f80       ??_C@_0CB@NOOHMAPO@sound?1weapons?1bryar?1alt_fire?4wa@ 300cbf80     cg_weaponinit.obj
 0002:00019fa4       ??_C@_0CB@HHCHIEKO@sound?1weapons?1dh?917?1alt_fire?4wa@ 300cbfa4     cg_weaponinit.obj
 0002:00019fc8       ??_C@_0CB@IKPAPHMA@sound?1weapons?1dc?917?1alt_fire?4wa@ 300cbfc8     cg_weaponinit.obj
 0002:00019fec       ??_C@_0CA@IKCMBNKE@sound?1weapons?1w?934?1alt_fire?4wav@ 300cbfec     cg_weaponinit.obj
 0002:0001a00c       ??_C@_0CD@FNKEKDII@sound?1weapons?1Glie?944?1alt_fire?4@ 300cc00c     cg_weaponinit.obj
 0002:0001a030       ??_C@_0CC@ONHCKNH@sound?1weapons?1SE?944C?1alt_fire?4w@ 300cc030     cg_weaponinit.obj
 0002:0001a054       ??_C@_0CB@BLKDMLBK@sound?1weapons?1blaster?1select?4wa@ 300cc054     cg_weaponinit.obj
 0002:0001a078       ??_C@_0BP@GFLHELND@sound?1weapons?1blaster?1fire?4wav@ 300cc078     cg_weaponinit.obj
 0002:0001a098       ??_C@_0BM@EEGHHKHL@sound?1weapons?1a280?1fire?4wav@ 300cc098     cg_weaponinit.obj
 0002:0001a0b4       ??_C@_0BO@PKAKPODI@sound?1weapons?1dc?915s?1fire?4wav@ 300cc0b4     cg_weaponinit.obj
 0002:0001a0d4       ??_C@_0BM@HAMBODIE@sound?1weapons?1e?95b?1fire?4wav@ 300cc0d4     cg_weaponinit.obj
 0002:0001a0f0       ??_C@_0BN@HILEIJEL@sound?1weapons?1EL?916?1fire?4wav@ 300cc0f0     cg_weaponinit.obj
 0002:0001a110       ??_C@_0CE@IBDGODCM@sound?1weapons?1f11d_blaster?1fire@ 300cc110     cg_weaponinit.obj
 0002:0001a134       ??_C@_0BF@DOFNBELO@blaster?1muzzle_flash@ 300cc134     cg_weaponinit.obj
 0002:0001a14c       ??_C@_0BC@KNJIAFAI@a280?1muzzle_flash@ 300cc14c     cg_weaponinit.obj
 0002:0001a160       ??_C@_0BE@ELEHFHKK@dc?915s?1muzzle_flash@ 300cc160     cg_weaponinit.obj
 0002:0001a174       ??_C@_0BC@FILGGPFM@e?95b?1muzzle_flash@ 300cc174     cg_weaponinit.obj
 0002:0001a188       ??_C@_0BD@ODLGGFOH@EL?916?1muzzle_flash@ 300cc188     cg_weaponinit.obj
 0002:0001a19c       ??_C@_0BK@FBBOLNAF@f11d_blaster?1muzzle_flash@ 300cc19c     cg_weaponinit.obj
 0002:0001a1b8       ??_C@_0CD@MLKAHCED@sound?1weapons?1blaster?1alt_fire?4@ 300cc1b8     cg_weaponinit.obj
 0002:0001a1dc       ??_C@_0CA@KLIHBJEP@sound?1weapons?1a280?1alt_fire?4wav@ 300cc1dc     cg_weaponinit.obj
 0002:0001a1fc       ??_C@_0CC@DIJANGKB@sound?1weapons?1dc?915s?1alt_fire?4w@ 300cc1fc     cg_weaponinit.obj
 0002:0001a220       ??_C@_0CA@FOKJHDBL@sound?1weapons?1e?95b?1alt_fire?4wav@ 300cc220     cg_weaponinit.obj
 0002:0001a240       ??_C@_0CB@GJFEMGDM@sound?1weapons?1EL?916?1alt_fire?4wa@ 300cc240     cg_weaponinit.obj
 0002:0001a264       ??_C@_0CI@EHDBPHAB@sound?1weapons?1f11d_blaster?1alt_@ 300cc264     cg_weaponinit.obj
 0002:0001a28c       ??_C@_0BA@BHMDGDMI@blaster?1deflect@ 300cc28c     cg_weaponinit.obj
 0002:0001a29c       ??_C@_0CD@DFFAFGLL@sound?1weapons?1disruptor?1select?4@ 300cc29c     cg_weaponinit.obj
 0002:0001a2c0       ??_C@_0CB@EHFIEJDN@sound?1weapons?1disruptor?1fire?4wa@ 300cc2c0     cg_weaponinit.obj
 0002:0001a2e4       ??_C@_0BO@PECMGPKM@sound?1weapons?1dlt20a?1fire?4wav@ 300cc2e4     cg_weaponinit.obj
 0002:0001a304       ??_C@_0CH@NOIFBFGH@sound?1weapons?1clone_disruptor?1f@ 300cc304     cg_weaponinit.obj
 0002:0001a32c       ??_C@_0CB@OJGNMEB@sound?1weapons?1projrifle?1fire?4wa@ 300cc32c     cg_weaponinit.obj
 0002:0001a350       ??_C@_0CE@FPCNDKJN@sound?1weapons?1tusken_rifle?1fire@ 300cc350     cg_weaponinit.obj
 0002:0001a374       ??_C@_0BL@HBJAIEOB@sound?1weapons?1psg?1fire?4wav@ 300cc374     cg_weaponinit.obj
 0002:0001a390       ??_C@_0BH@CPCPJCBI@disruptor?1muzzle_flash@ 300cc390     cg_weaponinit.obj
 0002:0001a3a8       ??_C@_0BE@MAOMMDJC@DLT20a?1muzzle_flash@ 300cc3a8     cg_weaponinit.obj
 0002:0001a3bc       ??_C@_0BN@MDEIAJEL@clone_disruptor?1muzzle_flash@ 300cc3bc     cg_weaponinit.obj
 0002:0001a3dc       ??_C@_0BI@DDFPIFDJ@proj_rifle?1muzzle_flash@ 300cc3dc     cg_weaponinit.obj
 0002:0001a3f4       ??_C@_0BK@LONFKOAM@tusken_rifle?1muzzle_flash@ 300cc3f4     cg_weaponinit.obj
 0002:0001a410       ??_C@_0BB@ODLCIGBF@psg?1muzzle_flash@ 300cc410     cg_weaponinit.obj
 0002:0001a424       ??_C@_0CF@PCACDOOB@sound?1weapons?1disruptor?1alt_fir@ 300cc424     cg_weaponinit.obj
 0002:0001a44c       ??_C@_0CC@NCAFNMLG@sound?1weapons?1dlt20a?1alt_fire?4w@ 300cc44c     cg_weaponinit.obj
 0002:0001a470       ??_C@_0CL@IOFBJGEB@sound?1weapons?1clone_disruptor?1a@ 300cc470     cg_weaponinit.obj
 0002:0001a49c       ??_C@_0CF@HCEKFICK@sound?1weapons?1projrifle?1alt_fir@ 300cc49c     cg_weaponinit.obj
 0002:0001a4c4       ??_C@_0CI@KIPKOEAI@sound?1weapons?1tusken_rifle?1alt_@ 300cc4c4     cg_weaponinit.obj
 0002:0001a4ec       ??_C@_0BP@MLGOPFAM@sound?1weapons?1psg?1alt_fire?4wav@ 300cc4ec     cg_weaponinit.obj
 0002:0001a50c       ??_C@_0CG@EHPDBIN@sound?1weapons?1disruptor?1altChar@ 300cc50c     cg_weaponinit.obj
 0002:0001a534       ??_C@_0BE@MOEMNEGA@gfx?1effects?1redLine@ 300cc534     cg_weaponinit.obj
 0002:0001a548       ??_C@_0BH@MMADONKH@gfx?1effects?1smokeTrail@ 300cc548     cg_weaponinit.obj
 0002:0001a560       ??_C@_0CD@PAHBPJGI@sound?1weapons?1bowcaster?1select?4@ 300cc560     cg_weaponinit.obj
 0002:0001a584       ??_C@_0CB@LHPHEBPN@sound?1weapons?1bowcaster?1fire?4wa@ 300cc584     cg_weaponinit.obj
 0002:0001a5a8       ??_C@_0CC@FMPPAEHN@sound?1weapons?1ee?93?1sniperfire?4w@ 300cc5a8     cg_weaponinit.obj
 0002:0001a5cc       ??_C@_0CG@CCKLNCJN@sound?1weapons?1wbowcaster?1alt_fi@ 300cc5cc     cg_weaponinit.obj
 0002:0001a5f4       ??_C@_0CJ@CMABKGDL@sound?1weapons?1canderous_blaster@ 300cc5f4     cg_weaponinit.obj
 0002:0001a620       ??_C@_0CL@LMNOLBLC@sound?1weapons?1Bowcaster_heavy?1a@ 300cc620     cg_weaponinit.obj
 0002:0001a64c       ??_C@_0CH@ELECPBJC@sound?1weapons?1STCompRifle?1alt_f@ 300cc64c     cg_weaponinit.obj
 0002:0001a674       ??_C@_0BH@MDFDHPJM@bowcaster?1muzzle_flash@ 300cc674     cg_weaponinit.obj
 0002:0001a68c       ??_C@_0BC@EBLGNLDN@ee?93?1muzzle_flash@ 300cc68c     cg_weaponinit.obj
 0002:0001a6a0       ??_C@_0BI@IEELNNHN@wbowcaster?1muzzle_flash@ 300cc6a0     cg_weaponinit.obj
 0002:0001a6b8       ??_C@_0BP@IGHPIBLC@canderous_blaster?1muzzle_flash@ 300cc6b8     cg_weaponinit.obj
 0002:0001a6d8       ??_C@_0BN@PBMHCOLI@Bowcaster_heavy?1muzzle_flash@ 300cc6d8     cg_weaponinit.obj
 0002:0001a6f8       ??_C@_0BJ@IJLCJLBB@STCompRifle?1muzzle_flash@ 300cc6f8     cg_weaponinit.obj
 0002:0001a714       ??_C@_0BM@CEGLDIKE@sound?1weapons?1ee?93?1fire?4wav@ 300cc714     cg_weaponinit.obj
 0002:0001a730       ??_C@_0CC@LFJJMMGE@sound?1weapons?1wbowcaster?1fire?4w@ 300cc730     cg_weaponinit.obj
 0002:0001a754       ??_C@_0CH@GMKBFFKJ@sound?1weapons?1Bowcaster_heavy?1f@ 300cc754     cg_weaponinit.obj
 0002:0001a77c       ??_C@_0CD@LALIFKLI@sound?1weapons?1STCompRifle?1fire?4@ 300cc77c     cg_weaponinit.obj
 0002:0001a7a0       ??_C@_0CG@GINKIFIO@sound?1weapons?1bowcaster?1altchar@ 300cc7a0     cg_weaponinit.obj
 0002:0001a7c8       ??_C@_0BC@DONAAMN@bowcaster?1deflect@ 300cc7c8     cg_weaponinit.obj
 0002:0001a7dc       ??_C@_0CC@FIKMAEPH@sound?1weapons?1repeater?1select?4w@ 300cc7dc     cg_weaponinit.obj
 0002:0001a800       ??_C@_0CA@EFALOJAJ@sound?1weapons?1repeater?1fire?4wav@ 300cc800     cg_weaponinit.obj
 0002:0001a820       ??_C@_0CH@NJBJMOFB@sound?1weapons?1dlt?918_repeater?1f@ 300cc820     cg_weaponinit.obj
 0002:0001a848       ??_C@_0BO@MJAIDDC@sound?1weapons?1dc?915a?1fire?4wav@ 300cc848     cg_weaponinit.obj
 0002:0001a868       ??_C@_0BM@BOLIGMDE@sound?1weapons?1t?921?1fire?4wav@ 300cc868     cg_weaponinit.obj
 0002:0001a884       ??_C@_0BO@OKLBIPGK@sound?1weapons?1dc?917m?1fire?4wav@ 300cc884     cg_weaponinit.obj
 0002:0001a8a4       ??_C@_0BP@FHHAPOME@sound?1weapons?1FWMB?910?1fire?4wav@ 300cc8a4     cg_weaponinit.obj
 0002:0001a8c4       ??_C@_0BG@IKAOHIPP@repeater?1muzzle_flash@ 300cc8c4     cg_weaponinit.obj
 0002:0001a8dc       ??_C@_0BN@NEEECEFC@dlt?918_repeater?1muzzle_flash@ 300cc8dc     cg_weaponinit.obj
 0002:0001a8fc       ??_C@_0BE@KHKDHJHE@dc?915a?1muzzle_flash@ 300cc8fc     cg_weaponinit.obj
 0002:0001a910       ??_C@_0BC@PLFKPDJL@t?921?1muzzle_flash@ 300cc910     cg_weaponinit.obj
 0002:0001a924       ??_C@_0BE@GFPGPFPD@dc?917m?1muzzle_flash@ 300cc924     cg_weaponinit.obj
 0002:0001a938       ??_C@_0BF@HMGKFHGK@FWMB?910?1muzzle_flash@ 300cc938     cg_weaponinit.obj
 0002:0001a950       ??_C@_0CE@CLKLGDMM@sound?1weapons?1repeater?1alt_fire@ 300cc950     cg_weaponinit.obj
 0002:0001a974       ??_C@_0CL@JJFNLLFI@sound?1weapons?1dlt?918_repeater?1a@ 300cc974     cg_weaponinit.obj
 0002:0001a9a0       ??_C@_0CC@NEHEPIHP@sound?1weapons?1dc?915a?1alt_fire?4w@ 300cc9a0     cg_weaponinit.obj
 0002:0001a9c4       ??_C@_0CA@PNEFOPNM@sound?1weapons?1t?921?1alt_fire?4wav@ 300cc9c4     cg_weaponinit.obj
 0002:0001a9e4       ??_C@_0CC@BGCBHEPI@sound?1weapons?1dc?917m?1alt_fire?4w@ 300cc9e4     cg_weaponinit.obj
 0002:0001aa08       ??_C@_0CD@IJJHDBJH@sound?1weapons?1FWMB?910?1alt_fire?4@ 300cca08     cg_weaponinit.obj
 0002:0001aa2c       ??_C@_0BP@GCOEPOOB@sound?1weapons?1demp2?1select?4wav@ 300cca2c     cg_weaponinit.obj
 0002:0001aa4c       ??_C@_0BN@IMCKPCBD@sound?1weapons?1demp2?1fire?4wav@ 300cca4c     cg_weaponinit.obj
 0002:0001aa6c       ??_C@_0CB@HCECOOLJ@sound?1weapons?1beamRIFLE?1fire?4wa@ 300cca6c     cg_weaponinit.obj
 0002:0001aa90       ??_C@_0BO@IPNDAGKG@sound?1weapons?1dc?917p?1fire?4wav@ 300cca90     cg_weaponinit.obj
 0002:0001aab0       ??_C@_0DA@GAEIHGHP@sound?1weapons?1CR?924_flamerifle?1@ 300ccab0     cg_weaponinit.obj
 0002:0001aae0       ??_C@_0CP@NDCNAPHG@sound?1weapons?1CR?925_icerifle?1di@ 300ccae0     cg_weaponinit.obj
 0002:0001ab10       ??_C@_0CM@JPDKCGLO@sound?1weapons?1CarboniteRifle?1ic@ 300ccb10     cg_weaponinit.obj
 0002:0001ab3c       ??_C@_0BD@OALJFEIK@demp2?1muzzle_flash@ 300ccb3c     cg_weaponinit.obj
 0002:0001ab50       ??_C@_0BH@HHLNMGGJ@beamRIFLE?1muzzle_flash@ 300ccb50     cg_weaponinit.obj
 0002:0001ab68       ??_C@_0BE@NNJKBILA@dc?917p?1muzzle_flash@ 300ccb68     cg_weaponinit.obj
 0002:0001ab7c       ??_C@_0BO@NLCELPBB@CR?924_flamerifle?1muzzle_flash@ 300ccb7c     cg_weaponinit.obj
 0002:0001ab9c       ??_C@_0BM@DNACCLC@CR?925_icerifle?1muzzle_flash@ 300ccb9c     cg_weaponinit.obj
 0002:0001abb8       ??_C@_0BM@JMGDNDEB@CarboniteRifle?1muzzle_flash@ 300ccbb8     cg_weaponinit.obj
 0002:0001abd4       ??_C@_0CA@PGAHJLAO@sound?1weapons?1demp2?1altfire?4wav@ 300ccbd4     cg_weaponinit.obj
 0002:0001abf4       ??_C@_0CE@IHPGPHHB@sound?1weapons?1beamRIFLE?1altfire@ 300ccbf4     cg_weaponinit.obj
 0002:0001ac18       ??_C@_0CB@IBCDMJPH@sound?1weapons?1dc?917p?1altfire?4wa@ 300ccc18     cg_weaponinit.obj
 0002:0001ac3c       ??_C@_0CC@MPIGNLMI@sound?1weapons?1demp2?1altCharge?4w@ 300ccc3c     cg_weaponinit.obj
 0002:0001ac60       ??_C@_0CD@MMBOCDNN@sound?1weapons?1flechette?1select?4@ 300ccc60     cg_weaponinit.obj
 0002:0001ac84       ??_C@_0CB@IPAGIIKJ@sound?1weapons?1flechette?1fire?4wa@ 300ccc84     cg_weaponinit.obj
 0002:0001aca8       ??_C@_0CD@ODKBPEBI@sound?1weapons?1Bryar_Rifle?1fire?4@ 300ccca8     cg_weaponinit.obj
 0002:0001accc       ??_C@_0CN@IJMNPJCG@sound?1weapons?1DoubleBarrel_Arra@ 300ccccc     cg_weaponinit.obj
 0002:0001acfc       ??_C@_0CE@FDCBNGCN@sound?1weapons?1ACP_ArrayGun?1fire@ 300cccfc     cg_weaponinit.obj
 0002:0001ad20       ??_C@_0BM@ENLBGKFB@sound?1weapons?1cr?91?1fire?4wav@ 300ccd20     cg_weaponinit.obj
 0002:0001ad3c       ??_C@_0CD@DMMENCFL@sound?1weapons?1junglerifle?1fire?4@ 300ccd3c     cg_weaponinit.obj
 0002:0001ad60       ??_C@_0BH@DMOHCCME@flechette?1muzzle_flash@ 300ccd60     cg_weaponinit.obj
 0002:0001ad78       ??_C@_0BJ@HOFNFLCI@Bryar_Rifle?1muzzle_flash@ 300ccd78     cg_weaponinit.obj
 0002:0001ad94       ??_C@_0CD@HKGKGAGK@DoubleBarrel_ArrayGun?1muzzle_fl@ 300ccd94     cg_weaponinit.obj
 0002:0001adb8       ??_C@_0BK@KGFMMKHF@ACP_ArrayGun?1muzzle_flash@ 300ccdb8     cg_weaponinit.obj
 0002:0001add4       ??_C@_0BC@NAIPDDBP@cr?91?1muzzle_flash@ 300ccdd4     cg_weaponinit.obj
 0002:0001ade8       ??_C@_0BJ@MFNKMGAO@junglerifle?1muzzle_flash@ 300ccde8     cg_weaponinit.obj
 0002:0001ae04       ??_C@_0CO@KGLEGKPD@models?1weapons2?1golan_arms?1proj@ 300cce04     cg_weaponinit.obj
 0002:0001ae34       ??_C@_0CF@OBMKIODN@sound?1weapons?1flechette?1alt_fir@ 300cce34     cg_weaponinit.obj
 0002:0001ae5c       ??_C@_0DB@MAKOIBIH@sound?1weapons?1DoubleBarrel_Arra@ 300cce5c     cg_weaponinit.obj
 0002:0001ae90       ??_C@_0CK@KOEFLOG@models?1weapons2?1golan_arms?1proj@ 300cce90     cg_weaponinit.obj
 0002:0001aebc       ??_C@_0CA@BFPHOFPP@sound?1weapons?1rocket?1select?4wav@ 300ccebc     cg_weaponinit.obj
 0002:0001aedc       ??_C@_0BO@KGPOLMAP@sound?1weapons?1rocket?1fire?4wav@ 300ccedc     cg_weaponinit.obj
 0002:0001aefc       ??_C@_0CI@FNPAHDOM@sound?1weapons?1MiniMag_launcher?1@ 300ccefc     cg_weaponinit.obj
 0002:0001af24       ??_C@_0CD@JEGKAGMC@sound?1weapons?1cw_launcher?1fire?4@ 300ccf24     cg_weaponinit.obj
 0002:0001af48       ??_C@_0CF@KPBGPMAF@sound?1weapons?1e60r_launcher?1fir@ 300ccf48     cg_weaponinit.obj
 0002:0001af70       ??_C@_0CK@OPFFGAHN@sound?1weapons?1Packered_MortarGu@ 300ccf70     cg_weaponinit.obj
 0002:0001af9c       ??_C@_0BE@EHKIPHHK@rocket?1muzzle_flash@ 300ccf9c     cg_weaponinit.obj
 0002:0001afb0       ??_C@_0BO@FMGONHLF@MiniMag_launcher?1muzzle_flash@ 300ccfb0     cg_weaponinit.obj
 0002:0001afd0       ??_C@_0BJ@GHJLEPHB@cw_launcher?1muzzle_flash@ 300ccfd0     cg_weaponinit.obj
 0002:0001afec       ??_C@_0BL@KBAEFJDC@e60r_launcher?1muzzle_flash@ 300ccfec     cg_weaponinit.obj
 0002:0001b008       ??_C@_0CA@EHFLFILM@Packered_MortarGun?1muzzle_flash@ 300cd008     cg_weaponinit.obj
 0002:0001b028       ??_C@_0CJ@EIJKNCLJ@models?1weapons2?1merr_sonn?1proje@ 300cd028     cg_weaponinit.obj
 0002:0001b054       ??_C@_0CE@IOBLFLKH@sound?1weapons?1rocket?1missleloop@ 300cd054     cg_weaponinit.obj
 0002:0001b078       ??_C@_0CC@DEHPHGHB@sound?1weapons?1rocket?1alt_fire?4w@ 300cd078     cg_weaponinit.obj
 0002:0001b09c       ??_C@_0CJ@MECDNKJF@sound?1weapons?1e60r_launcher?1alt@ 300cd09c     cg_weaponinit.obj
 0002:0001b0c8       ??_C@_0CO@DDCJEOCE@sound?1weapons?1Packered_MortarGu@ 300cd0c8     cg_weaponinit.obj
 0002:0001b0f8       ??_C@_0BH@OECPONON@rocket?1altmuzzle_flash@ 300cd0f8     cg_weaponinit.obj
 0002:0001b110       ??_C@_0CB@JJFPHPKM@MiniMag_launcher?1altmuzzle_flas@ 300cd110     cg_weaponinit.obj
 0002:0001b134       ??_C@_0BM@HLLGEHIK@cw_launcher?1altmuzzle_flash@ 300cd134     cg_weaponinit.obj
 0002:0001b150       ??_C@_0BO@HFECEPNH@e60r_launcher?1altmuzzle_flash@ 300cd150     cg_weaponinit.obj
 0002:0001b170       ??_C@_0CD@HMCGAEJP@Packered_MortarGun?1altmuzzle_fl@ 300cd170     cg_weaponinit.obj
 0002:0001b194       ??_C@_0CB@CGKIDHAK@sound?1weapons?1thermal?1select?4wa@ 300cd194     cg_weaponinit.obj
 0002:0001b1b8       ??_C@_0BP@NKIENFLE@sound?1weapons?1thermal?1fire?4wav@ 300cd1b8     cg_weaponinit.obj
 0002:0001b1d8       ??_C@_0CB@MGFEFCDJ@sound?1weapons?1thermal?1charge?4wa@ 300cd1d8     cg_weaponinit.obj
 0002:0001b1fc       ??_C@_0CJ@BFFBHEKC@models?1weapons2?1thermal?1thermal@ 300cd1fc     cg_weaponinit.obj
 0002:0001b228       ??_C@_0CH@KJGJCJJ@models?1weapons2?1plasma?1plasma_p@ 300cd228     cg_weaponinit.obj
 0002:0001b250       ??_C@_0CN@IEIBHFOK@models?1weapons2?1fraggrenade?1the@ 300cd250     cg_weaponinit.obj
 0002:0001b280       ??_C@_0DD@JPIBMDNE@models?1weapons2?1V?959_concussion@ 300cd280     cg_weaponinit.obj
 0002:0001b2b4       ??_C@_0DD@LDMFIHLD@models?1weapons2?1sonic_detonator@ 300cd2b4     cg_weaponinit.obj
 0002:0001b2e8       ??_C@_0CM@DBICLMHC@models?1weapons2?1Stormi_TD?1storm@ 300cd2e8     cg_weaponinit.obj
 0002:0001b314       ??_C@_0CE@MDLOFNAP@sound?1weapons?1thermal?1thermloop@ 300cd314     cg_weaponinit.obj
 0002:0001b338       ??_C@_0CC@LCFKGMMC@sound?1weapons?1thermal?1warning?4w@ 300cd338     cg_weaponinit.obj
 0002:0001b35c       ??_C@_0CB@IPONPKH@sound?1weapons?1detpack?1select?4wa@ 300cd35c     cg_weaponinit.obj
 0002:0001b380       ??_C@_0CC@MCJFLHDA@sound?1weapons?1laser_trap?1fire?4w@ 300cd380     cg_weaponinit.obj
 0002:0001b3a4       ??_C@_0BD@NFNOIGGP@tripMine?1explosion@ 300cd3a4     cg_weaponinit.obj
 0002:0001b3b8       ??_C@_0CD@IHPKAHHF@sound?1weapons?1laser_trap?1stick?4@ 300cd3b8     cg_weaponinit.obj
 0002:0001b3dc       ??_C@_0CF@GJBNPGFB@sound?1weapons?1laser_trap?1warnin@ 300cd3dc     cg_weaponinit.obj
 0002:0001b404       ??_C@_0BP@IHNCLMHN@sound?1weapons?1detpack?1fire?4wav@ 300cd404     cg_weaponinit.obj
 0002:0001b424       ??_C@_0CA@IPNCHNFD@sound?1weapons?1detpack?1stick?4wav@ 300cd424     cg_weaponinit.obj
 0002:0001b444       ??_C@_0CC@BKBDOFHP@sound?1weapons?1detpack?1warning?4w@ 300cd444     cg_weaponinit.obj
 0002:0001b468       ??_C@_0CG@KEDFKHHA@sound?1weapons?1explosions?1explod@ 300cd468     cg_weaponinit.obj
 0002:0001b490       ??_C@_0CC@EDDABFBJ@sound?1weapons?1concussion?1fire?4w@ 300cd490     cg_weaponinit.obj
 0002:0001b4b4       ??_C@_0CH@FPNJHBC@sound?1weapons?1LJ?970_ConcRifle?1f@ 300cd4b4     cg_weaponinit.obj
 0002:0001b4dc       ??_C@_0CD@GLBHCPOA@sound?1weapons?1PulseCannon?1fire?4@ 300cd4dc     cg_weaponinit.obj
 0002:0001b500       ??_C@_0CB@NKEBCONA@sound?1weapons?1geonosian?1fire?4wa@ 300cd500     cg_weaponinit.obj
 0002:0001b524       ??_C@_0CB@DLPCKFMH@sound?1weapons?1z6_rotary?1fire?4wa@ 300cd524     cg_weaponinit.obj
 0002:0001b548       ??_C@_0BP@JIFIPBJO@sound?1weapons?1minigun?1fire?4wav@ 300cd548     cg_weaponinit.obj
 0002:0001b568       ??_C@_0BI@LEFNPLAK@concussion?1muzzle_flash@ 300cd568     cg_weaponinit.obj
 0002:0001b580       ??_C@_0BN@ILPPGOKJ@LJ?970_ConcRifle?1muzzle_flash@ 300cd580     cg_weaponinit.obj
 0002:0001b5a0       ??_C@_0BJ@ONKPLNJN@PulseCannon?1muzzle_flash@ 300cd5a0     cg_weaponinit.obj
 0002:0001b5bc       ??_C@_0BH@FDBMJALJ@geonosian?1muzzle_flash@ 300cd5bc     cg_weaponinit.obj
 0002:0001b5d4       ??_C@_0BH@GLFHCEGL@z6_rotary?1muzzle_flash@ 300cd5d4     cg_weaponinit.obj
 0002:0001b5ec       ??_C@_0BF@IFAAIOBK@minigun?1muzzle_flash@ 300cd5ec     cg_weaponinit.obj
 0002:0001b604       ??_C@_0CG@BCLNPEOK@sound?1weapons?1concussion?1alt_fi@ 300cd604     cg_weaponinit.obj
 0002:0001b62c       ??_C@_0CL@MGOGPBKD@sound?1weapons?1LJ?970_ConcRifle?1a@ 300cd62c     cg_weaponinit.obj
 0002:0001b658       ??_C@_0CH@CPFPNHBO@sound?1weapons?1PulseCannon?1alt_f@ 300cd658     cg_weaponinit.obj
 0002:0001b680       ??_C@_0CF@IODBDMEA@sound?1weapons?1geonosian?1alt_fir@ 300cd680     cg_weaponinit.obj
 0002:0001b6a8       ??_C@_0CF@LGHKIIJC@sound?1weapons?1z6_rotary?1alt_fir@ 300cd6a8     cg_weaponinit.obj
 0002:0001b6d0       ??_C@_0CD@HAPNOIOH@sound?1weapons?1minigun?1alt_fire?4@ 300cd6d0     cg_weaponinit.obj
 0002:0001b6f4       ??_C@_0BL@NBLMMMNB@concussion?1altmuzzle_flash@ 300cd6f4     cg_weaponinit.obj
 0002:0001b710       ??_C@_0BK@JBHGEPBF@geonosian?1altmuzzle_flash@ 300cd710     cg_weaponinit.obj
 0002:0001b72c       ??_C@_0BK@HONMFNNH@z6_rotary?1altmuzzle_flash@ 300cd72c     cg_weaponinit.obj
 0002:0001b748       ??_C@_0BI@IKAIMPGK@minigun?1altmuzzle_flash@ 300cd748     cg_weaponinit.obj
 0002:0001b760       ??_C@_0CH@OKJBGMJD@sound?1weapons?1s5_heavy_pistol?1f@ 300cd760     cg_weaponinit.obj
 0002:0001b788       ??_C@_0CF@IEDNOIHH@sound?1weapons?1sc?910_holdout?1fir@ 300cd788     cg_weaponinit.obj
 0002:0001b7b0       ??_C@_0CI@IOKDPCKM@sound?1weapons?1blaster_gauntlet?1@ 300cd7b0     cg_weaponinit.obj
 0002:0001b7d8       ??_C@_0CM@CHICFAAM@sound?1weapons?1mandalorian_gaunt@ 300cd7d8     cg_weaponinit.obj
 0002:0001b804       ??_C@_0CE@PNFAHJAE@sound?1weapons?1sbd_gauntlet?1fire@ 300cd804     cg_weaponinit.obj
 0002:0001b828       ??_C@_0BH@GJPMCKLM@bryar_old?1muzzle_flash@ 300cd828     cg_weaponinit.obj
 0002:0001b840       ??_C@_0BN@JOHGPIIE@s5_heavy_pistol?1muzzle_flash@ 300cd840     cg_weaponinit.obj
 0002:0001b860       ??_C@_0BL@KBNBDOKA@sc?910_holdout?1muzzle_flash@ 300cd860     cg_weaponinit.obj
 0002:0001b87c       ??_C@_0BO@KJMBHDMG@blaster_gauntlet?1muzzle_flash@ 300cd87c     cg_weaponinit.obj
 0002:0001b89c       ??_C@_0BG@OCBGLFBI@gauntlet?1muzzle_flash@ 300cd89c     cg_weaponinit.obj
 0002:0001b8b4       ??_C@_0BM@LPAHHJBD@concussion_new?1muzzle_flash@ 300cd8b4     cg_weaponinit.obj
 0002:0001b8d0       ??_C@_0CL@NDGPGHIO@sound?1weapons?1s5_heavy_pistol?1a@ 300cd8d0     cg_weaponinit.obj
 0002:0001b8fc       ??_C@_0CJ@MEPGLNAH@sound?1weapons?1sc?910_holdout?1alt@ 300cd8fc     cg_weaponinit.obj
 0002:0001b928       ??_C@_0CM@CLAFOLLD@sound?1weapons?1blaster_gauntlet?1@ 300cd928     cg_weaponinit.obj
 0002:0001b954       ??_C@_0DA@JPAHHFBH@sound?1weapons?1mandalorian_gaunt@ 300cd954     cg_weaponinit.obj
 0002:0001b984       ??_C@_0CI@LICHLMMA@sound?1weapons?1sbd_gauntlet?1alt_@ 300cd984     cg_weaponinit.obj
 0002:0001b9ac       ??_C@_0BO@FHNAPIHC@sc?910_holdout?1altmuzzle_flash@ 300cd9ac     cg_weaponinit.obj
 0002:0001b9cc       ??_C@_0CB@EDOKGOME@blaster_gauntlet?1altmuzzle_flas@ 300cd9cc     cg_weaponinit.obj
 0002:0001b9f0       ??_C@_0BJ@EBOKEBAK@gauntlet?1altmuzzle_flash@ 300cd9f0     cg_weaponinit.obj
 0002:0001ba0c       ??_C@_0BP@EAEABGAG@concussion_new?1altmuzzle_flash@ 300cda0c     cg_weaponinit.obj
 0002:0001ba2c       ??_C@_0CA@JPEAOPNB@effects?1blaster?1wall_impact?4efx@ 300cda2c     cg_weaponinit.obj
 0002:0001ba4c       ??_C@_0CB@PHAPEPNK@effects?1blaster?1flesh_impact?4ef@ 300cda4c     cg_weaponinit.obj
 0002:0001ba70       ??_C@_0CC@OIFCIFP@sound?1weapons?1rocket?1rocklf1a?4w@ 300cda70     cg_weaponinit.obj
 0002:0001ba94       ??_C@_0M@EMMDADHL@STUN_BATON2@ 300cda94     cg_weapons.obj
 0002:0001baa0       ??_C@_06LCDCKJPK@MELEE2@   300cdaa0     cg_weapons.obj
 0002:0001baa8       ??_C@_06LIBLAHOL@SABER2@   300cdaa8     cg_weapons.obj
 0002:0001bab0       ??_C@_0O@NFOAPBLO@BRYAR_PISTOL2@ 300cdab0     cg_weapons.obj
 0002:0001bac0       ??_C@_08BMNHHMEN@BLASTER2@ 300cdac0     cg_weapons.obj
 0002:0001bacc       ??_C@_0L@DNFFMADE@DISRUPTOR2@ 300cdacc     cg_weapons.obj
 0002:0001bad8       ??_C@_0L@EPLLDAJO@BOWCASTER2@ 300cdad8     cg_weapons.obj
 0002:0001bae4       ??_C@_09FBJBJIMO@REPEATER2@ 300cdae4     cg_weapons.obj
 0002:0001baf0       ??_C@_06CMLDBMOB@DEMP22@   300cdaf0     cg_weapons.obj
 0002:0001baf8       ??_C@_0L@CHLILDLC@FLECHETTE2@ 300cdaf8     cg_weapons.obj
 0002:0001bb04       ??_C@_0BB@CCGBCKPL@ROCKET_LAUNCHER2@ 300cdb04     cg_weapons.obj
 0002:0001bb18       ??_C@_08IMHOFCCE@THERMAL2@ 300cdb18     cg_weapons.obj
 0002:0001bb24       ??_C@_0L@BFLLHONK@TRIP_MINE2@ 300cdb24     cg_weapons.obj
 0002:0001bb30       ??_C@_09GKNDKKPE@DET_PACK2@ 300cdb30     cg_weapons.obj
 0002:0001bb3c       ??_C@_0M@GFAKELFB@CONCUSSION2@ 300cdb3c     cg_weapons.obj
 0002:0001bb48       ??_C@_0L@EEGLJGNK@BRYAR_OLD2@ 300cdb48     cg_weapons.obj
 0002:0001bb54       ??_C@_0O@MKCEMELK@EMPLACED_GUN2@ 300cdb54     cg_weapons.obj
 0002:0001bb64       ??_C@_07BDMGFEPP@TURRET2@  300cdb64     cg_weapons.obj
 0002:0001bb6c       ??_C@_0M@FFNIDCDK@STUN_BATON3@ 300cdb6c     cg_weapons.obj
 0002:0001bb78       ??_C@_06KLCJJILL@MELEE3@   300cdb78     cg_weapons.obj
 0002:0001bb80       ??_C@_06KBAADGKK@SABER3@   300cdb80     cg_weapons.obj
 0002:0001bb88       ??_C@_0O@MMPLMAPP@BRYAR_PISTOL3@ 300cdb88     cg_weapons.obj
 0002:0001bb98       ??_C@_08FMMENAM@BLASTER3@  300cdb98     cg_weapons.obj
 0002:0001bba4       ??_C@_0L@CEEOPBHF@DISRUPTOR3@ 300cdba4     cg_weapons.obj
 0002:0001bbb0       ??_C@_0L@FGKAABNP@BOWCASTER3@ 300cdbb0     cg_weapons.obj
 0002:0001bbbc       ??_C@_09EIIKKJIP@REPEATER3@ 300cdbbc     cg_weapons.obj
 0002:0001bbc8       ??_C@_06DFKICNKA@DEMP23@   300cdbc8     cg_weapons.obj
 0002:0001bbd0       ??_C@_0L@DOKDICPD@FLECHETTE3@ 300cdbd0     cg_weapons.obj
 0002:0001bbdc       ??_C@_0BB@DLHKBLLK@ROCKET_LAUNCHER3@ 300cdbdc     cg_weapons.obj
 0002:0001bbf0       ??_C@_08JFGFGDGF@THERMAL3@ 300cdbf0     cg_weapons.obj
 0002:0001bbfc       ??_C@_0L@MKAEPJL@TRIP_MINE3@ 300cdbfc     cg_weapons.obj
 0002:0001bc08       ??_C@_09HDMIJLLF@DET_PACK3@ 300cdc08     cg_weapons.obj
 0002:0001bc14       ??_C@_0M@HMBBHKBA@CONCUSSION3@ 300cdc14     cg_weapons.obj
 0002:0001bc20       ??_C@_0L@FNHAKHJL@BRYAR_OLD3@ 300cdc20     cg_weapons.obj
 0002:0001bc2c       ??_C@_0O@NDDPPFPL@EMPLACED_GUN3@ 300cdc2c     cg_weapons.obj
 0002:0001bc3c       ??_C@_07KNNGFLO@TURRET3@   300cdc3c     cg_weapons.obj
 0002:0001bc44       ??_C@_0M@BKJJKEPN@STUN_BATON4@ 300cdc44     cg_weapons.obj
 0002:0001bc50       ??_C@_06OEGIAOHM@MELEE4@   300cdc50     cg_weapons.obj
 0002:0001bc58       ??_C@_06OOEBKAGN@SABER4@   300cdc58     cg_weapons.obj
 0002:0001bc60       ??_C@_0O@IDLKFGDI@BRYAR_PISTOL4@ 300cdc60     cg_weapons.obj
 0002:0001bc70       ??_C@_08EKINNLML@BLASTER4@ 300cdc70     cg_weapons.obj
 0002:0001bc7c       ??_C@_0L@GLAPGHLC@DISRUPTOR4@ 300cdc7c     cg_weapons.obj
 0002:0001bc88       ??_C@_0L@BJOBJHBI@BOWCASTER4@ 300cdc88     cg_weapons.obj
 0002:0001bc94       ??_C@_09HMLDPEI@REPEATER4@ 300cdc94     cg_weapons.obj
 0002:0001bca0       ??_C@_06HKOJLLGH@DEMP24@   300cdca0     cg_weapons.obj
 0002:0001bca8       ??_C@_0L@HBOCBEDE@FLECHETTE4@ 300cdca8     cg_weapons.obj
 0002:0001bcb4       ??_C@_0BB@HEDLINHN@ROCKET_LAUNCHER4@ 300cdcb4     cg_weapons.obj
 0002:0001bcc8       ??_C@_08NKCEPFKC@THERMAL4@ 300cdcc8     cg_weapons.obj
 0002:0001bcd4       ??_C@_0L@EDOBNJFM@TRIP_MINE4@ 300cdcd4     cg_weapons.obj
 0002:0001bce0       ??_C@_09DMIJANHC@DET_PACK4@ 300cdce0     cg_weapons.obj
 0002:0001bcec       ??_C@_0M@DDFAOMNH@CONCUSSION4@ 300cdcec     cg_weapons.obj
 0002:0001bcf8       ??_C@_0L@BCDBDBFM@BRYAR_OLD4@ 300cdcf8     cg_weapons.obj
 0002:0001bd04       ??_C@_0O@JMHOGDDM@EMPLACED_GUN4@ 300cdd04     cg_weapons.obj
 0002:0001bd14       ??_C@_07EFJMPDHJ@TURRET4@  300cdd14     cg_weapons.obj
 0002:0001bd1c       ??_C@_0M@DICJFLM@STUN_BATON5@ 300cdd1c     cg_weapons.obj
 0002:0001bd28       ??_C@_06PNHDDPDN@MELEE5@   300cdd28     cg_weapons.obj
 0002:0001bd30       ??_C@_06PHFKJBCM@SABER5@   300cdd30     cg_weapons.obj
 0002:0001bd38       ??_C@_0O@JKKBGHHJ@BRYAR_PISTOL5@ 300cdd38     cg_weapons.obj
 0002:0001bd48       ??_C@_08FDJGOKIK@BLASTER5@ 300cdd48     cg_weapons.obj
 0002:0001bd54       ??_C@_0L@HCBEFGPD@DISRUPTOR5@ 300cdd54     cg_weapons.obj
 0002:0001bd60       ??_C@_0L@PKKGFJ@BOWCASTER5@ 300cdd60     cg_weapons.obj
 0002:0001bd6c       ??_C@_09BONAAOAJ@REPEATER5@ 300cdd6c     cg_weapons.obj
 0002:0001bd78       ??_C@_06GDPCIKCG@DEMP25@   300cdd78     cg_weapons.obj
 0002:0001bd80       ??_C@_0L@GIPJCFHF@FLECHETTE5@ 300cdd80     cg_weapons.obj
 0002:0001bd8c       ??_C@_0BB@GNCALMDM@ROCKET_LAUNCHER5@ 300cdd8c     cg_weapons.obj
 0002:0001bda0       ??_C@_08MDDPMEOD@THERMAL5@ 300cdda0     cg_weapons.obj
 0002:0001bdac       ??_C@_0L@FKPKOIBN@TRIP_MINE5@ 300cddac     cg_weapons.obj
 0002:0001bdb8       ??_C@_09CFJCDMDD@DET_PACK5@ 300cddb8     cg_weapons.obj
 0002:0001bdc4       ??_C@_0M@CKELNNJG@CONCUSSION5@ 300cddc4     cg_weapons.obj
 0002:0001bdd0       ??_C@_0L@LCKAABN@BRYAR_OLD5@ 300cddd0     cg_weapons.obj
 0002:0001bddc       ??_C@_0O@IFGFFCHN@EMPLACED_GUN5@ 300cdddc     cg_weapons.obj
 0002:0001bdec       ??_C@_07FMIHMCDI@TURRET5@  300cddec     cg_weapons.obj
 0002:0001bdf4       ??_C@_0M@CIKPMGHP@STUN_BATON6@ 300cddf4     cg_weapons.obj
 0002:0001be00       ??_C@_06NGFOGMPO@MELEE6@   300cde00     cg_weapons.obj
 0002:0001be08       ??_C@_06NMHHMCOP@SABER6@   300cde08     cg_weapons.obj
 0002:0001be10       ??_C@_0O@LBIMDELK@BRYAR_PISTOL6@ 300cde10     cg_weapons.obj
 0002:0001be20       ??_C@_08HILLLJEJ@BLASTER6@ 300cde20     cg_weapons.obj
 0002:0001be2c       ??_C@_0L@FJDJAFDA@DISRUPTOR6@ 300cde2c     cg_weapons.obj
 0002:0001be38       ??_C@_0L@CLNHPFJK@BOWCASTER6@ 300cde38     cg_weapons.obj
 0002:0001be44       ??_C@_09DFPNFNMK@REPEATER6@ 300cde44     cg_weapons.obj
 0002:0001be50       ??_C@_06EINPNJOF@DEMP26@   300cde50     cg_weapons.obj
 0002:0001be58       ??_C@_0L@EDNEHGLG@FLECHETTE6@ 300cde58     cg_weapons.obj
 0002:0001be64       ??_C@_0BB@EGANOPPP@ROCKET_LAUNCHER6@ 300cde64     cg_weapons.obj
 0002:0001be78       ??_C@_08OIBCJHCA@THERMAL6@ 300cde78     cg_weapons.obj
 0002:0001be84       ??_C@_0L@HBNHLLNO@TRIP_MINE6@ 300cde84     cg_weapons.obj
 0002:0001be90       ??_C@_09OLPGPPA@DET_PACK6@ 300cde90     cg_weapons.obj
 0002:0001be9c       ??_C@_0M@BGGIOFF@CONCUSSION6@ 300cde9c     cg_weapons.obj
 0002:0001bea8       ??_C@_0L@CAAHFDNO@BRYAR_OLD6@ 300cdea8     cg_weapons.obj
 0002:0001beb4       ??_C@_0O@KOEIABLO@EMPLACED_GUN6@ 300cdeb4     cg_weapons.obj
 0002:0001bec4       ??_C@_07HHKKJBPL@TURRET6@  300cdec4     cg_weapons.obj
 0002:0001becc       ??_C@_0M@DBLEPHDO@STUN_BATON7@ 300cdecc     cg_weapons.obj
 0002:0001bed8       ??_C@_06MPEFFNLP@MELEE7@   300cded8     cg_weapons.obj
 0002:0001bee0       ??_C@_06MFGMPDKO@SABER7@   300cdee0     cg_weapons.obj
 0002:0001bee8       ??_C@_0O@KIJHAFPL@BRYAR_PISTOL7@ 300cdee8     cg_weapons.obj
 0002:0001bef8       ??_C@_08GBKAIIAI@BLASTER7@ 300cdef8     cg_weapons.obj
 0002:0001bf04       ??_C@_0L@EACCDEHB@DISRUPTOR7@ 300cdf04     cg_weapons.obj
 0002:0001bf10       ??_C@_0L@DCMMMENL@BOWCASTER7@ 300cdf10     cg_weapons.obj
 0002:0001bf1c       ??_C@_09CMOGGMIL@REPEATER7@ 300cdf1c     cg_weapons.obj
 0002:0001bf28       ??_C@_06FBMEOIKE@DEMP27@   300cdf28     cg_weapons.obj
 0002:0001bf30       ??_C@_0L@FKMPEHPH@FLECHETTE7@ 300cdf30     cg_weapons.obj
 0002:0001bf3c       ??_C@_0BB@FPBGNOLO@ROCKET_LAUNCHER7@ 300cdf3c     cg_weapons.obj
 0002:0001bf50       ??_C@_08PBAJKGGB@THERMAL7@ 300cdf50     cg_weapons.obj
 0002:0001bf5c       ??_C@_0L@GIMMIKJP@TRIP_MINE7@ 300cdf5c     cg_weapons.obj
 0002:0001bf68       ??_C@_09BHKEFOLB@DET_PACK7@ 300cdf68     cg_weapons.obj
 0002:0001bf74       ??_C@_0M@BIHNLPBE@CONCUSSION7@ 300cdf74     cg_weapons.obj
 0002:0001bf80       ??_C@_0L@DJBMGCJP@BRYAR_OLD7@ 300cdf80     cg_weapons.obj
 0002:0001bf8c       ??_C@_0O@LHFDDAPP@EMPLACED_GUN7@ 300cdf8c     cg_weapons.obj
 0002:0001bf9c       ??_C@_07GOLBKALK@TURRET7@  300cdf9c     cg_weapons.obj
 0002:0001bfa4       ??_C@_0DH@ECKDIILO@CG_RegisterItemVisuals?3?5itemNum@ 300cdfa4     cg_weapons.obj
 0002:0001bfdc       ??_C@_0CK@GOIAPFJM@models?1weapons2?1SE?944C?1blaster_@ 300cdfdc     cg_weapons.obj
 0002:0001c008       ??_C@_0CJ@DFEJKBLI@models?1weapons2?1f11d_blaster?1bl@ 300ce008     cg_weapons.obj
 0002:0001c034       ??_C@_0CC@ODBJNLDN@models?1weapons2?1psg?1disruptor?4m@ 300ce034     cg_weapons.obj
 0002:0001c058       ??_C@_0CK@DGBCPJEA@models?1weapons2?1STCompRifle?1bow@ 300ce058     cg_weapons.obj
 0002:0001c084       ??_C@_0CL@EEMIKLMA@models?1weapons2?1FWMB?910?1heavy_r@ 300ce084     cg_weapons.obj
 0002:0001c0b0       ??_C@_0CI@FJFGFHCC@models?1weapons?1CarboniteRifle?1m@ 300ce0b0     cg_weapons.obj
 0002:0001c0d8       ??_C@_0CI@BEFCDGHM@models?1weapons2?1junglerifle?1c_r@ 300ce0d8     cg_weapons.obj
 0002:0001c100       ??_C@_0CE@HLOJLJID@models?1weapons2?1minigun?1minigun@ 300ce100     cg_weapons.obj
 0002:0001c124       ??_C@_0CM@KCOGJMPP@models?1weapons?1Packered_MortarG@ 300ce124     cg_weapons.obj
 0002:0001c150       ??_C@_0CH@DHPHJCNI@models?1weapons2?1Stormi_TD?1storm@ 300ce150     cg_weapons.obj
 0002:0001c178       ??_C@_0CL@HJGIEGHE@models?1weapons2?1concussion_new?1@ 300ce178     cg_weapons.obj
 0002:0001c1a4       ??_C@_0CL@PEIIPPEI@models?1weapons2?1Glie?944?1blaster@ 300ce1a4     cg_weapons.obj
 0002:0001c1d0       ??_C@_0CC@PLCCEAEN@models?1weapons2?1EL?916?1blaster?4m@ 300ce1d0     cg_weapons.obj
 0002:0001c1f4       ??_C@_0CO@CJLJGOME@models?1weapons2?1tusken_rifle?1tu@ 300ce1f4     cg_weapons.obj
 0002:0001c224       ??_C@_0CJ@FPKGNCKL@models?1weapons?1Bowcaster_heavy?1@ 300ce224     cg_weapons.obj
 0002:0001c250       ??_C@_0CC@GMBEBDPO@models?1weapons2?1dc?917m?1dc?917m?4m@ 300ce250     cg_weapons.obj
 0002:0001c274       ??_C@_0CJ@DMHIDBLF@models?1weapons2?1CR?925_icerifle?1@ 300ce274     cg_weapons.obj
 0002:0001c2a0       ??_C@_0CG@IAHDHMHA@models?1weapons2?1CR?91_cannon?1rif@ 300ce2a0     cg_weapons.obj
 0002:0001c2c8       ??_C@_0CM@IJEDMBFH@models?1weapons2?1z6_rotary?1rotar@ 300ce2c8     cg_weapons.obj
 0002:0001c2f4       ??_C@_0CO@KKBMBNBG@models?1weapons2?1sonic_detonator@ 300ce2f4     cg_weapons.obj
 0002:0001c324       ??_C@_0CC@MOKKEIKA@models?1weapons2?1noweap?1noweap?4m@ 300ce324     cg_weapons.obj
 0002:0001c348       ??_C@_0CN@BGKDKNJN@models?1weapons2?1westar_if?1blast@ 300ce348     cg_weapons.obj
 0002:0001c378       ??_C@_0CD@JOKOELN@models?1weapons2?1sad_e5?1blaster?4@ 300ce378     cg_weapons.obj
 0002:0001c39c       ??_C@_0CK@MLIEOHGE@models?1weapons2?1proj_rifle?1proj@ 300ce39c     cg_weapons.obj
 0002:0001c3c8       ??_C@_0DD@JHMDAGBB@models?1weapons2?1canderous_blast@ 300ce3c8     cg_weapons.obj
 0002:0001c3fc       ??_C@_0BO@JGPIPNBC@models?1weapons2?1t?921?1t?921?4md3@ 300ce3fc     cg_weapons.obj
 0002:0001c41c       ??_C@_0CL@KLENJGOC@models?1weapons2?1CR?924_flamerifl@ 300ce41c     cg_weapons.obj
 0002:0001c448       ??_C@_0CG@OPHCCPNN@models?1weapons?1ACP_ArrayGun?1mod@ 300ce448     cg_weapons.obj
 0002:0001c470       ??_C@_0CJ@FLMCDEFE@models?1weapons2?1geonosian?1sonic@ 300ce470     cg_weapons.obj
 0002:0001c49c       ??_C@_0DA@EGNJOCD@models?1weapons2?1e60r_launcher?1e@ 300ce49c     cg_weapons.obj
 0002:0001c4cc       ??_C@_0CO@CLGOAEAC@models?1weapons2?1V?959_Concussion@ 300ce4cc     cg_weapons.obj
 0002:0001c4fc       ??_C@_0CA@IJMPNINM@models?1weapons2?1dc?917?1dc?917?4md3@ 300ce4fc     cg_weapons.obj
 0002:0001c51c       ??_C@_0CD@EHJDPNAP@models?1weapons2?1dc?915s?1blaster?4@ 300ce51c     cg_weapons.obj
 0002:0001c540       ??_C@_0DE@IDLLPGH@models?1weapons2?1clone_disruptor@ 300ce540     cg_weapons.obj
 0002:0001c574       ??_C@_0CL@DLHHDNBI@models?1weapons2?1wbowcaster?1wbow@ 300ce574     cg_weapons.obj
 0002:0001c5a0       ??_C@_0CC@PHJNLPPK@models?1weapons2?1dc?915a?1dc?915a?4m@ 300ce5a0     cg_weapons.obj
 0002:0001c5c4       ??_C@_0CB@LLAOOPBP@models?1weapons2?1dc?917p?1demp2?4md@ 300ce5c4     cg_weapons.obj
 0002:0001c5e8       ??_C@_0CP@KCFNNGAG@models?1weapons?1DoubleBarrel_Arr@ 300ce5e8     cg_weapons.obj
 0002:0001c618       ??_C@_0CF@KJOBFIKN@models?1weapons?1PulseCannon?1mode@ 300ce618     cg_weapons.obj
 0002:0001c640       ??_C@_0CM@FHBHDBOH@models?1weapons2?1cw_launcher?1cw_@ 300ce640     cg_weapons.obj
 0002:0001c66c       ??_C@_0CI@DKJPBBAA@models?1weapons2?1fraggrenade?1the@ 300ce66c     cg_weapons.obj
 0002:0001c694       ??_C@_0DA@ECEJJILH@models?1weapons2?1sc?910_holdout?1s@ 300ce694     cg_weapons.obj
 0002:0001c6c4       ??_C@_0CD@FKEEJJEH@models?1weapons2?1dh?917?1dh?917_FA?4@ 300ce6c4     cg_weapons.obj
 0002:0001c6e8       ??_C@_0BO@OAMHEDAP@models?1weapons2?1a280?1a280?4md3@ 300ce6e8     cg_weapons.obj
 0002:0001c708       ??_C@_0CC@JFAKHACH@models?1weapons2?1DLT20A?1dlt20a?4m@ 300ce708     cg_weapons.obj
 0002:0001c72c       ??_C@_0BO@DBLGGLME@models?1weapons2?1ee?93?1ee?93?4md3@ 300ce72c     cg_weapons.obj
 0002:0001c74c       ??_C@_0DE@IEMGJEFD@models?1weapons2?1dlt?918_repeater@ 300ce74c     cg_weapons.obj
 0002:0001c780       ??_C@_0CG@IILPMOGL@models?1weapons2?1beamRIFLE?1c_rif@ 300ce780     cg_weapons.obj
 0002:0001c7a8       ??_C@_0CF@BKAPJEFI@models?1weapons?1Bryar_Rifle?1mode@ 300ce7a8     cg_weapons.obj
 0002:0001c7d0       ??_C@_0CJ@DHMOEGN@models?1weapons?1LJ?970_ConcRifle?1@ 300ce7d0     cg_weapons.obj
 0002:0001c7fc       ??_C@_0CO@OJFHLFDD@models?1weapons2?1MiniMag_launche@ 300ce7fc     cg_weapons.obj
 0002:0001c82c       ??_C@_0CC@EHGHEDND@models?1weapons2?1plasma?1plasma?4m@ 300ce82c     cg_weapons.obj
 0002:0001c850       ??_C@_0CO@CFJGNIFI@models?1weapons2?1s5_heavy_pistol@ 300ce850     cg_weapons.obj
 0002:0001c880       ??_C@_0CJ@GPGAJJDO@models?1weapons?1STCompRifle?1bowc@ 300ce880     cg_weapons.obj
 0002:0001c8ac       ??_C@_0L@FGMMEJDC@tag_weapon@ 300ce8ac     cg_weapons.obj
 0002:0001c8b8       ??_C@_0L@EKFDHKMA@tag_barrel@ 300ce8b8     cg_weapons.obj
 0002:0001c8c4       ??_C@_0M@HGFOMFLL@tag_barrel2@ 300ce8c4     cg_weapons.obj
 0002:0001c8d0       ??_C@_0M@GPEFPEPK@tag_barrel3@ 300ce8d0     cg_weapons.obj
 0002:0001c8dc       ??_C@_09FNBKMGLL@tag_flash@ 300ce8dc     cg_weapons.obj
 0002:0001c8e8       ??_C@_0BA@FIDILDHD@sv_saberswitch?6@ 300ce8e8     cg_weapons.obj
 0002:0001c8f8       ??_C@_0CN@NBNBAPF@CG_FireWeapon?3?5ent?9?$DOweapon?5?$DO?$DN?5W@ 300ce8f8     cg_weapons.obj
 0002:0001c928       ??_C@_07JCDPMDF@?$CKblade1@ 300ce928     cg_weapons.obj
 0002:0001c930       ??_C@_0CC@BMMOMPLF@models?1weapons2?1dh?917?1dh?917_w?4g@ 300ce930     cg_weapons.obj
 0002:0001c954       ??_C@_0CA@EHKNOJPD@models?1weapons2?1a280?1a280_w?4glm@ 300ce954     cg_weapons.obj
 0002:0001c974       ??_C@_0CE@CNOFGNBM@models?1weapons2?1DLT20a?1dlt20a_w@ 300ce974     cg_weapons.obj
 0002:0001c998       ??_C@_0CA@FKBGJOPN@models?1weapons2?1ee?93?1ee?93_w?4glm@ 300ce998     cg_weapons.obj
 0002:0001c9b8       ??_C@_0DG@EJBENINN@models?1weapons2?1dlt?918_repeater@ 300ce9b8     cg_weapons.obj
 0002:0001c9f0       ??_C@_0CI@NFDFNALF@models?1weapons2?1beamRIFLE?1c_rif@ 300ce9f0     cg_weapons.obj
 0002:0001ca18       ??_C@_0CF@FPJJFFFO@models?1weapons?1Bryar_Rifle?1mode@ 300cea18     cg_weapons.obj
 0002:0001ca40       ??_C@_0CJ@EGOKCFGL@models?1weapons?1LJ?970_ConcRifle?1@ 300cea40     cg_weapons.obj
 0002:0001ca6c       ??_C@_0DA@GAIAMOLF@models?1weapons2?1MiniMag_launche@ 300cea6c     cg_weapons.obj
 0002:0001ca9c       ??_C@_0CE@GKCAMEEA@models?1weapons2?1plasma?1plasma_w@ 300cea9c     cg_weapons.obj
 0002:0001cac0       ??_C@_0DA@NFIKKNPN@models?1weapons2?1s5_heavy_pistol@ 300ceac0     cg_weapons.obj
 0002:0001caf0       ??_C@_0CC@IKGFFMOL@models?1weapons2?1dc?917?1dc?917_w?4g@ 300ceaf0     cg_weapons.obj
 0002:0001cb14       ??_C@_0CF@GLHENACM@models?1weapons2?1dc?915s?1blaster_@ 300ceb14     cg_weapons.obj
 0002:0001cb3c       ??_C@_0DG@FOICFOJH@models?1weapons2?1clone_disruptor@ 300ceb3c     cg_weapons.obj
 0002:0001cb74       ??_C@_0CL@HOOBPMBO@models?1weapons2?1wbowcaster?1wbow@ 300ceb74     cg_weapons.obj
 0002:0001cba0       ??_C@_0CE@JKGNFFGG@models?1weapons2?1dc?915a?1dc?915a_w@ 300ceba0     cg_weapons.obj
 0002:0001cbc4       ??_C@_0CD@NCAPEPKI@models?1weapons2?1dc?917p?1demp2_w?4@ 300cebc4     cg_weapons.obj
 0002:0001cbe8       ??_C@_0CP@OHMLBHAA@models?1weapons?1DoubleBarrel_Arr@ 300cebe8     cg_weapons.obj
 0002:0001cc18       ??_C@_0CF@OMHHJJKL@models?1weapons?1PulseCannon?1mode@ 300cec18     cg_weapons.obj
 0002:0001cc40       ??_C@_0CO@GPABDHNH@models?1weapons2?1cw_launcher?1cw_@ 300cec40     cg_weapons.obj
 0002:0001cc70       ??_C@_0CK@EFFABPLM@models?1weapons2?1fraggrenade?1the@ 300cec70     cg_weapons.obj
 0002:0001cc9c       ??_C@_0DC@HKLAGEJB@models?1weapons2?1sc?910_holdout?1s@ 300cec9c     cg_weapons.obj
 0002:0001ccd0       ??_C@_0CP@EDGIDIHA@models?1weapons2?1westar_if?1blast@ 300cecd0     cg_weapons.obj
 0002:0001cd00       ??_C@_0CF@NJOMPKKP@models?1weapons2?1sad_e5?1blaster_@ 300ced00     cg_weapons.obj
 0002:0001cd28       ??_C@_0CM@BABPBHCN@models?1weapons2?1proj_rifle?1proj@ 300ced28     cg_weapons.obj
 0002:0001cd54       ??_C@_0DF@JFFKBEDH@models?1weapons2?1canderous_blast@ 300ced54     cg_weapons.obj
 0002:0001cd8c       ??_C@_0CA@JEBIGNFL@models?1weapons2?1t?921?1t?921_w?4glm@ 300ced8c     cg_weapons.obj
 0002:0001cdac       ??_C@_0CN@FKMEAJID@models?1weapons2?1CR?924_flamerifl@ 300cedac     cg_weapons.obj
 0002:0001cddc       ??_C@_0CG@KKOEOONL@models?1weapons?1ACP_ArrayGun?1mod@ 300ceddc     cg_weapons.obj
 0002:0001ce04       ??_C@_0CJ@BOFEPFFC@models?1weapons2?1geonosian?1sonic@ 300cee04     cg_weapons.obj
 0002:0001ce30       ??_C@_0DC@IGPOMIJO@models?1weapons2?1e60r_launcher?1e@ 300cee30     cg_weapons.obj
 0002:0001ce64       ??_C@_0DA@BKLLIICE@models?1weapons2?1V?959_Concussion@ 300cee64     cg_weapons.obj
 0002:0001ce94       ??_C@_0CN@DKECNLNJ@models?1weapons2?1Glie?944?1blaster@ 300cee94     cg_weapons.obj
 0002:0001cec4       ??_C@_0CE@BMOLIOCL@models?1weapons2?1EL?916?1blaster_w@ 300ceec4     cg_weapons.obj
 0002:0001cee8       ??_C@_0DA@CKHMHCHN@models?1weapons2?1tusken_rifle?1tu@ 300ceee8     cg_weapons.obj
 0002:0001cf18       ??_C@_0CJ@BKDABDKN@models?1weapons?1Bowcaster_heavy?1@ 300cef18     cg_weapons.obj
 0002:0001cf44       ??_C@_0CE@CBGBOECI@models?1weapons2?1dc?917m?1dc?917m_w@ 300cef44     cg_weapons.obj
 0002:0001cf68       ??_C@_0CL@OHIMGDGO@models?1weapons2?1CR?925_icerifle?1@ 300cef68     cg_weapons.obj
 0002:0001cf94       ??_C@_0CI@FJGMMBED@models?1weapons2?1CR?91_cannon?1rif@ 300cef94     cg_weapons.obj
 0002:0001cfbc       ??_C@_0CE@MDMJLBKP@models?1weapons2?1z6_rotary?1model@ 300cefbc     cg_weapons.obj
 0002:0001cfe0       ??_C@_0CM@OHHAFNPJ@models?1weapons?1Packered_MortarG@ 300cefe0     cg_weapons.obj
 0002:0001d00c       ??_C@_0DA@FAHOHGMD@models?1weapons2?1sonic_detonator@ 300cf00c     cg_weapons.obj
 0002:0001d03c       ??_C@_0CM@DPMDKINE@models?1weapons2?1SE?944C?1blaster_@ 300cf03c     cg_weapons.obj
 0002:0001d068       ??_C@_0CH@KKACCGFM@models?1weapons2?1f11d_blaster?1mo@ 300cf068     cg_weapons.obj
 0002:0001d090       ??_C@_0CE@FEAJKFCK@models?1weapons2?1psg?1disruptor_w@ 300cf090     cg_weapons.obj
 0002:0001d0b4       ??_C@_0CM@BLPIDGHO@models?1weapons2?1STCompRifle?1bow@ 300cf0b4     cg_weapons.obj
 0002:0001d0e0       ??_C@_0CN@KFBOOMDH@models?1weapons2?1FWMB?910?1heavy_r@ 300cf0e0     cg_weapons.obj
 0002:0001d110       ??_C@_0CI@BMMAJGCE@models?1weapons?1CarboniteRifle?1m@ 300cf110     cg_weapons.obj
 0002:0001d138       ??_C@_0CK@GDNALCOA@models?1weapons2?1junglerifle?1c_r@ 300cf138     cg_weapons.obj
 0002:0001d164       ??_C@_0CG@INPDLOJI@models?1weapons2?1minigun?1minigun@ 300cf164     cg_weapons.obj
 0002:0001d18c       ??_C@_0CJ@HIAAIPFJ@models?1weapons2?1Stormi_TD?1storm@ 300cf18c     cg_weapons.obj
 0002:0001d1b8       ??_C@_0CN@PLAMCEOO@models?1weapons2?1concussion_new?1@ 300cf1b8     cg_weapons.obj
 0002:0001d1e8       __real@3fe00000            300cf1e8     cg_weapons.obj
 0002:0001d1f0       __real@4072c00000000000    300cf1f0     cg_weapons.obj
 0002:0001d1f8       __real@41600000            300cf1f8     cg_weapons.obj
 0002:0001d1fc       __real@42380000            300cf1fc     cg_weapons.obj
 0002:0001d200       __real@bfc999999999999a    300cf200     cg_weapons.obj
 0002:0001d208       ??_C@_0CB@LNGBPGCI@NULL?5PS?5in?5BG_FighterUpdate?5?$CI?$CFs@ 300cf208     FighterNPC.obj
 0002:0001d22c       __real@3faaaaab            300cf22c     FighterNPC.obj
 0002:0001d230       __real@4029000000000000    300cf230     FighterNPC.obj
 0002:0001d238       __real@46192000            300cf238     FighterNPC.obj
 0002:0001d23c       __real@c4fa0000            300cf23c     FighterNPC.obj
 0002:0001d240       ??_C@_0BH@GJPJPCNN@gfx?1effects?1orangeLine@ 300cf240     fx_disruptor.obj
 0002:0001d258       ??_C@_0BH@EIFANAPO@gfx?1effects?1purpleLine@ 300cf258     fx_disruptor.obj
 0002:0001d270       ??_C@_0BH@CEFDGLBJ@gfx?1effects?1yellowLine@ 300cf270     fx_disruptor.obj
 0002:0001d288       __real@bff0000000000000    300cf288     fx_force.obj
 0002:0001d290       __xmm@3f0000003f0000003f0000003f000000 300cf290     fx_heavyrepeater.obj
 0002:0001d2a0       __real@37800000            300cf2a0     q_math.obj
 0002:0001d2a4       __real@38000000            300cf2a4     q_math.obj
 0002:0001d2a8       __real@3c8efa35            300cf2a8     q_math.obj
 0002:0001d2b0       __real@3f50624de0000000    300cf2b0     q_math.obj
 0002:0001d2b8       __real@4066c16c16c16c17    300cf2b8     q_math.obj
 0002:0001d2c0       __real@4b800000            300cf2c0     q_math.obj
 0002:0001d2c4       __real@c3340000            300cf2c4     q_math.obj
 0002:0001d2d0       __xmm@41f00000000000000000000000000000 300cf2d0     q_math.obj
 0002:0001d2e0       ??_C@_0BG@EKAPNPCH@Q_strncpyz?3?5NULL?5dest@ 300cf2e0     q_shared.obj
 0002:0001d2f8       ??_C@_0BF@BJHHBLMD@Q_strncpyz?3?5NULL?5src@ 300cf2f8     q_shared.obj
 0002:0001d310       ??_C@_0BJ@OLBOPICM@Q_strncpyz?3?5destsize?5?$DM?51@ 300cf310     q_shared.obj
 0002:0001d32c       ??_C@_0BN@EFOOAHFL@Q_strcat?3?5already?5overflowed@ 300cf32c     q_shared.obj
 0002:0001d34c       ??_C@_0CL@PJCCCJHN@Com_sprintf2?3?5overflow?5of?5?$CFi?5by@ 300cf34c     q_shared.obj
 0002:0001d378       ??_C@_0CO@NIJHFKAJ@Attempted?5to?5overrun?5string?5in?5@ 300cf378     q_shared.obj
 0002:0001d3a8       ??_C@_0CG@FLHABLN@Info_ValueForKey?3?5oversize?5info@ 300cf3a8     q_shared.obj
 0002:0001d3d0       __real@4039000000000000    300cf3d0     SpeederNPC.obj
 0002:0001d3d8       ??_C@_0BA@NNDAHIHE@WINDOW_INACTIVE@ 300cf3d8     ui_shared.obj
 0002:0001d3e8       ??_C@_0BD@BJJNFIHK@WINDOW_STYLE_EMPTY@ 300cf3e8     ui_shared.obj
 0002:0001d3fc       ??_C@_0BE@KLCEIIBH@WINDOW_STYLE_FILLED@ 300cf3fc     ui_shared.obj
 0002:0001d410       ??_C@_0BG@IEFBEMMN@WINDOW_STYLE_GRADIENT@ 300cf410     ui_shared.obj
 0002:0001d428       ??_C@_0BE@HECCLBFC@WINDOW_STYLE_SHADER@ 300cf428     ui_shared.obj
 0002:0001d43c       ??_C@_0BH@KNCNDPMK@WINDOW_STYLE_TEAMCOLOR@ 300cf43c     ui_shared.obj
 0002:0001d454       ??_C@_0BH@CDGHPFEH@WINDOW_STYLE_CINEMATIC@ 300cf454     ui_shared.obj
 0002:0001d46c       ??_C@_0BA@CFDMPPCB@ITEM_ALIGN_LEFT@ 300cf46c     ui_shared.obj
 0002:0001d47c       ??_C@_0BC@JJHJJEIH@ITEM_ALIGN_CENTER@ 300cf47c     ui_shared.obj
 0002:0001d490       ??_C@_0BB@MDDHAHGK@ITEM_ALIGN_RIGHT@ 300cf490     ui_shared.obj
 0002:0001d4a4       ??_C@_0P@ECMIINLB@ITEM_TYPE_TEXT@ 300cf4a4     ui_shared.obj
 0002:0001d4b4       ??_C@_0BB@LJMDMMLE@ITEM_TYPE_BUTTON@ 300cf4b4     ui_shared.obj
 0002:0001d4c8       ??_C@_0BG@BAAHBGEB@ITEM_TYPE_RADIOBUTTON@ 300cf4c8     ui_shared.obj
 0002:0001d4e0       ??_C@_0BD@ILDGMNNN@ITEM_TYPE_CHECKBOX@ 300cf4e0     ui_shared.obj
 0002:0001d4f4       ??_C@_0BE@MNNMOPPO@ITEM_TYPE_EDITFIELD@ 300cf4f4     ui_shared.obj
 0002:0001d508       ??_C@_0BA@OAMKEKLA@ITEM_TYPE_COMBO@ 300cf508     ui_shared.obj
 0002:0001d518       ??_C@_0BC@OFIOAFNP@ITEM_TYPE_LISTBOX@ 300cf518     ui_shared.obj
 0002:0001d52c       ??_C@_0BA@IJKKCBAM@ITEM_TYPE_MODEL@ 300cf52c     ui_shared.obj
 0002:0001d53c       ??_C@_0BE@EAPBKGDL@ITEM_TYPE_OWNERDRAW@ 300cf53c     ui_shared.obj
 0002:0001d550       ??_C@_0BH@GLLADPJF@ITEM_TYPE_NUMERICFIELD@ 300cf550     ui_shared.obj
 0002:0001d568       ??_C@_0BB@HPDKNELK@ITEM_TYPE_SLIDER@ 300cf568     ui_shared.obj
 0002:0001d57c       ??_C@_0BA@LBOLKKCE@ITEM_TYPE_YESNO@ 300cf57c     ui_shared.obj
 0002:0001d58c       ??_C@_0BA@GNNLLMC@ITEM_TYPE_MULTI@ 300cf58c     ui_shared.obj
 0002:0001d59c       ??_C@_0P@LFNHJNLI@ITEM_TYPE_BIND@ 300cf59c     ui_shared.obj
 0002:0001d5ac       ??_C@_0BF@GHBOAADB@ITEM_TYPE_TEXTSCROLL@ 300cf5ac     ui_shared.obj
 0002:0001d5c4       ??_C@_0BE@GKLJFFMB@ITEM_TYPE_INTSLIDER@ 300cf5c4     ui_shared.obj
 0002:0001d5d8       ??_C@_09OPNKCLNO@backcolor@ 300cf5d8     ui_shared.obj
 0002:0001d5e4       ??_C@_09MONNBKNO@forecolor@ 300cf5e4     ui_shared.obj
 0002:0001d5f0       ??_C@_0M@CJNAABJD@bordercolor@ 300cf5f0     ui_shared.obj
 0002:0001d5fc       ??_C@_06JFGPOFJL@fadein@   300cf5fc     ui_shared.obj
 0002:0001d604       ??_C@_07BJADIKJG@fadeout@  300cf604     ui_shared.obj
 0002:0001d60c       ??_C@_04FKMICODN@show@     300cf60c     ui_shared.obj
 0002:0001d614       ??_C@_04IBOFHAPJ@hide@     300cf614     ui_shared.obj
 0002:0001d61c       ??_C@_08OKIEAMBM@setcolor@ 300cf61c     ui_shared.obj
 0002:0001d628       ??_C@_04PMOCAHAA@open@     300cf628     ui_shared.obj
 0002:0001d630       ??_C@_05LBOHBHFK@close@    300cf630     ui_shared.obj
 0002:0001d638       ??_C@_08FBOLLCAN@setasset@ 300cf638     ui_shared.obj
 0002:0001d644       ??_C@_0O@FOIIKEEB@setbackground@ 300cf644     ui_shared.obj
 0002:0001d654       ??_C@_0BA@GEEJLPGN@setitemrectcvar@ 300cf654     ui_shared.obj
 0002:0001d664       ??_C@_0BC@IHOKDANM@setitembackground@ 300cf664     ui_shared.obj
 0002:0001d678       ??_C@_0M@KNPKGGHL@setitemtext@ 300cf678     ui_shared.obj
 0002:0001d684       ??_C@_0N@EBBIOPHN@setitemcolor@ 300cf684     ui_shared.obj
 0002:0001d694       ??_C@_0BB@HMPBEODN@setitemcolorcvar@ 300cf694     ui_shared.obj
 0002:0001d6a8       ??_C@_0M@DCMJNPEK@setitemrect@ 300cf6a8     ui_shared.obj
 0002:0001d6b4       ??_C@_0N@KMLJLNON@setteamcolor@ 300cf6b4     ui_shared.obj
 0002:0001d6c4       ??_C@_08OKIAJKBO@setfocus@ 300cf6c4     ui_shared.obj
 0002:0001d6d0       ??_C@_0P@COHLPKKB@setplayermodel@ 300cf6d0     ui_shared.obj
 0002:0001d6e0       ??_C@_0L@KGLELNDP@transition@ 300cf6e0     ui_shared.obj
 0002:0001d6ec       ??_C@_07DFOFNCMO@setcvar@  300cf6ec     ui_shared.obj
 0002:0001d6f4       ??_C@_0O@DOIJMEIF@setcvartocvar@ 300cf6f4     ui_shared.obj
 0002:0001d704       ??_C@_04MGEIEJAD@exec@     300cf704     ui_shared.obj
 0002:0001d70c       ??_C@_04GBHMDDO@play@      300cf70c     ui_shared.obj
 0002:0001d714       ??_C@_0L@NDOCJLDE@playlooped@ 300cf714     ui_shared.obj
 0002:0001d720       ??_C@_05KJPHCDKJ@orbit@    300cf720     ui_shared.obj
 0002:0001d728       ??_C@_05MHMEBBGO@scale@    300cf728     ui_shared.obj
 0002:0001d730       ??_C@_05MBNCFBEN@defer@    300cf730     ui_shared.obj
 0002:0001d738       ??_C@_0M@CIHCAJBI@rundeferred@ 300cf738     ui_shared.obj
 0002:0001d744       ??_C@_0M@FLLAMNPB@transition2@ 300cf744     ui_shared.obj
 0002:0001d750       ??_C@_09OHPGAJCO@playvoice@ 300cf750     ui_shared.obj
 0002:0001d75c       ??_C@_08GFFBPDLD@?$CLbutton2@ 300cf75c     ui_shared.obj
 0002:0001d768       ??_C@_06JIDIHCBO@?$CLspeed@ 300cf768     ui_shared.obj
 0002:0001d770       ??_C@_08KKEOHAPB@?$CLforward@ 300cf770     ui_shared.obj
 0002:0001d77c       ??_C@_05IPKGNIPH@?$CLback@ 300cf77c     ui_shared.obj
 0002:0001d784       ??_C@_09IPJNFGKP@?$CLmoveleft@ 300cf784     ui_shared.obj
 0002:0001d790       ??_C@_0L@FMBJCMEG@?$CLmoveright@ 300cf790     ui_shared.obj
 0002:0001d79c       ??_C@_07CKGNAPCP@?$CLmoveup@ 300cf79c     ui_shared.obj
 0002:0001d7a4       ??_C@_09HNJJMOJG@?$CLmovedown@ 300cf7a4     ui_shared.obj
 0002:0001d7b0       ??_C@_05HEGFDNLE@?$CLleft@ 300cf7b0     ui_shared.obj
 0002:0001d7b8       ??_C@_06NGIHBNMB@?$CLright@ 300cf7b8     ui_shared.obj
 0002:0001d7c0       ??_C@_07CHKKNAEO@?$CLstrafe@ 300cf7c0     ui_shared.obj
 0002:0001d7c8       ??_C@_07BDFIGFL@?$CLlookup@ 300cf7c8     ui_shared.obj
 0002:0001d7d0       ??_C@_09KCKOGCLI@?$CLlookdown@ 300cf7d0     ui_shared.obj
 0002:0001d7dc       ??_C@_06OBEGBCAL@?$CLmlook@ 300cf7dc     ui_shared.obj
 0002:0001d7e4       ??_C@_0L@FHIBDANG@centerview@ 300cf7e4     ui_shared.obj
 0002:0001d7f0       ??_C@_08NFHIAPM@weapon?51@ 300cf7f0     ui_shared.obj
 0002:0001d7fc       ??_C@_08CGHKNDDP@weapon?52@ 300cf7fc     ui_shared.obj
 0002:0001d808       ??_C@_08DPGBOCHO@weapon?53@ 300cf808     ui_shared.obj
 0002:0001d814       ??_C@_08HACAHELJ@weapon?54@ 300cf814     ui_shared.obj
 0002:0001d820       ??_C@_08GJDLEFPI@weapon?55@ 300cf820     ui_shared.obj
 0002:0001d82c       ??_C@_08ECBGBGDL@weapon?56@ 300cf82c     ui_shared.obj
 0002:0001d838       ??_C@_08FLANCHHK@weapon?57@ 300cf838     ui_shared.obj
 0002:0001d844       ??_C@_08NMJFDLLF@weapon?58@ 300cf844     ui_shared.obj
 0002:0001d850       ??_C@_08MFIOAKPE@weapon?59@ 300cf850     ui_shared.obj
 0002:0001d85c       ??_C@_09GLEANPEE@weapon?510@ 300cf85c     ui_shared.obj
 0002:0001d868       ??_C@_09HCFLOOAF@weapon?511@ 300cf868     ui_shared.obj
 0002:0001d874       ??_C@_09FJHGLNMG@weapon?512@ 300cf874     ui_shared.obj
 0002:0001d880       ??_C@_09EAGNIMIH@weapon?513@ 300cf880     ui_shared.obj
 0002:0001d88c       ??_C@_07MAODEHGM@?$CLattack@ 300cf88c     ui_shared.obj
 0002:0001d894       ??_C@_0L@GDIPNNOO@?$CLaltattack@ 300cf894     ui_shared.obj
 0002:0001d8a0       ??_C@_04JNBAAPLC@?$CLuse@  300cf8a0     ui_shared.obj
 0002:0001d8a8       ??_C@_05CPCHEFAA@taunt@    300cf8a8     ui_shared.obj
 0002:0001d8b0       ??_C@_03GMGBHMEH@bow@      300cf8b0     ui_shared.obj
 0002:0001d8b4       ??_C@_08LIGJJMBO@meditate@ 300cf8b4     ui_shared.obj
 0002:0001d8c0       ??_C@_08KJHFDKHF@flourish@ 300cf8c0     ui_shared.obj
 0002:0001d8cc       ??_C@_05GGANABEC@gloat@    300cf8cc     ui_shared.obj
 0002:0001d8d4       ??_C@_0P@NMPIEJIB@prevTeamMember@ 300cf8d4     ui_shared.obj
 0002:0001d8e4       ??_C@_0P@GJIGAACM@nextTeamMember@ 300cf8e4     ui_shared.obj
 0002:0001d8f4       ??_C@_09DIHAGAEB@nextOrder@ 300cf8f4     ui_shared.obj
 0002:0001d900       ??_C@_0N@KJLGMAFH@confirmOrder@ 300cf900     ui_shared.obj
 0002:0001d910       ??_C@_09PEFBKJOE@denyOrder@ 300cf910     ui_shared.obj
 0002:0001d91c       ??_C@_0M@PDBEJPDO@taskOffense@ 300cf91c     ui_shared.obj
 0002:0001d928       ??_C@_0M@JPJGJJPF@taskDefense@ 300cf928     ui_shared.obj
 0002:0001d934       ??_C@_0L@HNDPADH@taskPatrol@ 300cf934     ui_shared.obj
 0002:0001d940       ??_C@_08OELCHPPI@taskCamp@ 300cf940     ui_shared.obj
 0002:0001d94c       ??_C@_0L@HALHAPMG@taskFollow@ 300cf94c     ui_shared.obj
 0002:0001d958       ??_C@_0N@DNLIECKN@taskRetrieve@ 300cf958     ui_shared.obj
 0002:0001d968       ??_C@_0L@JKHNIMGE@taskEscort@ 300cf968     ui_shared.obj
 0002:0001d974       ??_C@_0M@NPBCACOK@taskOwnFlag@ 300cf974     ui_shared.obj
 0002:0001d980       ??_C@_0M@HEJOPHDA@taskSuicide@ 300cf980     ui_shared.obj
 0002:0001d98c       ??_C@_0BA@LAKLAIKA@tauntKillInsult@ 300cf98c     ui_shared.obj
 0002:0001d99c       ??_C@_0M@FHJJKLIB@tauntPraise@ 300cf99c     ui_shared.obj
 0002:0001d9a8       ??_C@_0L@OFGCNOGN@tauntTaunt@ 300cf9a8     ui_shared.obj
 0002:0001d9b4       ??_C@_0BB@DHLHLJJP@tauntDeathInsult@ 300cf9b4     ui_shared.obj
 0002:0001d9c8       ??_C@_0O@BNPKDDEF@tauntGauntlet@ 300cf9c8     ui_shared.obj
 0002:0001d9d8       ??_C@_0M@JINOELJH@messagemode@ 300cf9d8     ui_shared.obj
 0002:0001d9e4       ??_C@_0N@IDIDIMNN@messagemode2@ 300cf9e4     ui_shared.obj
 0002:0001d9f4       ??_C@_0N@JKJILNJM@messagemode3@ 300cf9f4     ui_shared.obj
 0002:0001da04       ??_C@_0N@NFNJCLFL@messagemode4@ 300cfa04     ui_shared.obj
 0002:0001da14       ??_C@_0M@DBDAMOEM@?$CLforce_jump@ 300cfa14     ui_shared.obj
 0002:0001da20       ??_C@_0M@FDHOJKJI@?$CLforce_grip@ 300cfa20     ui_shared.obj
 0002:0001da2c       ??_C@_0BB@PDNGOECE@?$CLforce_lightning@ 300cfa2c     ui_shared.obj
 0002:0001da40       ??_C@_0N@FFCOOBHL@?$CLforce_drain@ 300cfa40     ui_shared.obj
 0002:0001da50       ??_C@_09LMEPJCFC@?$CLuseforce@ 300cfa50     ui_shared.obj
 0002:0001da5c       ??_C@_0BB@IOOMJMJB@cg_thirdperson?5?$CB@ 300cfa5c     ui_shared.obj
 0002:0001da70       ??_C@_0P@FDFCLGNA@automap_button@ 300cfa70     ui_shared.obj
 0002:0001da80       ??_C@_0P@HBEPEMGI@automap_toggle@ 300cfa80     ui_shared.obj
 0002:0001da90       ??_C@_09GLHNJALG@voicechat@ 300cfa90     ui_shared.obj
 0002:0001da9c       ??_C@_09LNDLFJON@?$CLbutton12@ 300cfa9c     ui_shared.obj
 0002:0001daa8       ??_C@_09KECAGIKM@?$CLbutton13@ 300cfaa8     ui_shared.obj
 0002:0001dab4       ??_C@_09OLGBPOGL@?$CLbutton14@ 300cfab4     ui_shared.obj
 0002:0001dac0       ??_C@_09PCHKMPCK@?$CLbutton15@ 300cfac0     ui_shared.obj
 0002:0001dacc       ??_C@_06GEEPENGB@feeder@   300cfacc     ui_shared.obj
 0002:0001dad4       ??_C@_06DDLLCOJG@action@   300cfad4     ui_shared.obj
 0002:0001dadc       ??_C@_0O@BGFKBLBI@addColorRange@ 300cfadc     ui_shared.obj
 0002:0001daec       ??_C@_05CBJPDLOK@align@    300cfaec     ui_shared.obj
 0002:0001daf4       ??_C@_0M@HHKOOJO@autowrapped@ 300cfaf4     ui_shared.obj
 0002:0001db00       ??_C@_0BA@HJNHMKEG@appearance_slot@ 300cfb00     ui_shared.obj
 0002:0001db10       ??_C@_0M@DKAIGAGN@asset_model@ 300cfb10     ui_shared.obj
 0002:0001db1c       ??_C@_0N@HLFJAKEA@asset_shader@ 300cfb1c     ui_shared.obj
 0002:0001db2c       ??_C@_06ODFLABIG@border@   300cfb2c     ui_shared.obj
 0002:0001db34       ??_C@_0L@BAAMOEHP@bordersize@ 300cfb34     ui_shared.obj
 0002:0001db40       ??_C@_09DHDJHDLH@cinematic@ 300cfb40     ui_shared.obj
 0002:0001db4c       ??_C@_07HIFEPIJN@columns@  300cfb4c     ui_shared.obj
 0002:0001db54       ??_C@_04PNAHEAFM@cvar@     300cfb54     ui_shared.obj
 0002:0001db5c       ??_C@_07OELNEAOA@cvarInt@  300cfb5c     ui_shared.obj
 0002:0001db64       ??_C@_09CGGKHKAP@cvarFloat@ 300cfb64     ui_shared.obj
 0002:0001db70       ??_C@_0O@IKNDJMDK@cvarFloatList@ 300cfb70     ui_shared.obj
 0002:0001db80       ??_C@_0M@GOKMFACI@cvarStrList@ 300cfb80     ui_shared.obj
 0002:0001db8c       ??_C@_08KBIDCBHN@cvarTest@ 300cfb8c     ui_shared.obj
 0002:0001db98       ??_C@_08MCIJOGEA@desctext@ 300cfb98     ui_shared.obj
 0002:0001dba4       ??_C@_0L@GFEIECKE@decoration@ 300cfba4     ui_shared.obj
 0002:0001dbb0       ??_C@_0M@FBHLBFCC@disableCvar@ 300cfbb0     ui_shared.obj
 0002:0001dbbc       ??_C@_0M@IHJKFHF@doubleclick@ 300cfbbc     ui_shared.obj
 0002:0001dbc8       ??_C@_0O@MNJDKOBB@elementheight@ 300cfbc8     ui_shared.obj
 0002:0001dbd8       ??_C@_0M@HBNIAHKL@elementtype@ 300cfbd8     ui_shared.obj
 0002:0001dbe4       ??_C@_0N@MILKKPGL@elementwidth@ 300cfbe4     ui_shared.obj
 0002:0001dbf4       ??_C@_0L@LCDHKNEJ@enableCvar@ 300cfbf4     ui_shared.obj
 0002:0001dc00       ??_C@_04DNPGJOMD@flag@     300cfc00     ui_shared.obj
 0002:0001dc08       ??_C@_0L@NOGKCHFE@focusSound@ 300cfc08     ui_shared.obj
 0002:0001dc14       ??_C@_05MGJOOGAJ@group@    300cfc14     ui_shared.obj
 0002:0001dc1c       ??_C@_08BDDCOCNI@hideCvar@ 300cfc1c     ui_shared.obj
 0002:0001dc28       ??_C@_0BB@EIBMEDHI@horizontalscroll@ 300cfc28     ui_shared.obj
 0002:0001dc3c       ??_C@_0M@JODFBNF@isCharacter@ 300cfc3c     ui_shared.obj
 0002:0001dc48       ??_C@_07GEILFICD@isSaber@  300cfc48     ui_shared.obj
 0002:0001dc50       ??_C@_08EPHDKOFL@isSaber2@ 300cfc50     ui_shared.obj
 0002:0001dc5c       ??_C@_0L@LMAJDKOE@leaveFocus@ 300cfc5c     ui_shared.obj
 0002:0001dc68       ??_C@_08IHGPPBOI@maxChars@ 300cfc68     ui_shared.obj
 0002:0001dc74       ??_C@_0O@HPCOAMJM@maxPaintChars@ 300cfc74     ui_shared.obj
 0002:0001dc84       ??_C@_0M@HHMGANAM@model_angle@ 300cfc84     ui_shared.obj
 0002:0001dc90       ??_C@_0L@MFDDKKLB@model_fovx@ 300cfc90     ui_shared.obj
 0002:0001dc9c       ??_C@_0L@NMCIJLPA@model_fovy@ 300cfc9c     ui_shared.obj
 0002:0001dca8       ??_C@_0N@LHLPLFLG@model_origin@ 300cfca8     ui_shared.obj
 0002:0001dcb8       ??_C@_0P@NOKHMHPD@model_rotation@ 300cfcb8     ui_shared.obj
 0002:0001dcc8       ??_C@_0N@GEHEFKNH@model_g2mins@ 300cfcc8     ui_shared.obj
 0002:0001dcd8       ??_C@_0N@LJGLKNPK@model_g2maxs@ 300cfcd8     ui_shared.obj
 0002:0001dce8       ??_C@_0O@DMCMCDJO@model_g2scale@ 300cfce8     ui_shared.obj
 0002:0001dcf8       ??_C@_0N@OLIOMBCG@model_g2skin@ 300cfcf8     ui_shared.obj
 0002:0001dd08       ??_C@_0N@ONFNKGDF@model_g2anim@ 300cfd08     ui_shared.obj
 0002:0001dd18       ??_C@_0L@KAGOMOPN@mouseEnter@ 300cfd18     ui_shared.obj
 0002:0001dd24       ??_C@_0P@BCEPHLNB@mouseEnterText@ 300cfd24     ui_shared.obj
 0002:0001dd34       ??_C@_09OIHCIOIA@mouseExit@ 300cfd34     ui_shared.obj
 0002:0001dd40       ??_C@_0O@GFPABKKP@mouseExitText@ 300cfd40     ui_shared.obj
 0002:0001dd50       ??_C@_0O@FDEIBLKE@notselectable@ 300cfd50     ui_shared.obj
 0002:0001dd60       ??_C@_07PFEHHELH@onFocus@  300cfd60     ui_shared.obj
 0002:0001dd68       ??_C@_0N@LGJOCBPD@outlinecolor@ 300cfd68     ui_shared.obj
 0002:0001dd78       ??_C@_09HGLBOMNF@ownerdraw@ 300cfd78     ui_shared.obj
 0002:0001dd84       ??_C@_0O@DACAJCLK@ownerdrawFlag@ 300cfd84     ui_shared.obj
 0002:0001dd94       ??_C@_04LHPFHFPH@rect@     300cfd94     ui_shared.obj
 0002:0001dd9c       ??_C@_08LBJPPPMM@rectcvar@ 300cfd9c     ui_shared.obj
 0002:0001dda8       ??_C@_08LNBEMJIA@showCvar@ 300cfda8     ui_shared.obj
 0002:0001ddb4       ??_C@_07BELCMIIP@special@  300cfdb4     ui_shared.obj
 0002:0001ddbc       ??_C@_05IAKJCFIM@style@    300cfdbc     ui_shared.obj
 0002:0001ddc4       ??_C@_04CIMGMMMG@text@     300cfdc4     ui_shared.obj
 0002:0001ddcc       ??_C@_09PNBDGNCL@textalign@ 300cfdcc     ui_shared.obj
 0002:0001ddd8       ??_C@_0L@ELKHBJND@textalignx@ 300cfdd8     ui_shared.obj
 0002:0001dde4       ??_C@_0L@FCLMCIJC@textaligny@ 300cfde4     ui_shared.obj
 0002:0001ddf0       ??_C@_09BLEIEHKP@textscale@ 300cfdf0     ui_shared.obj
 0002:0001ddfc       ??_C@_09FMCFHDEN@textstyle@ 300cfdfc     ui_shared.obj
 0002:0001de08       ??_C@_05JPFPPFDI@text2@    300cfe08     ui_shared.obj
 0002:0001de10       ??_C@_0M@MIFHPNPG@text2alignx@ 300cfe10     ui_shared.obj
 0002:0001de1c       ??_C@_0M@NBEMMMLH@text2aligny@ 300cfe1c     ui_shared.obj
 0002:0001de28       ??_C@_07DPDAEJMK@visible@  300cfe28     ui_shared.obj
 0002:0001de30       ??_C@_07FJHHECNJ@wrapped@  300cfe30     ui_shared.obj
 0002:0001de38       ??_C@_0N@NGJINDLF@maxLineChars@ 300cfe38     ui_shared.obj
 0002:0001de48       ??_C@_0L@PPHHMIKE@lineHeight@ 300cfe48     ui_shared.obj
 0002:0001de54       ??_C@_0M@IMNLLLNC@invertyesno@ 300cfe54     ui_shared.obj
 0002:0001de60       ??_C@_0N@OJPOMGGP@scrollhidden@ 300cfe60     ui_shared.obj
 0002:0001de70       ??_C@_09GCPJPMCM@xoffset?7?7@ 300cfe70     ui_shared.obj
 0002:0001de7c       ??_C@_0O@IEMOPEEA@cvarSubString@ 300cfe7c     ui_shared.obj
 0002:0001de8c       ??_C@_0BE@MBDLAKDH@appearanceIncrement@ 300cfe8c     ui_shared.obj
 0002:0001dea0       ??_C@_0L@NBMNMLHL@borderSize@ 300cfea0     ui_shared.obj
 0002:0001deac       ??_C@_0O@COCPBLJA@descAlignment@ 300cfeac     ui_shared.obj
 0002:0001debc       ??_C@_09PAHMHFNJ@desccolor@ 300cfebc     ui_shared.obj
 0002:0001dec8       ??_C@_05MNPDEGHK@descX@    300cfec8     ui_shared.obj
 0002:0001ded0       ??_C@_05NEOIHHDL@descY@    300cfed0     ui_shared.obj
 0002:0001ded8       ??_C@_09MEFJHNGH@descScale@ 300cfed8     ui_shared.obj
 0002:0001dee4       ??_C@_0N@EEPADJLO@disablecolor@ 300cfee4     ui_shared.obj
 0002:0001def4       ??_C@_0L@OKFLOHAM@focuscolor@ 300cfef4     ui_shared.obj
 0002:0001df00       ??_C@_0L@GIACNHMO@fullscreen@ 300cff00     ui_shared.obj
 0002:0001df0c       ??_C@_07BNAIEIKL@itemDef@  300cff0c     ui_shared.obj
 0002:0001df14       ??_C@_07LAOJOJAJ@onClose@  300cff14     ui_shared.obj
 0002:0001df1c       ??_C@_08POJJMKJK@onAccept@ 300cff1c     ui_shared.obj
 0002:0001df28       ??_C@_05IIPJAONP@onESC@    300cff28     ui_shared.obj
 0002:0001df30       ??_C@_0BB@FOHPFLED@outOfBoundsClick@ 300cff30     ui_shared.obj
 0002:0001df44       ??_C@_06CJGNFCEB@onOpen@   300cff44     ui_shared.obj
 0002:0001df4c       ??_C@_05EIEHMANA@popup@    300cff4c     ui_shared.obj
 0002:0001df54       ??_C@_0CD@LBKPCJLM@UI_Alloc?3?5Failure?4?5Out?5of?5memor@ 300cff54     ui_shared.obj
 0002:0001df78       ??_C@_0BK@OKFEFFGN@?$FO1ERROR?3?5?$CFs?0?5line?5?$CFd?3?5?$CFs?6@ 300cff78     ui_shared.obj
 0002:0001df94       ??_C@_0BN@CKJPOGNB@expected?5float?5but?5found?5?$CFs?6@ 300cff94     ui_shared.obj
 0002:0001dfb4       ??_C@_0BP@FLADEANJ@expected?5integer?5but?5found?5?$CFs?6@ 300cffb4     ui_shared.obj
 0002:0001dfd4       ??_C@_04OEDFLLKD@?$CC?$CFs?$CC@ 300cffd4     ui_shared.obj
 0002:0001dfdc       ??_C@_0CL@IDBGDCGN@?$FO3WARNING?3?5item?5has?5neither?5nam@ 300cffdc     ui_shared.obj
 0002:0001e008       ??_C@_03NFKEKGGK@all@      300d0008     ui_shared.obj
 0002:0001e00c       ??_C@_0DD@ICNKGIM@?$FO3WARNING?3?5Script_Transition2?3?5@ 300d000c     ui_shared.obj
 0002:0001e040       ??_C@_04HIDEMJAH@vstr@     300d0040     ui_shared.obj
 0002:0001e048       ??_C@_0O@NAIAAIEJ@maptransition@ 300d0048     ui_shared.obj
 0002:0001e058       ??_C@_06CICODAJE@map?5?$CFs@ 300d0058     ui_shared.obj
 0002:0001e060       ??_C@_05LKKGNBCL@?$CFs?5?$DL?5@ 300d0060     ui_shared.obj
 0002:0001e068       ??_C@_0M@FHKEBODE@screenshot?6@ 300d0068     ui_shared.obj
 0002:0001e074       ??_C@_0CH@JIJGKJHM@Could?5not?5find?5?8?$CFs?8?5in?5the?5anim@ 300d0074     ui_shared.obj
 0002:0001e09c       ??_C@_0CA@MBEPFCBH@?$FO3Unknown?5item?5style?5value?5?8?$CFs?8@ 300d009c     ui_shared.obj
 0002:0001e0bc       ??_C@_0BL@LEGNDHIH@?$FO3Unknown?5item?5style?5value@ 300d00bc     ui_shared.obj
 0002:0001e0d8       ??_C@_0BP@JDCINHG@?$FO3Unknown?5text?5alignment?5value@ 300d00d8     ui_shared.obj
 0002:0001e0f8       ??_C@_0BO@GKGLOPGG@end?5of?5file?5inside?5menu?5item?6@ 300d00f8     ui_shared.obj
 0002:0001e118       ??_C@_0BN@JHFMAPJL@unknown?5menu?5item?5keyword?5?$CFs@ 300d0118     ui_shared.obj
 0002:0001e138       ??_C@_0CE@OIGKMGKE@couldn?8t?5parse?5menu?5item?5keywor@ 300d0138     ui_shared.obj
 0002:0001e15c       ??_C@_04GJDJEMBE@?$CFc?$CFc@ 300d015c     ui_shared.obj
 0002:0001e164       ??_C@_02HAOIJKIC@?$CFc@    300d0164     ui_shared.obj
 0002:0001e168       ??_C@_04GHJNJNPO@main@     300d0168     ui_shared.obj
 0002:0001e170       ??_C@_0BL@EDFDLOD@?$FO3Unknown?5menu?5style?5value@ 300d0170     ui_shared.obj
 0002:0001e18c       ??_C@_0CA@IBHJGPHG@?$FO3Unknown?5desc?5alignment?5value?6@ 300d018c     ui_shared.obj
 0002:0001e1ac       ??_C@_0BJ@MPIMCBOA@end?5of?5file?5inside?5menu?6@ 300d01ac     ui_shared.obj
 0002:0001e1c8       ??_C@_0BI@PALCAEGK@unknown?5menu?5keyword?5?$CFs@ 300d01c8     ui_shared.obj
 0002:0001e1e0       ??_C@_0BP@HJCDHJDP@couldn?8t?5parse?5menu?5keyword?5?$CFs@ 300d01e0     ui_shared.obj
 0002:0001e200       __real@4040000000000000    300d0200     ui_shared.obj
 0002:0001e208       __real@4058000000000000    300d0208     ui_shared.obj
 0002:0001e210       __real@41980000            300d0210     ui_shared.obj
 0002:0001e220       __xmm@00100004001000040010000400100004 300d0220     ui_shared.obj
 0002:0001e23c       __pDefaultRawDllMain       300d023c     LIBCMT:dll_dllmain.obj
 0002:0001e23c       __pRawDllMain              300d023c     LIBCMT:dll_dllmain.obj
 0002:0001e248       __pDestructExceptionObject 300d0248     libvcruntime:ehhelpers.obj
 0002:0001e5d8       ??_C@_08EHJDFFNH@__based?$CI@ 300d05d8     libvcruntime:undname.obj
 0002:0001e5e4       ??_C@_07KOLFKCDI@__cdecl@  300d05e4     libvcruntime:undname.obj
 0002:0001e5ec       ??_C@_09IFJBGAPI@__stdcall@ 300d05ec     libvcruntime:undname.obj
 0002:0001e5f8       ??_C@_0L@NPHFGOKO@__thiscall@ 300d05f8     libvcruntime:undname.obj
 0002:0001e604       ??_C@_0L@JMKHOMEK@__fastcall@ 300d0604     libvcruntime:undname.obj
 0002:0001e610       ??_C@_0N@BCKKPABJ@__vectorcall@ 300d0610     libvcruntime:undname.obj
 0002:0001e620       ??_C@_0BA@NAGGFLJK@__preserve_none@ 300d0620     libvcruntime:undname.obj
 0002:0001e630       ??_C@_09HIJEGCPM@__clrcall@ 300d0630     libvcruntime:undname.obj
 0002:0001e63c       ??_C@_06GHPCKEAG@__eabi@   300d063c     libvcruntime:undname.obj
 0002:0001e644       ??_C@_09IOPIDJLG@__swift_1@ 300d0644     libvcruntime:undname.obj
 0002:0001e650       ??_C@_09KFNFGKHF@__swift_2@ 300d0650     libvcruntime:undname.obj
 0002:0001e65c       ??_C@_09LMMOFLDE@__swift_3@ 300d065c     libvcruntime:undname.obj
 0002:0001e668       ??_C@_07JOMMBBKO@__ptr64@  300d0668     libvcruntime:undname.obj
 0002:0001e670       ??_C@_0L@PILCLIHE@__restrict@ 300d0670     libvcruntime:undname.obj
 0002:0001e67c       ??_C@_0M@GFIIJFMG@__unaligned@ 300d067c     libvcruntime:undname.obj
 0002:0001e688       ??_C@_09DHDLOLLB@restrict?$CI@ 300d0688     libvcruntime:undname.obj
 0002:0001e694       ??_C@_04NIHEBCM@?5new@     300d0694     libvcruntime:undname.obj
 0002:0001e69c       ??_C@_07FPCDHGMM@?5delete@ 300d069c     libvcruntime:undname.obj
 0002:0001e6a4       ??_C@_02GPIOPFAK@?$DO?$DO@ 300d06a4     libvcruntime:undname.obj
 0002:0001e6a8       ??_C@_02FODMEDOG@?$DM?$DM@ 300d06a8     libvcruntime:undname.obj
 0002:0001e6ac       ??_C@_01DCLJPIOD@?$CB@     300d06ac     libvcruntime:undname.obj
 0002:0001e6b0       ??_C@_02EGOFBIJA@?$DN?$DN@ 300d06b0     libvcruntime:undname.obj
 0002:0001e6b4       ??_C@_02FDNJECIE@?$CB?$DN@ 300d06b4     libvcruntime:undname.obj
 0002:0001e6b8       ??_C@_02GPECMEKF@?$FL?$FN@ 300d06b8     libvcruntime:undname.obj
 0002:0001e6bc       ??_C@_08LHJFAFGD@operator@ 300d06bc     libvcruntime:undname.obj
 0002:0001e6c8       ??_C@_02HBOOOICD@?9?$DO@   300d06c8     libvcruntime:undname.obj
 0002:0001e6cc       ??_C@_01NBENCBCI@?$CK@     300d06cc     libvcruntime:undname.obj
 0002:0001e6d0       ??_C@_02ECNGHCIF@?$CL?$CL@ 300d06d0     libvcruntime:undname.obj
 0002:0001e6d4       ??_C@_01MIFGBAGJ@?$CL@     300d06d4     libvcruntime:undname.obj
 0002:0001e6d8       ??_C@_01HNPIGOCE@?$CG@     300d06d8     libvcruntime:undname.obj
 0002:0001e6dc       ??_C@_03MNHNFDLC@?9?$DO?$CK@ 300d06dc     libvcruntime:undname.obj
 0002:0001e6e0       ??_C@_01FGNFDNOH@?$CF@     300d06e0     libvcruntime:undname.obj
 0002:0001e6e4       ??_C@_01MNNFJEPP@?$DM@     300d06e4     libvcruntime:undname.obj
 0002:0001e6e8       ??_C@_02EHCHHCKH@?$DM?$DN@ 300d06e8     libvcruntime:undname.obj
 0002:0001e6ec       ??_C@_01PPODPGHN@?$DO@     300d06ec     libvcruntime:undname.obj
 0002:0001e6f0       ??_C@_02EEKDKGMJ@?$DO?$DN@ 300d06f0     libvcruntime:undname.obj
 0002:0001e6f4       ??_C@_02HCKGKOFO@?$CI?$CJ@ 300d06f4     libvcruntime:undname.obj
 0002:0001e6f8       ??_C@_01PJKLJHI@?$HO@      300d06f8     libvcruntime:undname.obj
 0002:0001e6fc       ??_C@_01JKBOJNNK@?$FO@     300d06fc     libvcruntime:undname.obj
 0002:0001e700       ??_C@_01DNKMNLPK@?$HM@     300d0700     libvcruntime:undname.obj
 0002:0001e704       ??_C@_02PPKAJPJL@?$CG?$CG@ 300d0704     libvcruntime:undname.obj
 0002:0001e708       ??_C@_02NONPIBCD@?$HM?$HM@ 300d0708     libvcruntime:undname.obj
 0002:0001e70c       ??_C@_02FPIMKNGF@?$CK?$DN@ 300d070c     libvcruntime:undname.obj
 0002:0001e710       ??_C@_02FOEOMHFC@?$CL?$DN@ 300d0710     libvcruntime:undname.obj
 0002:0001e714       ??_C@_02FKMDLLOA@?9?$DN@   300d0714     libvcruntime:undname.obj
 0002:0001e718       ??_C@_02FJEHGPIO@?1?$DN@   300d0718     libvcruntime:undname.obj
 0002:0001e71c       ??_C@_02FENAOKFI@?$CF?$DN@ 300d071c     libvcruntime:undname.obj
 0002:0001e720       ??_C@_03IKFCCPFF@?$DO?$DO?$DN@ 300d0720     libvcruntime:undname.obj
 0002:0001e724       ??_C@_03CDNPDDLA@?$DM?$DM?$DN@ 300d0724     libvcruntime:undname.obj
 0002:0001e728       ??_C@_02FGJGFEAB@?$CG?$DN@ 300d0728     libvcruntime:undname.obj
 0002:0001e72c       ??_C@_02DHLNPPGH@?$HM?$DN@ 300d072c     libvcruntime:undname.obj
 0002:0001e730       ??_C@_02MHEGNOJ@?$FO?$DN@  300d0730     libvcruntime:undname.obj
 0002:0001e734       ??_C@_09IFPLHPGF@?$GAvftable?8@ 300d0734     libvcruntime:undname.obj
 0002:0001e740       ??_C@_09BLBHBJP@?$GAvbtable?8@ 300d0740     libvcruntime:undname.obj
 0002:0001e74c       ??_C@_07FEEIOKP@?$GAvcall?8@ 300d074c     libvcruntime:undname.obj
 0002:0001e754       ??_C@_08LLFFHHDJ@?$GAtypeof?8@ 300d0754     libvcruntime:undname.obj
 0002:0001e760       ??_C@_0BF@KDPPACIK@?$GAlocal?5static?5guard?8@ 300d0760     libvcruntime:undname.obj
 0002:0001e778       ??_C@_08OBABFOLI@?$GAstring?8@ 300d0778     libvcruntime:undname.obj
 0002:0001e784       ??_C@_0BD@JDLKDPAB@?$GAvbase?5destructor?8@ 300d0784     libvcruntime:undname.obj
 0002:0001e798       ??_C@_0BN@DEGPLNFK@?$GAvector?5deleting?5destructor?8@ 300d0798     libvcruntime:undname.obj
 0002:0001e7b8       ??_C@_0BO@OBMKPJIG@?$GAdefault?5constructor?5closure?8@ 300d07b8     libvcruntime:undname.obj
 0002:0001e7d8       ??_C@_0BN@IMDCHIKM@?$GAscalar?5deleting?5destructor?8@ 300d07d8     libvcruntime:undname.obj
 0002:0001e7f8       ??_C@_0BO@PFGOCPJJ@?$GAvector?5constructor?5iterator?8@ 300d07f8     libvcruntime:undname.obj
 0002:0001e818       ??_C@_0BN@LFPFMEDL@?$GAvector?5destructor?5iterator?8@ 300d0818     libvcruntime:undname.obj
 0002:0001e838       ??_C@_0CE@IKBNEHA@?$GAvector?5vbase?5constructor?5itera@ 300d0838     libvcruntime:undname.obj
 0002:0001e85c       ??_C@_0BL@NILFHHPC@?$GAvirtual?5displacement?5map?8@ 300d085c     libvcruntime:undname.obj
 0002:0001e878       ??_C@_0CB@JONCMFFK@?$GAeh?5vector?5constructor?5iterator@ 300d0878     libvcruntime:undname.obj
 0002:0001e89c       ??_C@_0CA@GCEOPDGL@?$GAeh?5vector?5destructor?5iterator?8@ 300d089c     libvcruntime:undname.obj
 0002:0001e8bc       ??_C@_0CH@OOJPLCPH@?$GAeh?5vector?5vbase?5constructor?5it@ 300d08bc     libvcruntime:undname.obj
 0002:0001e8e4       ??_C@_0BL@LLKPOHJI@?$GAcopy?5constructor?5closure?8@ 300d08e4     libvcruntime:undname.obj
 0002:0001e900       ??_C@_0BA@KBCDOMBN@?$GAudt?5returning?8@ 300d0900     libvcruntime:undname.obj
 0002:0001e910       ??_C@_03KLGMFNMG@?$GAEH@   300d0910     libvcruntime:undname.obj
 0002:0001e914       ??_C@_05KHLCHHI@?$GARTTI@  300d0914     libvcruntime:undname.obj
 0002:0001e91c       ??_C@_0BA@KKLDJDLB@?$GAlocal?5vftable?8@ 300d091c     libvcruntime:undname.obj
 0002:0001e92c       ??_C@_0CE@IIHCMGGL@?$GAlocal?5vftable?5constructor?5clos@ 300d092c     libvcruntime:undname.obj
 0002:0001e950       ??_C@_06FHBGPFGH@?5new?$FL?$FN@ 300d0950     libvcruntime:undname.obj
 0002:0001e958       ??_C@_09LBNFPBCA@?5delete?$FL?$FN@ 300d0958     libvcruntime:undname.obj
 0002:0001e964       ??_C@_0P@HJKNJFNN@?$GAomni?5callsig?8@ 300d0964     libvcruntime:undname.obj
 0002:0001e974       ??_C@_0BL@CNOONJFP@?$GAplacement?5delete?5closure?8@ 300d0974     libvcruntime:undname.obj
 0002:0001e990       ??_C@_0BN@CKNJLHMB@?$GAplacement?5delete?$FL?$FN?5closure?8@ 300d0990     libvcruntime:undname.obj
 0002:0001e9b0       ??_C@_0CG@CFDHKGGD@?$GAmanaged?5vector?5constructor?5ite@ 300d09b0     libvcruntime:undname.obj
 0002:0001e9d8       ??_C@_0CF@IMGKMJNO@?$GAmanaged?5vector?5destructor?5iter@ 300d09d8     libvcruntime:undname.obj
 0002:0001ea00       ??_C@_0CG@HLDDJMAG@?$GAeh?5vector?5copy?5constructor?5ite@ 300d0a00     libvcruntime:undname.obj
 0002:0001ea28       ??_C@_0CM@FCBBDIGB@?$GAeh?5vector?5vbase?5copy?5construct@ 300d0a28     libvcruntime:undname.obj
 0002:0001ea54       ??_C@_0BL@CLIPGLGB@?$GAdynamic?5initializer?5for?5?8@ 300d0a54     libvcruntime:undname.obj
 0002:0001ea70       ??_C@_0CB@PDBIFEP@?$GAdynamic?5atexit?5destructor?5for?5@ 300d0a70     libvcruntime:undname.obj
 0002:0001ea94       ??_C@_0CD@CGAJBKEJ@?$GAvector?5copy?5constructor?5iterat@ 300d0a94     libvcruntime:undname.obj
 0002:0001eab8       ??_C@_0CJ@GJELGAMM@?$GAvector?5vbase?5copy?5constructor?5@ 300d0ab8     libvcruntime:undname.obj
 0002:0001eae4       ??_C@_0CL@FGIJHLCE@?$GAmanaged?5vector?5copy?5constructo@ 300d0ae4     libvcruntime:undname.obj
 0002:0001eb10       ??_C@_0BM@PMGGMLDN@?$GAlocal?5static?5thread?5guard?8@ 300d0b10     libvcruntime:undname.obj
 0002:0001eb2c       ??_C@_0N@BDNMDMOL@operator?5?$CC?$CC?5@ 300d0b2c     libvcruntime:undname.obj
 0002:0001eb3c       ??_C@_0BC@GGEBGALA@operator?5co_await@ 300d0b3c     libvcruntime:undname.obj
 0002:0001eb50       ??_C@_0M@GAAIMMOH@operator?$DM?$DN?$DO@ 300d0b50     libvcruntime:undname.obj
 0002:0001eb5c       ??_C@_0BC@DAFEJGAK@?5Type?5Descriptor?8@ 300d0b5c     libvcruntime:undname.obj
 0002:0001eb70       ??_C@_0BM@LDKODKLH@?5Base?5Class?5Descriptor?5at?5?$CI@ 300d0b70     libvcruntime:undname.obj
 0002:0001eb8c       ??_C@_0BD@LGICGFMM@?5Base?5Class?5Array?8@ 300d0b8c     libvcruntime:undname.obj
 0002:0001eba0       ??_C@_0BN@MECKDCOJ@?5Class?5Hierarchy?5Descriptor?8@ 300d0ba0     libvcruntime:undname.obj
 0002:0001ebc0       ??_C@_0BK@CFCOFLF@?5Complete?5Object?5Locator?8@ 300d0bc0     libvcruntime:undname.obj
 0002:0001ebdc       ??_C@_0BG@JNJLAMPM@?$GAanonymous?5namespace?8@ 300d0bdc     libvcruntime:undname.obj
 0002:0001ec00       ??_C@_1DM@KHCHBNEB@?$AAa?$AAp?$AAi?$AA?9?$AAm?$AAs?$AA?9?$AAw?$AAi?$AAn?$AA?9?$AAc?$AAo?$AAr?$AAe@ 300d0c00     libvcruntime:winapi_downlevel.obj
 0002:0001ec3c       ??_C@_1DK@LPPGFMPP@?$AAa?$AAp?$AAi?$AA?9?$AAm?$AAs?$AA?9?$AAw?$AAi?$AAn?$AA?9?$AAc?$AAo?$AAr?$AAe@ 300d0c3c     libvcruntime:winapi_downlevel.obj
 0002:0001ec78       ??_C@_1BC@GDMECMAK@?$AAk?$AAe?$AAr?$AAn?$AAe?$AAl?$AA3?$AA2@ 300d0c78     libvcruntime:winapi_downlevel.obj
 0002:0001ec8c       ??_C@_1BA@PFFKHIOG@?$AAa?$AAp?$AAi?$AA?9?$AAm?$AAs?$AA?9@ 300d0c8c     libvcruntime:winapi_downlevel.obj
 0002:0001eca4       ??_C@_08KNHFBNJ@FlsAlloc@  300d0ca4     libvcruntime:winapi_downlevel.obj
 0002:0001ecb8       ??_C@_07PEJMOBNF@FlsFree@  300d0cb8     libvcruntime:winapi_downlevel.obj
 0002:0001ecc8       ??_C@_0M@GDNOONDI@FlsGetValue@ 300d0cc8     libvcruntime:winapi_downlevel.obj
 0002:0001ecdc       ??_C@_0M@JCPCPOEF@FlsSetValue@ 300d0cdc     libvcruntime:winapi_downlevel.obj
 0002:0001ecf0       ??_C@_0BM@HCFOFFN@InitializeCriticalSectionEx@ 300d0cf0     libvcruntime:winapi_downlevel.obj
 0002:0001ed10       ??_7exception@std@@6B@     300d0d10     libvcruntime:frame.obj
 0002:0001ed18       ??_C@_0BC@EOODALEL@Unknown?5exception@ 300d0d18     libvcruntime:frame.obj
 0002:0001ed30       ??_7bad_exception@std@@6B@ 300d0d30     libvcruntime:frame.obj
 0002:0001ed38       ??_C@_0O@DPKOEFFH@bad?5exception@ 300d0d38     libvcruntime:frame.obj
 0002:0001ed48       ?large_power_data@?1??multiply_by_power_of_ten@__crt_strtox@@YA_NAAUbig_integer@2@I@Z@4QBIB 300d0d48     libucrt:atof.obj
 0002:0001f650       ?large_power_indices@?1??multiply_by_power_of_ten@__crt_strtox@@YA_NAAUbig_integer@2@I@Z@4QBUunpack_index@?1??12@YA_N0I@Z@B 300d1650     libucrt:atof.obj
 0002:0001f6e8       ?small_powers_of_ten@?1??multiply_by_power_of_ten@__crt_strtox@@YA_NAAUbig_integer@2@I@Z@4QBIB 300d16e8     libucrt:atof.obj
 0002:0001f710       ??_C@_1GE@DPGDJKLM@?$AAm?$AAi?$AAn?$AAk?$AAe?$AAr?$AAn?$AAe?$AAl?$AA?2?$AAc?$AAr?$AAt?$AAs?$AA?2@ 300d1710     libucrt:atof.obj
 0002:0001f778       ??_C@_1FM@FELNCOBF@?$AA_?$AA_?$AAc?$AAr?$AAt?$AA_?$AAs?$AAt?$AAr?$AAt?$AAo?$AAx?$AA?3?$AA?3?$AAf@ 300d1778     libucrt:atof.obj
 0002:0001f7d4       ??_C@_1BG@GEMHBGAF@?$AA_?$AAi?$AAs?$AA_?$AAd?$AAo?$AAu?$AAb?$AAl?$AAe@ 300d17d4     libucrt:atof.obj
 0002:0001f7f0       ??_C@_1FK@JOJELFFO@?$AA_?$AA_?$AAc?$AAr?$AAt?$AA_?$AAs?$AAt?$AAr?$AAt?$AAo?$AAx?$AA?3?$AA?3?$AAf@ 300d17f0     libucrt:atof.obj
 0002:0001f84c       ??_C@_1BI@BANMPGJI@?$AA?$CB?$AA_?$AAi?$AAs?$AA_?$AAd?$AAo?$AAu?$AAb?$AAl?$AAe@ 300d184c     libucrt:atof.obj
 0002:0001f864       ?inf_uppercase@?1???$parse_floating_point_possible_infinity@DV?$c_string_character_source@D@__crt_strtox@@PBD@__crt_strtox@@YA?AW4floating_point_parse_result@1@AADAAV?$c_string_character_source@D@1@PBD@Z@4QBDB 300d1864     libucrt:atof.obj
 0002:0001f868       ?inf_lowercase@?1???$parse_floating_point_possible_infinity@DV?$c_string_character_source@D@__crt_strtox@@PBD@__crt_strtox@@YA?AW4floating_point_parse_result@1@AADAAV?$c_string_character_source@D@1@PBD@Z@4QBDB 300d1868     libucrt:atof.obj
 0002:0001f86c       ?inity_uppercase@?1???$parse_floating_point_possible_infinity@DV?$c_string_character_source@D@__crt_strtox@@PBD@__crt_strtox@@YA?AW4floating_point_parse_result@1@AADAAV?$c_string_character_source@D@1@PBD@Z@4QBDB 300d186c     libucrt:atof.obj
 0002:0001f874       ?inity_lowercase@?1???$parse_floating_point_possible_infinity@DV?$c_string_character_source@D@__crt_strtox@@PBD@__crt_strtox@@YA?AW4floating_point_parse_result@1@AADAAV?$c_string_character_source@D@1@PBD@Z@4QBDB 300d1874     libucrt:atof.obj
 0002:0001f87c       ?uppercase@?1???$parse_floating_point_possible_nan@DV?$c_string_character_source@D@__crt_strtox@@PBD@__crt_strtox@@YA?AW4floating_point_parse_result@1@AADAAV?$c_string_character_source@D@1@PBD@Z@4QBDB 300d187c     libucrt:atof.obj
 0002:0001f880       ?lowercase@?1???$parse_floating_point_possible_nan@DV?$c_string_character_source@D@__crt_strtox@@PBD@__crt_strtox@@YA?AW4floating_point_parse_result@1@AADAAV?$c_string_character_source@D@1@PBD@Z@4QBDB 300d1880     libucrt:atof.obj
 0002:0001f884       ?uppercase@?1???$parse_floating_point_possible_nan_is_snan@DV?$c_string_character_source@D@__crt_strtox@@@__crt_strtox@@YA_NAADAAV?$c_string_character_source@D@1@@Z@4QBDB 300d1884     libucrt:atof.obj
 0002:0001f88c       ?lowercase@?1???$parse_floating_point_possible_nan_is_snan@DV?$c_string_character_source@D@__crt_strtox@@@__crt_strtox@@YA_NAADAAV?$c_string_character_source@D@1@@Z@4QBDB 300d188c     libucrt:atof.obj
 0002:0001f894       ?uppercase@?1???$parse_floating_point_possible_nan_is_ind@DV?$c_string_character_source@D@__crt_strtox@@@__crt_strtox@@YA_NAADAAV?$c_string_character_source@D@1@@Z@4QBDB 300d1894     libucrt:atof.obj
 0002:0001f898       ?lowercase@?1???$parse_floating_point_possible_nan_is_ind@DV?$c_string_character_source@D@__crt_strtox@@@__crt_strtox@@YA_NAADAAV?$c_string_character_source@D@1@@Z@4QBDB 300d1898     libucrt:atof.obj
 0002:0001f8a0       ?constraints@?1??is_length_valid@__crt_stdio_input@@YA_NW4conversion_mode@2@W4length_modifier@2@@Z@4QAY0M@$$CBEA 300d18a0     libucrt:input.obj
 0002:0001f918       ?inf_uppercase@?1???$parse_floating_point_possible_infinity@DV?$input_adapter_character_source@V?$string_input_adapter@D@__crt_stdio_input@@@__crt_strtox@@_K@__crt_strtox@@YA?AW4floating_point_parse_result@1@AADAAV?$input_adapter_character_source@V?$string_input_adapter@D@__crt_stdio_input@@@1@_K@Z@4QBDB 300d1918     libucrt:input.obj
 0002:0001f91c       ?inf_lowercase@?1???$parse_floating_point_possible_infinity@DV?$input_adapter_character_source@V?$string_input_adapter@D@__crt_stdio_input@@@__crt_strtox@@_K@__crt_strtox@@YA?AW4floating_point_parse_result@1@AADAAV?$input_adapter_character_source@V?$string_input_adapter@D@__crt_stdio_input@@@1@_K@Z@4QBDB 300d191c     libucrt:input.obj
 0002:0001f920       ?inity_uppercase@?1???$parse_floating_point_possible_infinity@DV?$input_adapter_character_source@V?$string_input_adapter@D@__crt_stdio_input@@@__crt_strtox@@_K@__crt_strtox@@YA?AW4floating_point_parse_result@1@AADAAV?$input_adapter_character_source@V?$string_input_adapter@D@__crt_stdio_input@@@1@_K@Z@4QBDB 300d1920     libucrt:input.obj
 0002:0001f928       ?inity_lowercase@?1???$parse_floating_point_possible_infinity@DV?$input_adapter_character_source@V?$string_input_adapter@D@__crt_stdio_input@@@__crt_strtox@@_K@__crt_strtox@@YA?AW4floating_point_parse_result@1@AADAAV?$input_adapter_character_source@V?$string_input_adapter@D@__crt_stdio_input@@@1@_K@Z@4QBDB 300d1928     libucrt:input.obj
 0002:0001f930       ?uppercase@?1???$parse_floating_point_possible_nan@DV?$input_adapter_character_source@V?$string_input_adapter@D@__crt_stdio_input@@@__crt_strtox@@_K@__crt_strtox@@YA?AW4floating_point_parse_result@1@AADAAV?$input_adapter_character_source@V?$string_input_adapter@D@__crt_stdio_input@@@1@_K@Z@4QBDB 300d1930     libucrt:input.obj
 0002:0001f934       ?lowercase@?1???$parse_floating_point_possible_nan@DV?$input_adapter_character_source@V?$string_input_adapter@D@__crt_stdio_input@@@__crt_strtox@@_K@__crt_strtox@@YA?AW4floating_point_parse_result@1@AADAAV?$input_adapter_character_source@V?$string_input_adapter@D@__crt_stdio_input@@@1@_K@Z@4QBDB 300d1934     libucrt:input.obj
 0002:0001f938       ?uppercase@?1???$parse_floating_point_possible_nan_is_snan@DV?$input_adapter_character_source@V?$string_input_adapter@D@__crt_stdio_input@@@__crt_strtox@@@__crt_strtox@@YA_NAADAAV?$input_adapter_character_source@V?$string_input_adapter@D@__crt_stdio_input@@@1@@Z@4QBDB 300d1938     libucrt:input.obj
 0002:0001f940       ?lowercase@?1???$parse_floating_point_possible_nan_is_snan@DV?$input_adapter_character_source@V?$string_input_adapter@D@__crt_stdio_input@@@__crt_strtox@@@__crt_strtox@@YA_NAADAAV?$input_adapter_character_source@V?$string_input_adapter@D@__crt_stdio_input@@@1@@Z@4QBDB 300d1940     libucrt:input.obj
 0002:0001f948       ?uppercase@?1???$parse_floating_point_possible_nan_is_ind@DV?$input_adapter_character_source@V?$string_input_adapter@D@__crt_stdio_input@@@__crt_strtox@@@__crt_strtox@@YA_NAADAAV?$input_adapter_character_source@V?$string_input_adapter@D@__crt_stdio_input@@@1@@Z@4QBDB 300d1948     libucrt:input.obj
 0002:0001f94c       ?lowercase@?1???$parse_floating_point_possible_nan_is_ind@DV?$input_adapter_character_source@V?$string_input_adapter@D@__crt_stdio_input@@@__crt_strtox@@@__crt_strtox@@YA_NAADAAV?$input_adapter_character_source@V?$string_input_adapter@D@__crt_stdio_input@@@1@@Z@4QBDB 300d194c     libucrt:input.obj
 0002:0001fb40       ?standard_lookup_table_spectre@__crt_stdio_output@@3V?$spectre_mitigated_lookup_table@Ustate_transition_pair@__crt_stdio_output@@$0IA@@1@B 300d1b40     libucrt:output.obj
 0002:0001fc40       ??_C@_1O@CEDCILHN@?$AA?$CI?$AAn?$AAu?$AAl?$AAl?$AA?$CJ@ 300d1c40     libucrt:output.obj
 0002:0001fc50       ??_C@_06OJHGLDPL@?$CInull?$CJ@ 300d1c50     libucrt:output.obj
 0002:0001fe20       __OP_FMODjmptab            300d1e20     libucrt:87fmod_impl.obj
 0002:0001fe70       ___acrt_exception_action_table 300d1e70     libucrt:exception_filter.obj
 0002:0001ff00       ___acrt_signal_action_table_count 300d1f00     libucrt:exception_filter.obj
 0002:0001ff04       ___acrt_signal_action_first_fpe_index 300d1f04     libucrt:exception_filter.obj
 0002:0001ff08       ___acrt_signal_action_fpe_count 300d1f08     libucrt:exception_filter.obj
 0002:0001ff0c       ??_C@_1BI@BGOHAHKC@?$AAm?$AAs?$AAc?$AAo?$AAr?$AAe?$AAe?$AA?4?$AAd?$AAl?$AAl@ 300d1f0c     libucrt:exit.obj
 0002:0001ff24       ??_C@_0P@MIGLKIOC@CorExitProcess@ 300d1f24     libucrt:exit.obj
 0002:0001ffb8       ___newctype                300d1fb8     libucrt:ctype.obj
 0002:000202b8       ___newclmap                300d22b8     libucrt:ctype.obj
 0002:00020438       ___newcumap                300d2438     libucrt:ctype.obj
 0002:00020720       ___lc_time_c               300d2720     libucrt:nlsdata.obj
 0002:00020884       ??_C@_03KOEHGMDN@Sun@      300d2884     libucrt:nlsdata.obj
 0002:00020888       ??_C@_03PDAGKDH@Mon@       300d2888     libucrt:nlsdata.obj
 0002:0002088c       ??_C@_03NAGEINEP@Tue@      300d288c     libucrt:nlsdata.obj
 0002:00020890       ??_C@_03MHOMLAJA@Wed@      300d2890     libucrt:nlsdata.obj
 0002:00020894       ??_C@_03IOFIKPDN@Thu@      300d2894     libucrt:nlsdata.obj
 0002:00020898       ??_C@_03IDIOELNC@Fri@      300d2898     libucrt:nlsdata.obj
 0002:0002089c       ??_C@_03FEFJNEK@Sat@       300d289c     libucrt:nlsdata.obj
 0002:000208a0       ??_C@_06OOPIFAJ@Sunday@    300d28a0     libucrt:nlsdata.obj
 0002:000208a8       ??_C@_06JLEDEDGH@Monday@   300d28a8     libucrt:nlsdata.obj
 0002:000208b0       ??_C@_07BAAGCFCM@Tuesday@  300d28b0     libucrt:nlsdata.obj
 0002:000208b8       ??_C@_09DLIGFAKA@Wednesday@ 300d28b8     libucrt:nlsdata.obj
 0002:000208c4       ??_C@_08HACCIKIA@Thursday@ 300d28c4     libucrt:nlsdata.obj
 0002:000208d0       ??_C@_06JECMNKMI@Friday@   300d28d0     libucrt:nlsdata.obj
 0002:000208d8       ??_C@_08INBOOONO@Saturday@ 300d28d8     libucrt:nlsdata.obj
 0002:000208e4       ??_C@_03HJBDCHOM@Feb@      300d28e4     libucrt:nlsdata.obj
 0002:000208e8       ??_C@_03ODNJBKGA@Mar@      300d28e8     libucrt:nlsdata.obj
 0002:000208ec       ??_C@_03LEOLGMJP@Apr@      300d28ec     libucrt:nlsdata.obj
 0002:000208f0       ??_C@_03CNMDKL@May@        300d28f0     libucrt:nlsdata.obj
 0002:000208f4       ??_C@_03IDFGHECI@Jun@      300d28f4     libucrt:nlsdata.obj
 0002:000208f8       ??_C@_03LBGABGKK@Jul@      300d28f8     libucrt:nlsdata.obj
 0002:000208fc       ??_C@_03IFJFEIGA@Aug@      300d28fc     libucrt:nlsdata.obj
 0002:00020900       ??_C@_03GGCAPAJC@Sep@      300d2900     libucrt:nlsdata.obj
 0002:00020904       ??_C@_03BMAOKBAD@Oct@      300d2904     libucrt:nlsdata.obj
 0002:00020908       ??_C@_03JPJOFNIA@Nov@      300d2908     libucrt:nlsdata.obj
 0002:0002090c       ??_C@_03MKABNOCG@Dec@      300d290c     libucrt:nlsdata.obj
 0002:00020910       ??_C@_07CGJPFGJA@January@  300d2910     libucrt:nlsdata.obj
 0002:00020918       ??_C@_08GNJGEPFN@February@ 300d2918     libucrt:nlsdata.obj
 0002:00020924       ??_C@_05HPCKOFNC@March@    300d2924     libucrt:nlsdata.obj
 0002:0002092c       ??_C@_05DMJDNLEJ@April@    300d292c     libucrt:nlsdata.obj
 0002:00020934       ??_C@_04CNLMGBGM@June@     300d2934     libucrt:nlsdata.obj
 0002:0002093c       ??_C@_04MIEPOIFP@July@     300d293c     libucrt:nlsdata.obj
 0002:00020944       ??_C@_06LBBHFDDG@August@   300d2944     libucrt:nlsdata.obj
 0002:0002094c       ??_C@_09BHHEALKD@September@ 300d294c     libucrt:nlsdata.obj
 0002:00020958       ??_C@_07JJNFCEND@October@  300d2958     libucrt:nlsdata.obj
 0002:00020960       ??_C@_08HCHEGEOA@November@ 300d2960     libucrt:nlsdata.obj
 0002:0002096c       ??_C@_08EDHMEBNP@December@ 300d296c     libucrt:nlsdata.obj
 0002:00020978       ??_C@_02DEDBPAFC@AM@       300d2978     libucrt:nlsdata.obj
 0002:0002097c       ??_C@_02CJNFDJBF@PM@       300d297c     libucrt:nlsdata.obj
 0002:00020980       ??_C@_08BPBNCDIB@MM?1dd?1yy@ 300d2980     libucrt:nlsdata.obj
 0002:0002098c       ??_C@_0BE@CKGJFCPC@dddd?0?5MMMM?5dd?0?5yyyy@ 300d298c     libucrt:nlsdata.obj
 0002:000209a0       ??_C@_08JCCMCCIL@HH?3mm?3ss@ 300d29a0     libucrt:nlsdata.obj
 0002:000209ac       ??_C@_17MBGCMIPB@?$AAS?$AAu?$AAn@ 300d29ac     libucrt:nlsdata.obj
 0002:000209b4       ??_C@_17KBOMKBF@?$AAM?$AAo?$AAn@ 300d29b4     libucrt:nlsdata.obj
 0002:000209bc       ??_C@_17BMKGEGOJ@?$AAT?$AAu?$AAe@ 300d29bc     libucrt:nlsdata.obj
 0002:000209c4       ??_C@_17CJEDCEPE@?$AAW?$AAe?$AAd@ 300d29c4     libucrt:nlsdata.obj
 0002:000209cc       ??_C@_17PDPHAADD@?$AAT?$AAh?$AAu@ 300d29cc     libucrt:nlsdata.obj
 0002:000209d4       ??_C@_17HFOLPPLP@?$AAF?$AAr?$AAi@ 300d29d4     libucrt:nlsdata.obj
 0002:000209dc       ??_C@_17GGIBDPIH@?$AAS?$AAa?$AAt@ 300d29dc     libucrt:nlsdata.obj
 0002:000209e4       ??_C@_1O@IHNHDHPB@?$AAS?$AAu?$AAn?$AAd?$AAa?$AAy@ 300d29e4     libucrt:nlsdata.obj
 0002:000209f4       ??_C@_1O@MMNBFLIA@?$AAM?$AAo?$AAn?$AAd?$AAa?$AAy@ 300d29f4     libucrt:nlsdata.obj
 0002:00020a04       ??_C@_1BA@ENFBFFEK@?$AAT?$AAu?$AAe?$AAs?$AAd?$AAa?$AAy@ 300d2a04     libucrt:nlsdata.obj
 0002:00020a14       ??_C@_1BE@EBOGMDOH@?$AAW?$AAe?$AAd?$AAn?$AAe?$AAs?$AAd?$AAa?$AAy@ 300d2a14     libucrt:nlsdata.obj
 0002:00020a28       ??_C@_1BC@HHMNLIHE@?$AAT?$AAh?$AAu?$AAr?$AAs?$AAd?$AAa?$AAy@ 300d2a28     libucrt:nlsdata.obj
 0002:00020a3c       ??_C@_1O@PDICJHAG@?$AAF?$AAr?$AAi?$AAd?$AAa?$AAy@ 300d2a3c     libucrt:nlsdata.obj
 0002:00020a4c       ??_C@_1BC@ENMNNPAJ@?$AAS?$AAa?$AAt?$AAu?$AAr?$AAd?$AAa?$AAy@ 300d2a4c     libucrt:nlsdata.obj
 0002:00020a60       ??_C@_17DKNBKCHM@?$AAJ?$AAa?$AAn@ 300d2a60     libucrt:nlsdata.obj
 0002:00020a68       ??_C@_17LMDJEKJN@?$AAF?$AAe?$AAb@ 300d2a68     libucrt:nlsdata.obj
 0002:00020a70       ??_C@_17CKNLEDEC@?$AAM?$AAa?$AAr@ 300d2a70     libucrt:nlsdata.obj
 0002:00020a78       ??_C@_17LFPOIHDD@?$AAA?$AAp?$AAr@ 300d2a78     libucrt:nlsdata.obj
 0002:00020a80       ??_C@_17PNNKMEED@?$AAM?$AAa?$AAy@ 300d2a80     libucrt:nlsdata.obj
 0002:00020a88       ??_C@_17KCJGOCPB@?$AAJ?$AAu?$AAn@ 300d2a88     libucrt:nlsdata.obj
 0002:00020a90       ??_C@_17IJPCKHK@?$AAJ?$AAu?$AAl@ 300d2a90     libucrt:nlsdata.obj
 0002:00020a98       ??_C@_17ICPELBCN@?$AAA?$AAu?$AAg@ 300d2a98     libucrt:nlsdata.obj
 0002:00020aa0       ??_C@_17HCHCOKMG@?$AAS?$AAe?$AAp@ 300d2aa0     libucrt:nlsdata.obj
 0002:00020aa8       ??_C@_17FNLKOI@?$AAO?$AAc?$AAt@ 300d2aa8     libucrt:nlsdata.obj
 0002:00020ab0       ??_C@_17BBDMLCIG@?$AAN?$AAo?$AAv@ 300d2ab0     libucrt:nlsdata.obj
 0002:00020ab8       ??_C@_17EGKACKIF@?$AAD?$AAe?$AAc@ 300d2ab8     libucrt:nlsdata.obj
 0002:00020ac0       ??_C@_1BA@EFMEIEBA@?$AAJ?$AAa?$AAn?$AAu?$AAa?$AAr?$AAy@ 300d2ac0     libucrt:nlsdata.obj
 0002:00020ad0       ??_C@_1BC@JGDDFFAM@?$AAF?$AAe?$AAb?$AAr?$AAu?$AAa?$AAr?$AAy@ 300d2ad0     libucrt:nlsdata.obj
 0002:00020ae4       ??_C@_1M@IKEENEDF@?$AAM?$AAa?$AAr?$AAc?$AAh@ 300d2ae4     libucrt:nlsdata.obj
 0002:00020af0       ??_C@_1M@GJNLMHFD@?$AAA?$AAp?$AAr?$AAi?$AAl@ 300d2af0     libucrt:nlsdata.obj
 0002:00020afc       ??_C@_19EPFLPGAP@?$AAJ?$AAu?$AAn?$AAe@ 300d2afc     libucrt:nlsdata.obj
 0002:00020b08       ??_C@_19BIFMLPCD@?$AAJ?$AAu?$AAl?$AAy@ 300d2b08     libucrt:nlsdata.obj
 0002:00020b14       ??_C@_1O@PAHLKOAC@?$AAA?$AAu?$AAg?$AAu?$AAs?$AAt@ 300d2b14     libucrt:nlsdata.obj
 0002:00020b24       ??_C@_1BE@DKAAMBJL@?$AAS?$AAe?$AAp?$AAt?$AAe?$AAm?$AAb?$AAe?$AAr@ 300d2b24     libucrt:nlsdata.obj
 0002:00020b38       ??_C@_1BA@EPANDLNG@?$AAO?$AAc?$AAt?$AAo?$AAb?$AAe?$AAr@ 300d2b38     libucrt:nlsdata.obj
 0002:00020b48       ??_C@_1BC@BGLIFPF@?$AAN?$AAo?$AAv?$AAe?$AAm?$AAb?$AAe?$AAr@ 300d2b48     libucrt:nlsdata.obj
 0002:00020b5c       ??_C@_1BC@FEMKIFH@?$AAD?$AAe?$AAc?$AAe?$AAm?$AAb?$AAe?$AAr@ 300d2b5c     libucrt:nlsdata.obj
 0002:00020b70       ??_C@_15ODEHAHHF@?$AAA?$AAM@ 300d2b70     libucrt:nlsdata.obj
 0002:00020b78       ??_C@_15CLMNNGEL@?$AAP?$AAM@ 300d2b78     libucrt:nlsdata.obj
 0002:00020b80       ??_C@_1BC@IEBCMHCM@?$AAM?$AAM?$AA?1?$AAd?$AAd?$AA?1?$AAy?$AAy@ 300d2b80     libucrt:nlsdata.obj
 0002:00020b94       ??_C@_1CI@KNAKOEBC@?$AAd?$AAd?$AAd?$AAd?$AA?0?$AA?5?$AAM?$AAM?$AAM?$AAM?$AA?5?$AAd?$AAd?$AA?0?$AA?5@ 300d2b94     libucrt:nlsdata.obj
 0002:00020bbc       ??_C@_1BC@GDGBMEMK@?$AAH?$AAH?$AA?3?$AAm?$AAm?$AA?3?$AAs?$AAs@ 300d2bbc     libucrt:nlsdata.obj
 0002:00020bd0       ??_C@_1M@BMHNFIME@?$AAe?$AAn?$AA?9?$AAU?$AAS@ 300d2bd0     libucrt:nlsdata.obj
 0002:00020be0       __OP_ATAN2jmptab           300d2be0     libucrt:87triga.obj
 0002:00020c70       ___acrt_cos_sin_ctable     300d2c70     libucrt:cos_sin_ctable.obj
 0002:00021478       ??_C@_03MGHMBJCF@log@      300d3478     libucrt:libm_error.obj
 0002:0002147c       ??_C@_05HGHHAHAP@log10@    300d347c     libucrt:libm_error.obj
 0002:00021484       ??_C@_03KHJOGHMM@exp@      300d3484     libucrt:libm_error.obj
 0002:00021488       ??_C@_03JGHBODFD@pow@      300d3488     libucrt:libm_error.obj
 0002:0002148c       ??_C@_04FIHNOPOL@asin@     300d348c     libucrt:libm_error.obj
 0002:00021494       ??_C@_04PDIFKINK@acos@     300d3494     libucrt:libm_error.obj
 0002:0002149c       ??_C@_04EIAKFFMI@sqrt@     300d349c     libucrt:libm_error.obj
 0002:000214e8       ??_C@_03OEIAHPBN@INF@      300d34e8     libucrt:cvt.obj
 0002:000214ec       ??_C@_03OJHLLCGB@inf@      300d34ec     libucrt:cvt.obj
 0002:000214f0       ??_C@_03LKNCIKJB@NAN@      300d34f0     libucrt:cvt.obj
 0002:000214f4       ??_C@_03LHCJEHON@nan@      300d34f4     libucrt:cvt.obj
 0002:000214f8       ??_C@_09OFJJIMPC@NAN?$CISNAN?$CJ@ 300d34f8     libucrt:cvt.obj
 0002:00021504       ??_C@_09IPFBKMDL@nan?$CIsnan?$CJ@ 300d3504     libucrt:cvt.obj
 0002:00021510       ??_C@_08IKHNHAJ@NAN?$CIIND?$CJ@ 300d3510     libucrt:cvt.obj
 0002:0002151c       ??_C@_08OFCDMILK@nan?$CIind?$CJ@ 300d351c     libucrt:cvt.obj
 0002:00021528       ??_C@_05KLBDPFGC@e?$CL000@ 300d3528     libucrt:cvt.obj
 0002:00021540       ___acrt_acos_asin_tbl_addr 300d3540     libucrt:acos_asin_tbl_addr.obj
 0002:00022440       ___acrt_acos_asin_t_table  300d4440     libucrt:acos_asin_t_table.obj
 0002:00022c50       ___acrt_tan_ctable         300d4c50     libucrt:tan_tables.obj
 0002:00024250       __indefinite               300d6250     libucrt:87disp.obj
 0002:0002425a       __piby2                    300d625a     libucrt:87disp.obj
 0002:00024264       __piby4                    300d6264     libucrt:87disp.obj
 0002:000242a0       ??_C@_1M@HPNHIDJI@?$AAj?$AAa?$AA?9?$AAJ?$AAP@ 300d62a0     libucrt:mbctype.obj
 0002:000242ac       ??_C@_1M@BIBDDEMK@?$AAz?$AAh?$AA?9?$AAC?$AAN@ 300d62ac     libucrt:mbctype.obj
 0002:000242b8       ??_C@_1M@JLOOOEGK@?$AAk?$AAo?$AA?9?$AAK?$AAR@ 300d62b8     libucrt:mbctype.obj
 0002:000242c4       ??_C@_1M@CLNBBOPM@?$AAz?$AAh?$AA?9?$AAT?$AAW@ 300d62c4     libucrt:mbctype.obj
 0002:00024330       ??_C@_1EA@JGEFHKEI@?$AAa?$AAp?$AAi?$AA?9?$AAm?$AAs?$AA?9?$AAw?$AAi?$AAn?$AA?9?$AAc?$AAo?$AAr?$AAe@ 300d6330     libucrt:winapi_thunks.obj
 0002:00024370       ??_C@_1DM@LFJCLCKP@?$AAa?$AAp?$AAi?$AA?9?$AAm?$AAs?$AA?9?$AAw?$AAi?$AAn?$AA?9?$AAc?$AAo?$AAr?$AAe@ 300d6370     libucrt:winapi_thunks.obj
 0002:000243ac       ??_C@_1DI@KMEPCBPN@?$AAa?$AAp?$AAi?$AA?9?$AAm?$AAs?$AA?9?$AAw?$AAi?$AAn?$AA?9?$AAc?$AAo?$AAr?$AAe@ 300d63ac     libucrt:winapi_thunks.obj
 0002:000243e4       ??_C@_1DI@IJCEHOCB@?$AAa?$AAp?$AAi?$AA?9?$AAm?$AAs?$AA?9?$AAw?$AAi?$AAn?$AA?9?$AAc?$AAo?$AAr?$AAe@ 300d63e4     libucrt:winapi_thunks.obj
 0002:0002441c       ??_C@_1DI@FFFOPEOO@?$AAa?$AAp?$AAi?$AA?9?$AAm?$AAs?$AA?9?$AAw?$AAi?$AAn?$AA?9?$AAc?$AAo?$AAr?$AAe@ 300d641c     libucrt:winapi_thunks.obj
 0002:00024458       ??_C@_1EI@MPIAOHOC@?$AAa?$AAp?$AAi?$AA?9?$AAm?$AAs?$AA?9?$AAw?$AAi?$AAn?$AA?9?$AAc?$AAo?$AAr?$AAe@ 300d6458     libucrt:winapi_thunks.obj
 0002:000244a0       ??_C@_1FK@FPHCKFIE@?$AAa?$AAp?$AAi?$AA?9?$AAm?$AAs?$AA?9?$AAw?$AAi?$AAn?$AA?9?$AAc?$AAo?$AAr?$AAe@ 300d64a0     libucrt:winapi_thunks.obj
 0002:00024500       ??_C@_1EM@DILCGIIO@?$AAa?$AAp?$AAi?$AA?9?$AAm?$AAs?$AA?9?$AAw?$AAi?$AAn?$AA?9?$AAc?$AAo?$AAr?$AAe@ 300d6500     libucrt:winapi_thunks.obj
 0002:0002454c       ??_C@_1DM@LNCGDDPN@?$AAa?$AAp?$AAi?$AA?9?$AAm?$AAs?$AA?9?$AAw?$AAi?$AAn?$AA?9?$AAc?$AAo?$AAr?$AAe@ 300d654c     libucrt:winapi_thunks.obj
 0002:00024588       ??_C@_1DO@FPAPJEMD@?$AAa?$AAp?$AAi?$AA?9?$AAm?$AAs?$AA?9?$AAw?$AAi?$AAn?$AA?9?$AAc?$AAo?$AAr?$AAe@ 300d6588     libucrt:winapi_thunks.obj
 0002:000245c8       ??_C@_1DK@NDHNAHIO@?$AAa?$AAp?$AAi?$AA?9?$AAm?$AAs?$AA?9?$AAw?$AAi?$AAn?$AA?9?$AAc?$AAo?$AAr?$AAe@ 300d65c8     libucrt:winapi_thunks.obj
 0002:00024604       ??_C@_1DM@KGHDGBCM@?$AAa?$AAp?$AAi?$AA?9?$AAm?$AAs?$AA?9?$AAw?$AAi?$AAn?$AA?9?$AAc?$AAo?$AAr?$AAe@ 300d6604     libucrt:winapi_thunks.obj
 0002:00024640       ??_C@_1EO@IJIOEFOH@?$AAa?$AAp?$AAi?$AA?9?$AAm?$AAs?$AA?9?$AAw?$AAi?$AAn?$AA?9?$AAr?$AAt?$AAc?$AAo@ 300d6640     libucrt:winapi_thunks.obj
 0002:00024690       ??_C@_1FG@HHGEKANL@?$AAa?$AAp?$AAi?$AA?9?$AAm?$AAs?$AA?9?$AAw?$AAi?$AAn?$AA?9?$AAs?$AAe?$AAc?$AAu@ 300d6690     libucrt:winapi_thunks.obj
 0002:000246e8       ??_C@_1EG@DBIOJECG@?$AAe?$AAx?$AAt?$AA?9?$AAm?$AAs?$AA?9?$AAw?$AAi?$AAn?$AA?9?$AAn?$AAt?$AAu?$AAs@ 300d66e8     libucrt:winapi_thunks.obj
 0002:00024730       ??_C@_1EO@FIHMJCLF@?$AAe?$AAx?$AAt?$AA?9?$AAm?$AAs?$AA?9?$AAw?$AAi?$AAn?$AA?9?$AAn?$AAt?$AAu?$AAs@ 300d6730     libucrt:winapi_thunks.obj
 0002:00024780       ??_C@_1BC@DNHGCMLG@?$AAa?$AAd?$AAv?$AAa?$AAp?$AAi?$AA3?$AA2@ 300d6780     libucrt:winapi_thunks.obj
 0002:00024794       ??_C@_1BG@CJPGBMEF@?$AAk?$AAe?$AAr?$AAn?$AAe?$AAl?$AAb?$AAa?$AAs?$AAe@ 300d6794     libucrt:winapi_thunks.obj
 0002:000247ac       ??_C@_1M@OAIMIKLP@?$AAn?$AAt?$AAd?$AAl?$AAl@ 300d67ac     libucrt:winapi_thunks.obj
 0002:000247b8       ??_C@_1EG@DPGNFKGC@?$AAa?$AAp?$AAi?$AA?9?$AAm?$AAs?$AA?9?$AAw?$AAi?$AAn?$AA?9?$AAa?$AAp?$AAp?$AAm@ 300d67b8     libucrt:winapi_thunks.obj
 0002:00024800       ??_C@_1O@BCCLBEOE@?$AAu?$AAs?$AAe?$AAr?$AA3?$AA2@ 300d6800     libucrt:winapi_thunks.obj
 0002:00024810       ??_C@_1BA@IAIFMGEF@?$AAe?$AAx?$AAt?$AA?9?$AAm?$AAs?$AA?9@ 300d6810     libucrt:winapi_thunks.obj
 0002:00024824       ??_C@_0BA@FHFNEAED@AreFileApisANSI@ 300d6824     libucrt:winapi_thunks.obj
 0002:0002483c       ??_C@_0N@MFBBDCAC@FlsGetValue2@ 300d683c     libucrt:winapi_thunks.obj
 0002:00024854       ??_C@_0O@KKBNKAPF@LCMapStringEx@ 300d6854     libucrt:winapi_thunks.obj
 0002:0002486c       ??_C@_0BB@HBDEELFH@LocaleNameToLCID@ 300d686c     libucrt:winapi_thunks.obj
 0002:00024884       ??_C@_0CF@OJOFEIGO@AppPolicyGetProcessTerminationM@ 300d6884     libucrt:winapi_thunks.obj
 0002:000248ac       ??_C@_15PJPFLCCM@?$AAu?$AAk@ 300d68ac     libucrt:get_qualified_locale.obj
 0002:00024978       __DEFAULT_CW_in_mem        300d6978     libucrt:common.obj
 0002:0002497a       __pi_by_2_to_61            300d697a     libucrt:common.obj
 0002:00024b48       ??_C@_04COOMCNPB@sinh@     300d6b48     libucrt:fpexcept.obj
 0002:00024b50       ??_C@_04HPJJNFIM@cosh@     300d6b50     libucrt:fpexcept.obj
 0002:00024b58       ??_C@_04FJHINJAO@tanh@     300d6b58     libucrt:fpexcept.obj
 0002:00024b60       ??_C@_04MLLJIGOK@atan@     300d6b60     libucrt:fpexcept.obj
 0002:00024b68       ??_C@_05KNGEOGJB@atan2@    300d6b68     libucrt:fpexcept.obj
 0002:00024b70       ??_C@_03BLEJJJBH@sin@      300d6b70     libucrt:fpexcept.obj
 0002:00024b74       ??_C@_03LALBNOCG@cos@      300d6b74     libucrt:fpexcept.obj
 0002:00024b78       ??_C@_03IIINPABG@tan@      300d6b78     libucrt:fpexcept.obj
 0002:00024b7c       ??_C@_04GFPJNGEK@ceil@     300d6b7c     libucrt:fpexcept.obj
 0002:00024b84       ??_C@_05PBJFFIGL@floor@    300d6b84     libucrt:fpexcept.obj
 0002:00024b8c       ??_C@_04ODHECPBC@fabs@     300d6b8c     libucrt:fpexcept.obj
 0002:00024b94       ??_C@_04EHEDPDJG@modf@     300d6b94     libucrt:fpexcept.obj
 0002:00024b9c       ??_C@_05CEJMAHNP@ldexp@    300d6b9c     libucrt:fpexcept.obj
 0002:00024ba4       ??_C@_05KBKMEMPO@_cabs@    300d6ba4     libucrt:fpexcept.obj
 0002:00024bac       ??_C@_06MEIMCGCF@_hypot@   300d6bac     libucrt:fpexcept.obj
 0002:00024bb4       ??_C@_04KEPJIHGP@fmod@     300d6bb4     libucrt:fpexcept.obj
 0002:00024bbc       ??_C@_05GKKHEGJL@frexp@    300d6bbc     libucrt:fpexcept.obj
 0002:00024bc4       ??_C@_03MJLDFKDL@_y0@      300d6bc4     libucrt:fpexcept.obj
 0002:00024bc8       ??_C@_03NAKIGLHK@_y1@      300d6bc8     libucrt:fpexcept.obj
 0002:00024bcc       ??_C@_03ONILCKOB@_yn@      300d6bcc     libucrt:fpexcept.obj
 0002:00024bd0       ??_C@_05JGDBENOH@_logb@    300d6bd0     libucrt:fpexcept.obj
 0002:00024bd8       ??_C@_0L@KDOEJCKC@_nextafter@ 300d6bd8     libucrt:fpexcept.obj
 0002:00024be8       __d_inf                    300d6be8     libucrt:frexp.obj
 0002:00024bf0       __d_max                    300d6bf0     libucrt:frexp.obj
 0002:00024bf8       __d_mzero                  300d6bf8     libucrt:frexp.obj
 0002:00024c28       ??_C@_05DNEBIAHO@1?$CDINF@ 300d6c28     libucrt:cfout.obj
 0002:00024c30       ??_C@_06IMKFLFPG@1?$CDQNAN@ 300d6c30     libucrt:cfout.obj
 0002:00024c38       ??_C@_06PGGFOGJG@1?$CDSNAN@ 300d6c38     libucrt:cfout.obj
 0002:00024c40       ??_C@_05PHHOCPM@1?$CDIND@  300d6c40     libucrt:cfout.obj
 0002:00025530       ??_C@_15EMKDOKLE@?$AAa?$AAr@ 300d7530     libucrt:lcidtoname_downlevel.obj
 0002:00025538       ??_C@_15KNPADPLH@?$AAb?$AAg@ 300d7538     libucrt:lcidtoname_downlevel.obj
 0002:00025540       ??_C@_15EDMHLDMO@?$AAc?$AAa@ 300d7540     libucrt:lcidtoname_downlevel.obj
 0002:00025548       ??_C@_1O@BPEAJADD@?$AAz?$AAh?$AA?9?$AAC?$AAH?$AAS@ 300d7548     libucrt:lcidtoname_downlevel.obj
 0002:00025558       ??_C@_15LJNHCMNK@?$AAc?$AAs@ 300d7558     libucrt:lcidtoname_downlevel.obj
 0002:00025560       ??_C@_15FOMCIDHG@?$AAd?$AAa@ 300d7560     libucrt:lcidtoname_downlevel.obj
 0002:00025568       ??_C@_15NBKABECB@?$AAd?$AAe@ 300d7568     libucrt:lcidtoname_downlevel.obj
 0002:00025570       ??_C@_15GHPEIIAO@?$AAe?$AAl@ 300d7570     libucrt:lcidtoname_downlevel.obj
 0002:00025578       ??_C@_15MNPNEAIF@?$AAe?$AAn@ 300d7578     libucrt:lcidtoname_downlevel.obj
 0002:00025580       ??_C@_15GPIOMPMH@?$AAe?$AAs@ 300d7580     libucrt:lcidtoname_downlevel.obj
 0002:00025588       ??_C@_15NGLOAKJC@?$AAf?$AAi@ 300d7588     libucrt:lcidtoname_downlevel.obj
 0002:00025590       ??_C@_15FBKGNKAM@?$AAf?$AAr@ 300d7590     libucrt:lcidtoname_downlevel.obj
 0002:00025598       ??_C@_15KGGCNEFK@?$AAh?$AAe@ 300d7598     libucrt:lcidtoname_downlevel.obj
 0002:000255a0       ??_C@_15PGHLIDMF@?$AAh?$AAu@ 300d75a0     libucrt:lcidtoname_downlevel.obj
 0002:000255a8       ??_C@_15BIEMAPLM@?$AAi?$AAs@ 300d75a8     libucrt:lcidtoname_downlevel.obj
 0002:000255b0       ??_C@_15IFJLDHAF@?$AAi?$AAt@ 300d75b0     libucrt:lcidtoname_downlevel.obj
 0002:000255b8       ??_C@_15GEMIOCAG@?$AAj?$AAa@ 300d75b8     libucrt:lcidtoname_downlevel.obj
 0002:000255c0       ??_C@_15EPELEGJA@?$AAk?$AAo@ 300d75c0     libucrt:lcidtoname_downlevel.obj
 0002:000255c8       ??_C@_15NDDHIMN@?$AAn?$AAl@ 300d75c8     libucrt:lcidtoname_downlevel.obj
 0002:000255d0       ??_C@_15BPIGNHCD@?$AAn?$AAo@ 300d75d0     libucrt:lcidtoname_downlevel.obj
 0002:000255d8       ??_C@_15DEOPBLCG@?$AAp?$AAl@ 300d75d8     libucrt:lcidtoname_downlevel.obj
 0002:000255e0       ??_C@_15KBECGEFG@?$AAp?$AAt@ 300d75e0     libucrt:lcidtoname_downlevel.obj
 0002:000255e8       ??_C@_15GLJCBFMD@?$AAr?$AAo@ 300d75e8     libucrt:lcidtoname_downlevel.obj
 0002:000255f0       ??_C@_15FEDGKCDI@?$AAr?$AAu@ 300d75f0     libucrt:lcidtoname_downlevel.obj
 0002:000255f8       ??_C@_15GLKMLLHM@?$AAh?$AAr@ 300d75f8     libucrt:lcidtoname_downlevel.obj
 0002:00025600       ??_C@_15CPKMFBDB@?$AAs?$AAk@ 300d7600     libucrt:lcidtoname_downlevel.obj
 0002:00025608       ??_C@_15BAAIOGMK@?$AAs?$AAq@ 300d7608     libucrt:lcidtoname_downlevel.obj
 0002:00025610       ??_C@_15INNPNOHD@?$AAs?$AAv@ 300d7610     libucrt:lcidtoname_downlevel.obj
 0002:00025618       ??_C@_15CABMMOGH@?$AAt?$AAh@ 300d7618     libucrt:lcidtoname_downlevel.obj
 0002:00025620       ??_C@_15BPLIHJJM@?$AAt?$AAr@ 300d7620     libucrt:lcidtoname_downlevel.obj
 0002:00025628       ??_C@_15NEOEKKDJ@?$AAu?$AAr@ 300d7628     libucrt:lcidtoname_downlevel.obj
 0002:00025630       ??_C@_15NFICGAJK@?$AAi?$AAd@ 300d7630     libucrt:lcidtoname_downlevel.obj
 0002:00025638       ??_C@_15HPJPHDM@?$AAb?$AAe@ 300d7638     libucrt:lcidtoname_downlevel.obj
 0002:00025640       ??_C@_15LCHLGJII@?$AAs?$AAl@ 300d7640     libucrt:lcidtoname_downlevel.obj
 0002:00025648       ??_C@_15PCFJPHHO@?$AAe?$AAt@ 300d7648     libucrt:lcidtoname_downlevel.obj
 0002:00025650       ??_C@_15HPFPGODN@?$AAl?$AAv@ 300d7650     libucrt:lcidtoname_downlevel.obj
 0002:00025658       ??_C@_15NFFGKGLG@?$AAl?$AAt@ 300d7658     libucrt:lcidtoname_downlevel.obj
 0002:00025660       ??_C@_15BDAKCCHN@?$AAf?$AAa@ 300d7660     libucrt:lcidtoname_downlevel.obj
 0002:00025668       ??_C@_15NFGIAIAJ@?$AAv?$AAi@ 300d7668     libucrt:lcidtoname_downlevel.obj
 0002:00025670       ??_C@_15LMKNDMHN@?$AAh?$AAy@ 300d7670     libucrt:lcidtoname_downlevel.obj
 0002:00025678       ??_C@_15IJBHMCFL@?$AAa?$AAz@ 300d7678     libucrt:lcidtoname_downlevel.obj
 0002:00025680       ??_C@_15EKOFJABL@?$AAe?$AAu@ 300d7680     libucrt:lcidtoname_downlevel.obj
 0002:00025688       ??_C@_15BGHADCNK@?$AAm?$AAk@ 300d7688     libucrt:lcidtoname_downlevel.obj
 0002:00025690       ??_C@_15JDNICKHM@?$AAa?$AAf@ 300d7690     libucrt:lcidtoname_downlevel.obj
 0002:00025698       ??_C@_15KPJEDBKD@?$AAk?$AAa@ 300d7698     libucrt:lcidtoname_downlevel.obj
 0002:000256a0       ??_C@_15PDNFFFEO@?$AAf?$AAo@ 300d76a0     libucrt:lcidtoname_downlevel.obj
 0002:000256a8       ??_C@_15OMLEGLOC@?$AAh?$AAi@ 300d76a8     libucrt:lcidtoname_downlevel.obj
 0002:000256b0       ??_C@_15IDNNENKK@?$AAm?$AAs@ 300d76b0     libucrt:lcidtoname_downlevel.obj
 0002:000256b8       ??_C@_15MACJNBMH@?$AAk?$AAk@ 300d76b8     libucrt:lcidtoname_downlevel.obj
 0002:000256c0       ??_C@_15DKDJEOND@?$AAk?$AAy@ 300d76c0     libucrt:lcidtoname_downlevel.obj
 0002:000256c8       ??_C@_15DFGDLJBG@?$AAs?$AAw@ 300d76c8     libucrt:lcidtoname_downlevel.obj
 0002:000256d0       ??_C@_15BBFAICNG@?$AAu?$AAz@ 300d76d0     libucrt:lcidtoname_downlevel.obj
 0002:000256d8       ??_C@_15DKNDCGEA@?$AAt?$AAt@ 300d76d8     libucrt:lcidtoname_downlevel.obj
 0002:000256e0       ??_C@_15MGIFMDPL@?$AAp?$AAa@ 300d76e0     libucrt:lcidtoname_downlevel.obj
 0002:000256e8       ??_C@_15HCNDBBA@?$AAg?$AAu@ 300d76e8     libucrt:lcidtoname_downlevel.obj
 0002:000256f0       ??_C@_15FNBEIBON@?$AAt?$AAa@ 300d76f0     libucrt:lcidtoname_downlevel.obj
 0002:000256f8       ??_C@_15NCHGBGLK@?$AAt?$AAe@ 300d76f8     libucrt:lcidtoname_downlevel.obj
 0002:00025700       ??_C@_15PHPHCBPF@?$AAk?$AAn@ 300d7700     libucrt:lcidtoname_downlevel.obj
 0002:00025708       ??_C@_15DLGBCKMP@?$AAm?$AAr@ 300d7708     libucrt:lcidtoname_downlevel.obj
 0002:00025710       ??_C@_15EABBLBFF@?$AAs?$AAa@ 300d7710     libucrt:lcidtoname_downlevel.obj
 0002:00025718       ??_C@_15CBKOMCOI@?$AAm?$AAn@ 300d7718     libucrt:lcidtoname_downlevel.obj
 0002:00025720       ??_C@_15CKDMCJAF@?$AAg?$AAl@ 300d7720     libucrt:lcidtoname_downlevel.obj
 0002:00025728       ??_C@_17CNJFBPG@?$AAk?$AAo?$AAk@ 300d7728     libucrt:lcidtoname_downlevel.obj
 0002:00025730       ??_C@_17FFBJICPL@?$AAs?$AAy?$AAr@ 300d7730     libucrt:lcidtoname_downlevel.obj
 0002:00025738       ??_C@_17KPNDCPAF@?$AAd?$AAi?$AAv@ 300d7738     libucrt:lcidtoname_downlevel.obj
 0002:00025740       ??_C@_11LOCGONAA@@         300d7740     libucrt:lcidtoname_downlevel.obj
 0002:00025744       ??_C@_1M@OKAHONE@?$AAa?$AAr?$AA?9?$AAS?$AAA@ 300d7744     libucrt:lcidtoname_downlevel.obj
 0002:00025750       ??_C@_1M@FFFIGIGK@?$AAb?$AAg?$AA?9?$AAB?$AAG@ 300d7750     libucrt:lcidtoname_downlevel.obj
 0002:0002575c       ??_C@_1M@BJNKEDC@?$AAc?$AAa?$AA?9?$AAE?$AAS@ 300d775c     libucrt:lcidtoname_downlevel.obj
 0002:00025768       ??_C@_1M@IJJHFJHA@?$AAc?$AAs?$AA?9?$AAC?$AAZ@ 300d7768     libucrt:lcidtoname_downlevel.obj
 0002:00025774       ??_C@_1M@CLPEOBGI@?$AAd?$AAa?$AA?9?$AAD?$AAK@ 300d7774     libucrt:lcidtoname_downlevel.obj
 0002:00025780       ??_C@_1M@MCMADGCB@?$AAd?$AAe?$AA?9?$AAD?$AAE@ 300d7780     libucrt:lcidtoname_downlevel.obj
 0002:0002578c       ??_C@_1M@OOCKEMAM@?$AAe?$AAl?$AA?9?$AAG?$AAR@ 300d778c     libucrt:lcidtoname_downlevel.obj
 0002:00025798       ??_C@_1M@DDNJFGID@?$AAf?$AAi?$AA?9?$AAF?$AAI@ 300d7798     libucrt:lcidtoname_downlevel.obj
 0002:000257a4       ??_C@_1M@GLIPPMAC@?$AAf?$AAr?$AA?9?$AAF?$AAR@ 300d77a4     libucrt:lcidtoname_downlevel.obj
 0002:000257b0       ??_C@_1M@GFMCHPE@?$AAh?$AAe?$AA?9?$AAI?$AAL@ 300d77b0     libucrt:lcidtoname_downlevel.obj
 0002:000257bc       ??_C@_1M@MHLPGNKM@?$AAh?$AAu?$AA?9?$AAH?$AAU@ 300d77bc     libucrt:lcidtoname_downlevel.obj
 0002:000257c8       ??_C@_1M@LPDDNNPN@?$AAi?$AAs?$AA?9?$AAI?$AAS@ 300d77c8     libucrt:lcidtoname_downlevel.obj
 0002:000257d4       ??_C@_1M@MADIPODN@?$AAi?$AAt?$AA?9?$AAI?$AAT@ 300d77d4     libucrt:lcidtoname_downlevel.obj
 0002:000257e0       ??_C@_1M@IHBJJGG@?$AAn?$AAl?$AA?9?$AAN?$AAL@ 300d77e0     libucrt:lcidtoname_downlevel.obj
 0002:000257ec       ??_C@_1M@EANAGDL@?$AAn?$AAb?$AA?9?$AAN?$AAO@ 300d77ec     libucrt:lcidtoname_downlevel.obj
 0002:000257f8       ??_C@_1M@NEIEMEGP@?$AAp?$AAl?$AA?9?$AAP?$AAL@ 300d77f8     libucrt:lcidtoname_downlevel.obj
 0002:00025804       ??_C@_1M@BOCFIGEP@?$AAp?$AAt?$AA?9?$AAB?$AAR@ 300d7804     libucrt:lcidtoname_downlevel.obj
 0002:00025810       ??_C@_1M@IMPFOPBG@?$AAr?$AAo?$AA?9?$AAR?$AAO@ 300d7810     libucrt:lcidtoname_downlevel.obj
 0002:0002581c       ??_C@_1M@IDNNEJMM@?$AAr?$AAu?$AA?9?$AAR?$AAU@ 300d781c     libucrt:lcidtoname_downlevel.obj
 0002:00025828       ??_C@_1M@LILEEOGM@?$AAh?$AAr?$AA?9?$AAH?$AAR@ 300d7828     libucrt:lcidtoname_downlevel.obj
 0002:00025834       ??_C@_1M@FKIFEHPB@?$AAs?$AAk?$AA?9?$AAS?$AAK@ 300d7834     libucrt:lcidtoname_downlevel.obj
 0002:00025840       ??_C@_1M@LJMAMNPJ@?$AAs?$AAq?$AA?9?$AAA?$AAL@ 300d7840     libucrt:lcidtoname_downlevel.obj
 0002:0002584c       ??_C@_1M@GIAKDKJK@?$AAs?$AAv?$AA?9?$AAS?$AAE@ 300d784c     libucrt:lcidtoname_downlevel.obj
 0002:00025858       ??_C@_1M@MKJKIKCL@?$AAt?$AAh?$AA?9?$AAT?$AAH@ 300d7858     libucrt:lcidtoname_downlevel.obj
 0002:00025864       ??_C@_1M@MFLCCMPB@?$AAt?$AAr?$AA?9?$AAT?$AAR@ 300d7864     libucrt:lcidtoname_downlevel.obj
 0002:00025870       ??_C@_1M@OIJHDKJN@?$AAu?$AAr?$AA?9?$AAP?$AAK@ 300d7870     libucrt:lcidtoname_downlevel.obj
 0002:0002587c       ??_C@_1M@LHIPCIEK@?$AAi?$AAd?$AA?9?$AAI?$AAD@ 300d787c     libucrt:lcidtoname_downlevel.obj
 0002:00025888       ??_C@_1M@MFMOBGI@?$AAu?$AAk?$AA?9?$AAU?$AAA@ 300d7888     libucrt:lcidtoname_downlevel.obj
 0002:00025894       ??_C@_1M@OBGLJIPL@?$AAb?$AAe?$AA?9?$AAB?$AAY@ 300d7894     libucrt:lcidtoname_downlevel.obj
 0002:000258a0       ??_C@_1M@BCFAJEAD@?$AAs?$AAl?$AA?9?$AAS?$AAI@ 300d78a0     libucrt:lcidtoname_downlevel.obj
 0002:000258ac       ??_C@_1M@FKFFEDDN@?$AAe?$AAt?$AA?9?$AAE?$AAE@ 300d78ac     libucrt:lcidtoname_downlevel.obj
 0002:000258b8       ??_C@_1M@KGKKAACI@?$AAl?$AAv?$AA?9?$AAL?$AAV@ 300d78b8     libucrt:lcidtoname_downlevel.obj
 0002:000258c4       ??_C@_1M@IFGBIJO@?$AAl?$AAt?$AA?9?$AAL?$AAT@ 300d78c4     libucrt:lcidtoname_downlevel.obj
 0002:000258d0       ??_C@_1M@FGEAHEDM@?$AAf?$AAa?$AA?9?$AAI?$AAR@ 300d78d0     libucrt:lcidtoname_downlevel.obj
 0002:000258dc       ??_C@_1M@KBMAIBFN@?$AAv?$AAi?$AA?9?$AAV?$AAN@ 300d78dc     libucrt:lcidtoname_downlevel.obj
 0002:000258e8       ??_C@_1M@GPCBKDJK@?$AAh?$AAy?$AA?9?$AAA?$AAM@ 300d78e8     libucrt:lcidtoname_downlevel.obj
 0002:000258f4       ??_C@_1BG@BECMDDJB@?$AAa?$AAz?$AA?9?$AAA?$AAZ?$AA?9?$AAL?$AAa?$AAt?$AAn@ 300d78f4     libucrt:lcidtoname_downlevel.obj
 0002:0002590c       ??_C@_1M@MAOFCAEA@?$AAe?$AAu?$AA?9?$AAE?$AAS@ 300d790c     libucrt:lcidtoname_downlevel.obj
 0002:00025918       ??_C@_1M@IGHABKPI@?$AAm?$AAk?$AA?9?$AAM?$AAK@ 300d7918     libucrt:lcidtoname_downlevel.obj
 0002:00025924       ??_C@_1M@IAIGNEJG@?$AAt?$AAn?$AA?9?$AAZ?$AAA@ 300d7924     libucrt:lcidtoname_downlevel.obj
 0002:00025930       ??_C@_1M@IIJCOJFA@?$AAx?$AAh?$AA?9?$AAZ?$AAA@ 300d7930     libucrt:lcidtoname_downlevel.obj
 0002:0002593c       ??_C@_1M@LGPJHNJH@?$AAz?$AAu?$AA?9?$AAZ?$AAA@ 300d793c     libucrt:lcidtoname_downlevel.obj
 0002:00025948       ??_C@_1M@HOKAOIO@?$AAa?$AAf?$AA?9?$AAZ?$AAA@ 300d7948     libucrt:lcidtoname_downlevel.obj
 0002:00025954       ??_C@_1M@DPCLHLIE@?$AAk?$AAa?$AA?9?$AAG?$AAE@ 300d7954     libucrt:lcidtoname_downlevel.obj
 0002:00025960       ??_C@_1M@BLKMHJBI@?$AAf?$AAo?$AA?9?$AAF?$AAO@ 300d7960     libucrt:lcidtoname_downlevel.obj
 0002:0002596c       ??_C@_1M@LGGJAPPB@?$AAh?$AAi?$AA?9?$AAI?$AAN@ 300d796c     libucrt:lcidtoname_downlevel.obj
 0002:00025978       ??_C@_1M@FIKPIHFE@?$AAm?$AAt?$AA?9?$AAM?$AAT@ 300d7978     libucrt:lcidtoname_downlevel.obj
 0002:00025984       ??_C@_1M@HEGGPBFA@?$AAs?$AAe?$AA?9?$AAN?$AAO@ 300d7984     libucrt:lcidtoname_downlevel.obj
 0002:00025990       ??_C@_1M@EIBJEEPA@?$AAm?$AAs?$AA?9?$AAM?$AAY@ 300d7990     libucrt:lcidtoname_downlevel.obj
 0002:0002599c       ??_C@_1M@FHLBGMPP@?$AAk?$AAk?$AA?9?$AAK?$AAZ@ 300d799c     libucrt:lcidtoname_downlevel.obj
 0002:000259a8       ??_C@_1M@NGJJLCGI@?$AAk?$AAy?$AA?9?$AAK?$AAG@ 300d79a8     libucrt:lcidtoname_downlevel.obj
 0002:000259b4       ??_C@_1M@GIENNBFC@?$AAs?$AAw?$AA?9?$AAK?$AAE@ 300d79b4     libucrt:lcidtoname_downlevel.obj
 0002:000259c0       ??_C@_1BG@NDGMJIMJ@?$AAu?$AAz?$AA?9?$AAU?$AAZ?$AA?9?$AAL?$AAa?$AAt?$AAn@ 300d79c0     libucrt:lcidtoname_downlevel.obj
 0002:000259d8       ??_C@_1M@IDCCIHBC@?$AAt?$AAt?$AA?9?$AAR?$AAU@ 300d79d8     libucrt:lcidtoname_downlevel.obj
 0002:000259e4       ??_C@_1M@LOICPMOJ@?$AAb?$AAn?$AA?9?$AAI?$AAN@ 300d79e4     libucrt:lcidtoname_downlevel.obj
 0002:000259f0       ??_C@_1M@KPKKNEAH@?$AAp?$AAa?$AA?9?$AAI?$AAN@ 300d79f0     libucrt:lcidtoname_downlevel.obj
 0002:000259fc       ??_C@_1M@PJGPPBOG@?$AAg?$AAu?$AA?9?$AAI?$AAN@ 300d79fc     libucrt:lcidtoname_downlevel.obj
 0002:00025a08       ??_C@_1M@KMKMOPHI@?$AAt?$AAa?$AA?9?$AAI?$AAN@ 300d7a08     libucrt:lcidtoname_downlevel.obj
 0002:00025a14       ??_C@_1M@KFEHEPAC@?$AAt?$AAe?$AA?9?$AAI?$AAN@ 300d7a14     libucrt:lcidtoname_downlevel.obj
 0002:00025a20       ??_C@_1M@CDCLMGHI@?$AAk?$AAn?$AA?9?$AAI?$AAN@ 300d7a20     libucrt:lcidtoname_downlevel.obj
 0002:00025a2c       ??_C@_1M@MIODLDKF@?$AAm?$AAl?$AA?9?$AAI?$AAN@ 300d7a2c     libucrt:lcidtoname_downlevel.obj
 0002:00025a38       ??_C@_1M@PBIEACPO@?$AAm?$AAr?$AA?9?$AAI?$AAN@ 300d7a38     libucrt:lcidtoname_downlevel.obj
 0002:00025a44       ??_C@_1M@NIDEAGPH@?$AAs?$AAa?$AA?9?$AAI?$AAN@ 300d7a44     libucrt:lcidtoname_downlevel.obj
 0002:00025a50       ??_C@_1M@FHIHCBIO@?$AAm?$AAn?$AA?9?$AAM?$AAN@ 300d7a50     libucrt:lcidtoname_downlevel.obj
 0002:00025a5c       ??_C@_1M@JAIJPENP@?$AAc?$AAy?$AA?9?$AAG?$AAB@ 300d7a5c     libucrt:lcidtoname_downlevel.obj
 0002:00025a68       ??_C@_1M@PHGFBEPN@?$AAg?$AAl?$AA?9?$AAE?$AAS@ 300d7a68     libucrt:lcidtoname_downlevel.obj
 0002:00025a74       ??_C@_1O@KPIPDNCP@?$AAk?$AAo?$AAk?$AA?9?$AAI?$AAN@ 300d7a74     libucrt:lcidtoname_downlevel.obj
 0002:00025a84       ??_C@_1O@KNHJLDJA@?$AAs?$AAy?$AAr?$AA?9?$AAS?$AAY@ 300d7a84     libucrt:lcidtoname_downlevel.obj
 0002:00025a94       ??_C@_1O@MKEKBLAH@?$AAd?$AAi?$AAv?$AA?9?$AAM?$AAV@ 300d7a94     libucrt:lcidtoname_downlevel.obj
 0002:00025aa4       ??_C@_1O@OHDCKDDF@?$AAq?$AAu?$AAz?$AA?9?$AAB?$AAO@ 300d7aa4     libucrt:lcidtoname_downlevel.obj
 0002:00025ab4       ??_C@_1M@LEPJNLFD@?$AAn?$AAs?$AA?9?$AAZ?$AAA@ 300d7ab4     libucrt:lcidtoname_downlevel.obj
 0002:00025ac0       ??_C@_1M@OMLEIIJB@?$AAm?$AAi?$AA?9?$AAN?$AAZ@ 300d7ac0     libucrt:lcidtoname_downlevel.obj
 0002:00025acc       ??_C@_1M@PMPEAILG@?$AAa?$AAr?$AA?9?$AAI?$AAQ@ 300d7acc     libucrt:lcidtoname_downlevel.obj
 0002:00025ad8       ??_C@_1M@CNKPNOEE@?$AAd?$AAe?$AA?9?$AAC?$AAH@ 300d7ad8     libucrt:lcidtoname_downlevel.obj
 0002:00025ae4       ??_C@_1M@LKMGMLKO@?$AAe?$AAn?$AA?9?$AAG?$AAB@ 300d7ae4     libucrt:lcidtoname_downlevel.obj
 0002:00025af0       ??_C@_1M@PGKJFFGL@?$AAe?$AAs?$AA?9?$AAM?$AAX@ 300d7af0     libucrt:lcidtoname_downlevel.obj
 0002:00025afc       ??_C@_1M@DNNANBDC@?$AAf?$AAr?$AA?9?$AAB?$AAE@ 300d7afc     libucrt:lcidtoname_downlevel.obj
 0002:00025b08       ??_C@_1M@HLGMDFHM@?$AAi?$AAt?$AA?9?$AAC?$AAH@ 300d7b08     libucrt:lcidtoname_downlevel.obj
 0002:00025b14       ??_C@_1M@CLLBGJH@?$AAn?$AAl?$AA?9?$AAB?$AAE@ 300d7b14     libucrt:lcidtoname_downlevel.obj
 0002:00025b20       ??_C@_1M@BODBOGLF@?$AAn?$AAn?$AA?9?$AAN?$AAO@ 300d7b20     libucrt:lcidtoname_downlevel.obj
 0002:00025b2c       ??_C@_1M@HFFAHKAD@?$AAp?$AAt?$AA?9?$AAP?$AAT@ 300d7b2c     libucrt:lcidtoname_downlevel.obj
 0002:00025b38       ??_C@_1BG@LNOAKHIE@?$AAs?$AAr?$AA?9?$AAS?$AAP?$AA?9?$AAL?$AAa?$AAt?$AAn@ 300d7b38     libucrt:lcidtoname_downlevel.obj
 0002:00025b50       ??_C@_1M@HBMHBGAK@?$AAs?$AAv?$AA?9?$AAF?$AAI@ 300d7b50     libucrt:lcidtoname_downlevel.obj
 0002:00025b5c       ??_C@_1BG@DGCJGJBE@?$AAa?$AAz?$AA?9?$AAA?$AAZ?$AA?9?$AAC?$AAy?$AAr?$AAl@ 300d7b5c     libucrt:lcidtoname_downlevel.obj
 0002:00025b74       ??_C@_1M@KEJDAAHB@?$AAs?$AAe?$AA?9?$AAS?$AAE@ 300d7b74     libucrt:lcidtoname_downlevel.obj
 0002:00025b80       ??_C@_1M@HEIBJJAD@?$AAm?$AAs?$AA?9?$AAB?$AAN@ 300d7b80     libucrt:lcidtoname_downlevel.obj
 0002:00025b8c       ??_C@_1BG@PBGJMCEM@?$AAu?$AAz?$AA?9?$AAU?$AAZ?$AA?9?$AAC?$AAy?$AAr?$AAl@ 300d7b8c     libucrt:lcidtoname_downlevel.obj
 0002:00025ba4       ??_C@_1O@LAOBCMDF@?$AAq?$AAu?$AAz?$AA?9?$AAE?$AAC@ 300d7ba4     libucrt:lcidtoname_downlevel.obj
 0002:00025bb4       ??_C@_1M@POEEMAIO@?$AAa?$AAr?$AA?9?$AAE?$AAG@ 300d7bb4     libucrt:lcidtoname_downlevel.obj
 0002:00025bc0       ??_C@_1M@EFAKDEDL@?$AAz?$AAh?$AA?9?$AAH?$AAK@ 300d7bc0     libucrt:lcidtoname_downlevel.obj
 0002:00025bcc       ??_C@_1M@HKKIJHGI@?$AAd?$AAe?$AA?9?$AAA?$AAT@ 300d7bcc     libucrt:lcidtoname_downlevel.obj
 0002:00025bd8       ??_C@_1M@KBFBEHJF@?$AAe?$AAn?$AA?9?$AAA?$AAU@ 300d7bd8     libucrt:lcidtoname_downlevel.obj
 0002:00025be4       ??_C@_1M@MNPLFAAH@?$AAe?$AAs?$AA?9?$AAE?$AAS@ 300d7be4     libucrt:lcidtoname_downlevel.obj
 0002:00025bf0       ??_C@_1M@HJOOJFMA@?$AAf?$AAr?$AA?9?$AAC?$AAA@ 300d7bf0     libucrt:lcidtoname_downlevel.obj
 0002:00025bfc       ??_C@_1BG@JPOFPNAB@?$AAs?$AAr?$AA?9?$AAS?$AAP?$AA?9?$AAC?$AAy?$AAr?$AAl@ 300d7bfc     libucrt:lcidtoname_downlevel.obj
 0002:00025c14       ??_C@_1M@LNFOCMOB@?$AAs?$AAe?$AA?9?$AAF?$AAI@ 300d7c14     libucrt:lcidtoname_downlevel.obj
 0002:00025c20       ??_C@_1O@MGJBOAMB@?$AAq?$AAu?$AAz?$AA?9?$AAP?$AAE@ 300d7c20     libucrt:lcidtoname_downlevel.obj
 0002:00025c30       ??_C@_1M@GJINLBOK@?$AAa?$AAr?$AA?9?$AAL?$AAY@ 300d7c30     libucrt:lcidtoname_downlevel.obj
 0002:00025c3c       ??_C@_1M@GGMNHJNL@?$AAz?$AAh?$AA?9?$AAS?$AAG@ 300d7c3c     libucrt:lcidtoname_downlevel.obj
 0002:00025c48       ??_C@_1M@HOIKODND@?$AAd?$AAe?$AA?9?$AAL?$AAU@ 300d7c48     libucrt:lcidtoname_downlevel.obj
 0002:00025c54       ??_C@_1M@DDOCCGFG@?$AAe?$AAn?$AA?9?$AAC?$AAA@ 300d7c54     libucrt:lcidtoname_downlevel.obj
 0002:00025c60       ??_C@_1M@BNOEMJLF@?$AAe?$AAs?$AA?9?$AAG?$AAT@ 300d7c60     libucrt:lcidtoname_downlevel.obj
 0002:00025c6c       ??_C@_1M@EOGNKEK@?$AAf?$AAr?$AA?9?$AAC?$AAH@ 300d7c6c     libucrt:lcidtoname_downlevel.obj
 0002:00025c78       ??_C@_1M@FLIDJFHL@?$AAh?$AAr?$AA?9?$AAB?$AAA@ 300d7c78     libucrt:lcidtoname_downlevel.obj
 0002:00025c84       ??_C@_1O@FMCELNAJ@?$AAs?$AAm?$AAj?$AA?9?$AAN?$AAO@ 300d7c84     libucrt:lcidtoname_downlevel.obj
 0002:00025c94       ??_C@_1M@JHGLJMGJ@?$AAa?$AAr?$AA?9?$AAD?$AAZ@ 300d7c94     libucrt:lcidtoname_downlevel.obj
 0002:00025ca0       ??_C@_1M@JKKFDCNP@?$AAz?$AAh?$AA?9?$AAM?$AAO@ 300d7ca0     libucrt:lcidtoname_downlevel.obj
 0002:00025cac       ??_C@_1M@GEEFALPE@?$AAd?$AAe?$AA?9?$AAL?$AAI@ 300d7cac     libucrt:lcidtoname_downlevel.obj
 0002:00025cb8       ??_C@_1M@IGEOFBG@?$AAe?$AAn?$AA?9?$AAN?$AAZ@ 300d7cb8     libucrt:lcidtoname_downlevel.obj
 0002:00025cc4       ??_C@_1M@KDBONEHP@?$AAe?$AAs?$AA?9?$AAC?$AAR@ 300d7cc4     libucrt:lcidtoname_downlevel.obj
 0002:00025cd0       ??_C@_1M@FHMDOHNN@?$AAf?$AAr?$AA?9?$AAL?$AAU@ 300d7cd0     libucrt:lcidtoname_downlevel.obj
 0002:00025cdc       ??_C@_1BG@NFKKMAFG@?$AAb?$AAs?$AA?9?$AAB?$AAA?$AA?9?$AAL?$AAa?$AAt?$AAn@ 300d7cdc     libucrt:lcidtoname_downlevel.obj
 0002:00025cf4       ??_C@_1O@IMNBEMCI@?$AAs?$AAm?$AAj?$AA?9?$AAS?$AAE@ 300d7cf4     libucrt:lcidtoname_downlevel.obj
 0002:00025d04       ??_C@_1M@DHHMBNDP@?$AAa?$AAr?$AA?9?$AAM?$AAA@ 300d7d04     libucrt:lcidtoname_downlevel.obj
 0002:00025d10       ??_C@_1M@BNBLJCGH@?$AAe?$AAn?$AA?9?$AAI?$AAE@ 300d7d10     libucrt:lcidtoname_downlevel.obj
 0002:00025d1c       ??_C@_1M@GEPAFMDL@?$AAe?$AAs?$AA?9?$AAP?$AAA@ 300d7d1c     libucrt:lcidtoname_downlevel.obj
 0002:00025d28       ??_C@_1M@OJONDMDL@?$AAf?$AAr?$AA?9?$AAM?$AAC@ 300d7d28     libucrt:lcidtoname_downlevel.obj
 0002:00025d34       ??_C@_1BG@OBCNFJB@?$AAs?$AAr?$AA?9?$AAB?$AAA?$AA?9?$AAL?$AAa?$AAt?$AAn@ 300d7d34     libucrt:lcidtoname_downlevel.obj
 0002:00025d4c       ??_C@_1O@KEMEEGPO@?$AAs?$AAm?$AAa?$AA?9?$AAN?$AAO@ 300d7d4c     libucrt:lcidtoname_downlevel.obj
 0002:00025d5c       ??_C@_1M@ELMGFODK@?$AAa?$AAr?$AA?9?$AAT?$AAN@ 300d7d5c     libucrt:lcidtoname_downlevel.obj
 0002:00025d68       ??_C@_1M@BHDLHFAF@?$AAe?$AAn?$AA?9?$AAZ?$AAA@ 300d7d68     libucrt:lcidtoname_downlevel.obj
 0002:00025d74       ??_C@_1M@BMGIGLIF@?$AAe?$AAs?$AA?9?$AAD?$AAO@ 300d7d74     libucrt:lcidtoname_downlevel.obj
 0002:00025d80       ??_C@_1BG@CMBHIPBE@?$AAs?$AAr?$AA?9?$AAB?$AAA?$AA?9?$AAC?$AAy?$AAr?$AAl@ 300d7d80     libucrt:lcidtoname_downlevel.obj
 0002:00025d98       ??_C@_1O@HEDBLHNP@?$AAs?$AAm?$AAa?$AA?9?$AAS?$AAE@ 300d7d98     libucrt:lcidtoname_downlevel.obj
 0002:00025da8       ??_C@_1M@DAGCADIM@?$AAa?$AAr?$AA?9?$AAO?$AAM@ 300d7da8     libucrt:lcidtoname_downlevel.obj
 0002:00025db4       ??_C@_1M@FODLMICG@?$AAe?$AAn?$AA?9?$AAJ?$AAM@ 300d7db4     libucrt:lcidtoname_downlevel.obj
 0002:00025dc0       ??_C@_1M@DNMLCIHB@?$AAe?$AAs?$AA?9?$AAV?$AAE@ 300d7dc0     libucrt:lcidtoname_downlevel.obj
 0002:00025dcc       ??_C@_1O@EOKHMKJK@?$AAs?$AAm?$AAs?$AA?9?$AAF?$AAI@ 300d7dcc     libucrt:lcidtoname_downlevel.obj
 0002:00025ddc       ??_C@_1M@CAFJMKOF@?$AAa?$AAr?$AA?9?$AAY?$AAE@ 300d7ddc     libucrt:lcidtoname_downlevel.obj
 0002:00025de8       ??_C@_1M@CBFHIJLI@?$AAe?$AAn?$AA?9?$AAC?$AAB@ 300d7de8     libucrt:lcidtoname_downlevel.obj
 0002:00025df4       ??_C@_1M@BGNFLDN@?$AAe?$AAs?$AA?9?$AAC?$AAO@ 300d7df4     libucrt:lcidtoname_downlevel.obj
 0002:00025e00       ??_C@_1O@JMPHMAMC@?$AAs?$AAm?$AAn?$AA?9?$AAF?$AAI@ 300d7e00     libucrt:lcidtoname_downlevel.obj
 0002:00025e10       ??_C@_1M@JLANABKE@?$AAa?$AAr?$AA?9?$AAS?$AAY@ 300d7e10     libucrt:lcidtoname_downlevel.obj
 0002:00025e1c       ??_C@_1M@HPKGCFGN@?$AAe?$AAn?$AA?9?$AAB?$AAZ@ 300d7e1c     libucrt:lcidtoname_downlevel.obj
 0002:00025e28       ??_C@_1M@OLJCMLGM@?$AAe?$AAs?$AA?9?$AAP?$AAE@ 300d7e28     libucrt:lcidtoname_downlevel.obj
 0002:00025e34       ??_C@_1M@MKKGFKLE@?$AAa?$AAr?$AA?9?$AAJ?$AAO@ 300d7e34     libucrt:lcidtoname_downlevel.obj
 0002:00025e40       ??_C@_1M@EKPGLDNI@?$AAe?$AAn?$AA?9?$AAT?$AAT@ 300d7e40     libucrt:lcidtoname_downlevel.obj
 0002:00025e4c       ??_C@_1M@OONGHFHE@?$AAe?$AAs?$AA?9?$AAA?$AAR@ 300d7e4c     libucrt:lcidtoname_downlevel.obj
 0002:00025e58       ??_C@_1M@OOJFGBHE@?$AAa?$AAr?$AA?9?$AAL?$AAB@ 300d7e58     libucrt:lcidtoname_downlevel.obj
 0002:00025e64       ??_C@_1M@GCEJHNEG@?$AAe?$AAn?$AA?9?$AAZ?$AAW@ 300d7e64     libucrt:lcidtoname_downlevel.obj
 0002:00025e70       ??_C@_1M@JNOCAHJI@?$AAe?$AAs?$AA?9?$AAE?$AAC@ 300d7e70     libucrt:lcidtoname_downlevel.obj
 0002:00025e7c       ??_C@_1M@JEFHPGGB@?$AAa?$AAr?$AA?9?$AAK?$AAW@ 300d7e7c     libucrt:lcidtoname_downlevel.obj
 0002:00025e88       ??_C@_1M@MLKIBJOJ@?$AAe?$AAn?$AA?9?$AAP?$AAH@ 300d7e88     libucrt:lcidtoname_downlevel.obj
 0002:00025e94       ??_C@_1M@BDNIPEND@?$AAe?$AAs?$AA?9?$AAC?$AAL@ 300d7e94     libucrt:lcidtoname_downlevel.obj
 0002:00025ea0       ??_C@_1M@MPNMEKBD@?$AAa?$AAr?$AA?9?$AAA?$AAE@ 300d7ea0     libucrt:lcidtoname_downlevel.obj
 0002:00025eac       ??_C@_1M@KBJALCPI@?$AAe?$AAs?$AA?9?$AAU?$AAY@ 300d7eac     libucrt:lcidtoname_downlevel.obj
 0002:00025eb8       ??_C@_1M@LLCCOAGA@?$AAa?$AAr?$AA?9?$AAB?$AAH@ 300d7eb8     libucrt:lcidtoname_downlevel.obj
 0002:00025ec4       ??_C@_1M@PBFNCDEL@?$AAe?$AAs?$AA?9?$AAP?$AAY@ 300d7ec4     libucrt:lcidtoname_downlevel.obj
 0002:00025ed0       ??_C@_1M@EDGINPNP@?$AAa?$AAr?$AA?9?$AAQ?$AAA@ 300d7ed0     libucrt:lcidtoname_downlevel.obj
 0002:00025edc       ??_C@_1M@MKDBIIJI@?$AAe?$AAs?$AA?9?$AAB?$AAO@ 300d7edc     libucrt:lcidtoname_downlevel.obj
 0002:00025ee8       ??_C@_1M@CPKKEBLD@?$AAe?$AAs?$AA?9?$AAS?$AAV@ 300d7ee8     libucrt:lcidtoname_downlevel.obj
 0002:00025ef4       ??_C@_1M@NDBGMMJL@?$AAe?$AAs?$AA?9?$AAH?$AAN@ 300d7ef4     libucrt:lcidtoname_downlevel.obj
 0002:00025f00       ??_C@_1M@JIJIBHDP@?$AAe?$AAs?$AA?9?$AAN?$AAI@ 300d7f00     libucrt:lcidtoname_downlevel.obj
 0002:00025f0c       ??_C@_1M@CGFMKEEK@?$AAe?$AAs?$AA?9?$AAP?$AAR@ 300d7f0c     libucrt:lcidtoname_downlevel.obj
 0002:00025f18       ??_C@_1O@ICJHKIIK@?$AAz?$AAh?$AA?9?$AAC?$AAH?$AAT@ 300d7f18     libucrt:lcidtoname_downlevel.obj
 0002:00025f28       ??_C@_15CLNEJCE@?$AAs?$AAr@ 300d7f28     libucrt:lcidtoname_downlevel.obj
 0002:00026650       ??_C@_1M@KAHEKEIG@?$AAa?$AAf?$AA?9?$AAz?$AAa@ 300d8650     libucrt:lcidtoname_downlevel.obj
 0002:0002665c       ??_C@_1M@GIECOABL@?$AAa?$AAr?$AA?9?$AAa?$AAe@ 300d865c     libucrt:lcidtoname_downlevel.obj
 0002:00026668       ??_C@_1M@BMLMEKGI@?$AAa?$AAr?$AA?9?$AAb?$AAh@ 300d8668     libucrt:lcidtoname_downlevel.obj
 0002:00026674       ??_C@_1M@DAPFDGGB@?$AAa?$AAr?$AA?9?$AAd?$AAz@ 300d8674     libucrt:lcidtoname_downlevel.obj
 0002:00026680       ??_C@_1M@FJNKGKIG@?$AAa?$AAr?$AA?9?$AAe?$AAg@ 300d8680     libucrt:lcidtoname_downlevel.obj
 0002:0002668c       ??_C@_1M@FLGKKCLO@?$AAa?$AAr?$AA?9?$AAi?$AAq@ 300d868c     libucrt:lcidtoname_downlevel.obj
 0002:00026698       ??_C@_1M@GNDIPALM@?$AAa?$AAr?$AA?9?$AAj?$AAo@ 300d8698     libucrt:lcidtoname_downlevel.obj
 0002:000266a4       ??_C@_1M@DDMJFMGJ@?$AAa?$AAr?$AA?9?$AAk?$AAw@ 300d86a4     libucrt:lcidtoname_downlevel.obj
 0002:000266b0       ??_C@_1M@EJALMLHM@?$AAa?$AAr?$AA?9?$AAl?$AAb@ 300d86b0     libucrt:lcidtoname_downlevel.obj
 0002:000266bc       ??_C@_1M@MOBDBLOC@?$AAa?$AAr?$AA?9?$AAl?$AAy@ 300d86bc     libucrt:lcidtoname_downlevel.obj
 0002:000266c8       ??_C@_1M@JAOCLHDH@?$AAa?$AAr?$AA?9?$AAm?$AAa@ 300d86c8     libucrt:lcidtoname_downlevel.obj
 0002:000266d4       ??_C@_1M@JHPMKJIE@?$AAa?$AAr?$AA?9?$AAo?$AAm@ 300d86d4     libucrt:lcidtoname_downlevel.obj
 0002:000266e0       ??_C@_1M@OEPGHFNH@?$AAa?$AAr?$AA?9?$AAq?$AAa@ 300d86e0     libucrt:lcidtoname_downlevel.obj
 0002:000266ec       ??_C@_1M@KJDONENM@?$AAa?$AAr?$AA?9?$AAs?$AAa@ 300d86ec     libucrt:lcidtoname_downlevel.obj
 0002:000266f8       ??_C@_1M@DMJDKLKM@?$AAa?$AAr?$AA?9?$AAs?$AAy@ 300d86f8     libucrt:lcidtoname_downlevel.obj
 0002:00026704       ??_C@_1M@OMFIPEDC@?$AAa?$AAr?$AA?9?$AAt?$AAn@ 300d8704     libucrt:lcidtoname_downlevel.obj
 0002:00026710       ??_C@_1M@IHMHGAON@?$AAa?$AAr?$AA?9?$AAy?$AAe@ 300d8710     libucrt:lcidtoname_downlevel.obj
 0002:0002671c       ??_C@_1BG@KDCPGJGB@?$AAa?$AAz?$AA?9?$AAa?$AAz?$AA?9?$AAc?$AAy?$AAr?$AAl@ 300d871c     libucrt:lcidtoname_downlevel.obj
 0002:00026734       ??_C@_1BG@IBCKDDOE@?$AAa?$AAz?$AA?9?$AAa?$AAz?$AA?9?$AAl?$AAa?$AAt?$AAn@ 300d8734     libucrt:lcidtoname_downlevel.obj
 0002:0002674c       ??_C@_1M@EGPFDCPD@?$AAb?$AAe?$AA?9?$AAb?$AAy@ 300d874c     libucrt:lcidtoname_downlevel.obj
 0002:00026758       ??_C@_1M@PCMGMCGC@?$AAb?$AAg?$AA?9?$AAb?$AAg@ 300d8758     libucrt:lcidtoname_downlevel.obj
 0002:00026764       ??_C@_1M@BJBMFGOB@?$AAb?$AAn?$AA?9?$AAi?$AAn@ 300d8764     libucrt:lcidtoname_downlevel.obj
 0002:00026770       ??_C@_1BG@EAKMMACD@?$AAb?$AAs?$AA?9?$AAb?$AAa?$AA?9?$AAl?$AAa?$AAt?$AAn@ 300d8770     libucrt:lcidtoname_downlevel.obj
 0002:00026788       ??_C@_1M@KGADAODK@?$AAc?$AAa?$AA?9?$AAe?$AAs@ 300d8788     libucrt:lcidtoname_downlevel.obj
 0002:00026794       ??_C@_1M@COAJPDHI@?$AAc?$AAs?$AA?9?$AAc?$AAz@ 300d8794     libucrt:lcidtoname_downlevel.obj
 0002:000267a0       ??_C@_1M@DHBHFONH@?$AAc?$AAy?$AA?9?$AAg?$AAb@ 300d87a0     libucrt:lcidtoname_downlevel.obj
 0002:000267ac       ??_C@_1M@IMGKELGA@?$AAd?$AAa?$AA?9?$AAd?$AAk@ 300d87ac     libucrt:lcidtoname_downlevel.obj
 0002:000267b8       ??_C@_1M@NNDGDNGA@?$AAd?$AAe?$AA?9?$AAa?$AAt@ 300d87b8     libucrt:lcidtoname_downlevel.obj
 0002:000267c4       ??_C@_1M@IKDBHEEM@?$AAd?$AAe?$AA?9?$AAc?$AAh@ 300d87c4     libucrt:lcidtoname_downlevel.obj
 0002:000267d0       ??_C@_1M@GFFOJMCJ@?$AAd?$AAe?$AA?9?$AAd?$AAe@ 300d87d0     libucrt:lcidtoname_downlevel.obj
 0002:000267dc       ??_C@_1M@MDNLKBPM@?$AAd?$AAe?$AA?9?$AAl?$AAi@ 300d87dc     libucrt:lcidtoname_downlevel.obj
 0002:000267e8       ??_C@_1M@NJBEEJNL@?$AAd?$AAe?$AA?9?$AAl?$AAu@ 300d87e8     libucrt:lcidtoname_downlevel.obj
 0002:000267f4       ??_C@_1O@GNNELBAP@?$AAd?$AAi?$AAv?$AA?9?$AAm?$AAv@ 300d87f4     libucrt:lcidtoname_downlevel.obj
 0002:00026804       ??_C@_1M@EJLEOGAE@?$AAe?$AAl?$AA?9?$AAg?$AAr@ 300d8804     libucrt:lcidtoname_downlevel.obj
 0002:00026810       ??_C@_1M@GMPONJN@?$AAe?$AAn?$AA?9?$AAa?$AAu@ 300d8810     libucrt:lcidtoname_downlevel.obj
 0002:0002681c       ??_C@_1M@NIDIIPGF@?$AAe?$AAn?$AA?9?$AAb?$AAz@ 300d881c     libucrt:lcidtoname_downlevel.obj
 0002:00026828       ??_C@_1M@JEHMIMFO@?$AAe?$AAn?$AA?9?$AAc?$AAa@ 300d8828     libucrt:lcidtoname_downlevel.obj
 0002:00026834       ??_C@_1M@IGMJCDLA@?$AAe?$AAn?$AA?9?$AAc?$AAb@ 300d8834     libucrt:lcidtoname_downlevel.obj
 0002:00026840       ??_C@_1M@BNFIGBKG@?$AAe?$AAn?$AA?9?$AAg?$AAb@ 300d8840     libucrt:lcidtoname_downlevel.obj
 0002:0002684c       ??_C@_1M@LKIFDIGP@?$AAe?$AAn?$AA?9?$AAi?$AAe@ 300d884c     libucrt:lcidtoname_downlevel.obj
 0002:00026858       ??_C@_1M@PJKFGCCO@?$AAe?$AAn?$AA?9?$AAj?$AAm@ 300d8858     libucrt:lcidtoname_downlevel.obj
 0002:00026864       ??_C@_1M@KPPKEPBO@?$AAe?$AAn?$AA?9?$AAn?$AAz@ 300d8864     libucrt:lcidtoname_downlevel.obj
 0002:00026870       ??_C@_1M@GMDGLDOB@?$AAe?$AAn?$AA?9?$AAp?$AAh@ 300d8870     libucrt:lcidtoname_downlevel.obj
 0002:0002687c       ??_C@_1M@ONGIBJNA@?$AAe?$AAn?$AA?9?$AAt?$AAt@ 300d887c     libucrt:lcidtoname_downlevel.obj
 0002:00026888       ??_C@_1M@LLODPCMM@?$AAe?$AAn?$AA?9?$AAu?$AAs@ 300d8888     libucrt:lcidtoname_downlevel.obj
 0002:00026894       ??_C@_1M@LAKFNPAN@?$AAe?$AAn?$AA?9?$AAz?$AAa@ 300d8894     libucrt:lcidtoname_downlevel.obj
 0002:000268a0       ??_C@_1M@MFNHNHEO@?$AAe?$AAn?$AA?9?$AAz?$AAw@ 300d88a0     libucrt:lcidtoname_downlevel.obj
 0002:000268ac       ??_C@_1M@EJEINPHM@?$AAe?$AAs?$AA?9?$AAa?$AAr@ 300d88ac     libucrt:lcidtoname_downlevel.obj
 0002:000268b8       ??_C@_1M@GNKPCCJA@?$AAe?$AAs?$AA?9?$AAb?$AAo@ 300d88b8     libucrt:lcidtoname_downlevel.obj
 0002:000268c4       ??_C@_1M@LEEGFONL@?$AAe?$AAs?$AA?9?$AAc?$AAl@ 300d88c4     libucrt:lcidtoname_downlevel.obj
 0002:000268d0       ??_C@_1M@KGPDPBDF@?$AAe?$AAs?$AA?9?$AAc?$AAo@ 300d88d0     libucrt:lcidtoname_downlevel.obj
 0002:000268dc       ??_C@_1M@EIAHOHH@?$AAe?$AAs?$AA?9?$AAc?$AAr@ 300d88dc     libucrt:lcidtoname_downlevel.obj
 0002:000268e8       ??_C@_1M@LLPGMBIN@?$AAe?$AAs?$AA?9?$AAd?$AAo@ 300d88e8     libucrt:lcidtoname_downlevel.obj
 0002:000268f4       ??_C@_1M@DKHMKNJA@?$AAe?$AAs?$AA?9?$AAe?$AAc@ 300d88f4     libucrt:lcidtoname_downlevel.obj
 0002:00026900       ??_C@_1M@GKGFPKAP@?$AAe?$AAs?$AA?9?$AAe?$AAs@ 300d8900     libucrt:lcidtoname_downlevel.obj
 0002:0002690c       ??_C@_1M@LKHKGDLN@?$AAe?$AAs?$AA?9?$AAg?$AAt@ 300d890c     libucrt:lcidtoname_downlevel.obj
 0002:00026918       ??_C@_1M@HEIIGGJD@?$AAe?$AAs?$AA?9?$AAh?$AAn@ 300d8918     libucrt:lcidtoname_downlevel.obj
 0002:00026924       ??_C@_1M@FBDHPPGD@?$AAe?$AAs?$AA?9?$AAm?$AAx@ 300d8924     libucrt:lcidtoname_downlevel.obj
 0002:00026930       ??_C@_1M@DPAGLNDH@?$AAe?$AAs?$AA?9?$AAn?$AAi@ 300d8930     libucrt:lcidtoname_downlevel.obj
 0002:0002693c       ??_C@_1M@MDGOPGDD@?$AAe?$AAs?$AA?9?$AAp?$AAa@ 300d893c     libucrt:lcidtoname_downlevel.obj
 0002:00026948       ??_C@_1M@EMAMGBGE@?$AAe?$AAs?$AA?9?$AAp?$AAe@ 300d8948     libucrt:lcidtoname_downlevel.obj
 0002:00026954       ??_C@_1M@IBMCAOEC@?$AAe?$AAs?$AA?9?$AAp?$AAr@ 300d8954     libucrt:lcidtoname_downlevel.obj
 0002:00026960       ??_C@_1M@FGMDIJED@?$AAe?$AAs?$AA?9?$AAp?$AAy@ 300d8960     libucrt:lcidtoname_downlevel.obj
 0002:0002696c       ??_C@_1M@IIDEOLLL@?$AAe?$AAs?$AA?9?$AAs?$AAv@ 300d896c     libucrt:lcidtoname_downlevel.obj
 0002:00026978       ??_C@_1M@GAOBIPA@?$AAe?$AAs?$AA?9?$AAu?$AAy@ 300d8978     libucrt:lcidtoname_downlevel.obj
 0002:00026984       ??_C@_1M@JKFFICHJ@?$AAe?$AAs?$AA?9?$AAv?$AAe@ 300d8984     libucrt:lcidtoname_downlevel.obj
 0002:00026990       ??_C@_1M@PNMLOJDF@?$AAe?$AAt?$AA?9?$AAe?$AAe@ 300d8990     libucrt:lcidtoname_downlevel.obj
 0002:0002699c       ??_C@_1M@GHHLIKEI@?$AAe?$AAu?$AA?9?$AAe?$AAs@ 300d899c     libucrt:lcidtoname_downlevel.obj
 0002:000269a8       ??_C@_1M@PBNONODE@?$AAf?$AAa?$AA?9?$AAi?$AAr@ 300d89a8     libucrt:lcidtoname_downlevel.obj
 0002:000269b4       ??_C@_1M@JEEHPMIL@?$AAf?$AAi?$AA?9?$AAf?$AAi@ 300d89b4     libucrt:lcidtoname_downlevel.obj
 0002:000269c0       ??_C@_1M@LMDCNDBA@?$AAf?$AAo?$AA?9?$AAf?$AAo@ 300d89c0     libucrt:lcidtoname_downlevel.obj
 0002:000269cc       ??_C@_1M@JKEOHLDK@?$AAf?$AAr?$AA?9?$AAb?$AAe@ 300d89cc     libucrt:lcidtoname_downlevel.obj
 0002:000269d8       ??_C@_1M@NOHADPMI@?$AAf?$AAr?$AA?9?$AAc?$AAa@ 300d89d8     libucrt:lcidtoname_downlevel.obj
 0002:000269e4       ??_C@_1M@KDHIHAEC@?$AAf?$AAr?$AA?9?$AAc?$AAh@ 300d89e4     libucrt:lcidtoname_downlevel.obj
 0002:000269f0       ??_C@_1M@MMBBFGAK@?$AAf?$AAr?$AA?9?$AAf?$AAr@ 300d89f0     libucrt:lcidtoname_downlevel.obj
 0002:000269fc       ??_C@_1M@PAFNENNF@?$AAf?$AAr?$AA?9?$AAl?$AAu@ 300d89fc     libucrt:lcidtoname_downlevel.obj
 0002:00026a08       ??_C@_1M@EOHDJGDD@?$AAf?$AAr?$AA?9?$AAm?$AAc@ 300d8a08     libucrt:lcidtoname_downlevel.obj
 0002:00026a14       ??_C@_1M@FAPLLOPF@?$AAg?$AAl?$AA?9?$AAe?$AAs@ 300d8a14     libucrt:lcidtoname_downlevel.obj
 0002:00026a20       ??_C@_1M@FOPBFLOO@?$AAg?$AAu?$AA?9?$AAi?$AAn@ 300d8a20     libucrt:lcidtoname_downlevel.obj
 0002:00026a2c       ??_C@_1M@KBMCINPM@?$AAh?$AAe?$AA?9?$AAi?$AAl@ 300d8a2c     libucrt:lcidtoname_downlevel.obj
 0002:00026a38       ??_C@_1M@BBPHKFPJ@?$AAh?$AAi?$AA?9?$AAi?$AAn@ 300d8a38     libucrt:lcidtoname_downlevel.obj
 0002:00026a44       ??_C@_1M@PMBNDPHD@?$AAh?$AAr?$AA?9?$AAb?$AAa@ 300d8a44     libucrt:lcidtoname_downlevel.obj
 0002:00026a50       ??_C@_1M@BPCKOEGE@?$AAh?$AAr?$AA?9?$AAh?$AAr@ 300d8a50     libucrt:lcidtoname_downlevel.obj
 0002:00026a5c       ??_C@_1M@GACBMHKE@?$AAh?$AAu?$AA?9?$AAh?$AAu@ 300d8a5c     libucrt:lcidtoname_downlevel.obj
 0002:00026a68       ??_C@_1M@MILPAJJC@?$AAh?$AAy?$AA?9?$AAa?$AAm@ 300d8a68     libucrt:lcidtoname_downlevel.obj
 0002:00026a74       ??_C@_1M@BABBICEC@?$AAi?$AAd?$AA?9?$AAi?$AAd@ 300d8a74     libucrt:lcidtoname_downlevel.obj
 0002:00026a80       ??_C@_1M@BIKNHHPF@?$AAi?$AAs?$AA?9?$AAi?$AAs@ 300d8a80     libucrt:lcidtoname_downlevel.obj
 0002:00026a8c       ??_C@_1M@NMPCJPHE@?$AAi?$AAt?$AA?9?$AAc?$AAh@ 300d8a8c     libucrt:lcidtoname_downlevel.obj
 0002:00026a98       ??_C@_1M@GHKGFEDF@?$AAi?$AAt?$AA?9?$AAi?$AAt@ 300d8a98     libucrt:lcidtoname_downlevel.obj
 0002:00026aa4       ??_C@_1M@NIEJCJJA@?$AAj?$AAa?$AA?9?$AAj?$AAp@ 300d8aa4     libucrt:lcidtoname_downlevel.obj
 0002:00026ab0       ??_C@_1M@JILFNBIM@?$AAk?$AAa?$AA?9?$AAg?$AAe@ 300d8ab0     libucrt:lcidtoname_downlevel.obj
 0002:00026abc       ??_C@_1M@PACPMGPH@?$AAk?$AAk?$AA?9?$AAk?$AAz@ 300d8abc     libucrt:lcidtoname_downlevel.obj
 0002:00026ac8       ??_C@_1M@IELFGMHA@?$AAk?$AAn?$AA?9?$AAi?$AAn@ 300d8ac8     libucrt:lcidtoname_downlevel.obj
 0002:00026ad4       ??_C@_1O@IBBJHCH@?$AAk?$AAo?$AAk?$AA?9?$AAi?$AAn@ 300d8ad4     libucrt:lcidtoname_downlevel.obj
 0002:00026ae4       ??_C@_1M@DMHAEOGC@?$AAk?$AAo?$AA?9?$AAk?$AAr@ 300d8ae4     libucrt:lcidtoname_downlevel.obj
 0002:00026af0       ??_C@_1M@HBAHBIGA@?$AAk?$AAy?$AA?9?$AAk?$AAg@ 300d8af0     libucrt:lcidtoname_downlevel.obj
 0002:00026afc       ??_C@_1M@KPMILCJG@?$AAl?$AAt?$AA?9?$AAl?$AAt@ 300d8afc     libucrt:lcidtoname_downlevel.obj
 0002:00026b08       ??_C@_1M@BDEKKCA@?$AAl?$AAv?$AA?9?$AAl?$AAv@ 300d8b08     libucrt:lcidtoname_downlevel.obj
 0002:00026b14       ??_C@_1M@ELCKCCJJ@?$AAm?$AAi?$AA?9?$AAn?$AAz@ 300d8b14     libucrt:lcidtoname_downlevel.obj
 0002:00026b20       ??_C@_1M@CBOOLAPA@?$AAm?$AAk?$AA?9?$AAm?$AAk@ 300d8b20     libucrt:lcidtoname_downlevel.obj
 0002:00026b2c       ??_C@_1M@GPHNBJKN@?$AAm?$AAl?$AA?9?$AAi?$AAn@ 300d8b2c     libucrt:lcidtoname_downlevel.obj
 0002:00026b38       ??_C@_1M@PABJILIG@?$AAm?$AAn?$AA?9?$AAm?$AAn@ 300d8b38     libucrt:lcidtoname_downlevel.obj
 0002:00026b44       ??_C@_1M@FGBKKIPG@?$AAm?$AAr?$AA?9?$AAi?$AAn@ 300d8b44     libucrt:lcidtoname_downlevel.obj
 0002:00026b50       ??_C@_1M@NDBPDDAL@?$AAm?$AAs?$AA?9?$AAb?$AAn@ 300d8b50     libucrt:lcidtoname_downlevel.obj
 0002:00026b5c       ??_C@_1M@OPIHOOPI@?$AAm?$AAs?$AA?9?$AAm?$AAy@ 300d8b5c     libucrt:lcidtoname_downlevel.obj
 0002:00026b68       ??_C@_1M@PPDBCNFM@?$AAm?$AAt?$AA?9?$AAm?$AAt@ 300d8b68     libucrt:lcidtoname_downlevel.obj
 0002:00026b74       ??_C@_1M@KDJDKMDD@?$AAn?$AAb?$AA?9?$AAn?$AAo@ 300d8b74     libucrt:lcidtoname_downlevel.obj
 0002:00026b80       ??_C@_1M@KFCFLMJP@?$AAn?$AAl?$AA?9?$AAb?$AAe@ 300d8b80     libucrt:lcidtoname_downlevel.obj
 0002:00026b8c       ??_C@_1M@KPOPDDGO@?$AAn?$AAl?$AA?9?$AAn?$AAl@ 300d8b8c     libucrt:lcidtoname_downlevel.obj
 0002:00026b98       ??_C@_1M@LJKPEMLN@?$AAn?$AAn?$AA?9?$AAn?$AAo@ 300d8b98     libucrt:lcidtoname_downlevel.obj
 0002:00026ba4       ??_C@_1M@BDGHHBFL@?$AAn?$AAs?$AA?9?$AAz?$AAa@ 300d8ba4     libucrt:lcidtoname_downlevel.obj
 0002:00026bb0       ??_C@_1M@IDEHOAP@?$AAp?$AAa?$AA?9?$AAi?$AAn@ 300d8bb0     libucrt:lcidtoname_downlevel.obj
 0002:00026bbc       ??_C@_1M@HDBKGOGH@?$AAp?$AAl?$AA?9?$AAp?$AAl@ 300d8bbc     libucrt:lcidtoname_downlevel.obj
 0002:00026bc8       ??_C@_1M@LJLLCMEH@?$AAp?$AAt?$AA?9?$AAb?$AAr@ 300d8bc8     libucrt:lcidtoname_downlevel.obj
 0002:00026bd4       ??_C@_1M@NCMONAAL@?$AAp?$AAt?$AA?9?$AAp?$AAt@ 300d8bd4     libucrt:lcidtoname_downlevel.obj
 0002:00026be0       ??_C@_1O@EAKMAJDN@?$AAq?$AAu?$AAz?$AA?9?$AAb?$AAo@ 300d8be0     libucrt:lcidtoname_downlevel.obj
 0002:00026bf0       ??_C@_1O@BHHPIGDN@?$AAq?$AAu?$AAz?$AA?9?$AAe?$AAc@ 300d8bf0     libucrt:lcidtoname_downlevel.obj
 0002:00026c00       ??_C@_1O@GBAPEKMJ@?$AAq?$AAu?$AAz?$AA?9?$AAp?$AAe@ 300d8c00     libucrt:lcidtoname_downlevel.obj
 0002:00026c10       ??_C@_1M@CLGLEFBO@?$AAr?$AAo?$AA?9?$AAr?$AAo@ 300d8c10     libucrt:lcidtoname_downlevel.obj
 0002:00026c1c       ??_C@_1M@CEEDODME@?$AAr?$AAu?$AA?9?$AAr?$AAu@ 300d8c1c     libucrt:lcidtoname_downlevel.obj
 0002:00026c28       ??_C@_1M@HPKKKMPP@?$AAs?$AAa?$AA?9?$AAi?$AAn@ 300d8c28     libucrt:lcidtoname_downlevel.obj
 0002:00026c34       ??_C@_1M@BKMAIGOJ@?$AAs?$AAe?$AA?9?$AAf?$AAi@ 300d8c34     libucrt:lcidtoname_downlevel.obj
 0002:00026c40       ??_C@_1M@NDPIFLFI@?$AAs?$AAe?$AA?9?$AAn?$AAo@ 300d8c40     libucrt:lcidtoname_downlevel.obj
 0002:00026c4c       ??_C@_1M@DANKKHJ@?$AAs?$AAe?$AA?9?$AAs?$AAe@ 300d8c4c     libucrt:lcidtoname_downlevel.obj
 0002:00026c58       ??_C@_1M@PNBLONPJ@?$AAs?$AAk?$AA?9?$AAs?$AAk@ 300d8c58     libucrt:lcidtoname_downlevel.obj
 0002:00026c64       ??_C@_1M@LFMODOAL@?$AAs?$AAl?$AA?9?$AAs?$AAi@ 300d8c64     libucrt:lcidtoname_downlevel.obj
 0002:00026c70       ??_C@_1O@DFKOMPG@?$AAs?$AAm?$AAa?$AA?9?$AAn?$AAo@ 300d8c70     libucrt:lcidtoname_downlevel.obj
 0002:00026c80       ??_C@_1O@NDKPBNNH@?$AAs?$AAm?$AAa?$AA?9?$AAs?$AAe@ 300d8c80     libucrt:lcidtoname_downlevel.obj
 0002:00026c90       ??_C@_1O@PLLKBHAB@?$AAs?$AAm?$AAj?$AA?9?$AAn?$AAo@ 300d8c90     libucrt:lcidtoname_downlevel.obj
 0002:00026ca0       ??_C@_1O@CLEPOGCA@?$AAs?$AAm?$AAj?$AA?9?$AAs?$AAe@ 300d8ca0     libucrt:lcidtoname_downlevel.obj
 0002:00026cb0       ??_C@_1O@DLGJGKMK@?$AAs?$AAm?$AAn?$AA?9?$AAf?$AAi@ 300d8cb0     libucrt:lcidtoname_downlevel.obj
 0002:00026cc0       ??_C@_1O@OJDJGAJC@?$AAs?$AAm?$AAs?$AA?9?$AAf?$AAi@ 300d8cc0     libucrt:lcidtoname_downlevel.obj
 0002:00026cd0       ??_C@_1M@BOFOGHPB@?$AAs?$AAq?$AA?9?$AAa?$AAl@ 300d8cd0     libucrt:lcidtoname_downlevel.obj
 0002:00026cdc       ??_C@_1BG@LJBBIPGB@?$AAs?$AAr?$AA?9?$AAb?$AAa?$AA?9?$AAc?$AAy?$AAr?$AAl@ 300d8cdc     libucrt:lcidtoname_downlevel.obj
 0002:00026cf4       ??_C@_1BG@JLBENFOE@?$AAs?$AAr?$AA?9?$AAb?$AAa?$AA?9?$AAl?$AAa?$AAt?$AAn@ 300d8cf4     libucrt:lcidtoname_downlevel.obj
 0002:00026d0c       ??_C@_1BG@KODPNHE@?$AAs?$AAr?$AA?9?$AAs?$AAp?$AA?9?$AAc?$AAy?$AAr?$AAl@ 300d8d0c     libucrt:lcidtoname_downlevel.obj
 0002:00026d24       ??_C@_1BG@CIOGKHPB@?$AAs?$AAr?$AA?9?$AAs?$AAp?$AA?9?$AAl?$AAa?$AAt?$AAn@ 300d8d24     libucrt:lcidtoname_downlevel.obj
 0002:00026d3c       ??_C@_1M@NGFJLMAC@?$AAs?$AAv?$AA?9?$AAf?$AAi@ 300d8d3c     libucrt:lcidtoname_downlevel.obj
 0002:00026d48       ??_C@_1M@MPJEJAJC@?$AAs?$AAv?$AA?9?$AAs?$AAe@ 300d8d48     libucrt:lcidtoname_downlevel.obj
 0002:00026d54       ??_C@_1M@MPNDHLFK@?$AAs?$AAw?$AA?9?$AAk?$AAe@ 300d8d54     libucrt:lcidtoname_downlevel.obj
 0002:00026d60       ??_C@_1O@KOHBJJI@?$AAs?$AAy?$AAr?$AA?9?$AAs?$AAy@ 300d8d60     libucrt:lcidtoname_downlevel.obj
 0002:00026d70       ??_C@_1M@LDCEFHA@?$AAt?$AAa?$AA?9?$AAi?$AAn@ 300d8d70     libucrt:lcidtoname_downlevel.obj
 0002:00026d7c       ??_C@_1M@CNJOFAK@?$AAt?$AAe?$AA?9?$AAi?$AAn@ 300d8d7c     libucrt:lcidtoname_downlevel.obj
 0002:00026d88       ??_C@_1M@GNAECACD@?$AAt?$AAh?$AA?9?$AAt?$AAh@ 300d8d88     libucrt:lcidtoname_downlevel.obj
 0002:00026d94       ??_C@_1M@CHBIHOJO@?$AAt?$AAn?$AA?9?$AAz?$AAa@ 300d8d94     libucrt:lcidtoname_downlevel.obj
 0002:00026da0       ??_C@_1M@GCCMIGPJ@?$AAt?$AAr?$AA?9?$AAt?$AAr@ 300d8da0     libucrt:lcidtoname_downlevel.obj
 0002:00026dac       ??_C@_1M@CELMCNBK@?$AAt?$AAt?$AA?9?$AAr?$AAu@ 300d8dac     libucrt:lcidtoname_downlevel.obj
 0002:00026db8       ??_C@_1M@KLMCELGA@?$AAu?$AAk?$AA?9?$AAu?$AAa@ 300d8db8     libucrt:lcidtoname_downlevel.obj
 0002:00026dc4       ??_C@_1M@EPAJJAJF@?$AAu?$AAr?$AA?9?$AAp?$AAk@ 300d8dc4     libucrt:lcidtoname_downlevel.obj
 0002:00026dd0       ??_C@_1BG@GEGPMCDJ@?$AAu?$AAz?$AA?9?$AAu?$AAz?$AA?9?$AAc?$AAy?$AAr?$AAl@ 300d8dd0     libucrt:lcidtoname_downlevel.obj
 0002:00026de8       ??_C@_1BG@EGGKJILM@?$AAu?$AAz?$AA?9?$AAu?$AAz?$AA?9?$AAl?$AAa?$AAt?$AAn@ 300d8de8     libucrt:lcidtoname_downlevel.obj
 0002:00026e00       ??_C@_1M@GFOCLFF@?$AAv?$AAi?$AA?9?$AAv?$AAn@ 300d8e00     libucrt:lcidtoname_downlevel.obj
 0002:00026e0c       ??_C@_1M@CPAMEDFI@?$AAx?$AAh?$AA?9?$AAz?$AAa@ 300d8e0c     libucrt:lcidtoname_downlevel.obj
 0002:00026e18       ??_C@_1O@EBKIFIGN@?$AAz?$AAh?$AA?9?$AAc?$AAh?$AAs@ 300d8e18     libucrt:lcidtoname_downlevel.obj
 0002:00026e28       ??_C@_1O@NMHPGANE@?$AAz?$AAh?$AA?9?$AAc?$AAh?$AAt@ 300d8e28     libucrt:lcidtoname_downlevel.obj
 0002:00026e38       ??_C@_1M@LPINJOMC@?$AAz?$AAh?$AA?9?$AAc?$AAn@ 300d8e38     libucrt:lcidtoname_downlevel.obj
 0002:00026e44       ??_C@_1M@OCJEJODD@?$AAz?$AAh?$AA?9?$AAh?$AAk@ 300d8e44     libucrt:lcidtoname_downlevel.obj
 0002:00026e50       ??_C@_1M@DNDLJINH@?$AAz?$AAh?$AA?9?$AAm?$AAo@ 300d8e50     libucrt:lcidtoname_downlevel.obj
 0002:00026e5c       ??_C@_1M@MBFDNDND@?$AAz?$AAh?$AA?9?$AAs?$AAg@ 300d8e5c     libucrt:lcidtoname_downlevel.obj
 0002:00026e68       ??_C@_1M@IMEPLEPE@?$AAz?$AAh?$AA?9?$AAt?$AAw@ 300d8e68     libucrt:lcidtoname_downlevel.obj
 0002:00026e74       ??_C@_1M@BBGHNHJP@?$AAz?$AAu?$AA?9?$AAz?$AAa@ 300d8e74     libucrt:lcidtoname_downlevel.obj
 0002:00026f90       ___acrt_log10_table_t      300d8f90     libucrt:log10_tables.obj
 0002:000273a0       ___acrt_log10_table_cb     300d93a0     libucrt:log10_tables.obj
 0002:000277b0       ??_C@_1BA@BALFACEM@?$AAC?$AAO?$AAN?$AAO?$AAU?$AAT?$AA$@ 300d97b0     libucrt:initcon.obj
 0002:000278c0       __infinity                 300d98c0     libucrt:87tran.obj
 0002:000278ca       __minfinity                300d98ca     libucrt:87tran.obj
 0002:000278d4       __logemax                  300d98d4     libucrt:87tran.obj
 0002:000278fa       __OP_EXPjmptab             300d98fa     libucrt:87tran.obj
 0002:00027920       ??_7type_info@@6B@         300d9920     LIBCMT:std_type_info_static.obj
 0002:00027928       __load_config_used         300d9928     LIBCMT:loadcfg.obj
 0002:00027a40       ??_R4exception@std@@6B@    300d9a40     libvcruntime:frame.obj
 0002:00027a54       ??_R3exception@std@@8      300d9a54     libvcruntime:frame.obj
 0002:00027a64       ??_R2exception@std@@8      300d9a64     libvcruntime:frame.obj
 0002:00027a6c       ??_R1A@?0A@EA@exception@std@@8 300d9a6c     libvcruntime:frame.obj
 0002:00027a88       ??_R4bad_exception@std@@6B@ 300d9a88     libvcruntime:frame.obj
 0002:00027a9c       ??_R3bad_exception@std@@8  300d9a9c     libvcruntime:frame.obj
 0002:00027aac       ??_R2bad_exception@std@@8  300d9aac     libvcruntime:frame.obj
 0002:00027ab8       ??_R1A@?0A@EA@bad_exception@std@@8 300d9ab8     libvcruntime:frame.obj
 0002:00027ad4       ??_R4type_info@@6B@        300d9ad4     LIBCMT:std_type_info_static.obj
 0002:00027ae8       ??_R3type_info@@8          300d9ae8     LIBCMT:std_type_info_static.obj
 0002:00027af8       ??_R2type_info@@8          300d9af8     LIBCMT:std_type_info_static.obj
 0002:00027b00       ??_R1A@?0A@EA@type_info@@8 300d9b00     LIBCMT:std_type_info_static.obj
 0002:00027b1c       ___safe_se_handler_table   300d9b1c     <linker-defined>
 0002:00027b4c       ___volatile_metadata       300d9b4c     <linker-defined>
 0002:00027f74       ___rtc_iaa                 300d9f74     LIBCMT:initsect.obj
 0002:00027f78       ___rtc_izz                 300d9f78     LIBCMT:initsect.obj
 0002:00027f7c       ___rtc_taa                 300d9f7c     LIBCMT:initsect.obj
 0002:00027f80       ___rtc_tzz                 300d9f80     LIBCMT:initsect.obj
 0002:00028114       __TI2?AVbad_exception@std@@ 300da114     libvcruntime:frame.obj
 0002:00028124       __CTA2?AVbad_exception@std@@ 300da124     libvcruntime:frame.obj
 0002:00028130       __CT??_R0?AVbad_exception@std@@@8??0bad_exception@std@@QAE@ABV01@@Z12 300da130     libvcruntime:frame.obj
 0002:0002814c       __CT??_R0?AVexception@std@@@8??0exception@std@@QAE@ABV01@@Z12 300da14c     libvcruntime:frame.obj
 0002:000285dc       __IMPORT_DESCRIPTOR_KERNEL32 300da5dc     kernel32:KERNEL32.dll
 0002:000285f0       __NULL_IMPORT_DESCRIPTOR   300da5f0     kernel32:KERNEL32.dll
 0003:00000000       _bg_customSiegeSoundNames  300db000     bg_misc.obj
 0003:00000078       _bgToggleableSurfaces      300db078     bg_misc.obj
 0003:000000f4       _bg_numItems               300db0f4     bg_misc.obj
 0003:000000f8       _forcePowerSorted          300db0f8     bg_misc.obj
 0003:00000140       _forceMasteryLevels        300db140     bg_misc.obj
 0003:00000160       _forceMasteryPoints        300db160     bg_misc.obj
 0003:00000180       _bgForcePowerCost          300db180     bg_misc.obj
 0003:00000910       _bg_itemlist               300db910     bg_misc.obj
 0003:00001588       _WeaponReadyAnim           300dc588     bg_misc.obj
 0003:000015d8       _WeaponAttackAnim          300dc5d8     bg_misc.obj
 0003:00001628       _WeaponReadyAnim3          300dc628     bg_misc.obj
 0003:00001678       _WeaponAttackAnim3         300dc678     bg_misc.obj
 0003:000016c8       _WeaponReadyAnim5          300dc6c8     bg_misc.obj
 0003:00001718       _WeaponAttackAnim5         300dc718     bg_misc.obj
 0003:00001768       _WeaponReadyAnim7          300dc768     bg_misc.obj
 0003:000017b8       _WeaponAttackAnim7         300dc7b8     bg_misc.obj
 0003:00001808       _WeaponReadyAnim9          300dc808     bg_misc.obj
 0003:00001858       _WeaponAttackAnim9         300dc858     bg_misc.obj
 0003:000018a8       _WeaponReadyAnim11         300dc8a8     bg_misc.obj
 0003:000018f8       _WeaponAttackAnim11        300dc8f8     bg_misc.obj
 0003:00001948       _WeaponReadyAnim2          300dc948     bg_misc.obj
 0003:00001998       _WeaponAttackAnim2         300dc998     bg_misc.obj
 0003:000019e8       _WeaponReadyAnim4          300dc9e8     bg_misc.obj
 0003:00001a38       _WeaponAttackAnim4         300dca38     bg_misc.obj
 0003:00001a88       _WeaponReadyAnim6          300dca88     bg_misc.obj
 0003:00001ad8       _WeaponAttackAnim6         300dcad8     bg_misc.obj
 0003:00001b28       _WeaponReadyAnim8          300dcb28     bg_misc.obj
 0003:00001b78       _WeaponAttackAnim8         300dcb78     bg_misc.obj
 0003:00001bc8       _WeaponReadyAnim10         300dcbc8     bg_misc.obj
 0003:00001c18       _WeaponAttackAnim10        300dcc18     bg_misc.obj
 0003:00001c68       _WeaponReadyAnim12         300dcc68     bg_misc.obj
 0003:00001cb8       _WeaponAttackAnim12        300dccb8     bg_misc.obj
 0003:00001d08       _forcePowerDarkLight       300dcd08     bg_misc.obj
 0003:00001d50       _WeaponReadyLegsAnim       300dcd50     bg_misc.obj
 0003:00001da0       _WeaponReadyLegsAnim3      300dcda0     bg_misc.obj
 0003:00001df0       _WeaponReadyLegsAnim5      300dcdf0     bg_misc.obj
 0003:00001e40       _WeaponReadyLegsAnim7      300dce40     bg_misc.obj
 0003:00001e90       _WeaponReadyLegsAnim9      300dce90     bg_misc.obj
 0003:00001ee0       _WeaponReadyLegsAnim11     300dcee0     bg_misc.obj
 0003:00001f30       _eventnames                300dcf30     bg_misc.obj
 0003:00002148       _animTable                 300dd148     bg_panimate.obj
 0003:000051d8       _bgNumAllAnims             300e01d8     bg_panimate.obj
 0003:000051e0       _pm_stopspeed              300e01e0     bg_pmove.obj
 0003:000051e4       _pm_duckScale              300e01e4     bg_pmove.obj
 0003:000051e8       _pm_swimScale              300e01e8     bg_pmove.obj
 0003:000051ec       _pm_wadeScale              300e01ec     bg_pmove.obj
 0003:000051f0       _pm_accelerate             300e01f0     bg_pmove.obj
 0003:000051f4       _pm_airaccelerate          300e01f4     bg_pmove.obj
 0003:000051f8       _pm_wateraccelerate        300e01f8     bg_pmove.obj
 0003:000051fc       _pm_flyaccelerate          300e01fc     bg_pmove.obj
 0003:00005200       _pm_friction               300e0200     bg_pmove.obj
 0003:00005204       _pm_waterfriction          300e0204     bg_pmove.obj
 0003:00005208       _pm_flightfriction         300e0208     bg_pmove.obj
 0003:0000520c       _pm_vehicleaccelerate      300e020c     bg_pmove.obj
 0003:00005210       _forcePowerNeeded          300e0210     bg_pmove.obj
 0003:00005330       _forceSpeedLevels          300e0330     bg_pmove.obj
 0003:00005340       _pm_spectatorfriction      300e0340     bg_pmove.obj
 0003:00005344       _forceJumpHeight           300e0344     bg_pmove.obj
 0003:00005354       _forceJumpStrength         300e0354     bg_pmove.obj
 0003:00005364       _forceJumpHeightMax        300e0364     bg_pmove.obj
 0003:00005374       _ForceFallBrakeRate        300e0374     bg_pmove.obj
 0003:000053a0       _saberMoveData             300e03a0     bg_saber.obj
 0003:00006cf0       _transitionMove            300e1cf0     bg_saber.obj
 0003:00006df0       _saberMoveTransitionAngle  300e1df0     bg_saber.obj
 0003:00006ef0       _bg_parryDebounce          300e1ef0     bg_saber.obj
 0003:00006f00       _SaberTable                300e1f00     bg_saberLoad.obj
 0003:00006f68       _SaberMoveTable            300e1f68     bg_saberLoad.obj
 0003:00007488       _bgSiegeClassFlagNames     300e2488     bg_saga.obj
 0003:000074d0       _StanceTable               300e24d0     bg_saga.obj
 0003:00007518       _WPTable                   300e2518     bg_saga.obj
 0003:000075c8       _FPTable                   300e25c8     bg_saga.obj
 0003:00007660       _HoldableTable             300e2660     bg_saga.obj
 0003:000076f0       _PowerupTable              300e26f0     bg_saga.obj
 0003:00007778       _SKTable                   300e2778     bg_saga.obj
 0003:00007ab8       _classTitles               300e2ab8     bg_saga.obj
 0003:00007ad0       _vehWeaponFields           300e2ad0     bg_vehicleLoad.obj
 0003:00007bfc       _numVehicleWeapons         300e2bfc     bg_vehicleLoad.obj
 0003:00007c00       _vehicleFields             300e2c00     bg_vehicleLoad.obj
 0003:000084c4       _VehicleTable              300e34c4     bg_vehicleLoad.obj
 0003:00008500       _WP_MuzzlePoint            300e3500     bg_weapons.obj
 0003:000085e8       _WP_MuzzlePoint2           300e35e8     bg_weapons.obj
 0003:000086d0       _weaponData                300e36d0     bg_weapons.obj
 0003:00008af8       _ammoData                  300e3af8     bg_weapons.obj
 0003:00008b20       _ammoPool                  300e3b20     bg_weapons.obj
 0003:00008c50       _weaponSlots               300e3c50     bg_weapons.obj
 0003:00008df0       _bluehudtint               300e3df0     cg_draw.obj
 0003:00008e00       _redhudtint                300e3e00     cg_draw.obj
 0003:00008e10       _armorTicName              300e3e10     cg_draw.obj
 0003:00008e30       _forceTicName              300e3e30     cg_draw.obj
 0003:00008e50       _dodgeTicName              300e3e50     cg_draw.obj
 0003:00008e70       _ammoTicName               300e3e70     cg_draw.obj
 0003:00008e90       _mishapTicName             300e3e90     cg_draw.obj
 0003:00008ecc       _cg_targVeh                300e3ecc     cg_draw.obj
 0003:00008ed0       _showPowersName            300e3ed0     cg_draw.obj
 0003:00008f1c       _cg_radarRange             300e3f1c     cg_draw.obj
 0003:00008f20       _showPowersName2           300e3f20     cg_draw.obj
 0003:00008f70       _showItemsName             300e3f70     cg_draw.obj
 0003:00008fb8       _showItemsName2            300e3fb8     cg_draw.obj
 0003:00009000       _showItemsName3            300e4000     cg_draw.obj
 0003:00009048       _showItemsName4            300e4048     cg_draw.obj
 0003:00009090       _showItemsName5            300e4090     cg_draw.obj
 0003:000090d8       _showItemsName6            300e40d8     cg_draw.obj
 0003:00009120       _showItemsName7            300e4120     cg_draw.obj
 0003:00009168       _showItemsName8            300e4168     cg_draw.obj
 0003:000091b0       _vehDamageData             300e41b0     cg_draw.obj
 0003:000091d8       _forceHolocronModels       300e41d8     cg_ents.obj
 0003:00009220       _CG_BMS_MID                300e4220     cg_ents.obj
 0003:00009224       _CG_BMS_END                300e4224     cg_ents.obj
 0003:00009228       _NPCClasses                300e4228     cg_event.obj
 0003:00009440       _cg_stringEdVoiceChatTable 300e4440     cg_event.obj
 0003:000094b8       _holsterTypeTable          300e44b8     cg_holster.obj
 0003:00009548       _holsterBoneTable          300e4548     cg_holster.obj
 0003:00009570       _colorTable                300e4570     cg_main.obj
 0003:000099a0       _HolocronIcons             300e49a0     cg_main.obj
 0003:000099e8       _HolocronIcons2            300e49e8     cg_main.obj
 0003:00009a30       _forceModelModificationCount 300e4a30     cg_main.obj
 0003:00009a38       _cg_spawnFields            300e4a38     cg_main.obj
 0003:0000a4e8       _cl_numparticles           300e54e8     cg_marks.obj
 0003:0000a678       _cg_customSoundNames       300e5678     cg_players.obj
 0003:0000a718       _cg_customCombatSoundNames 300e5718     cg_players.obj
 0003:0000a7b8       _cg_customExtraSoundNames  300e57b8     cg_players.obj
 0003:0000a858       _cg_customJediSoundNames   300e5858     cg_players.obj
 0003:0000a8f8       _cg_customDuelSoundNames   300e58f8     cg_players.obj
 0003:0000a998       _animEventTypeTable        300e5998     cg_players.obj
 0003:0000b300       _footstepTypeTable         300e6300     cg_players.obj
 0003:0000b328       _cgNumAnimEvents           300e6328     cg_players.obj
 0003:0000b358       _cg_autoMapZoom            300e6358     cg_view.obj
 0003:0000b35c       _cg_autoMapAngle           300e635c     cg_view.obj
 0003:0000b388       _showWeaponsName           300e6388     cg_weapons.obj
 0003:0000b3d8       _showWeaponsName2          300e63d8     cg_weapons.obj
 0003:0000b428       _showWeaponsName3          300e6428     cg_weapons.obj
 0003:0000b478       _showWeaponsName4          300e6478     cg_weapons.obj
 0003:0000b4c8       _showWeaponsName5          300e64c8     cg_weapons.obj
 0003:0000b518       _showWeaponsName6          300e6518     cg_weapons.obj
 0003:0000b590       _bytedirs                  300e6590     q_math.obj
 0003:0000bd28       _colorBlack                300e6d28     q_math.obj
 0003:0000bd38       _colorRed                  300e6d38     q_math.obj
 0003:0000bd48       _colorGreen                300e6d48     q_math.obj
 0003:0000bd58       _colorBlue                 300e6d58     q_math.obj
 0003:0000bd68       _colorYellow               300e6d68     q_math.obj
 0003:0000bd78       _colorMagenta              300e6d78     q_math.obj
 0003:0000bd88       _colorCyan                 300e6d88     q_math.obj
 0003:0000bd98       _colorWhite                300e6d98     q_math.obj
 0003:0000bda8       _colorLtGrey               300e6da8     q_math.obj
 0003:0000bdb8       _colorMdGrey               300e6db8     q_math.obj
 0003:0000bdc8       _colorDkGrey               300e6dc8     q_math.obj
 0003:0000bdd8       _colorLtBlue               300e6dd8     q_math.obj
 0003:0000bde8       _colorDkBlue               300e6de8     q_math.obj
 0003:0000bdf8       _g_color_table             300e6df8     q_math.obj
 0003:0000be78       _axisDefault               300e6e78     q_math.obj
 0003:0000bea0       _itemFlags                 300e6ea0     ui_shared.obj
 0003:0000beb0       _styles                    300e6eb0     ui_shared.obj
 0003:0000becc       _alignment                 300e6ecc     ui_shared.obj
 0003:0000bedc       _scriptCommandCount        300e6edc     ui_shared.obj
 0003:0000bee0       _types                     300e6ee0     ui_shared.obj
 0003:0000bf28       _commandList               300e6f28     ui_shared.obj
 0003:0000c020       _itemParseKeywords         300e7020     ui_shared.obj
 0003:0000c428       _menuParseKeywords         300e7428     ui_shared.obj
 0003:0000cf40       __fltused                  300e7f40     LIBCMT:fltused.obj
 0003:0000cf50       ___isa_inverted            300e7f50     LIBCMT:cpu_disp.obj
 0003:0000cf58       ___isa_enabled             300e7f58     LIBCMT:cpu_disp.obj
 0003:0000cf5c       ___scrt_native_dllmain_reason 300e7f5c     LIBCMT:utility.obj
 0003:0000cf80       ___security_cookie         300e7f80     LIBCMT:gs_cookie.obj
 0003:0000cfc0       ___security_cookie_complement 300e7fc0     LIBCMT:gs_cookie.obj
 0003:0000cfe0       __NLG_Destination          300e7fe0     libvcruntime:exsup.obj
 0003:0000cff0       ___abort_behavior          300e7ff0     libucrt:abort.obj
 0003:0000d010       ___acrt_initial_locale_data 300e8010     libucrt:nlsdata.obj
 0003:0000d0c8       ___acrt_initial_locale_pointers 300e80c8     libucrt:nlsdata.obj
 0003:0000d0d0       ___acrt_wide_c_locale_string 300e80d0     libucrt:nlsdata.obj
 0003:0000d0d8       __iob                      300e80d8     libucrt:_file.obj
 0003:0000d180       ___acrt_initial_multibyte_data 300e8180     libucrt:mbctype.obj
 0003:0000d6a0       ___globallocalestatus      300e86a0     libucrt:glstatus.obj
 0003:0000d6a8       ___acrt_lconv_c            300e86a8     libucrt:localeconv.obj
 0003:0000d6f8       ___acrt_lconv_static_decimal 300e86f8     libucrt:localeconv.obj
 0003:0000d6fc       ___acrt_lconv_static_W_decimal 300e86fc     libucrt:localeconv.obj
 0003:0000d710       __lookuptrailbytes         300e8710     libucrt:read.obj
 0003:0000d820       ??_R0?AVbad_exception@std@@@8 300e8820     libvcruntime:frame.obj
 0003:0000d840       ??_R0?AVexception@std@@@8  300e8840     libvcruntime:frame.obj
 0003:0000d85c       ??_R0?AVtype_info@@@8      300e885c     LIBCMT:std_type_info_static.obj
 0003:00fad884       _BGPAFtextLoaded           31088884     bg_panimate.obj
 0003:00fad888       _c_pmove                   31088888     bg_pmove.obj
 0003:00fad88c       _pm_entSelf                3108888c     bg_pmove.obj
 0003:00fad890       _pm_entVeh                 31088890     bg_pmove.obj
 0003:00fad894       _gPMDoSlowFall             31088894     bg_pmove.obj
 0003:00fad898       _pm_cancelOutZoom          31088898     bg_pmove.obj
 0003:015ed960       _team1Theme                316c8960     bg_saga.obj
 0003:015ed964       _team2Theme                316c8964     bg_saga.obj
 0003:015ed968       _bgNumSiegeClasses         316c8968     bg_saga.obj
 0003:015ed96c       _bgNumSiegeTeams           316c896c     bg_saga.obj
 0003:015ed970       _siege_valid               316c8970     bg_saga.obj
 0003:015ed974       _numVehicles               316c8974     bg_vehicleLoad.obj
 0003:015ed978       _in_camera                 316c8978     cg_camera.obj
 0003:015ed980       _client_camera             316c8980     cg_camera.obj
 0003:015edb74       _cg_genericTimerBar        316c8b74     cg_draw.obj
 0003:015edb78       _cg_genericTimerDur        316c8b78     cg_draw.obj
 0003:015edb7c       _cg_crosshairPrevPosX      316c8b7c     cg_draw.obj
 0003:015edb80       _cg_crosshairPrevPosY      316c8b80     cg_draw.obj
 0003:015edb84       _cg_crosshairPos           316c8b84     cg_draw.obj
 0003:015edb90       _cg_saberFlashTime         316c8b90     cg_draw.obj
 0003:015edb94       _cg_saberFlashPos          316c8b94     cg_draw.obj
 0003:015edba0       _cgRageTime                316c8ba0     cg_draw.obj
 0003:015edba4       _cgRageFadeTime            316c8ba4     cg_draw.obj
 0003:015edba8       _cgRageFadeVal             316c8ba8     cg_draw.obj
 0003:015edbac       _cgRageRecTime             316c8bac     cg_draw.obj
 0003:015edbb0       _cgRageRecFadeTime         316c8bb0     cg_draw.obj
 0003:015edbb4       _cgRageRecFadeVal          316c8bb4     cg_draw.obj
 0003:015edbb8       _cgAbsorbTime              316c8bb8     cg_draw.obj
 0003:015edbbc       _cgAbsorbFadeTime          316c8bbc     cg_draw.obj
 0003:015edbc0       _cgAbsorbFadeVal           316c8bc0     cg_draw.obj
 0003:015edbc4       _cgProtectTime             316c8bc4     cg_draw.obj
 0003:015edbc8       _cgProtectFadeTime         316c8bc8     cg_draw.obj
 0003:015edbcc       _cgProtectFadeVal          316c8bcc     cg_draw.obj
 0003:015edbd0       _cgYsalTime                316c8bd0     cg_draw.obj
 0003:015edbd4       _cgYsalFadeTime            316c8bd4     cg_draw.obj
 0003:015edbd8       _cgYsalFadeVal             316c8bd8     cg_draw.obj
 0003:015edbdc       _cgBlindingTime            316c8bdc     cg_draw.obj
 0003:015edbe0       _cgBlindingFadeTime        316c8be0     cg_draw.obj
 0003:015edbe4       _cgBlindingFadeVal         316c8be4     cg_draw.obj
 0003:015edbe8       _gCGHasFallVector          316c8be8     cg_draw.obj
 0003:015edbec       _cg_beatingSiegeTime       316c8bec     cg_draw.obj
 0003:015edbf0       _cgSiegeRoundBeganTime     316c8bf0     cg_draw.obj
 0003:015edbf4       _cgSiegeRoundCountTime     316c8bf4     cg_draw.obj
 0003:015edbf8       _cgSiegeEntityRender       316c8bf8     cg_draw.obj
 0003:015edbfc       _menuScoreboard            316c8bfc     cg_draw.obj
 0003:015edc00       _cg_siegeDeathTime         316c8c00     cg_draw.obj
 0003:015edc04       _cg_targVehLastTime        316c8c04     cg_draw.obj
 0003:015edc08       _cg_vehicleAmmoWarning     316c8c08     cg_draw.obj
 0003:015edc0c       _cg_vehicleAmmoWarningTime 316c8c0c     cg_draw.obj
 0003:015edc10       _cg_drawLink               316c8c10     cg_draw.obj
 0003:015ee8ec       _CG_BMS_START              316c98ec     cg_ents.obj
 0003:015f2b38       _cg_numpermanents          316cdb38     cg_main.obj
 0003:015f2b3c       _cgWeatherOverride         316cdb3c     cg_main.obj
 0003:015f2b40       _cg_noFogOutsidePortal     316cdb40     cg_main.obj
 0003:015f2b44       _cg_skyOri                 316cdb44     cg_main.obj
 0003:015f2b48       _cg_skyOriScale            316cdb48     cg_main.obj
 0003:016fc9e8       _initparticles             317d79e8     cg_marks.obj
 0003:016fe9f8       _cg_g2JetpackInstance      317d99f8     cg_players.obj
 0003:016fe9fc       _cg_g2Jetpack2Instance     317d99fc     cg_players.obj
 0003:016fea00       _cg_g2Jetpack3Instance     317d9a00     cg_players.obj
 0003:016fea04       _cg_g2Jetpack4Instance     317d9a04     cg_players.obj
 0003:016fea08       _cg_g2Jetpack5Instance     317d9a08     cg_players.obj
 0003:016fea0c       _cg_g2Jetpack6Instance     317d9a0c     cg_players.obj
 0003:016fea10       _cg_g2Jetpack7Instance     317d9a10     cg_players.obj
 0003:016fea14       _cg_g2Jetpack8Instance     317d9a14     cg_players.obj
 0003:016fea18       _cg_g2Jetpack9Instance     317d9a18     cg_players.obj
 0003:016fea1c       _cg_lastHyperSpaceEffectTime 317d9a1c     cg_players.obj
 0003:016fea20       _trueviewwarning           317d9a20     cg_players.obj
 0003:016fea24       _cgQueueLoad               317d9a24     cg_players.obj
 0003:016ffa30       _cgAnnouncerTime           317daa30     cg_playerstate.obj
 0003:016ffa38       _cg_vehPmoveSet            317daa38     cg_predict.obj
 0003:017003f0       _cgSiegeRoundState         317db3f0     cg_saga.obj
 0003:017003f4       _cgSiegeRoundTime          317db3f4     cg_saga.obj
 0003:017003f8       _team1Timed                317db3f8     cg_saga.obj
 0003:017003fc       _team2Timed                317db3fc     cg_saga.obj
 0003:01700400       _cgSiegeTeam1PlShader      317db400     cg_saga.obj
 0003:01700404       _cgSiegeTeam2PlShader      317db404     cg_saga.obj
 0003:01746810       _cg_siegeWinTeam           31821810     cg_scoreboard.obj
 0003:01746818       _InBriefing                31821818     cg_servercmds.obj
 0003:0174681c       _InCinematic               3182181c     cg_servercmds.obj
 0003:01746820       _cameraCurTarget           31821820     cg_view.obj
 0003:0174682c       _cameraCurLoc              3182182c     cg_view.obj
 0003:01746838       _cameraOldLoc              31821838     cg_view.obj
 0003:01746844       _cameraNewLoc              31821844     cg_view.obj
 0003:01746850       _cameraLastFrame           31821850     cg_view.obj
 0003:01746854       _cameraLastYaw             31821854     cg_view.obj
 0003:01746858       _cameraStiffFactor         31821858     cg_view.obj
 0003:0174685c       _cg_actionCamLastTime      3182185c     cg_view.obj
 0003:01746860       _cg_lastTurretViewAngles   31821860     cg_view.obj
 0003:0174686c       _cg_autoMapZoomMainOffset  3182186c     cg_view.obj
 0003:01746870       _cg_autoMapInputTime       31821870     cg_view.obj
 0003:01746874       _cg_linearFogOverride      31821874     cg_view.obj
 0003:01746c4c       _colorClear                31821c4c     q_math.obj
 0003:01746c5c       _vec3_origin               31821c5c     q_math.obj
 0003:0175d2b8       _DC                        318382b8     ui_shared.obj
 0003:0175d2bc       _menuCount                 318382bc     ui_shared.obj
 0003:0175d2c0       _openMenuCount             318382c0     ui_shared.obj
 0003:0175d2c4       _ui_deferredScriptItem     318382c4     ui_shared.obj
 0003:0175d2c8       _ui_G2PtrTracker           318382c8     ui_shared.obj
 0003:02781328       ___avx10_version           3285c328     LIBCMT:cpu_disp.obj
 0003:0278132c       ___isa_available           3285c32c     LIBCMT:cpu_disp.obj
 0003:02781330       ___favor                   3285c330     LIBCMT:cpu_disp.obj
 0003:02781338       ?__type_info_root_node@@3U__type_info_node@@A 3285c338     LIBCMT:tncleanup.obj
 0003:02781340       ___scrt_current_native_startup_state 3285c340     LIBCMT:utility.obj
 0003:02781344       ___scrt_native_startup_lock 3285c344     LIBCMT:utility.obj
 0003:02781364       ___scrt_debugger_hook_flag 3285c364     LIBCMT:utility_desktop.obj
 0003:02781684       ?__WinRTOutOfMemoryExceptionCallback@@3P6GPAXXZA 3285c684     libvcruntime:ehhelpers.obj
 0003:027816ec       ___pPurecall               3285c6ec     libvcruntime:purevirt_data.obj
 0003:02781808       __environ_table            3285c808     libucrt:environment_initialization.obj
 0003:0278180c       __wenviron_table           3285c80c     libucrt:environment_initialization.obj
 0003:02781810       ___dcrt_initial_wide_environment 3285c810     libucrt:environment_initialization.obj
 0003:02781814       ___dcrt_initial_narrow_environment 3285c814     libucrt:environment_initialization.obj
 0003:02781818       ___acrt_atexit_table       3285c818     libucrt:onexit.obj
 0003:02781824       ___acrt_at_quick_exit_table 3285c824     libucrt:onexit.obj
 0003:02781834       ?__acrt_use_tls2_apis@@3_NA 3285c834     libucrt:per_thread_data.obj
 0003:02781838       ___acrt_locale_changed_data 3285c838     libucrt:wsetlocale.obj
 0003:0278183c       ___acrt_current_locale_data 3285c83c     libucrt:nlsdata.obj
 0003:02781848       __nstream                  3285c848     libucrt:_file.obj
 0003:0278184c       ___piob                    3285c84c     libucrt:_file.obj
 0003:02781850       ___pioinfo                 3285c850     libucrt:ioinit.obj
 0003:02781a50       __nhandle                  3285ca50     libucrt:ioinit.obj
 0003:02781a6c       ___acrt_stdout_buffer      3285ca6c     libucrt:_sftbuf.obj
 0003:02781a70       ___acrt_stderr_buffer      3285ca70     libucrt:_sftbuf.obj
 0003:02781be4       __mbctype                  3285cbe4     libucrt:mbctype.obj
 0003:02781be8       __mbcasemap                3285cbe8     libucrt:mbctype.obj
 0003:02781bec       ___acrt_current_multibyte_data 3285cbec     libucrt:mbctype.obj
 0003:02781bf8       __pgmptr                   3285cbf8     libucrt:argv_data.obj
 0003:02781bfc       ___argc                    3285cbfc     libucrt:argv_data.obj
 0003:02781c00       ___argv                    3285cc00     libucrt:argv_data.obj
 0003:02781c04       ___wargv                   3285cc04     libucrt:argv_data.obj
 0003:02781c08       __acmdln                   3285cc08     libucrt:argv_data.obj
 0003:02781c0c       __wcmdln                   3285cc0c     libucrt:argv_data.obj
 0003:02781c6c       ___acrt_heap               3285cc6c     libucrt:heap_handle.obj
 0003:02781c88       ___acrt_lconv_static_null  3285cc88     libucrt:localeconv.obj
 0003:02781c8c       ___acrt_lconv_static_W_null 3285cc8c     libucrt:localeconv.obj
 0003:02781c94       ___fastflag                3285cc94     libucrt:fp_flags.obj
 0003:02781ca0       _menuParseKeywordHash      3285cca0     <common>
 0003:027824a0       _itemParseKeywordHash      3285d4a0     <common>
 0003:02782ca0       _ui_deferredScript         3285dca0     <common>
 0003:027834a0       _menuStack                 3285e4a0     <common>
 0003:027835a0       _Menus                     3285e5a0     <common>
 0003:0280cfa0       _g2HolsterWeaponInstances  328e7fa0     <common>
 0003:0280d000       _cg_autoMapInput           328e8000     <common>
 0003:0280d020       _cg_actionCamLastPos       328e8020     <common>
 0003:0280d02c       _zoomFov                   328e802c     <common>
 0003:0280d030       _cameraIdealLoc            328e8030     <common>
 0003:0280d040       _cameraIdealTarget         328e8040     <common>
 0003:0280d050       _cameraFocusLoc            328e8050     <common>
 0003:0280d060       _cameraFocusAngles         328e8060     <common>
 0003:0280d070       _cameraup                  328e8070     <common>
 0003:0280d080       _camerafwd                 328e8080     <common>
 0003:0280d090       _cgScreenEffects           328e8090     <common>
 0003:0280d09c       _CinematicNum              328e809c     <common>
 0003:0280d0a0       _ui_siegeStruct            328e80a0     <common>
 0003:0280d0a4       _true_view_valid           328e80a4     <common>
 0003:0280d0c0       _true_view_info            328e80c0     <common>
 0003:0280f0c0       _cg_siegeExtendedData      328ea0c0     <common>
 0003:0280f340       _cg_vehPmove               328ea340     <common>
 0003:0280f500       _cgSendPS                  328ea500     <common>
 0003:02810500       _cgSendPSPool              328eb500     <common>
 0003:02994500       _cgAllEvents               32a6f500     <common>
 0003:02ac1600       _oldtime                   32b9c600     <common>
 0003:02ac1610       _rup                       32b9c610     <common>
 0003:02ac1620       _rright                    32b9c620     <common>
 0003:02ac1630       _rforward                  32b9c630     <common>
 0003:02ac1640       _pvup                      32b9c640     <common>
 0003:02ac1650       _pvright                   32b9c650     <common>
 0003:02ac1660       _pvforward                 32b9c660     <common>
 0003:02ac1680       _particles                 32b9c680     <common>
 0003:02ae0680       _free_particles            32bbb680     <common>
 0003:02ae0684       _active_particles          32bbb684     <common>
 0003:02ae0688       _cg_freeMarkPolys          32bbb688     <common>
 0003:02ae06a0       _cg_activeMarkPolys        32bbb6a0     <common>
 0003:02ae07c0       _cg_markPolys              32bbb7c0     <common>
 0003:02af27c0       _cg_skyOriPos              32bcd7c0     <common>
 0003:02af27e0       _ojp_clientplugin          32bcd7e0     <common>
 0003:02af2900       _cg_showVehBounds          32bcd900     <common>
 0003:02af2a20       _cg_debugSaber             32bcda20     <common>
 0003:02af2b40       _cgDC                      32bcdb40     <common>
 0003:02af2dc0       _ojp_holsterdebug_angoffset 32bcddc0     <common>
 0003:02af2ee0       _ojp_holsterdebug_posoffset 32bcdee0     <common>
 0003:02af3000       _ojp_holsterdebug_boneindex 32bce000     <common>
 0003:02af3120       _ojp_holsterdebug          32bce120     <common>
 0003:02af3240       _ojp_holsteredweapons      32bce240     <common>
 0003:02af3360       _cg_MovieSaberType         32bce360     <common>
 0003:02af3480       _sfx_sabers                32bce480     <common>
 0003:02af35a0       _ojp_teamrgbsabers         32bce5a0     <common>
 0003:02af36c0       _rgb_script2               32bce6c0     <common>
 0003:02af37e0       _rgb_script1               32bce7e0     <common>
 0003:02af3900       _rgb_saber2                32bce900     <common>
 0003:02af3a20       _rgb_saber1                32bcea20     <common>
 0003:02af3b40       _cg_debugBB                32bceb40     <common>
 0003:02af3c60       _cg_snapshotTimeout        32bcec60     <common>
 0003:02af3d80       _ui_menubrief              32bced80     <common>
 0003:02af3ea0       _ui_myteam                 32bceea0     <common>
 0003:02af3fc0       _cg_recordSPDemoName       32bcefc0     <common>
 0003:02af40e0       _cg_recordSPDemo           32bcf0e0     <common>
 0003:02af4200       _cg_currentSelectedPlayerName 32bcf200     <common>
 0003:02af4320       _cg_currentSelectedPlayer  32bcf320     <common>
 0003:02af4440       _cg_noProjectileTrail      32bcf440     <common>
 0003:02af4560       _cg_noTaunt                32bcf560     <common>
 0003:02af4680       _cg_cameraMode             32bcf680     <common>
 0003:02af47a0       _cg_timescale              32bcf7a0     <common>
 0003:02af48c0       _cg_timescaleFadeSpeed     32bcf8c0     <common>
 0003:02af49e0       _cg_timescaleFadeEnd       32bcf9e0     <common>
 0003:02af4b00       _cg_cameraOrbitDelay       32bcfb00     <common>
 0003:02af4c20       _cg_cameraOrbit            32bcfc20     <common>
 0003:02af4d40       _pmove_msec                32bcfd40     <common>
 0003:02af4e60       _pmove_fixed               32bcfe60     <common>
 0003:02af4f80       _ojp_sabermelee            32bcff80     <common>
 0003:02af50a0       _cg_smoothClients          32bd00a0     <common>
 0003:02af51c0       _cg_hudFiles               32bd01c0     <common>
 0003:02af52e0       _cg_scorePlum              32bd02e0     <common>
 0003:02af5400       _cg_teamChatsOnly          32bd0400     <common>
 0003:02af5520       _cg_drawFriend             32bd0520     <common>
 0003:02af5640       _cg_deferPlayers           32bd0640     <common>
 0003:02af5760       _cg_predictItems           32bd0760     <common>
 0003:02af5880       _cg_blood                  32bd0880     <common>
 0003:02af59a0       _cg_paused                 32bd09a0     <common>
 0003:02af5ac0       _cg_buildScript            32bd0ac0     <common>
 0003:02af5be0       _cg_forceModel             32bd0be0     <common>
 0003:02af5d00       _cg_stats                  32bd0d00     <common>
 0003:02af5e20       _cg_synchronousClients     32bd0e20     <common>
 0003:02af5f40       _cg_drawEnemyInfo          32bd0f40     <common>
 0003:02af6060       _cg_lagometer              32bd1060     <common>
 0003:02af6180       _cg_stereoSeparation       32bd1180     <common>
 0003:02af62a0       _cg_truefov                32bd12a0     <common>
 0003:02af63c0       _cg_trueinvertsaber        32bd13c0     <common>
 0003:02af64e0       _cg_trueeyeposition        32bd14e0     <common>
 0003:02af6600       _cg_truesaberonly          32bd1600     <common>
 0003:02af6720       _cg_truemoveroll           32bd1720     <common>
 0003:02af6840       _cg_truespin               32bd1840     <common>
 0003:02af6960       _cg_trueflip               32bd1960     <common>
 0003:02af6a80       _cg_trueroll               32bd1a80     <common>
 0003:02af6ba0       _cg_thirdPersonHorzOffset  32bd1ba0     <common>
 0003:02af6cc0       _cg_thirdPersonAlpha       32bd1cc0     <common>
 0003:02af6de0       _cg_thirdPersonTargetDamp  32bd1de0     <common>
 0003:02af6f00       _cg_thirdPersonCameraDamp  32bd1f00     <common>
 0003:02af7020       _cg_thirdPersonVertOffset  32bd2020     <common>
 0003:02af7140       _cg_thirdPersonPitchOffset 32bd2140     <common>
 0003:02af7260       _cg_thirdPersonAngle       32bd2260     <common>
 0003:02af7380       _cg_thirdPersonRange       32bd2380     <common>
 0003:02af74a0       _cg_thirdPerson            32bd24a0     <common>
 0003:02af75c0       _cg_thirdPersonSpecialCam  32bd25c0     <common>
 0003:02af76e0       _cg_dismember              32bd26e0     <common>
 0003:02af7800       _cg_animBlend              32bd2800     <common>
 0003:02af7920       _cg_repeaterOrb            32bd2920     <common>
 0003:02af7a40       _cg_auraShell              32bd2a40     <common>
 0003:02af7b60       _cg_speedTrail             32bd2b60     <common>
 0003:02af7c80       _cg_duelHeadAngles         32bd2c80     <common>
 0003:02af7da0       _cg_saberTrail             32bd2da0     <common>
 0003:02af7ec0       _cg_saberContact           32bd2ec0     <common>
 0003:02af7fe0       _cg_saberDynamicMarkTime   32bd2fe0     <common>
 0003:02af8100       _cg_saberDynamicMarks      32bd3100     <common>
 0003:02af8220       _cg_optvehtrace            32bd3220     <common>
 0003:02af8340       _cg_ghoul2Marks            32bd3340     <common>
 0003:02af8460       _cg_fpls                   32bd3460     <common>
 0003:02af8580       _cg_trueguns               32bd3580     <common>
 0003:02af86a0       _cg_g2TraceLod             32bd36a0     <common>
 0003:02af87c0       _cg_saberClientVisualCompensation 32bd37c0     <common>
 0003:02af88e0       _cg_saberModelTraceEffect  32bd38e0     <common>
 0003:02af8a00       _cg_chatBoxHeight          32bd3a00     <common>
 0003:02af8b20       _cg_chatBox                32bd3b20     <common>
 0003:02af8c40       _bg_fighterAltControl      32bd3c40     <common>
 0003:02af8d60       _cg_autoMapH               32bd3d60     <common>
 0003:02af8e80       _cg_autoMapW               32bd3e80     <common>
 0003:02af8fa0       _cg_autoMapY               32bd3fa0     <common>
 0003:02af90c0       _cg_autoMapX               32bd40c0     <common>
 0003:02af91e0       _cg_autoMap                32bd41e0     <common>
 0003:02af9300       _cg_jumpSounds             32bd4300     <common>
 0003:02af9420       _cg_ragDoll                32bd4420     <common>
 0003:02af9540       _cg_oldPainSounds          32bd4540     <common>
 0003:02af9660       _cg_swingAngles            32bd4660     <common>
 0003:02af9780       _cg_zoomFov                32bd4780     <common>
 0003:02af98a0       _cg_fov                    32bd48a0     <common>
 0003:02af99c0       _cg_simpleItems            32bd49c0     <common>
 0003:02af9ae0       _cg_ignore                 32bd4ae0     <common>
 0003:02af9c00       _cg_autoswitch             32bd4c00     <common>
 0003:02af9d20       _cg_viewsize               32bd4d20     <common>
 0003:02af9e40       _cg_drawGun                32bd4e40     <common>
 0003:02af9f60       _cg_gun_z                  32bd4f60     <common>
 0003:02afa080       _cg_gun_y                  32bd5080     <common>
 0003:02afa1a0       _cg_gun_x                  32bd51a0     <common>
 0003:02afa2c0       _cg_gun_frame              32bd52c0     <common>
 0003:02afa3e0       _cg_addMarks               32bd53e0     <common>
 0003:02afa500       _cg_footsteps              32bd5500     <common>
 0003:02afa620       _cg_showVehMiss            32bd5620     <common>
 0003:02afa740       _cg_showmiss               32bd5740     <common>
 0003:02afa860       _cg_noPlayerAnims          32bd5860     <common>
 0003:02afa980       _cg_nopredict              32bd5980     <common>
 0003:02afaaa0       _cg_errorDecay             32bd5aa0     <common>
 0003:02afabc0       _cg_debugEvents            32bd5bc0     <common>
 0003:02aface0       _cg_debugPosition          32bd5ce0     <common>
 0003:02afae00       _cg_debugAnim              32bd5e00     <common>
 0003:02afaf20       _cg_animSpeed              32bd5f20     <common>
 0003:02afb040       _cg_draw2D                 32bd6040     <common>
 0003:02afb160       _cg_drawStatus             32bd6160     <common>
 0003:02afb280       _cg_crosshairHealth        32bd6280     <common>
 0003:02afb3a0       _cg_crosshairSize          32bd63a0     <common>
 0003:02afb4c0       _cg_crosshairY             32bd64c0     <common>
 0003:02afb5e0       _cg_crosshairX             32bd65e0     <common>
 0003:02afb700       _cg_teamOverlayUserinfo    32bd6700     <common>
 0003:02afb820       _cg_drawTeamOverlay        32bd6820     <common>
 0003:02afb940       _cg_drawRewards            32bd6940     <common>
 0003:02afba60       _cg_dynamicCrosshairPrecision 32bd6a60     <common>
 0003:02afbb80       _cg_dynamicCrosshair       32bd6b80     <common>
 0003:02afbca0       _cg_drawScores             32bd6ca0     <common>
 0003:02afbdc0       _cg_drawVehLeadIndicator   32bd6dc0     <common>
 0003:02afbee0       _cg_drawRadar              32bd6ee0     <common>
 0003:02afc000       _cg_drawCrosshairNames     32bd7000     <common>
 0003:02afc120       _cg_drawCrosshair          32bd7120     <common>
 0003:02afc240       _cg_drawAmmoWarning        32bd7240     <common>
 0003:02afc360       _cg_drawIcons              32bd7360     <common>
 0003:02afc480       _cg_draw3dIcons            32bd7480     <common>
 0003:02afc5a0       _cg_drawSnapshot           32bd75a0     <common>
 0003:02afc6c0       _cg_drawFPS                32bd76c0     <common>
 0003:02afc7e0       _cg_drawTimer              32bd77e0     <common>
 0003:02afc900       _cg_renderToTextureFX      32bd7900     <common>
 0003:02afca20       _cg_shadows                32bd7a20     <common>
 0003:02afcb40       _cg_bobroll                32bd7b40     <common>
 0003:02afcc60       _cg_bobpitch               32bd7c60     <common>
 0003:02afcd80       _cg_bobup                  32bd7d80     <common>
 0003:02afcea0       _cg_runroll                32bd7ea0     <common>
 0003:02afcfc0       _cg_runpitch               32bd7fc0     <common>
 0003:02afd0e0       _cg_centertime             32bd80e0     <common>
 0003:02afd200       _cg_items                  32bd8200     <common>
 0003:02b00a00       _cg_weapons                32bdba00     <common>
 0003:02b02ea0       _cg_permanents             32bddea0     <common>
 0003:02b03ea0       _cg_entities               32bdeea0     <common>
 0003:02ceaea0       _cg                        32dc5ea0     <common>
 0003:02d36920       _cgs                       32e11920     <common>
 0003:02d82718       _cg_freeLocalEntities      32e5d718     <common>
 0003:02d82720       _cg_activeLocalEntities    32e5d720     <common>
 0003:02d82900       _cg_localEntities          32e5d900     <common>
 0003:02e68900       ?_OptionsStorage@?1??__local_stdio_printf_options@@9@9 32f43900     <common>
 0003:02e68908       _lastvalidlockdif          32f43908     <common>
 0003:02e6890c       _hudTintColor              32f4390c     <common>
 0003:02e68910       _numSortedTeamPlayers      32f43910     <common>
 0003:02e68920       _sortedTeamPlayers         32f43920     <common>
 0003:02e689a0       _gCGFallVector             32f439a0     <common>
 0003:02e689b0       _cg_genericTimerColor      32f439b0     <common>
 0003:02e689c0       _lagometer                 32f439c0     <common>
 0003:02e68fe0       _g_vehWeaponInfo           32f43fe0     <common>
 0003:02e6c1e0       _VehicleParms              32f471e0     <common>
 0003:02e6c200       _VehWeaponParms            32f47200     <common>
 0003:02e7c200       _g_vehicleInfo             32f57200     <common>
 0003:02e96e00       _siege_info                32f71e00     <common>
 0003:02e9ae00       _bgSiegeTeams              32f75e00     <common>
 0003:02e9d280       _bgSiegeClasses            32f78280     <common>
 0003:02f17a80       _pml                       32ff2a80     <common>
 0003:02f17b04       _pm                        32ff2b04     <common>
 0003:02f17b20       _bgAllAnims                32ff2b20     <common>
 0003:02f18c20       _bgHumanoidAnimations      32ff3c20     <common>
 0003:02f1b6a0       ?_OptionsStorage@?1??__local_stdio_scanf_options@@9@9 32ff66a0     <common>
 0003:02f1b6a8       ___scrt_ucrt_dll_is_in_use 32ff66a8     <common>
 0003:02f1b6ac       ___dyn_tls_init_callback   32ff66ac     <common>
 0003:02f1b6b0       ___use_sse2_mathfcns       32ff66b0     <common>
 0003:02f1b6b4       __pmatherr                 32ff66b4     <common>

 entry point at        0001:000971a8

 Static symbols

 0000:fcfdb000       .debug$S                   30000000     cgamex86.exp
 0000:fcfdb000       .debug$S                   30000000     kernel32:KERNEL32.dll
 0000:fcfdb000       .debug$S                   30000000     kernel32:KERNEL32.dll
 0000:fcfdb000       .debug$S                   30000000     kernel32:KERNEL32.dll
 0000:fcfdb000       .debug$S                   30000000     kernel32:KERNEL32.dll
 0000:fcfdb000       .debug$S                   30000000     kernel32:KERNEL32.dll
 0000:fcfdb000       .debug$S                   30000000     kernel32:KERNEL32.dll
 0000:fcfdb000       .debug$S                   30000000     kernel32:KERNEL32.dll
 0000:fcfdb000       .debug$S                   30000000     kernel32:KERNEL32.dll
 0000:fcfdb000       .debug$S                   30000000     kernel32:KERNEL32.dll
 0000:fcfdb000       .debug$S                   30000000     kernel32:KERNEL32.dll
 0000:fcfdb000       .debug$S                   30000000     kernel32:KERNEL32.dll
 0000:fcfdb000       .debug$S                   30000000     kernel32:KERNEL32.dll
 0000:fcfdb000       .debug$S                   30000000     kernel32:KERNEL32.dll
 0000:fcfdb000       .debug$S                   30000000     kernel32:KERNEL32.dll
 0000:fcfdb000       .debug$S                   30000000     kernel32:KERNEL32.dll
 0000:fcfdb000       .debug$S                   30000000     kernel32:KERNEL32.dll
 0000:fcfdb000       .debug$S                   30000000     kernel32:KERNEL32.dll
 0000:fcfdb000       .debug$S                   30000000     kernel32:KERNEL32.dll
 0000:fcfdb000       .debug$S                   30000000     kernel32:KERNEL32.dll
 0000:fcfdb000       .debug$S                   30000000     kernel32:KERNEL32.dll
 0000:fcfdb000       .debug$S                   30000000     kernel32:KERNEL32.dll
 0000:fcfdb000       .debug$S                   30000000     kernel32:KERNEL32.dll
 0000:fcfdb000       .debug$S                   30000000     kernel32:KERNEL32.dll
 0000:fcfdb000       .debug$S                   30000000     kernel32:KERNEL32.dll
 0000:fcfdb000       .debug$S                   30000000     kernel32:KERNEL32.dll
 0000:fcfdb000       .debug$S                   30000000     kernel32:KERNEL32.dll
 0000:fcfdb000       .debug$S                   30000000     kernel32:KERNEL32.dll
 0000:fcfdb000       .debug$S                   30000000     kernel32:KERNEL32.dll
 0000:fcfdb000       .debug$S                   30000000     kernel32:KERNEL32.dll
 0000:fcfdb000       .debug$S                   30000000     kernel32:KERNEL32.dll
 0000:fcfdb000       .debug$S                   30000000     kernel32:KERNEL32.dll
 0000:fcfdb000       .debug$S                   30000000     kernel32:KERNEL32.dll
 0000:fcfdb000       .debug$S                   30000000     kernel32:KERNEL32.dll
 0000:fcfdb000       .debug$S                   30000000     kernel32:KERNEL32.dll
 0000:fcfdb000       .debug$S                   30000000     kernel32:KERNEL32.dll
 0000:fcfdb000       .debug$S                   30000000     kernel32:KERNEL32.dll
 0000:fcfdb000       .debug$S                   30000000     kernel32:KERNEL32.dll
 0000:fcfdb000       .debug$S                   30000000     kernel32:KERNEL32.dll
 0000:fcfdb000       .debug$S                   30000000     kernel32:KERNEL32.dll
 0000:fcfdb000       .debug$S                   30000000     kernel32:KERNEL32.dll
 0000:fcfdb000       .debug$S                   30000000     kernel32:KERNEL32.dll
 0000:fcfdb000       .debug$S                   30000000     kernel32:KERNEL32.dll
 0000:fcfdb000       .debug$S                   30000000     kernel32:KERNEL32.dll
 0000:fcfdb000       .debug$S                   30000000     kernel32:KERNEL32.dll
 0000:fcfdb000       .debug$S                   30000000     kernel32:KERNEL32.dll
 0000:fcfdb000       .debug$S                   30000000     kernel32:KERNEL32.dll
 0000:fcfdb000       .debug$S                   30000000     kernel32:KERNEL32.dll
 0000:fcfdb000       .debug$S                   30000000     kernel32:KERNEL32.dll
 0000:fcfdb000       .debug$S                   30000000     kernel32:KERNEL32.dll
 0000:fcfdb000       .debug$S                   30000000     kernel32:KERNEL32.dll
 0000:fcfdb000       .debug$S                   30000000     kernel32:KERNEL32.dll
 0000:fcfdb000       .debug$S                   30000000     kernel32:KERNEL32.dll
 0000:fcfdb000       .debug$S                   30000000     kernel32:KERNEL32.dll
 0000:fcfdb000       .debug$S                   30000000     kernel32:KERNEL32.dll
 0000:fcfdb000       .debug$S                   30000000     kernel32:KERNEL32.dll
 0000:fcfdb000       .debug$S                   30000000     kernel32:KERNEL32.dll
 0000:fcfdb000       .debug$S                   30000000     kernel32:KERNEL32.dll
 0000:fcfdb000       .debug$S                   30000000     kernel32:KERNEL32.dll
 0000:fcfdb000       .debug$S                   30000000     kernel32:KERNEL32.dll
 0000:fcfdb000       .debug$S                   30000000     kernel32:KERNEL32.dll
 0000:fcfdb000       .debug$S                   30000000     kernel32:KERNEL32.dll
 0000:fcfdb000       .debug$S                   30000000     kernel32:KERNEL32.dll
 0000:fcfdb000       .debug$S                   30000000     kernel32:KERNEL32.dll
 0000:fcfdb000       .debug$S                   30000000     kernel32:KERNEL32.dll
 0000:fcfdb000       .debug$S                   30000000     kernel32:KERNEL32.dll
 0000:fcfdb000       .debug$S                   30000000     kernel32:KERNEL32.dll
 0000:fcfdb000       .debug$S                   30000000     kernel32:KERNEL32.dll
 0000:fcfdb000       .debug$S                   30000000     kernel32:KERNEL32.dll
 0000:fcfdb000       .debug$S                   30000000     kernel32:KERNEL32.dll
 0000:fcfdb000       .debug$S                   30000000     kernel32:KERNEL32.dll
 0000:fcfdb000       .debug$S                   30000000     kernel32:KERNEL32.dll
 0000:fcfdb000       .debug$S                   30000000     kernel32:KERNEL32.dll
 0000:fcfdb000       .debug$S                   30000000     kernel32:KERNEL32.dll
 0000:fcfdb000       .debug$S                   30000000     kernel32:KERNEL32.dll
 0000:fcfdb000       .debug$S                   30000000     kernel32:KERNEL32.dll
 0000:fcfdb000       .debug$S                   30000000     kernel32:KERNEL32.dll
 0000:fcfdb000       .debug$S                   30000000     kernel32:KERNEL32.dll
 0000:fcfdb000       .debug$S                   30000000     kernel32:KERNEL32.dll
 0000:fcfdb000       .debug$S                   30000000     kernel32:KERNEL32.dll
 0000:fcfdb000       .debug$S                   30000000     kernel32:KERNEL32.dll
 0000:fcfdb000       .debug$S                   30000000     kernel32:KERNEL32.dll
 0000:fcfdb000       .debug$S                   30000000     kernel32:KERNEL32.dll
 0000:fcfdb000       .debug$S                   30000000     kernel32:KERNEL32.dll
 0000:fcfdb000       .debug$S                   30000000     kernel32:KERNEL32.dll
 0000:fcfdb000       .debug$S                   30000000     kernel32:KERNEL32.dll
 0000:fcfdb000       .debug$S                   30000000     kernel32:KERNEL32.dll
 0000:fcfdb000       .debug$S                   30000000     kernel32:KERNEL32.dll
 0000:fcfdb000       .debug$S                   30000000     kernel32:KERNEL32.dll
 0001:00000080       _ProcessMoveCommands       30001080 f   AnimalNPC.obj
 0001:00000240       _ProcessOrientCommands     30001240 f   AnimalNPC.obj
 0001:000009fc       $LN82                      300019fc     bg_misc.obj
 0001:00000adc       $LN38                      30001adc     bg_misc.obj
 0001:00000ae4       $LN37                      30001ae4     bg_misc.obj
 0001:00000fac       $LN19                      30001fac     bg_misc.obj
 0001:000011c4       $LN16                      300021c4     bg_misc.obj
 0001:00001580       $LN22                      30002580     bg_misc.obj
 0001:00001e30       $LN25                      30002e30     bg_panimate.obj
 0001:00001e38       $LN24                      30002e38     bg_panimate.obj
 0001:00001f94       $LN45                      30002f94     bg_panimate.obj
 0001:00001f9c       $LN44                      30002f9c     bg_panimate.obj
 0001:00001fa4       $LN47                      30002fa4     bg_panimate.obj
 0001:00001fac       $LN46                      30002fac     bg_panimate.obj
 0001:00002064       $LN22                      30003064     bg_panimate.obj
 0001:0000206c       $LN21                      3000306c     bg_panimate.obj
 0001:000023a0       $LN101                     300033a0     bg_panimate.obj
 0001:000023a8       $LN100                     300033a8     bg_panimate.obj
 0001:00002400       $LN103                     30003400     bg_panimate.obj
 0001:00002404       $LN102                     30003404     bg_panimate.obj
 0001:00002448       $LN15                      30003448     bg_panimate.obj
 0001:00002454       $LN14                      30003454     bg_panimate.obj
 0001:00002484       $LN10                      30003484     bg_panimate.obj
 0001:000024c4       $LN10                      300034c4     bg_panimate.obj
 0001:00002504       $LN10                      30003504     bg_panimate.obj
 0001:00002544       $LN9                       30003544     bg_panimate.obj
 0001:00002584       $LN9                       30003584     bg_panimate.obj
 0001:000025d0       $LN19                      300035d0     bg_panimate.obj
 0001:000025d8       $LN18                      300035d8     bg_panimate.obj
 0001:00002674       $LN39                      30003674     bg_panimate.obj
 0001:0000267c       $LN38                      3000367c     bg_panimate.obj
 0001:000026dc       $LN41                      300036dc     bg_panimate.obj
 0001:000026e4       $LN40                      300036e4     bg_panimate.obj
 0001:0000271c       $LN10                      3000371c     bg_panimate.obj
 0001:00002724       $LN9                       30003724     bg_panimate.obj
 0001:00002768       $LN14                      30003768     bg_panimate.obj
 0001:00002818       $LN83                      30003818     bg_panimate.obj
 0001:00002820       $LN82                      30003820     bg_panimate.obj
 0001:00002858       $LN85                      30003858     bg_panimate.obj
 0001:00002860       $LN84                      30003860     bg_panimate.obj
 0001:0000289c       $LN86                      3000389c     bg_panimate.obj
 0001:000028ac       $LN87                      300038ac     bg_panimate.obj
 0001:000028bc       $LN88                      300038bc     bg_panimate.obj
 0001:00002918       $LN18                      30003918     bg_panimate.obj
 0001:00002920       $LN17                      30003920     bg_panimate.obj
 0001:0000298c       $LN23                      3000398c     bg_panimate.obj
 0001:00002994       $LN22                      30003994     bg_panimate.obj
 0001:000029a0       $LN25                      300039a0     bg_panimate.obj
 0001:000029a8       $LN24                      300039a8     bg_panimate.obj
 0001:00002d50       $LN59                      30003d50     bg_panimate.obj
 0001:00002d54       $LN58                      30003d54     bg_panimate.obj
 0001:00002dd0       $LN9                       30003dd0     bg_panimate.obj
 0001:00002e00       $LN10                      30003e00     bg_panimate.obj
 0001:00002e48       $LN57                      30003e48     bg_panimate.obj
 0001:00002e4c       $LN56                      30003e4c     bg_panimate.obj
 0001:00002ecc       $LN56                      30003ecc     bg_panimate.obj
 0001:00002ed4       $LN55                      30003ed4     bg_panimate.obj
 0001:00002fc0       $LN58                      30003fc0     bg_panimate.obj
 0001:00002fc8       $LN57                      30003fc8     bg_panimate.obj
 0001:0000309c       $LN94                      3000409c     bg_panimate.obj
 0001:000030a4       $LN93                      300040a4     bg_panimate.obj
 0001:00003110       $LN96                      30004110     bg_panimate.obj
 0001:00003118       $LN95                      30004118     bg_panimate.obj
 0001:00003170       $LN98                      30004170     bg_panimate.obj
 0001:00003178       $LN97                      30004178     bg_panimate.obj
 0001:0000347c       $LN94                      3000447c     bg_panimate.obj
 0001:00003484       $LN93                      30004484     bg_panimate.obj
 0001:00003570       $LN96                      30004570     bg_panimate.obj
 0001:00003578       $LN95                      30004578     bg_panimate.obj
 0001:00003a2c       $LN98                      30004a2c     bg_panimate.obj
 0001:00003a34       $LN97                      30004a34     bg_panimate.obj
 0001:00003b34       $LN100                     30004b34     bg_panimate.obj
 0001:00003b3c       $LN99                      30004b3c     bg_panimate.obj
 0001:00003bfc       $LN102                     30004bfc     bg_panimate.obj
 0001:00003c04       $LN101                     30004c04     bg_panimate.obj
 0001:00003c10       _BG_StartLegsAnim          30004c10 f   bg_panimate.obj
 0001:00003c7c       $LN24                      30004c7c     bg_panimate.obj
 0001:00003c84       $LN23                      30004c84     bg_panimate.obj
 0001:00003d0c       $LN24                      30004d0c     bg_panimate.obj
 0001:00003d14       $LN23                      30004d14     bg_panimate.obj
 0001:00003f0c       $LN11                      30004f0c     bg_panimate.obj
 0001:00003f14       $LN10                      30004f14     bg_panimate.obj
 0001:00003f80       $LN23                      30004f80     bg_panimate.obj
 0001:00003f84       $LN22                      30004f84     bg_panimate.obj
 0001:00004048       $LN62                      30005048     bg_panimate.obj
 0001:00004054       $LN61                      30005054     bg_panimate.obj
 0001:000040a8       $LN64                      300050a8     bg_panimate.obj
 0001:000040b0       $LN63                      300050b0     bg_panimate.obj
 0001:000040c8       $LN66                      300050c8     bg_panimate.obj
 0001:000040cc       $LN65                      300050cc     bg_panimate.obj
 0001:00004128       $LN47                      30005128     bg_panimate.obj
 0001:00004130       $LN46                      30005130     bg_panimate.obj
 0001:00004160       $LN49                      30005160     bg_panimate.obj
 0001:00004168       $LN48                      30005168     bg_panimate.obj
 0001:000041fc       $LN10                      300051fc     bg_panimate.obj
 0001:0000425c       $LN31                      3000525c     bg_panimate.obj
 0001:00004260       $LN30                      30005260     bg_panimate.obj
 0001:000042bc       $LN15                      300052bc     bg_panimate.obj
 0001:000042c4       $LN14                      300052c4     bg_panimate.obj
 0001:0000434c       $LN15                      3000534c     bg_panimate.obj
 0001:00004354       $LN14                      30005354     bg_panimate.obj
 0001:0000439c       $LN23                      3000539c     bg_panimate.obj
 0001:000043a4       $LN22                      300053a4     bg_panimate.obj
 0001:000043e8       $LN24                      300053e8     bg_panimate.obj
 0001:000043ec       $LN23                      300053ec     bg_panimate.obj
 0001:00004454       $LN13                      30005454     bg_panimate.obj
 0001:000046ec       $LN71                      300056ec     bg_panimate.obj
 0001:000046f4       $LN70                      300056f4     bg_panimate.obj
 0001:00004710       $LN73                      30005710     bg_panimate.obj
 0001:00004718       $LN72                      30005718     bg_panimate.obj
 0001:00004c14       $LN20                      30005c14     bg_pmove.obj
 0001:00004c68       $LN12                      30005c68     bg_pmove.obj
 0001:00004c70       $LN11                      30005c70     bg_pmove.obj
 0001:00004e4c       $LN40                      30005e4c     bg_pmove.obj
 0001:00004e7c       $LN39                      30005e7c     bg_pmove.obj
 0001:00004f00       _BG_G2ClientNeckAngles     30005f00 f   bg_pmove.obj
 0001:00005388       $LN46                      30006388     bg_pmove.obj
 0001:00005390       $LN45                      30006390     bg_pmove.obj
 0001:000053a0       _BG_G2ClientSpineAngles    300063a0 f   bg_pmove.obj
 0001:00005924       $LN39                      30006924     bg_pmove.obj
 0001:000068e0       $LN124                     300078e0     bg_pmove.obj
 0001:000068e8       $LN123                     300078e8     bg_pmove.obj
 0001:00006938       $LN126                     30007938     bg_pmove.obj
 0001:00006940       $LN125                     30007940     bg_pmove.obj
 0001:00006e5c       $LN31                      30007e5c     bg_pmove.obj
 0001:00006e64       $LN30                      30007e64     bg_pmove.obj
 0001:00006eac       $LN56                      30007eac     bg_pmove.obj
 0001:00006eb0       $LN55                      30007eb0     bg_pmove.obj
 0001:00006f30       _BG_SwingAngles            30007f30 f   bg_pmove.obj
 0001:0000793c       $LN18                      3000893c     bg_pmove.obj
 0001:00007944       $LN17                      30008944     bg_pmove.obj
 0001:00007d80       _PM_Accelerate             30008d80 f   bg_pmove.obj
 0001:00008694       $LN36                      30009694     bg_pmove.obj
 0001:0000904c       $LN164                     3000a04c     bg_pmove.obj
 0001:00009068       $LN163                     3000a068     bg_pmove.obj
 0001:00009104       $LN166                     3000a104     bg_pmove.obj
 0001:0000911c       $LN165                     3000a11c     bg_pmove.obj
 0001:0000916c       $LN168                     3000a16c     bg_pmove.obj
 0001:00009184       $LN167                     3000a184     bg_pmove.obj
 0001:000091e0       $LN170                     3000a1e0     bg_pmove.obj
 0001:000091ec       $LN169                     3000a1ec     bg_pmove.obj
 0001:00009250       _PM_AirMove                3000a250 f   bg_pmove.obj
 0001:0000981c       $LN25                      3000a81c     bg_pmove.obj
 0001:00009824       $LN24                      3000a824     bg_pmove.obj
 0001:00009850       _PM_CheckDuck              3000a850 f   bg_pmove.obj
 0001:0000a330       _PM_CheckJump              3000b330 f   bg_pmove.obj
 0001:0000c258       $LN280                     3000d258     bg_pmove.obj
 0001:0000c26c       $LN279                     3000d26c     bg_pmove.obj
 0001:0000c278       $LN282                     3000d278     bg_pmove.obj
 0001:0000c288       $LN281                     3000d288     bg_pmove.obj
 0001:0000c778       $LN28                      3000d778     bg_pmove.obj
 0001:0000c890       _PM_CmdForSaberMoves       3000d890 f   bg_pmove.obj
 0001:0000ccd4       $LN89                      3000dcd4     bg_pmove.obj
 0001:0000cce0       $LN88                      3000dce0     bg_pmove.obj
 0001:0000cd20       _PM_CrashLand              3000dd20 f   bg_pmove.obj
 0001:0000d3b8       $LN92                      3000e3b8     bg_pmove.obj
 0001:0000d4c4       $LN20                      3000e4c4     bg_pmove.obj
 0001:0000d4d0       $LN19                      3000e4d0     bg_pmove.obj
 0001:0000d530       _PM_DoChargedWeapons       3000e530 f   bg_pmove.obj
 0001:0000dd30       $LN148                     3000ed30     bg_pmove.obj
 0001:0000ddb0       _PM_DropTimers             3000edb0 f   bg_pmove.obj
 0001:0000df30       _PM_FlyMove                3000ef30 f   bg_pmove.obj
 0001:0000e100       _PM_FlyVehicleMove         3000f100 f   bg_pmove.obj
 0001:0000e350       _PM_Footsteps              3000f350 f   bg_pmove.obj
 0001:0000ed10       _PM_Friction               3000fd10 f   bg_pmove.obj
 0001:0000f038       $LN27                      30010038     bg_pmove.obj
 0001:0000f060       _PM_GetWeaponReadyAnim     30010060 f   bg_pmove.obj
 0001:0000f4d0       $LN53                      300104d0     bg_pmove.obj
 0001:0000f4e4       $LN52                      300104e4     bg_pmove.obj
 0001:0000f580       _PM_GrappleMove            30010580 f   bg_pmove.obj
 0001:0000f7b0       _PM_GroundTrace            300107b0 f   bg_pmove.obj
 0001:0000fc90       _PM_GroundTraceMissed      30010c90 f   bg_pmove.obj
 0001:000105d4       $LN48                      300115d4     bg_pmove.obj
 0001:000105dc       $LN47                      300115dc     bg_pmove.obj
 0001:000107e0       _PM_NoclipMove             300117e0 f   bg_pmove.obj
 0001:00010f0c       $LN18                      30011f0c     bg_pmove.obj
 0001:00010f14       $LN17                      30011f14     bg_pmove.obj
 0001:00010f80       _PM_SetMovementDir         30011f80 f   bg_pmove.obj
 0001:000110d0       _PM_SetVehicleAngles       300120d0 f   bg_pmove.obj
 0001:0001169c       $LN23                      3001269c     bg_pmove.obj
 0001:000116b0       _PM_SetWaterLevel          300126b0 f   bg_pmove.obj
 0001:00011810       _PM_TryRoll                30012810 f   bg_pmove.obj
 0001:000124c4       $LN81                      300134c4     bg_pmove.obj
 0001:000124ec       $LN80                      300134ec     bg_pmove.obj
 0001:00012510       _PM_WalkMove               30013510 f   bg_pmove.obj
 0001:00012a9c       $LN17                      30013a9c     bg_pmove.obj
 0001:00012aa4       $LN16                      30013aa4     bg_pmove.obj
 0001:00012ad0       _PM_WaterJumpMove          30013ad0 f   bg_pmove.obj
 0001:00012b30       _PM_WaterMove              30013b30 f   bg_pmove.obj
 0001:00012fd0       _PM_Weapon                 30013fd0 f   bg_pmove.obj
 0001:0001517c       $LN683                     3001617c     bg_pmove.obj
 0001:000151a0       $LN682                     300161a0     bg_pmove.obj
 0001:000151b0       $LN685                     300161b0     bg_pmove.obj
 0001:000151d4       $LN684                     300161d4     bg_pmove.obj
 0001:000151e4       $LN686                     300161e4     bg_pmove.obj
 0001:00015224       $LN688                     30016224     bg_pmove.obj
 0001:00015248       $LN687                     30016248     bg_pmove.obj
 0001:00017c8c       $LN450                     30018c8c     bg_pmove.obj
 0001:00017cbc       $LN449                     30018cbc     bg_pmove.obj
 0001:00017d10       _VectorCompare             30018d10 f   bg_pmove.obj
 0001:00017d10       _VectorCompare             30018d10 f   bg_slidemove.obj
 0001:00017dec       $LN35                      30018dec     bg_saber.obj
 0001:00017df8       $LN34                      30018df8     bg_saber.obj
 0001:00017fc0       _PM_CanDoDualDoubleAttacks 30018fc0 f   bg_saber.obj
 0001:000186a0       $LN106                     300196a0     bg_saber.obj
 0001:000187fc       $LN14                      300197fc     bg_saber.obj
 0001:00019bfc       $LN22                      3001abfc     bg_saber.obj
 0001:00019c0c       $LN21                      3001ac0c     bg_saber.obj
 0001:0001a3b0       $LN90                      3001b3b0     bg_saber.obj
 0001:0001a3c4       $LN89                      3001b3c4     bg_saber.obj
 0001:0001a3d0       $LN92                      3001b3d0     bg_saber.obj
 0001:0001a3e0       $LN91                      3001b3e0     bg_saber.obj
 0001:0001a4cc       $LN20                      3001b4cc     bg_saber.obj
 0001:0001c4f8       $LN405                     3001d4f8     bg_saber.obj
 0001:0001c52c       $LN407                     3001d52c     bg_saber.obj
 0001:0001c548       $LN406                     3001d548     bg_saber.obj
 0001:0001c5e4       $LN411                     3001d5e4     bg_saber.obj
 0001:0001c5f0       $LN410                     3001d5f0     bg_saber.obj
 0001:0001c5fc       $LN409                     3001d5fc     bg_saber.obj
 0001:0001c600       $LN408                     3001d600     bg_saber.obj
 0001:0001c608       $LN413                     3001d608     bg_saber.obj
 0001:0001c614       $LN412                     3001d614     bg_saber.obj
 0001:0001c6b4       $LN415                     3001d6b4     bg_saber.obj
 0001:0001c6c0       $LN414                     3001d6c0     bg_saber.obj
 0001:0001c760       $LN417                     3001d760     bg_saber.obj
 0001:0001c768       $LN416                     3001d768     bg_saber.obj
 0001:00022ac0       _BG_ParseVehWeaponParm     30023ac0 f   bg_vehicleLoad.obj
 0001:00022dc8       $LN43                      30023dc8     bg_vehicleLoad.obj
 0001:00022e20       _BG_ParseVehicleParm       30023e20 f   bg_vehicleLoad.obj
 0001:0002315c       $LN59                      3002415c     bg_vehicleLoad.obj
 0001:000231dc       $LN9                       300241dc     bg_vehicleLoad.obj
 0001:000237b8       $LN73                      300247b8     bg_vehicleLoad.obj
 0001:00026220       _CG_SizeUp_f               30027220 f   cg_consolecmds.obj
 0001:00026250       _CG_SizeDown_f             30027250 f   cg_consolecmds.obj
 0001:00026280       _CG_Viewpos_f              30027280 f   cg_consolecmds.obj
 0001:000262c0       _CG_ScoresDown_f           300272c0 f   cg_consolecmds.obj
 0001:00026310       _CG_ScoresUp_f             30027310 f   cg_consolecmds.obj
 0001:00026330       _CG_scrollScoresDown_f     30027330 f   cg_consolecmds.obj
 0001:00026370       _CG_scrollScoresUp_f       30027370 f   cg_consolecmds.obj
 0001:000263b0       _CG_spWin_f                300273b0 f   cg_consolecmds.obj
 0001:00026430       _CG_spLose_f               30027430 f   cg_consolecmds.obj
 0001:000264b0       _CG_TellTarget_f           300274b0 f   cg_consolecmds.obj
 0001:00026510       _CG_TellAttacker_f         30027510 f   cg_consolecmds.obj
 0001:00026570       _CG_StartOrbit_f           30027570 f   cg_consolecmds.obj
 0001:00026620       _CG_SiegeBriefing_f        30027620 f   cg_consolecmds.obj
 0001:00026650       _CG_SiegeCvarUpdate_f      30027650 f   cg_consolecmds.obj
 0001:00026680       _CG_SiegeCompleteCvarUpdate_f 30027680 f   cg_consolecmds.obj
 0001:000274b0       _CG_ChatBox_DrawStrings    300284b0 f   cg_draw.obj
 0001:00027710       _CG_Draw2D                 30028710 f   cg_draw.obj
 0001:00028a10       _CG_Draw2DScreenTints      30029a10 f   cg_draw.obj
 0001:00029eb0       _CG_DrawAmmo               3002aeb0 f   cg_draw.obj
 0001:0002a2e0       _CG_DrawCenterString       3002b2e0 f   cg_draw.obj
 0001:0002a490       _CG_DrawCrosshair          3002b490 f   cg_draw.obj
 0001:0002b0f0       _CG_DrawCrosshairNames     3002c0f0 f   cg_draw.obj
 0001:0002b370       _CG_DrawDisconnect         3002c370 f   cg_draw.obj
 0001:0002b810       _CG_DrawEnemyInfo          3002c810 f   cg_draw.obj
 0001:0002cc90       _CG_DrawLagometer          3002dc90 f   cg_draw.obj
 0001:0002dff8       $LN134                     3002eff8     cg_draw.obj
 0001:0002e00c       $LN133                     3002f00c     cg_draw.obj
 0001:0002e020       _CG_DrawRocketLocking      3002f020 f   cg_draw.obj
 0001:0002e530       _CG_DrawSaberStyle         3002f530 f   cg_draw.obj
 0001:0002e5cc       $LN22                      3002f5cc     cg_draw.obj
 0001:0002e9d0       _CG_DrawSpectator          3002f9d0 f   cg_draw.obj
 0001:0002ef30       _CG_DrawTeamOverlay        3002ff30 f   cg_draw.obj
 0001:0002f360       _CG_DrawTeamVote           30030360 f   cg_draw.obj
 0001:0002f4d0       _CG_DrawUpperRight         300304d0 f   cg_draw.obj
 0001:0002fb34       $LN29                      30030b34     cg_draw.obj
 0001:00030950       _CG_DrawVote               30031950 f   cg_draw.obj
 0001:00030ec0       _CG_DrawWarmup             30031ec0 f   cg_draw.obj
 0001:000312b0       _CG_DrawZoomMask           300322b0 f   cg_draw.obj
 0001:00031cf0       _CG_ScanForCrosshairEntity 30032cf0 f   cg_draw.obj
 0001:0003254c       $LN11                      3003354c     cg_draw.obj
 0001:000325e4       $LN20                      300335e4     cg_draw.obj
 0001:000325f4       $LN21                      300335f4     cg_draw.obj
 0001:00032650       $LN11                      30033650     cg_draw.obj
 0001:00032cfc       $LN60                      30033cfc     cg_drawtools.obj
 0001:00033ab0       _CG_CalcBiLerp             30034ab0 f   cg_effects.obj
 0001:00033f70       _CG_CalcHeightWidth        30034f70 f   cg_effects.obj
 0001:00034838       $LN71                      30035838     cg_effects.obj
 0001:0003485c       $LN70                      3003585c     cg_effects.obj
 0001:00034870       $LN72                      30035870     cg_effects.obj
 0001:00034c80       _CG_DoGlassQuad            30035c80 f   cg_effects.obj
 0001:000352ec       $LN47                      300362ec     cg_effects.obj
 0001:0003530c       $LN46                      3003630c     cg_effects.obj
 0001:00035764       $LN17                      30036764     cg_effects.obj
 0001:000357b0       _CG_AddCEntity             300367b0 f   cg_ents.obj
 0001:00035df4       $LN82                      30036df4     cg_ents.obj
 0001:000369f0       _CG_EntityEffects          300379f0 f   cg_ents.obj
 0001:00036bf0       _CG_General                30037bf0 f   cg_ents.obj
 0001:00038dd0       _CG_InterpolateEntityPosition 30039dd0 f   cg_ents.obj
 0001:00038f50       _CG_Item                   30039f50 f   cg_ents.obj
 0001:00039a68       $LN101                     3003aa68     cg_ents.obj
 0001:00039aa0       _CG_Missile                3003aaa0 f   cg_ents.obj
 0001:0003a670       _CG_Mover                  3003b670 f   cg_ents.obj
 0001:000400ac       $LN1047                    300410ac     cg_event.obj
 0001:00040308       $LN1046                    30041308     cg_event.obj
 0001:000403d8       $LN1049                    300413d8     cg_event.obj
 0001:00040404       $LN1048                    30041404     cg_event.obj
 0001:00040420       $LN1050                    30041420     cg_event.obj
 0001:00040434       $LN1051                    30041434     cg_event.obj
 0001:00040458       $LN1052                    30041458     cg_event.obj
 0001:00040468       $LN1053                    30041468     cg_event.obj
 0001:000404dc       $LN1054                    300414dc     cg_event.obj
 0001:0004079c       $LN32                      3004179c     cg_event.obj
 0001:000407a8       $LN31                      300417a8     cg_event.obj
 0001:00040984       $LN38                      30041984     cg_event.obj
 0001:000409a0       _CG_ItemPickup             300419a0 f   cg_event.obj
 0001:00040b20       _CG_Obituary               30041b20 f   cg_event.obj
 0001:0004142c       $LN215                     3004242c     cg_event.obj
 0001:00041438       $LN214                     30042438     cg_event.obj
 0001:0004144c       $LN217                     3004244c     cg_event.obj
 0001:00041460       $LN216                     30042460     cg_event.obj
 0001:00041484       $LN220                     30042484     cg_event.obj
 0001:00041524       $LN219                     30042524     cg_event.obj
 0001:00041564       $LN222                     30042564     cg_event.obj
 0001:0004157c       $LN221                     3004257c     cg_event.obj
 0001:00041810       _CG_UseItem                30042810 f   cg_event.obj
 0001:00041998       $LN42                      30042998     cg_event.obj
 0001:0004297c       $LN86                      3004397c     cg_info.obj
 0001:000429a4       $LN87                      300439a4     cg_info.obj
 0001:00043c34       $LN177                     30044c34     cg_localents.obj
 0001:000449f0       _CG_Cvar_Get               300459f0 f   cg_main.obj
 0001:00044a40       _CG_DebugBoxLines          30045a40 f   cg_main.obj
 0001:00044cd0       _CG_DrawCinematic          30045cd0 f   cg_main.obj
 0001:00044e80       _CG_FeederCount            30045e80 f   cg_main.obj
 0001:000450d0       _CG_FeederItemImage        300460d0 f   cg_main.obj
 0001:000450d0       _CG_OwnerDrawHandleKey     300460d0 f   cg_main.obj
 0001:000450e0       _CG_FeederItemText         300460e0 f   cg_main.obj
 0001:000452f4       $LN49                      300462f4     cg_main.obj
 0001:00045310       _CG_FeederSelection        30046310 f   cg_main.obj
 0001:00046f80       _CG_OwnerDrawWidth         30047f80 f   cg_main.obj
 0001:00047034       $LN11                      30048034     cg_main.obj
 0001:0004704c       $LN10                      3004804c     cg_main.obj
 0001:00047320       _CG_PlayCinematic          30048320 f   cg_main.obj
 0001:000478b0       _CG_RegisterGraphics       300488b0 f   cg_main.obj
 0001:00048ed0       _CG_RegisterSounds         30049ed0 f   cg_main.obj
 0001:0004a1d0       _CG_RunCinematicFrame      3004b1d0 f   cg_main.obj
 0001:0004a790       _CG_StopCinematic          3004b790 f   cg_main.obj
 0001:0004b390       $LN120                     3004c390     cg_main.obj
 0001:0004b410       $LN121                     3004c410     cg_main.obj
 0001:0004e064       $LN17                      3004f064     cg_newDraw.obj
 0001:0004e08c       $LN16                      3004f08c     cg_newDraw.obj
 0001:0004e4b4       $LN13                      3004f4b4     cg_newDraw.obj
 0001:0004e8d0       _BG_GiveMeVectorFromMatrix 3004f8d0 f   cg_players.obj
 0001:0004e9ec       $LN12                      3004f9ec     cg_players.obj
 0001:00050d9c       $LN207                     30051d9c     cg_players.obj
 0001:00050dcc       $LN208                     30051dcc     cg_players.obj
 0001:00050dfc       $LN209                     30051dfc     cg_players.obj
 0001:00051420       _CG_ColorFromInt           30052420 f   cg_players.obj
 0001:00051480       _CG_ColorFromString        30052480 f   cg_players.obj
 0001:000514f0       _CG_CopyClientInfoModel    300524f0 f   cg_players.obj
 0001:00051f40       _CG_CreateSurfaceDebris    30052f40 f   cg_players.obj
 0001:000521f0       _CG_CreateSurfaceSmoke     300531f0 f   cg_players.obj
 0001:00053d94       $LN179                     30054d94     cg_players.obj
 0001:00055694       $LN191                     30056694     cg_players.obj
 0001:00056f4c       $LN191                     30057f4c     cg_players.obj
 0001:000586dc       $LN197                     300596dc     cg_players.obj
 0001:00059df8       $LN178                     3005adf8     cg_players.obj
 0001:0005a3c0       $LN55                      3005b3c0     cg_players.obj
 0001:0005ab40       _CG_ForceCryo              3005bb40 f   cg_players.obj
 0001:0005b0a0       $LN76                      3005c0a0     cg_players.obj
 0001:0005b0c0       _CG_ForceElectrocution     3005c0c0 f   cg_players.obj
 0001:0005b758       $LN76                      3005c758     cg_players.obj
 0001:0005b780       _CG_ForceIncineration      3005c780 f   cg_players.obj
 0001:0005bce0       $LN76                      3005cce0     cg_players.obj
 0001:0005bd00       _CG_ForcePushBlur          3005cd00 f   cg_players.obj
 0001:0005c95c       $LN102                     3005d95c     cg_players.obj
 0001:0005cb40       _CG_G2PlayerAngles         3005db40 f   cg_players.obj
 0001:0005d630       _CG_G2SetHeadBlink         3005e630 f   cg_players.obj
 0001:0005dea0       $LN81                      3005eea0     cg_players.obj
 0001:0005dee0       $LN82                      3005eee0     cg_players.obj
 0001:0005def0       _CG_InitG2SaberData        3005eef0 f   cg_players.obj
 0001:000687c0       $LN86                      300697c0     cg_players.obj
 0001:000687e4       $LN87                      300697e4     cg_players.obj
 0001:000687f8       $LN88                      300697f8     cg_players.obj
 0001:00068adc       $LN72                      30069adc     cg_players.obj
 0001:00068b00       _CG_PlayerFlag             30069b00 f   cg_players.obj
 0001:00068da0       _CG_PlayerFloatSprite      30069da0 f   cg_players.obj
 0001:00068e70       _CG_PlayerShadow           30069e70 f   cg_players.obj
 0001:00069160       _CG_RGBForSaberColor       3006a160 f   cg_players.obj
 0001:0006934c       $LN56                      3006a34c     cg_players.obj
 0001:0006a570       _CG_RegisterClientModelname 3006b570 f   cg_players.obj
 0001:0006b300       _CG_RunLerpFrame           3006c300 f   cg_players.obj
 0001:0006b980       _CG_ScanForExistingClientInfo 3006c980 f   cg_players.obj
 0001:0006bcd0       _CG_SetLerpFrameAnimation  3006ccd0 f   cg_players.obj
 0001:0006c290       _CG_VehicleEffects         3006d290 f   cg_players.obj
 0001:0006e6b4       $LN259                     3006f6b4     cg_players.obj
 0001:0006f350       _VectorLength              30070350 f   cg_players.obj
 0001:0006f3c0       __PlayerFootStep           300703c0 f   cg_players.obj
 0001:0006f700       $LN89                      30070700     cg_players.obj
 0001:0006f72c       $LN88                      3007072c     cg_players.obj
 0001:0006f74c       $LN90                      3007074c     cg_players.obj
 0001:00070050       _CG_ClipMoveToEntities     30071050 f   cg_predict.obj
 0001:00070570       _CG_InterpolatePlayerState 30071570 f   cg_predict.obj
 0001:00070700       _CG_InterpolateVehiclePlayerState 30071700 f   cg_predict.obj
 0001:000708a0       _CG_Piloting               300718a0 f   cg_predict.obj
 0001:00071c40       _CG_TouchTriggerPrediction 30072c40 f   cg_predict.obj
 0001:00071f20       _CG_VehicleClipCheck       30072f20 f   cg_predict.obj
 0001:00072848       $LN37                      30073848     cg_saga.obj
 0001:00073a10       _CG_DrawClientScore        30074a10 f   cg_scoreboard.obj
 0001:00074a30       _CG_TeamScoreboard         30075a30 f   cg_scoreboard.obj
 0001:00074ac0       _CG_BodyQueueCopy          30075ac0 f   cg_servercmds.obj
 0001:00074f50       _CG_ConfigStringModified   30075f50 f   cg_servercmds.obj
 0001:000756f4       $LN176                     300766f4     cg_servercmds.obj
 0001:00076000       _CG_ParseScores            30077000 f   cg_servercmds.obj
 0001:000766c0       $LN40                      300776c0     cg_servercmds.obj
 0001:000766e0       _CG_RegisterCustomSounds   300776e0 f   cg_servercmds.obj
 0001:0007681c       $LN39                      3007781c     cg_servercmds.obj
 0001:00076830       $LN41                      30077830     cg_servercmds.obj
 0001:00076850       _CG_RemoveChatEscapeChar   30077850 f   cg_servercmds.obj
 0001:00076880       _CG_ServerCommand          30077880 f   cg_servercmds.obj
 0001:00077950       _GetCustomSoundForType     30078950 f   cg_servercmds.obj
 0001:000779b0       $LN12                      300789b0     cg_servercmds.obj
 0001:00077f40       _CG_ReadNextSnapshot       30078f40 f   cg_snapshot.obj
 0001:00078000       _CG_ResetEntity            30079000 f   cg_snapshot.obj
 0001:0007a010       _CG_AddRefentForAutoMap    3007b010 f   cg_view.obj
 0001:0007a1d0       _CG_CalcFov                3007b1d0 f   cg_view.obj
 0001:0007a5e0       _CG_CalcIdealThirdPersonViewLocation 3007b5e0 f   cg_view.obj
 0001:0007a6f0       _CG_CalcIdealThirdPersonViewTarget 3007b6f0 f   cg_view.obj
 0001:0007a8a0       _CG_CalcViewValues         3007b8a0 f   cg_view.obj
 0001:0007c650       _CG_OffsetFighterView      3007d650 f   cg_view.obj
 0001:0007c920       _CG_OffsetFirstPersonView  3007d920 f   cg_view.obj
 0001:0007ccd0       _CG_OffsetThirdPersonView  3007dcd0 f   cg_view.obj
 0001:0007d8a0       _CG_ThirdPersonActionCam   3007e8a0 f   cg_view.obj
 0001:0007dc40       _CG_UpdateThirdPersonCameraDamp 3007ec40 f   cg_view.obj
 0001:000804ec       $LN79                      300814ec     cg_weaponinit.obj
 0001:00082420       _CG_AddWeaponWithPowerups  30083420 f   cg_weapons.obj
 0001:000827d0       _CG_CalculateWeaponPosition 300837d0 f   cg_weapons.obj
 0001:00084310       _CG_MapTorsoToWeaponFrame  30085310 f   cg_weapons.obj
 0001:00084444       $LN23                      30085444     cg_weapons.obj
 0001:000845a0       $LN26                      300855a0     cg_weapons.obj
 0001:00084730       $LN26                      30085730     cg_weapons.obj
 0001:000848c0       $LN26                      300858c0     cg_weapons.obj
 0001:00084a50       $LN26                      30085a50     cg_weapons.obj
 0001:00084be0       $LN26                      30085be0     cg_weapons.obj
 0001:00084d70       $LN26                      30085d70     cg_weapons.obj
 0001:00084f24       $LN28                      30085f24     cg_weapons.obj
 0001:000850b4       $LN26                      300860b4     cg_weapons.obj
 0001:00085244       $LN26                      30086244     cg_weapons.obj
 0001:000853d4       $LN26                      300863d4     cg_weapons.obj
 0001:00085564       $LN26                      30086564     cg_weapons.obj
 0001:000856f4       $LN26                      300866f4     cg_weapons.obj
 0001:00085d40       _CG_WeaponSelectable       30086d40 f   cg_weapons.obj
 0001:00086030       _FighterDamageRoutine      30087030 f   FighterNPC.obj
 0001:00086330       _FighterNoseMalfunctionCheck 30087330 f   FighterNPC.obj
 0001:00086540       _PredictedAngularDecrement 30087540 f   FighterNPC.obj
 0001:000865d0       _ProcessMoveCommands       300875d0 f   FighterNPC.obj
 0001:00087080       _ProcessOrientCommands     30088080 f   FighterNPC.obj
 0001:000897b0       _CG_DistortionOrb          3008a7b0 f   fx_heavyrepeater.obj
 0001:0008cd00       _ProcessMoveCommands       3008dd00 f   SpeederNPC.obj
 0001:0008fa98       $LN15                      30090a98     ui_shared.obj
 0001:0008faa0       $LN14                      30090aa0     ui_shared.obj
 0001:00090b50       _Display_CloseCinematics   30091b50 f   ui_shared.obj
 0001:0009168c       $LN65                      3009268c     ui_shared.obj
 0001:00092d18       $LN27                      30093d18     ui_shared.obj
 0001:00092d28       $LN26                      30093d28     ui_shared.obj
 0001:000931d0       _Item_TextScroll_BuildLines 300941d0 f   ui_shared.obj
 0001:0009445c       $LN142                     3009545c     ui_shared.obj
 0001:0009447c       $LN141                     3009547c     ui_shared.obj
 0001:00096000       _Scroll_ListBox_AutoFunc   30097000 f   ui_shared.obj
 0001:00096070       _Scroll_ListBox_ThumbFunc  30097070 f   ui_shared.obj
 0001:00096310       _Scroll_Slider_ThumbFunc   30097310 f   ui_shared.obj
 0001:000963f0       _Scroll_TextScroll_AutoFunc 300973f0 f   ui_shared.obj
 0001:00096460       _Scroll_TextScroll_ThumbFunc 30097460 f   ui_shared.obj
 0001:000969a0       _ProcessMoveCommands       300979a0 f   WalkerNPC.obj
 0001:00096b60       _ProcessOrientCommands     30097b60 f   WalkerNPC.obj
 0001:00096da0       $$000000                   30097da0     LIBCMT:ftol2.obj
 0001:00096db0       $$000000                   30097db0     LIBCMT:ftol2.obj
 0001:00096dc1       L3B                        30097dc1     LIBCMT:ftol2.obj
 0001:00096e04       L3F                        30097e04     LIBCMT:ftol2.obj
 0001:00096e0c       L40                        30097e0c     LIBCMT:ftol2.obj
 0001:00096e1f       L41                        30097e1f     LIBCMT:ftol2.obj
 0001:00096e30       $$000000                   30097e30     LIBCMT:chkstk.obj
 0001:00096e44       cs10                       30097e44     LIBCMT:chkstk.obj
 0001:00096e52       cs20                       30097e52     LIBCMT:chkstk.obj
 0001:00096e5b       ?dllmain_crt_dispatch@@YGHQAUHINSTANCE__@@KQAX@Z 30097e5b f   LIBCMT:dll_dllmain.obj
 0001:00096eae       ?dllmain_crt_process_attach@@YAHQAUHINSTANCE__@@QAX@Z 30097eae f   LIBCMT:dll_dllmain.obj
 0001:00096fb8       ?dllmain_crt_process_detach@@YAH_N@Z 30097fb8 f   LIBCMT:dll_dllmain.obj
 0001:0009706f       ?dllmain_dispatch@@YAHQAUHINSTANCE__@@KQAX@Z 3009806f f   LIBCMT:dll_dllmain.obj
 0001:0009717d       ?dllmain_raw@@YGHQAUHINSTANCE__@@KQAX@Z 3009817d f   LIBCMT:dll_dllmain.obj
 0001:000974e5       ___get_entropy             300984e5 f   LIBCMT:gs_support.obj
 0001:000975b8       ?find_pe_section@@YAPAU_IMAGE_SECTION_HEADER@@QAEI@Z 300985b8 f   LIBCMT:utility.obj
 0001:00097a10       $$000000                   30098a10     LIBCMT:sehprolg4.obj
 0001:00097ba0       $$000000                   30098ba0     libvcruntime:memset.obj
 0001:00097be5       XMMMov                     30098be5     libvcruntime:memset.obj
 0001:00097c20       LargeRangeBytes            30098c20     libvcruntime:memset.obj
 0001:00097c5d       XmmMovSmall                30098c5d     libvcruntime:memset.obj
 0001:00097c70       XmmSmallLoop               30098c70     libvcruntime:memset.obj
 0001:00097c75       MidRangeBytes              30098c75     libvcruntime:memset.obj
 0001:00097c91       XMMTrailingBytes           30098c91     libvcruntime:memset.obj
 0001:00097ca5       SmallMov                   30098ca5     libvcruntime:memset.obj
 0001:00097cad       ByteLoop                   30098cad     libvcruntime:memset.obj
 0001:00097cbb       DwordTest                  30098cbb     libvcruntime:memset.obj
 0001:00097ccb       QwordTest                  30098ccb     libvcruntime:memset.obj
 0001:00097ce0       QwordLoop                  30098ce0     libvcruntime:memset.obj
 0001:00097cf3       toend                      30098cf3     libvcruntime:memset.obj
 0001:00097d00       $$000000                   30098d00     libvcruntime:strstr.obj
 0001:00097d43       strstr_sse_safeloop        30098d43     libvcruntime:strstr.obj
 0001:00097d6a       strstr_sse_search          30098d6a     libvcruntime:strstr.obj
 0001:00097d6a       strstr_sse_unsafe          30098d6a     libvcruntime:strstr.obj
 0001:00097d6e       strstr_sse_srchloop        30098d6e     libvcruntime:strstr.obj
 0001:00097da4       strstr_sse_srchchar        30098da4     libvcruntime:strstr.obj
 0001:00097dbb       strstr_sse_cmploop         30098dbb     libvcruntime:strstr.obj
 0001:00097df6       strstr_sse_cmpchars        30098df6     libvcruntime:strstr.obj
 0001:00097dfd       strstr_sse_cmpunsafe       30098dfd     libvcruntime:strstr.obj
 0001:00097e14       strstr_sse_match           30098e14     libvcruntime:strstr.obj
 0001:00097e19       strstr_sse_not_found       30098e19     libvcruntime:strstr.obj
 0001:00097e1b       strstr_sse_exit            30098e1b     libvcruntime:strstr.obj
 0001:00097e1f       strstr_sttni               30098e1f     libvcruntime:strstr.obj
 0001:00097e3b       strstr_sttni_setchars      30098e3b     libvcruntime:strstr.obj
 0001:00097e40       strstr_sttni_setloopchar   30098e40     libvcruntime:strstr.obj
 0001:00097e46       strstr_sttni_setloopnochar 30098e46     libvcruntime:strstr.obj
 0001:00097e5a       strstr_sttni_srchnext      30098e5a     libvcruntime:strstr.obj
 0001:00097e5d       strstr_sttni_srch          30098e5d     libvcruntime:strstr.obj
 0001:00097e61       strstr_sttni_srchloop      30098e61     libvcruntime:strstr.obj
 0001:00097e80       strstr_sttni_srchxmm       30098e80     libvcruntime:strstr.obj
 0001:00097e93       strstr_sttni_srchcheck     30098e93     libvcruntime:strstr.obj
 0001:00097e97       strstr_sttni_cmploop       30098e97     libvcruntime:strstr.obj
 0001:00097ecf       strstr_sttni_cmpchar       30098ecf     libvcruntime:strstr.obj
 0001:00097eea       strstr_no_sse              30098eea     libvcruntime:strstr.obj
 0001:00097efd       findnext                   30098efd     libvcruntime:strstr.obj
 0001:00097f10       loop_start                 30098f10     libvcruntime:strstr.obj
 0001:00097f15       in_loop                    30098f15     libvcruntime:strstr.obj
 0001:00097f1d       not_found                  30098f1d     libvcruntime:strstr.obj
 0001:00097f23       first_char_found           30098f23     libvcruntime:strstr.obj
 0001:00097f2c       two_first_chars_equal      30098f2c     libvcruntime:strstr.obj
 0001:00097f2f       compare_loop               30098f2f     libvcruntime:strstr.obj
 0001:00097f52       strchr_call                30098f52     libvcruntime:strstr.obj
 0001:00097f5e       match                      30098f5e     libvcruntime:strstr.obj
 0001:00097f65       empty_str2                 30098f65     libvcruntime:strstr.obj
 0001:00097f70       $$000000                   30098f70     libvcruntime:memcpy.obj
 0001:00097f70       $$000000                   30098f70     libvcruntime:memmove.obj
 0001:00097f90       CopyUp                     30098f90     libvcruntime:memcpy.obj
 0001:00097f90       CopyUp                     30098f90     libvcruntime:memmove.obj
 0001:00097fb4       CopyUpLargeMov             30098fb4     libvcruntime:memcpy.obj
 0001:00097fb4       CopyUpLargeMov             30098fb4     libvcruntime:memmove.obj
 0001:00097fc7       CopyUpSSE2Check            30098fc7     libvcruntime:memcpy.obj
 0001:00097fc7       CopyUpSSE2Check            30098fc7     libvcruntime:memmove.obj
 0001:00097fe0       AtomChk                    30098fe0     libvcruntime:memcpy.obj
 0001:00097fe0       AtomChk                    30098fe0     libvcruntime:memmove.obj
 0001:00098006       PalignHead4                30099006     libvcruntime:memcpy.obj
 0001:00098006       PalignHead4                30099006     libvcruntime:memmove.obj
 0001:00098019       PalignHead8                30099019     libvcruntime:memcpy.obj
 0001:00098019       PalignHead8                30099019     libvcruntime:memmove.obj
 0001:00098030       PalignLoop                 30099030     libvcruntime:memcpy.obj
 0001:00098030       PalignLoop                 30099030     libvcruntime:memmove.obj
 0001:00098042       MovPalign12                30099042     libvcruntime:memcpy.obj
 0001:00098042       MovPalign12                30099042     libvcruntime:memmove.obj
 0001:0009804c       PalignLoop12               3009904c     libvcruntime:memcpy.obj
 0001:0009804c       PalignLoop12               3009904c     libvcruntime:memmove.obj
 0001:0009809d       MovPalign8                 3009909d     libvcruntime:memcpy.obj
 0001:0009809d       MovPalign8                 3009909d     libvcruntime:memmove.obj
 0001:000980a8       PalignLoop8                300990a8     libvcruntime:memcpy.obj
 0001:000980a8       PalignLoop8                300990a8     libvcruntime:memmove.obj
 0001:000980f6       MovPalign4                 300990f6     libvcruntime:memcpy.obj
 0001:000980f6       MovPalign4                 300990f6     libvcruntime:memmove.obj
 0001:00098100       PalignLoop4                30099100     libvcruntime:memcpy.obj
 0001:00098100       PalignLoop4                30099100     libvcruntime:memmove.obj
 0001:0009814c       PalignTail                 3009914c     libvcruntime:memcpy.obj
 0001:0009814c       PalignTail                 3009914c     libvcruntime:memmove.obj
 0001:00098164       PalignTail4                30099164     libvcruntime:memcpy.obj
 0001:00098164       PalignTail4                30099164     libvcruntime:memmove.obj
 0001:00098177       PalignTail8                30099177     libvcruntime:memcpy.obj
 0001:00098177       PalignTail8                30099177     libvcruntime:memmove.obj
 0001:0009818e       PalignTailLE3              3009918e     libvcruntime:memcpy.obj
 0001:0009818e       PalignTailLE3              3009918e     libvcruntime:memmove.obj
 0001:00098197       Dword_align                30099197     libvcruntime:memcpy.obj
 0001:00098197       Dword_align                30099197     libvcruntime:memmove.obj
 0001:0009819f       Dword_up_align_loop        3009919f     libvcruntime:memcpy.obj
 0001:0009819f       Dword_up_align_loop        3009919f     libvcruntime:memmove.obj
 0001:000981b2       Dword_align_Ok             300991b2     libvcruntime:memcpy.obj
 0001:000981b2       Dword_align_Ok             300991b2     libvcruntime:memmove.obj
 0001:000981cc       ByteCopyUp                 300991cc     libvcruntime:memcpy.obj
 0001:000981cc       ByteCopyUp                 300991cc     libvcruntime:memmove.obj
 0001:000981d4       TrailingUpVec              300991d4     libvcruntime:memcpy.obj
 0001:000981d4       TrailingUpVec              300991d4     libvcruntime:memmove.obj
 0001:000981e4       TrailingUp0                300991e4     libvcruntime:memcpy.obj
 0001:000981e4       TrailingUp0                300991e4     libvcruntime:memmove.obj
 0001:000981ec       TrailingUp1                300991ec     libvcruntime:memcpy.obj
 0001:000981ec       TrailingUp1                300991ec     libvcruntime:memmove.obj
 0001:000981f8       TrailingUp2                300991f8     libvcruntime:memcpy.obj
 0001:000981f8       TrailingUp2                300991f8     libvcruntime:memmove.obj
 0001:0009820c       TrailingUp3                3009920c     libvcruntime:memcpy.obj
 0001:0009820c       TrailingUp3                3009920c     libvcruntime:memmove.obj
 0001:00098224       CopyDown                   30099224     libvcruntime:memcpy.obj
 0001:00098224       CopyDown                   30099224     libvcruntime:memmove.obj
 0001:00098249       CopyDownNotAligned         30099249     libvcruntime:memcpy.obj
 0001:00098249       CopyDownNotAligned         30099249     libvcruntime:memmove.obj
 0001:00098250       CopyDownAlignLoop          30099250     libvcruntime:memcpy.obj
 0001:00098250       CopyDownAlignLoop          30099250     libvcruntime:memmove.obj
 0001:0009825d       CopyDownAligned            3009925d     libvcruntime:memcpy.obj
 0001:0009825d       CopyDownAligned            3009925d     libvcruntime:memmove.obj
 0001:00098280       TrailingDownVec            30099280     libvcruntime:memcpy.obj
 0001:00098280       TrailingDownVec            30099280     libvcruntime:memmove.obj
 0001:00098290       TrailingDown0              30099290     libvcruntime:memcpy.obj
 0001:00098290       TrailingDown0              30099290     libvcruntime:memmove.obj
 0001:00098298       TrailingDown1              30099298     libvcruntime:memcpy.obj
 0001:00098298       TrailingDown1              30099298     libvcruntime:memmove.obj
 0001:000982a8       TrailingDown2              300992a8     libvcruntime:memcpy.obj
 0001:000982a8       TrailingDown2              300992a8     libvcruntime:memmove.obj
 0001:000982bc       TrailingDown3              300992bc     libvcruntime:memcpy.obj
 0001:000982bc       TrailingDown3              300992bc     libvcruntime:memmove.obj
 0001:000982d5       XmmMovLargeAlignTest       300992d5     libvcruntime:memcpy.obj
 0001:000982d5       XmmMovLargeAlignTest       300992d5     libvcruntime:memmove.obj
 0001:000982dd       XmmMovAlignLoop            300992dd     libvcruntime:memcpy.obj
 0001:000982dd       XmmMovAlignLoop            300992dd     libvcruntime:memmove.obj
 0001:000982ec       XmmMovLargeLoop            300992ec     libvcruntime:memcpy.obj
 0001:000982ec       XmmMovLargeLoop            300992ec     libvcruntime:memmove.obj
 0001:0009835c       XmmMovSmallTest            3009935c     libvcruntime:memcpy.obj
 0001:0009835c       XmmMovSmallTest            3009935c     libvcruntime:memmove.obj
 0001:00098361       XmmMovSmallLoop            30099361     libvcruntime:memcpy.obj
 0001:00098361       XmmMovSmallLoop            30099361     libvcruntime:memmove.obj
 0001:00098384       CopyDownSmall              30099384     libvcruntime:memcpy.obj
 0001:00098384       CopyDownSmall              30099384     libvcruntime:memmove.obj
 0001:0009838c       CopyDownDwordLoop          3009938c     libvcruntime:memcpy.obj
 0001:0009838c       CopyDownDwordLoop          3009938c     libvcruntime:memmove.obj
 0001:000983a1       CopyDownByteTest           300993a1     libvcruntime:memcpy.obj
 0001:000983a1       CopyDownByteTest           300993a1     libvcruntime:memmove.obj
 0001:000983a5       CopyDownByteLoop           300993a5     libvcruntime:memcpy.obj
 0001:000983a5       CopyDownByteLoop           300993a5     libvcruntime:memmove.obj
 0001:000983b4       CopyDownReturn             300993b4     libvcruntime:memcpy.obj
 0001:000983b4       CopyDownReturn             300993b4     libvcruntime:memmove.obj
 0001:000983c0       XmmCopy                    300993c0     libvcruntime:memcpy.obj
 0001:000983c0       XmmCopy                    300993c0     libvcruntime:memmove.obj
 0001:000983cd       XmmCopyAligned             300993cd     libvcruntime:memcpy.obj
 0001:000983cd       XmmCopyAligned             300993cd     libvcruntime:memmove.obj
 0001:000983e0       XmmCopyLargeLoop           300993e0     libvcruntime:memcpy.obj
 0001:000983e0       XmmCopyLargeLoop           300993e0     libvcruntime:memmove.obj
 0001:0009843d       XmmCopySmallTest           3009943d     libvcruntime:memcpy.obj
 0001:0009843d       XmmCopySmallTest           3009943d     libvcruntime:memmove.obj
 0001:00098450       XmmCopySmallLoop           30099450     libvcruntime:memcpy.obj
 0001:00098450       XmmCopySmallLoop           30099450     libvcruntime:memmove.obj
 0001:0009846b       CopyUpDwordMov             3009946b     libvcruntime:memcpy.obj
 0001:0009846b       CopyUpDwordMov             3009946b     libvcruntime:memmove.obj
 0001:00098470       CopyUpDwordTest            30099470     libvcruntime:memcpy.obj
 0001:00098470       CopyUpDwordTest            30099470     libvcruntime:memmove.obj
 0001:00098477       CopyUpDwordLoop            30099477     libvcruntime:memcpy.obj
 0001:00098477       CopyUpDwordLoop            30099477     libvcruntime:memmove.obj
 0001:00098486       CopyUpByteTest             30099486     libvcruntime:memcpy.obj
 0001:00098486       CopyUpByteTest             30099486     libvcruntime:memmove.obj
 0001:0009848d       CopyUpByteLoop             3009948d     libvcruntime:memcpy.obj
 0001:0009848d       CopyUpByteLoop             3009948d     libvcruntime:memmove.obj
 0001:000984a0       CopyUpReturn               300994a0     libvcruntime:memcpy.obj
 0001:000984a0       CopyUpReturn               300994a0     libvcruntime:memmove.obj
 0001:000984b0       XmmCopyUnaligned           300994b0     libvcruntime:memcpy.obj
 0001:000984b0       XmmCopyUnaligned           300994b0     libvcruntime:memmove.obj
 0001:000984c3       XmmAlignByte               300994c3     libvcruntime:memcpy.obj
 0001:000984c3       XmmAlignByte               300994c3     libvcruntime:memmove.obj
 0001:000984cc       XmmAlignDwordTest          300994cc     libvcruntime:memcpy.obj
 0001:000984cc       XmmAlignDwordTest          300994cc     libvcruntime:memmove.obj
 0001:000984d1       XmmAlignDwordLoop          300994d1     libvcruntime:memcpy.obj
 0001:000984d1       XmmAlignDwordLoop          300994d1     libvcruntime:memmove.obj
 0001:000984de       XmmAlignAdjustCnt          300994de     libvcruntime:memcpy.obj
 0001:000984de       XmmAlignAdjustCnt          300994de     libvcruntime:memmove.obj
 0001:000984f0       $$000000                   300994f0     libvcruntime:strchr.obj
 0001:00098523       strchr_sse_loop            30099523     libvcruntime:strchr.obj
 0001:00098547       strchr_sse_break           30099547     libvcruntime:strchr.obj
 0001:00098558       strchr_no_sse2             30099558     libvcruntime:strchr.obj
 0001:00098570       str_misaligned             30099570     libvcruntime:strchr.obj
 0001:00098585       main_loop_start            30099585     libvcruntime:strchr.obj
 0001:00098590       main_loop                  30099590     libvcruntime:strchr.obj
 0001:000985cc       retnull                    300995cc     libvcruntime:strchr.obj
 0001:000985ce       retnull_bx                 300995ce     libvcruntime:strchr.obj
 0001:000985d2       found_bx                   300995d2     libvcruntime:strchr.obj
 0001:000985d7       chr_is_found               300995d7     libvcruntime:strchr.obj
 0001:000985ff       byte_3                     300995ff     libvcruntime:strchr.obj
 0001:00098606       byte_2                     30099606     libvcruntime:strchr.obj
 0001:0009860d       byte_1                     3009960d     libvcruntime:strchr.obj
 0001:00098614       byte_0                     30099614     libvcruntime:strchr.obj
 0001:00098620       $$000000                   30099620     libvcruntime:strrchr.obj
 0001:0009865d       strrchr_sse_loop           3009965d     libvcruntime:strrchr.obj
 0001:0009868d       strrchr_sse_break          3009968d     libvcruntime:strrchr.obj
 0001:000986ad       strrchr_sttni              300996ad     libvcruntime:strrchr.obj
 0001:000986bf       strrchr_sttni_chars        300996bf     libvcruntime:strrchr.obj
 0001:000986d4       strrchr_sttni_aligned      300996d4     libvcruntime:strrchr.obj
 0001:000986d8       strrchr_sttni_xmm          300996d8     libvcruntime:strrchr.obj
 0001:000986eb       exit                       300996eb     libvcruntime:strrchr.obj
 0001:000986ee       strrchr_zero               300996ee     libvcruntime:strrchr.obj
 0001:00098713       strchr_zero_loop           30099713     libvcruntime:strrchr.obj
 0001:00098727       strchr_zero_result         30099727     libvcruntime:strrchr.obj
 0001:0009872e       strrchr_no_sse             3009972e     libvcruntime:strrchr.obj
 0001:00098751       returndi                   30099751     libvcruntime:strrchr.obj
 0001:00098753       toend                      30099753     libvcruntime:strrchr.obj
 0001:00098760       _ValidateLocalCookies      30099760 f   libvcruntime:chandler4.obj
 0001:00098a63       ?_FilterSetCurrentException@@YAKPAU_EXCEPTION_POINTERS@@E@Z 30099a63 f   libvcruntime:ehhelpers.obj
 0001:00098b70       $$000000                   30099b70     libvcruntime:exsup4.obj
 0001:00098ba2       _lu_top                    30099ba2     libvcruntime:exsup4.obj
 0001:00098c01       _lu_done                   30099c01     libvcruntime:exsup4.obj
 0001:00098c10       $$000000                   30099c10     libvcruntime:exsup4.obj
 0001:00098c10       __unwind_handler4          30099c10 f   libvcruntime:exsup4.obj
 0001:00098c60       $$000000                   30099c60     libvcruntime:exsup4.obj
 0001:00098c80       $$000000                   30099c80     libvcruntime:exsup4.obj
 0001:00098ca0       $$000000                   30099ca0     libvcruntime:exsup4.obj
 0001:00098cb5       ReturnPoint                30099cb5     libvcruntime:exsup4.obj
 0001:00098cc0       $$000000                   30099cc0     libvcruntime:exsup4.obj
 0001:00098eb0       $$000000                   30099eb0     libvcruntime:exsup.obj
 0001:00098ec0       $$000000                   30099ec0     libvcruntime:exsup.obj
 0001:00098ecb       __NLG_Go                   30099ecb     libvcruntime:exsup.obj
 0001:00098ee0       $$000000                   30099ee0     libvcruntime:exsup.obj
 0001:000992a7       ?try_get_function@@YAPAXW4function_id@?A0x14174aea@@QBDQBW4module_id@2@2@Z 3009a2a7 f   libvcruntime:winapi_downlevel.obj
 0001:00099347       ?try_load_library_from_system_directory@@YAPAUHINSTANCE__@@QB_W@Z 3009a347 f   libvcruntime:winapi_downlevel.obj
 0001:000994c8       ??$BuildCatchObjectHelperInternal@V__FrameHandler3@@@@YAHPAUEHExceptionRecord@@PAXPBU_s_HandlerType@@PBU_s_CatchableType@@@Z 3009a4c8 f   libvcruntime:frame.obj
 0001:00099606       ??$BuildCatchObjectInternal@V__FrameHandler3@@@@YAXPAUEHExceptionRecord@@PAXPBU_s_HandlerType@@PBU_s_CatchableType@@@Z 3009a606 f   libvcruntime:frame.obj
 0001:000996a2       ??$CatchIt@V__FrameHandler3@@@@YAXPAUEHExceptionRecord@@PAUEHRegistrationNode@@PAU_CONTEXT@@PAXPBU_s_FuncInfo@@PBU_s_HandlerType@@PBU_s_CatchableType@@PBU_s_TryBlockMapEntry@@H1EE@Z 3009a6a2 f   libvcruntime:frame.obj
 0001:00099723       ??$FindHandler@V__FrameHandler3@@@@YAXPAUEHExceptionRecord@@PAUEHRegistrationNode@@PAU_CONTEXT@@PAXPBU_s_FuncInfo@@EH1@Z 3009a723 f   libvcruntime:frame.obj
 0001:00099ac6       ??$FindHandlerForForeignException@V__FrameHandler3@@@@YAXPAUEHExceptionRecord@@PAUEHRegistrationNode@@PAU_CONTEXT@@PAXPBU_s_FuncInfo@@HH1@Z 3009aac6 f   libvcruntime:frame.obj
 0001:00099e5d       ?CallCatchBlock@@YAPAXPAUEHExceptionRecord@@PAUEHRegistrationNode@@PAU_CONTEXT@@PBU_s_FuncInfo@@PAXHK@Z 3009ae5d f   libvcruntime:frame.obj
 0001:0009a02c       ?CallUnexpected@@YAXPBU_s_ESTypeList@@@Z 3009b02c f   libvcruntime:frame.obj
 0001:0009a04f       __catch$?CallUnexpected@@YAXPBU_s_ESTypeList@@@Z$0 3009b04f f   libvcruntime:frame.obj
 0001:0009a06e       ?ExFilterRethrow@@YAHPAU_EXCEPTION_POINTERS@@@Z 3009b06e f   libvcruntime:frame.obj
 0001:0009a1be       ?IsInExceptionSpec@@YAEPAUEHExceptionRecord@@PBU_s_ESTypeList@@@Z 3009b1be f   libvcruntime:frame.obj
 0001:0009a2a0       $$000000                   3009b2a0     libvcruntime:lowhelpr.obj
 0001:0009a2df       _NLG_Continue              3009b2df     libvcruntime:lowhelpr.obj
 0001:0009a4c8       ??$common_atof_l@D@@YANQBDQAU__crt_locale_pointers@@@Z 3009b4c8 f   libucrt:atof.obj
 0001:0009adb3       $LN32                      3009bdb3     libucrt:atof.obj
 0001:0009aed7       $LN30                      3009bed7     libucrt:atof.obj
 0001:0009d92e       _memcpy_s                  3009e92e f   libucrt:atof.obj
 0001:0009d92e       _memcpy_s                  3009e92e f   libucrt:cfout.obj
 0001:0009d92e       _memcpy_s                  3009e92e f   libucrt:mbctype.obj
 0001:0009d9af       ??$common_vsscanf@D@@YAH_KQBDI1QAU__crt_locale_pointers@@QAD@Z 3009e9af f   libucrt:input.obj
 0001:0009ee94       $LN16                      3009fe94     libucrt:input.obj
 0001:0009eea0       $LN15                      3009fea0     libucrt:input.obj
 0001:0009ef93       $LN15                      3009ff93     libucrt:input.obj
 0001:0009f728       $LN17                      300a0728     libucrt:input.obj
 0001:0009f73c       $LN16                      300a073c     libucrt:input.obj
 0001:0009fee0       $$000000                   300a0ee0     libucrt:87ctriga.obj
 0001:0009fef0       $$000000                   300a0ef0     libucrt:cos_sse2_precise.obj
 0001:000a00b0       $$000000                   300a10b0     libucrt:sin_sse2_precise.obj
 0001:000a02a0       $$000000                   300a12a0     libucrt:ceil_pentium4.obj
 0001:000a03e0       $$000000                   300a13e0     libucrt:floor_pentium4.obj
 0001:000a0500       $$000000                   300a1500     libucrt:sqrt_sse2_precise.obj
 0001:000a06b4       ??$common_vsprintf@Vstandard_base@__crt_stdio_output@@D@@YAH_KQADIQBDAAV__crt_cached_ptd_host@@1@Z 300a16b4 f   libucrt:output.obj
 0001:000a17a5       $LN130                     300a27a5     libucrt:output.obj
 0001:000a1d91       $LN18                      300a2d91     libucrt:output.obj
 0001:000a1da5       $LN17                      300a2da5     libucrt:output.obj
 0001:000a2280       $$000000                   300a3280     libucrt:strncpy.obj
 0001:000a23a4       ??$common_strtod_l@ND@@YANQBDQAPADQAU__crt_locale_pointers@@@Z 300a33a4 f   libucrt:strtod.obj
 0001:000a2460       $$000000                   300a3460     libucrt:acos_sse2_precise.obj
 0001:000a2980       $$000000                   300a3980     libucrt:tan_sse2_precise.obj
 0001:000a2bf0       $$000000                   300a3bf0     libucrt:87fmod_impl.obj
 0001:000a302b       ??$?RV<lambda_03b1d95aef87969028cfba75ccab2455>@@AAV<lambda_6e4b09c48022b2350581041d5f6b0c4c>@@V<lambda_22bdf7517842c4b3e53723af5aa32b9e>@@@?$__crt_seh_guarded_call@X@@QAEX$$QAV<lambda_03b1d95aef87969028cfba75ccab2455>@@AAV<lambda_6e4b09c48022b2350581041d5f6b0c4c>@@$$QAV<lambda_22bdf7517842c4b3e53723af5aa32b9e>@@@Z 300a402b f   libucrt:exit.obj
 0001:000a3093       ??R<lambda_6e4b09c48022b2350581041d5f6b0c4c>@@QBE@XZ 300a4093 f   libucrt:exit.obj
 0001:000a317b       ?common_exit@@YAXHW4_crt_exit_cleanup_mode@@W4_crt_exit_return_mode@@@Z 300a417b f   libucrt:exit.obj
 0001:000a3239       ?exit_or_terminate_process@@YAXI_N@Z 300a4239 f   libucrt:exit.obj
 0001:000a3267       ?is_managed_app@@YA_NXZ    300a4267 f   libucrt:exit.obj
 0001:000a32a9       ?try_cor_exit_process@@YAXI@Z 300a42a9 f   libucrt:exit.obj
 0001:000a3366       ??$common_configure_argv@D@@YAHW4_crt_argv_mode@@@Z 300a4366 f   libucrt:argv_parsing.obj
 0001:000a34a3       ??$parse_command_line@D@@YAXPADPAPAD0PAI2@Z 300a44a3 f   libucrt:argv_parsing.obj
 0001:000a366f       ??$common_initialize_environment_nolock@D@@YAHXZ 300a466f f   libucrt:environment_initialization.obj
 0001:000a36c9       ??$create_environment@D@@YAQAPADQAD@Z 300a46c9 f   libucrt:environment_initialization.obj
 0001:000a37ae       ??$free_environment@D@@YAXQAPAD@Z 300a47ae f   libucrt:environment_initialization.obj
 0001:000a37ae       ??$free_environment@_W@@YAXQAPA_W@Z 300a47ae f   libucrt:environment_initialization.obj
 0001:000a37dd       ??$uninitialize_environment_internal@D@@YAXAAPAPAD@Z 300a47dd f   libucrt:environment_initialization.obj
 0001:000a37f8       ??$uninitialize_environment_internal@_W@@YAXAAPAPA_W@Z 300a47f8 f   libucrt:environment_initialization.obj
 0001:000a3869       ??$?RV<lambda_69a2805e680e0e292e8ba93315fe43a8>@@AAV<lambda_f03950bc5685219e0bcd2087efbe011e>@@V<lambda_03fcd07e894ec930e3f35da366ca99d6>@@@?$__crt_seh_guarded_call@H@@QAEH$$QAV<lambda_69a2805e680e0e292e8ba93315fe43a8>@@AAV<lambda_f03950bc5685219e0bcd2087efbe011e>@@$$QAV<lambda_03fcd07e894ec930e3f35da366ca99d6>@@@Z 300a4869 f   libucrt:onexit.obj
 0001:000a38c4       ??R<lambda_f03950bc5685219e0bcd2087efbe011e>@@QBE@XZ 300a48c4 f   libucrt:onexit.obj
 0001:000a3a05       _initialize_global_variables 300a4a05 f   libucrt:initialization.obj
 0001:000a3a12       _initialize_c              300a4a12 f   libucrt:initialization.obj
 0001:000a3a2c       _initialize_environment    300a4a2c f   libucrt:initialization.obj
 0001:000a3a2c       _initialize_global_state_isolation 300a4a2c f   libucrt:initialization.obj
 0001:000a3a2c       _report_memory_leaks       300a4a2c f   libucrt:initialization.obj
 0001:000a3a2c       _uninitialize_c            300a4a2c f   libucrt:initialization.obj
 0001:000a3a2c       _uninitialize_global_state_isolation 300a4a2c f   libucrt:initialization.obj
 0001:000a3a2f       _uninitialize_environment  300a4a2f f   libucrt:initialization.obj
 0001:000a3a37       _initialize_pointers       300a4a37 f   libucrt:initialization.obj
 0001:000a3a65       _uninitialize_vcruntime    300a4a65 f   libucrt:initialization.obj
 0001:000a3a6e       _uninitialize_allocated_memory 300a4a6e f   libucrt:initialization.obj
 0001:000a3a85       _uninitialize_allocated_io_buffers 300a4a85 f   libucrt:initialization.obj
 0001:000a3ad5       ??R<lambda_af42a3ee9806e9a7305d451646e05244>@@QBE@AAPAU__crt_multibyte_data@@@Z 300a4ad5 f   libucrt:initialization.obj
 0001:000a3c90       $$000000                   300a4c90     libucrt:strncmp.obj
 0001:000a40cb       ?bsearch_errentry@@YAPBUerrentry@?A0x31fdb9ec@@KQBU12@I@Z 300a50cb f   libucrt:errno.obj
 0001:000a421a       ??$?RV<lambda_15ade71b0218206bbe3333a0c9b79046>@@AAV<lambda_da44e0f8b0f19ba52fefafb335991732>@@V<lambda_207f2d024fc103971653565357d6cd41>@@@?$__crt_seh_guarded_call@X@@QAEX$$QAV<lambda_15ade71b0218206bbe3333a0c9b79046>@@AAV<lambda_da44e0f8b0f19ba52fefafb335991732>@@$$QAV<lambda_207f2d024fc103971653565357d6cd41>@@@Z 300a521a f   libucrt:per_thread_data.obj
 0001:000a426c       ??$?RV<lambda_38edbb1296d33220d7e4dd0ed76b244a>@@AAV<lambda_5ce1d447e08cb34b2473517608e21441>@@V<lambda_fb385d3da700c9147fc39e65dd577a8c>@@@?$__crt_seh_guarded_call@X@@QAEX$$QAV<lambda_38edbb1296d33220d7e4dd0ed76b244a>@@AAV<lambda_5ce1d447e08cb34b2473517608e21441>@@$$QAV<lambda_fb385d3da700c9147fc39e65dd577a8c>@@@Z 300a526c f   libucrt:per_thread_data.obj
 0001:000a42d7       ??$?RV<lambda_6affb1475c98b40b75cdec977db92e3c>@@AAV<lambda_b8d4b9c228a6ecc3f80208dbb4b4a104>@@V<lambda_608742c3c92a14382c1684fc64f96c88>@@@?$__crt_seh_guarded_call@X@@QAEX$$QAV<lambda_6affb1475c98b40b75cdec977db92e3c>@@AAV<lambda_b8d4b9c228a6ecc3f80208dbb4b4a104>@@$$QAV<lambda_608742c3c92a14382c1684fc64f96c88>@@@Z 300a52d7 f   libucrt:per_thread_data.obj
 0001:000a432c       ??$?RV<lambda_a7e850c220f1c8d1e6efeecdedd162c6>@@AAV<lambda_46720907175c18b6c9d2717bc0d2d362>@@V<lambda_9048902d66e8d99359bc9897bbb930a8>@@@?$__crt_seh_guarded_call@X@@QAEX$$QAV<lambda_a7e850c220f1c8d1e6efeecdedd162c6>@@AAV<lambda_46720907175c18b6c9d2717bc0d2d362>@@$$QAV<lambda_9048902d66e8d99359bc9897bbb930a8>@@@Z 300a532c f   libucrt:per_thread_data.obj
 0001:000a4386       ?construct_ptd@@YAXQAU__acrt_ptd@@QAPAU__crt_locale_data@@@Z 300a5386 f   libucrt:per_thread_data.obj
 0001:000a441f       ?destroy_fls@@YGXPAX@Z     300a541f f   libucrt:per_thread_data.obj
 0001:000a4440       ?destroy_ptd@@YAXQAU__acrt_ptd@@@Z 300a5440 f   libucrt:per_thread_data.obj
 0001:000a45b5       ?replace_current_thread_locale_nolock@@YAXQAU__acrt_ptd@@QAU__crt_locale_data@@@Z 300a55b5 f   libucrt:per_thread_data.obj
 0001:000a488f       ??$?RV<lambda_e5124f882df8998aaf41531e079ba474>@@AAV<lambda_3e16ef9562a7dcce91392c22ab16ea36>@@V<lambda_e25ca0880e6ef98be67edffd8c599615>@@@?$__crt_seh_guarded_call@X@@QAEX$$QAV<lambda_e5124f882df8998aaf41531e079ba474>@@AAV<lambda_3e16ef9562a7dcce91392c22ab16ea36>@@$$QAV<lambda_e25ca0880e6ef98be67edffd8c599615>@@@Z 300a588f f   libucrt:wsetlocale.obj
 0001:000a49d0       ?select_heap@@YAPAXQAX@Z   300a59d0 f   libucrt:free_base.obj
 0001:000a5188       ?initialize_inherited_file_handles_nolock@@YAXXZ 300a6188 f   libucrt:ioinit.obj
 0001:000a5238       ?initialize_stdio_handles_nolock@@YAXXZ 300a6238 f   libucrt:ioinit.obj
 0001:000a5380       $$000000                   300a6380     libucrt:87triga.obj
 0001:000a5440       $$000000                   300a6440     libucrt:87cdisp.obj
 0001:000a56e0       $$000000                   300a66e0     libucrt:cos_impl.obj
 0001:000a57d0       $$000000                   300a67d0     libucrt:sin_impl.obj
 0001:000a5b3c       $LN38                      300a6b3c     libucrt:libm_error.obj
 0001:000a5b78       $LN37                      300a6b78     libucrt:libm_error.obj
 0001:000a5dd0       $$000000                   300a6dd0     libucrt:sqrt.obj
 0001:000a5e40       ?fe_to_nearest@@YA_NQBN_KF@Z 300a6e40 f   libucrt:cvt.obj
 0001:000a5ef2       ?fp_format_a@@YAHQBNPADIQADIH_NIW4__acrt_rounding_mode@@AAV__crt_cached_ptd_host@@@Z 300a6ef2 f   libucrt:cvt.obj
 0001:000a622e       ?fp_format_e@@YAHQBNQADI1IH_NIW4__acrt_rounding_mode@@AAV__crt_cached_ptd_host@@@Z 300a722e f   libucrt:cvt.obj
 0001:000a62be       ?fp_format_e_internal@@YAHQADIH_NIQAU_strflt@@1AAV__crt_cached_ptd_host@@@Z 300a72be f   libucrt:cvt.obj
 0001:000a6401       ?fp_format_f@@YAHQBNQADI1IHW4__acrt_rounding_mode@@AAV__crt_cached_ptd_host@@@Z 300a7401 f   libucrt:cvt.obj
 0001:000a648a       ?fp_format_f_internal@@YAHQADIHQAU_strflt@@_NAAV__crt_cached_ptd_host@@@Z 300a748a f   libucrt:cvt.obj
 0001:000a656a       ?fp_format_g@@YAHQBNQADI1IH_NIW4__acrt_rounding_mode@@AAV__crt_cached_ptd_host@@@Z 300a756a f   libucrt:cvt.obj
 0001:000a6631       ?fp_format_nan_or_infinity@@YAHW4__acrt_fp_class@@_NPADI1@Z 300a7631 f   libucrt:cvt.obj
 0001:000a66c6       ?shift_bytes@@YAXQADI0H@Z  300a76c6 f   libucrt:cvt.obj
 0001:000a66fa       ?should_round_up@@YA_NQBN_KFW4__acrt_rounding_mode@@@Z 300a76fa f   libucrt:cvt.obj
 0001:000a6bb2       ??R<lambda_e96123212306c92459f955e8e4eac55d>@@QBEIPBD@Z 300a7bb2 f   libucrt:mbrtowc.obj
 0001:000a6d50       $$000000                   300a7d50     libucrt:acos_impl.obj
 0001:000a6e60       $$000000                   300a7e60     libucrt:tan_impl.obj
 0001:000a6f50       $$000000                   300a7f50     libucrt:87disp.obj
 0001:000a71a4       ?__acrt_LCMapStringA_stat@@YAHPAU__crt_locale_pointers@@PB_WKPBDHPADHHH@Z 300a81a4 f   libucrt:lcmapstringa.obj
 0001:000a74e6       ?<lambda_invoker_cdecl>@<lambda_838c7f62c73c983481e27c09e84b0b5d>@@CAHPBX0@Z 300a84e6 f   libucrt:argv_wildcards.obj
 0001:000a7693       ??$common_expand_argv_wildcards@D@@YAHQAPADQAPAPAD@Z 300a8693 f   libucrt:argv_wildcards.obj
 0001:000a7810       ??$copy_and_add_argument_to_buffer@D@@YAHQBD0IAAV?$argument_list@D@?A0x5f5c8891@@@Z 300a8810 f   libucrt:argv_wildcards.obj
 0001:000a78c1       ??$expand_argument_wildcards@D@@YAHQAD0AAV?$argument_list@D@?A0x5f5c8891@@@Z 300a88c1 f   libucrt:argv_wildcards.obj
 0001:000a7b4d       ??1?$argument_list@D@?A0x5f5c8891@@QAE@XZ 300a8b4d f   libucrt:argv_wildcards.obj
 0001:000a7c8b       ?expand_if_necessary@?$argument_list@D@?A0x5f5c8891@@AAEHXZ 300a8c8b f   libucrt:argv_wildcards.obj
 0001:000a7ebb       ??$?RV<lambda_ceb1ee4838e85a9d631eb091e2fbe199>@@AAV<lambda_ae742caa10f662c28703da3d2ea5e57e>@@V<lambda_cd08b5d6af4937fe54fc07d0c9bf6b37>@@@?$__crt_seh_guarded_call@X@@QAEX$$QAV<lambda_ceb1ee4838e85a9d631eb091e2fbe199>@@AAV<lambda_ae742caa10f662c28703da3d2ea5e57e>@@$$QAV<lambda_cd08b5d6af4937fe54fc07d0c9bf6b37>@@@Z 300a8ebb f   libucrt:mbctype.obj
 0001:000a7f08       ??R<lambda_ae742caa10f662c28703da3d2ea5e57e>@@QBE@XZ 300a8f08 f   libucrt:mbctype.obj
 0001:000a7f8b       ?CPtoLocaleName@@YAPB_WH@Z 300a8f8b f   libucrt:mbctype.obj
 0001:000a7fc9       ?getSystemCP@@YAHH@Z       300a8fc9 f   libucrt:mbctype.obj
 0001:000a803a       ?setSBCS@@YAXPAU__crt_multibyte_data@@@Z 300a903a f   libucrt:mbctype.obj
 0001:000a809d       ?setSBUpLow@@YAXPAU__crt_multibyte_data@@@Z 300a909d f   libucrt:mbctype.obj
 0001:000a8242       ?setmbcp_internal@@YAHH_NQAU__acrt_ptd@@QAPAU__crt_multibyte_data@@@Z 300a9242 f   libucrt:mbctype.obj
 0001:000a8397       ?update_thread_multibyte_data_internal@@YAPAU__crt_multibyte_data@@QAU__acrt_ptd@@QAPAU1@@Z 300a9397 f   libucrt:mbctype.obj
 0001:000a8697       ?x_ismbbtype_l@@YAHPAU__crt_locale_pointers@@IHH@Z 300a9697 f   libucrt:ismbbyte.obj
 0001:000a8718       ?filter_mbtowcs_flags@@YAKIK@Z 300a9718 f   libucrt:multibytetowidechar.obj
 0001:000a87da       ?filter_wcstomb_flags@@YAKIK@Z 300a97da f   libucrt:widechartomultibyte.obj
 0001:000a88d4       ?find_end_of_double_null_terminated_sequence@@YAPB_WQB_W@Z 300a98d4 f   libucrt:get_environment_from_os.obj
 0001:000a8a3b       ?try_get_AreFileApisANSI@@YAP6GHXZXZ 300a9a3b f   libucrt:winapi_thunks.obj
 0001:000a8a65       ?try_get_LCMapStringEx@@YAP6GHPB_WK0HPA_WHPAU_nlsversioninfo@@PAXJ@ZXZ 300a9a65 f   libucrt:winapi_thunks.obj
 0001:000a8a90       ?try_get_LocaleNameToLCID@@YAP6GKPB_WK@ZXZ 300a9a90 f   libucrt:winapi_thunks.obj
 0001:000a8abb       ?try_get_function_slow@@YAPAXW4function_id@?A0x391cf84c@@QBDQBW4module_id@2@2@Z 300a9abb f   libucrt:winapi_thunks.obj
 0001:000a8b88       ?try_load_library_from_system_directory@@YAPAUHINSTANCE__@@QB_W@Z 300a9b88 f   libucrt:winapi_thunks.obj
 0001:000a8ffd       ??$?RV<lambda_cbab9ec6f41b0180b23cc171c22676b0>@@AAV<lambda_44731a7d0e6d81c3e6aa82d741081786>@@V<lambda_4b292cb8dd18144e164572427af410ab>@@@?$__crt_seh_guarded_call@P6AXH@Z@@QAEP6AXH@Z$$QAV<lambda_cbab9ec6f41b0180b23cc171c22676b0>@@AAV<lambda_44731a7d0e6d81c3e6aa82d741081786>@@$$QAV<lambda_4b292cb8dd18144e164572427af410ab>@@@Z 300a9ffd f   libucrt:signal.obj
 0001:000a9065       ?get_global_action_nolock@@YAPAP6AXH@ZH@Z 300aa065 f   libucrt:signal.obj
 0001:000a90a7       ?siglookup@@YAPAU__crt_signal_action_t@@HQAU1@@Z 300aa0a7 f   libucrt:signal.obj
 0001:000a9379       ??$?RV<lambda_2866be3712abc81a800a822484c830d8>@@AAV<lambda_39ca0ed439415581b5b15c265174cece>@@V<lambda_2b24c74d71094a6cd0cb82e44167d71b>@@@?$__crt_seh_guarded_call@X@@QAEX$$QAV<lambda_2866be3712abc81a800a822484c830d8>@@AAV<lambda_39ca0ed439415581b5b15c265174cece>@@$$QAV<lambda_2b24c74d71094a6cd0cb82e44167d71b>@@@Z 300aa379 f   libucrt:fflush.obj
 0001:000a9405       ??$?RV<lambda_2cc53f568c5a2bb6f192f930a45d44ea>@@AAV<lambda_ab61a845afdef5b7c387490eaf3616ee>@@V<lambda_c2ffc0b7726aa6be21d5f0026187e748>@@@?$__crt_seh_guarded_call@X@@QAEX$$QAV<lambda_2cc53f568c5a2bb6f192f930a45d44ea>@@AAV<lambda_ab61a845afdef5b7c387490eaf3616ee>@@$$QAV<lambda_c2ffc0b7726aa6be21d5f0026187e748>@@@Z 300aa405 f   libucrt:fflush.obj
 0001:000a94b1       ?common_flush_all@@YAH_N@Z 300aa4b1 f   libucrt:fflush.obj
 0001:000a94fd       ?common_flush_all_should_try_to_flush_stream@@YA_NV__crt_stdio_stream@@QAH@Z 300aa4fd f   libucrt:fflush.obj
 0001:000a952e       ?is_stream_flushable_or_commitable@@YA_NJ@Z 300aa52e f   libucrt:fflush.obj
 0001:000aa240       ?free_crt_array_internal@@YAXQAPBXI@Z 300ab240 f   libucrt:inittime.obj
 0001:000aa8d8       $LN24                      300ab8d8     libucrt:87except.obj
 0001:000aa900       $$000000                   300ab900     libucrt:cos_pentium4.obj
 0001:000aaab0       $$000000                   300abab0     libucrt:common.obj
 0001:000aac40       $$000000                   300abc40     libucrt:genexcep.obj
 0001:000aaca0       $$000000                   300abca0     libucrt:sin_pentium4.obj
 0001:000ab644       $LN55                      300ac644     libucrt:fpexcept.obj
 0001:000abae0       $$000000                   300acae0     libucrt:sqrt_impl.obj
 0001:000abb91       ?check_trailing@@YA_NPBDW4__acrt_has_trailing_digits@@@Z 300acb91 f   libucrt:_fptostr.obj
 0001:000abbb4       ?should_round_up@@YA_NQBD0HW4__acrt_has_trailing_digits@@W4__acrt_rounding_mode@@@Z 300acbb4 f   libucrt:_fptostr.obj
 0001:000ad2a0       $$000000                   300ae2a0     libucrt:acos_pentium4.obj
 0001:000ad800       $$000000                   300ae800     libucrt:tan_pentium4.obj
 0001:000adfc0       $$000000                   300aefc0     libucrt:strpbrk.obj
 0001:000ae0a4       ?initialize_multibyte@@YAHXZ 300af0a4 f   libucrt:multibyte_initializer.obj
 0001:000ae169       ?GetTableIndexFromLocaleName@@YAHPB_W@Z 300af169 f   libucrt:lcidtoname_downlevel.obj
 0001:000ae1e9       ??$?RV<lambda_9e9de3de5fa147e2223d7db92bc10aa6>@@AAV<lambda_38ce7e780aa69e748d6df282ebc68efe>@@V<lambda_8ca6da459f0f6780f1cff60fdc3d00e5>@@@?$__crt_seh_guarded_call@H@@QAEH$$QAV<lambda_9e9de3de5fa147e2223d7db92bc10aa6>@@AAV<lambda_38ce7e780aa69e748d6df282ebc68efe>@@$$QAV<lambda_8ca6da459f0f6780f1cff60fdc3d00e5>@@@Z 300af1e9 f   libucrt:commit.obj
 0001:000ae308       ?write_double_translated_ansi_nolock@@YA?AUwrite_result@?A0x17268360@@HQBDIAAV__crt_cached_ptd_host@@@Z 300af308 f   libucrt:write.obj
 0001:000ae6d3       ?write_double_translated_unicode_nolock@@YA?AUwrite_result@?A0x17268360@@QBDI@Z 300af6d3 f   libucrt:write.obj
 0001:000ae73b       ?write_requires_double_translation_nolock@@YA_NHAAV__crt_cached_ptd_host@@@Z 300af73b f   libucrt:write.obj
 0001:000ae7b8       ?write_text_ansi_nolock@@YA?AUwrite_result@?A0x17268360@@HQBDI@Z 300af7b8 f   libucrt:write.obj
 0001:000ae893       ?write_text_utf16le_nolock@@YA?AUwrite_result@?A0x17268360@@HQBDI@Z 300af893 f   libucrt:write.obj
 0001:000ae97c       ?write_text_utf8_nolock@@YA?AUwrite_result@?A0x17268360@@HQBDI@Z 300af97c f   libucrt:write.obj
 0001:000aee47       ?_fclose_internal@@YAHQAU_iobuf@@AAV__crt_cached_ptd_host@@@Z 300afe47 f   libucrt:fclose.obj
 0001:000aeede       ?_fclose_nolock_internal@@YAHQAU_iobuf@@AAV__crt_cached_ptd_host@@@Z 300afede f   libucrt:fclose.obj
 0001:000af100       $$000000                   300b0100     libucrt:log10_sse2_precise.obj
 0001:000af3b0       ??$common_lseek_nolock@_J@@YA_JH_JHAAV__crt_cached_ptd_host@@@Z 300b03b0 f   libucrt:lseek.obj
 0001:000af483       ??$?RV<lambda_d422a76eb4c3bf3ad751449ab71a6ea4>@@AAV<lambda_c9ba49e555ba839a7b07aa3fbecb7617>@@V<lambda_9476263c8ee91a25d21c55370bdb50de>@@@?$__crt_seh_guarded_call@H@@QAEH$$QAV<lambda_d422a76eb4c3bf3ad751449ab71a6ea4>@@AAV<lambda_c9ba49e555ba839a7b07aa3fbecb7617>@@$$QAV<lambda_9476263c8ee91a25d21c55370bdb50de>@@@Z 300b0483 f   libucrt:close.obj
 0001:000af6a0       ___hw_cw_sse2              300b06a0 f   libucrt:ieee87.obj
 0001:000afc20       __hw_cw                    300b0c20 f   libucrt:ieee87.obj
 0001:000afd20       $$000000                   300b0d20     libucrt:log10_impl.obj
 0001:000afe30       $$000000                   300b0e30     libucrt:_strnicm.obj
 0001:000afe91       ?__dcrt_lowio_initialize_console_output@@YAXXZ 300b0e91 f   libucrt:initcon.obj
 0001:000aff40       $$000000                   300b0f40     libucrt:log10_pentium4.obj
 0001:000b01d0       $$000000                   300b11d0     libucrt:87tran.obj
 0001:000b08a0       $$000000                   300b18a0     LIBCMT:ulldvrm.obj
 0001:000b08d1       L1                         300b18d1     LIBCMT:ulldvrm.obj
 0001:000b08df       L3                         300b18df     LIBCMT:ulldvrm.obj
 0001:000b090d       L4                         300b190d     LIBCMT:ulldvrm.obj
 0001:000b0916       L5                         300b1916     LIBCMT:ulldvrm.obj
 0001:000b0918       L2                         300b1918     LIBCMT:ulldvrm.obj
 0001:000b0950       $$000000                   300b1950     LIBCMT:llmul.obj
 0001:000b0969       hard                       300b1969     LIBCMT:llmul.obj
 0001:000b0990       $$000000                   300b1990     LIBCMT:llshl.obj
 0001:000b09a0       MORE32                     300b19a0     LIBCMT:llshl.obj
 0001:000b09aa       RETZERO                    300b19aa     LIBCMT:llshl.obj
 0001:000b09b0       $$000000                   300b19b0     LIBCMT:ulldiv.obj
 0001:000b09d2       L1                         300b19d2     LIBCMT:ulldiv.obj
 0001:000b09e0       L3                         300b19e0     LIBCMT:ulldiv.obj
 0001:000b0a0e       L4                         300b1a0e     LIBCMT:ulldiv.obj
 0001:000b0a0f       L5                         300b1a0f     LIBCMT:ulldiv.obj
 0001:000b0a13       L2                         300b1a13     LIBCMT:ulldiv.obj
 0001:000b0a20       $$000000                   300b1a20     LIBCMT:ullrem.obj
 0001:000b0a41       L1                         300b1a41     LIBCMT:ullrem.obj
 0001:000b0a4f       L3                         300b1a4f     LIBCMT:ullrem.obj
 0001:000b0a7a       L4                         300b1a7a     LIBCMT:ullrem.obj
 0001:000b0a82       L5                         300b1a82     LIBCMT:ullrem.obj
 0001:000b0a91       L2                         300b1a91     LIBCMT:ullrem.obj
 0001:000b0aa0       $$000000                   300b1aa0     LIBCMT:ullshr.obj
 0001:000b0ab0       MORE32                     300b1ab0     LIBCMT:ullshr.obj
 0001:000b0aba       RETZERO                    300b1aba     LIBCMT:ullshr.obj
 0001:000b0ac0       $$000000                   300b1ac0     LIBCMT:lldiv.obj
 0001:000b0ae1       L1                         300b1ae1     LIBCMT:lldiv.obj
 0001:000b0afd       L2                         300b1afd     LIBCMT:lldiv.obj
 0001:000b0b19       L3                         300b1b19     LIBCMT:lldiv.obj
 0001:000b0b27       L5                         300b1b27     LIBCMT:lldiv.obj
 0001:000b0b55       L6                         300b1b55     LIBCMT:lldiv.obj
 0001:000b0b56       L7                         300b1b56     LIBCMT:lldiv.obj
 0001:000b0b5a       L4                         300b1b5a     LIBCMT:lldiv.obj
 0001:000b0b64       L8                         300b1b64     LIBCMT:lldiv.obj
 0001:000b0b70       $$000000                   300b1b70     LIBCMT:lldvrm.obj
 0001:000b0b94       L1                         300b1b94     LIBCMT:lldvrm.obj
 0001:000b0bb0       L2                         300b1bb0     LIBCMT:lldvrm.obj
 0001:000b0bdc       L3                         300b1bdc     LIBCMT:lldvrm.obj
 0001:000b0bea       L5                         300b1bea     LIBCMT:lldvrm.obj
 0001:000b0c18       L6                         300b1c18     LIBCMT:lldvrm.obj
 0001:000b0c21       L7                         300b1c21     LIBCMT:lldvrm.obj
 0001:000b0c23       L4                         300b1c23     LIBCMT:lldvrm.obj
 0001:000b0c35       L9                         300b1c35     LIBCMT:lldvrm.obj
 0001:000b0c49       L8                         300b1c49     LIBCMT:lldvrm.obj
 0001:000b0c50       $$000000                   300b1c50     LIBCMT:llrem.obj
 0001:000b0c70       L1                         300b1c70     LIBCMT:llrem.obj
 0001:000b0c8b       L2                         300b1c8b     LIBCMT:llrem.obj
 0001:000b0caa       L3                         300b1caa     LIBCMT:llrem.obj
 0001:000b0cb8       L5                         300b1cb8     LIBCMT:llrem.obj
 0001:000b0ce3       L6                         300b1ce3     LIBCMT:llrem.obj
 0001:000b0ceb       L7                         300b1ceb     LIBCMT:llrem.obj
 0001:000b0cf6       L4                         300b1cf6     LIBCMT:llrem.obj
 0001:000b0cfd       L8                         300b1cfd     LIBCMT:llrem.obj
 0001:000b0d10       $$000000                   300b1d10     LIBCMT:alloca16.obj
 0001:000b0d26       alloca_8                   300b1d26     LIBCMT:alloca16.obj
 0001:000b0db8       __ehhandler$?CallUnexpected@@YAXPBU_s_ESTypeList@@@Z 300b1db8 f   libvcruntime:frame.obj
 0001:000b0dd5       __ehhandler$?state_case_type@?$output_processor@DV?$string_output_adapter@D@__crt_stdio_output@@V?$standard_base@DV?$string_output_adapter@D@__crt_stdio_output@@@2@@__crt_stdio_output@@AAE_NXZ 300b1dd5 f   libucrt:output.obj
 0001:000b0dfc       __ehhandler$?common_exit@@YAXHW4_crt_exit_cleanup_mode@@W4_crt_exit_return_mode@@@Z 300b1dfc f   libucrt:exit.obj
 0001:000b0e19       __ehhandler$?try_cor_exit_process@@YAXI@Z 300b1e19 f   libucrt:exit.obj
 0001:000b0e36       __ehhandler$___dcrt_uninitialize_environments_nolock 300b1e36 f   libucrt:environment_initialization.obj
 0001:000b0e36       __ehhandler$___acrt_getptd_noexit 300b1e36 f   libucrt:per_thread_data.obj
 0001:000b0e53       __ehhandler$__execute_onexit_table 300b1e53 f   libucrt:onexit.obj
 0001:000b0e70       __ehhandler$___acrt_freeptd 300b1e70 f   libucrt:per_thread_data.obj
 0001:000b0e70       __ehhandler$___acrt_getptd_head 300b1e70 f   libucrt:per_thread_data.obj
 0001:000b0e70       __ehhandler$___acrt_getptd_noexit_explicit 300b1e70 f   libucrt:per_thread_data.obj
 0001:000b0e8d       __ehhandler$?write_double_translated_ansi_nolock@@YA?AUwrite_result@?A0x17268360@@HQBDIAAV__crt_cached_ptd_host@@@Z 300b1e8d f   libucrt:write.obj
 0002:0001e230       two32                      300d0230     LIBCMT:ftol2.obj
 0002:0001e234       two63                      300d0234     LIBCMT:ftol2.obj
 0002:0001e238       _NaN                       300d0238     LIBCMT:ftol2.obj
 0002:0001e240       _GS_ExceptionPointers      300d0240     LIBCMT:gs_report.obj
 0002:0001e250       ?tokenTable@@3QBUStringLiteral@@B 300d0250     libvcruntime:undname.obj
 0002:0001e2d8       ?nameTable@@3QBUStringLiteral@@B 300d02d8     libvcruntime:undname.obj
 0002:0001e570       ?rttiTable@@3QBUStringLiteral@@B 300d0570     libvcruntime:undname.obj
 0002:0001e598       ?IndirectionName@@3QBUStringLiteral@@B 300d0598     libvcruntime:undname.obj
 0002:0001e5c8       ?PrefixName@@3QBUStringLiteral@@B 300d05c8     libvcruntime:undname.obj
 0002:0001ebf4       ?module_names@?A0x14174aea@@3QBQB_WB 300d0bf4     libvcruntime:winapi_downlevel.obj
 0002:0001ec9c       ?candidate_modules@?1??try_get_FlsAlloc@@YAP6GKP6GXPAX@Z@ZXZ@4QBW4module_id@?A0x14174aea@@B 300d0c9c     libvcruntime:winapi_downlevel.obj
 0002:0001ecb0       ?candidate_modules@?1??try_get_FlsFree@@YAP6GHK@ZXZ@4QBW4module_id@?A0x14174aea@@B 300d0cb0     libvcruntime:winapi_downlevel.obj
 0002:0001ecc0       ?candidate_modules@?1??try_get_FlsGetValue@@YAP6GPAXK@ZXZ@4QBW4module_id@?A0x14174aea@@B 300d0cc0     libvcruntime:winapi_downlevel.obj
 0002:0001ecd4       ?candidate_modules@?1??try_get_FlsSetValue@@YAP6GHKPAX@ZXZ@4QBW4module_id@?A0x14174aea@@B 300d0cd4     libvcruntime:winapi_downlevel.obj
 0002:0001ece8       ?candidate_modules@?1??try_get_InitializeCriticalSectionEx@@YAP6GHPAU_RTL_CRITICAL_SECTION@@KK@ZXZ@4QBW4module_id@?A0x14174aea@@B 300d0ce8     libvcruntime:winapi_downlevel.obj
 0002:0001f950       SC_1                       300d1950     libucrt:cos_sse2_precise.obj
 0002:0001f960       SC_2                       300d1960     libucrt:cos_sse2_precise.obj
 0002:0001f970       SC_3                       300d1970     libucrt:cos_sse2_precise.obj
 0002:0001f980       SC_4                       300d1980     libucrt:cos_sse2_precise.obj
 0002:0001f990       PI32INV                    300d1990     libucrt:cos_sse2_precise.obj
 0002:0001f998       SHIFTER                    300d1998     libucrt:cos_sse2_precise.obj
 0002:0001f9a0       P_2                        300d19a0     libucrt:cos_sse2_precise.obj
 0002:0001f9b0       P_1                        300d19b0     libucrt:cos_sse2_precise.obj
 0002:0001f9b8       P_3                        300d19b8     libucrt:cos_sse2_precise.obj
 0002:0001f9c0       TWO_POW_55                 300d19c0     libucrt:cos_sse2_precise.obj
 0002:0001f9c8       TWO_POW_M55                300d19c8     libucrt:cos_sse2_precise.obj
 0002:0001f9d0       ALL_ONES                   300d19d0     libucrt:cos_sse2_precise.obj
 0002:0001f9d8       NEG_ZERO                   300d19d8     libucrt:cos_sse2_precise.obj
 0002:0001f9e0       ONE                        300d19e0     libucrt:cos_sse2_precise.obj
 0002:0001f9f0       SIGN_MASK                  300d19f0     libucrt:cos_sse2_precise.obj
 0002:0001fa00       SC_1                       300d1a00     libucrt:sin_sse2_precise.obj
 0002:0001fa10       SC_2                       300d1a10     libucrt:sin_sse2_precise.obj
 0002:0001fa20       SC_3                       300d1a20     libucrt:sin_sse2_precise.obj
 0002:0001fa30       SC_4                       300d1a30     libucrt:sin_sse2_precise.obj
 0002:0001fa40       PI32INV                    300d1a40     libucrt:sin_sse2_precise.obj
 0002:0001fa48       SHIFTER                    300d1a48     libucrt:sin_sse2_precise.obj
 0002:0001fa50       P_2                        300d1a50     libucrt:sin_sse2_precise.obj
 0002:0001fa60       P_1                        300d1a60     libucrt:sin_sse2_precise.obj
 0002:0001fa68       P_3                        300d1a68     libucrt:sin_sse2_precise.obj
 0002:0001fa70       TWO_POW_55                 300d1a70     libucrt:sin_sse2_precise.obj
 0002:0001fa78       TWO_POW_M55                300d1a78     libucrt:sin_sse2_precise.obj
 0002:0001fa80       ALL_ONES                   300d1a80     libucrt:sin_sse2_precise.obj
 0002:0001fa88       NEG_ZERO                   300d1a88     libucrt:sin_sse2_precise.obj
 0002:0001fa90       ONE                        300d1a90     libucrt:sin_sse2_precise.obj
 0002:0001faa0       _One                       300d1aa0     libucrt:ceil_pentium4.obj
 0002:0001fab0       _Bns                       300d1ab0     libucrt:ceil_pentium4.obj
 0002:0001fac0       _Zero                      300d1ac0     libucrt:ceil_pentium4.obj
 0002:0001fad0       _S                         300d1ad0     libucrt:ceil_pentium4.obj
 0002:0001fae0       _NegZero                   300d1ae0     libucrt:ceil_pentium4.obj
 0002:0001faf0       _One                       300d1af0     libucrt:floor_pentium4.obj
 0002:0001fb00       _Bns                       300d1b00     libucrt:floor_pentium4.obj
 0002:0001fb10       _NegOne                    300d1b10     libucrt:floor_pentium4.obj
 0002:0001fb20       _NegZero                   300d1b20     libucrt:floor_pentium4.obj
 0002:0001fb30       _S                         300d1b30     libucrt:floor_pentium4.obj
 0002:0001fc60       Shifter                    300d1c60     libucrt:acos_sse2_precise.obj
 0002:0001fc70       PI_BY_2                    300d1c70     libucrt:acos_sse2_precise.obj
 0002:0001fc80       NEG_PI                     300d1c80     libucrt:acos_sse2_precise.obj
 0002:0001fc90       PI                         300d1c90     libucrt:acos_sse2_precise.obj
 0002:0001fca0       SIGNMASK                   300d1ca0     libucrt:acos_sse2_precise.obj
 0002:0001fcb0       HALFMASK                   300d1cb0     libucrt:acos_sse2_precise.obj
 0002:0001fcc0       HALFMASK2                  300d1cc0     libucrt:acos_sse2_precise.obj
 0002:0001fcd0       cv                         300d1cd0     libucrt:acos_sse2_precise.obj
 0002:0001fcf0       cv2                        300d1cf0     libucrt:acos_sse2_precise.obj
 0002:0001fd30       ABSVALMASK                 300d1d30     libucrt:acos_sse2_precise.obj
 0002:0001fd38       TMASK                      300d1d38     libucrt:acos_sse2_precise.obj
 0002:0001fd40       ONEMASK                    300d1d40     libucrt:acos_sse2_precise.obj
 0002:0001fd48       ONE_BY_2                   300d1d48     libucrt:acos_sse2_precise.obj
 0002:0001fd50       EMIN                       300d1d50     libucrt:acos_sse2_precise.obj
 0002:0001fd58       MAX_ARG                    300d1d58     libucrt:acos_sse2_precise.obj
 0002:0001fd60       MIN_ARG                    300d1d60     libucrt:acos_sse2_precise.obj
 0002:0001fd68       INF                        300d1d68     libucrt:acos_sse2_precise.obj
 0002:0001fd70       ZERO                       300d1d70     libucrt:acos_sse2_precise.obj
 0002:0001fd78       ALPHA                      300d1d78     libucrt:acos_sse2_precise.obj
 0002:0001fd80       PI32INV                    300d1d80     libucrt:tan_sse2_precise.obj
 0002:0001fd90       SHIFTER                    300d1d90     libucrt:tan_sse2_precise.obj
 0002:0001fda0       P_1                        300d1da0     libucrt:tan_sse2_precise.obj
 0002:0001fdb0       P_2                        300d1db0     libucrt:tan_sse2_precise.obj
 0002:0001fdc0       P_3                        300d1dc0     libucrt:tan_sse2_precise.obj
 0002:0001fdd0       QQ_2                       300d1dd0     libucrt:tan_sse2_precise.obj
 0002:0001fdd8       ONE                        300d1dd8     libucrt:tan_sse2_precise.obj
 0002:0001fde0       MASK_35                    300d1de0     libucrt:tan_sse2_precise.obj
 0002:0001fdf0       sign_mask                  300d1df0     libucrt:tan_sse2_precise.obj
 0002:0001fdf8       TWO_POW_55                 300d1df8     libucrt:tan_sse2_precise.obj
 0002:0001fe00       TWO_POW_M55                300d1e00     libucrt:tan_sse2_precise.obj
 0002:0001fe08       TWO_POW_M53                300d1e08     libucrt:tan_sse2_precise.obj
 0002:0001fe10       INF                        300d1e10     libucrt:tan_sse2_precise.obj
 0002:0001ff38       ___acrt_initializers       300d1f38     libucrt:initialization.obj
 0002:000205b8       ?errtable@@3QBUerrentry@?A0x31fdb9ec@@B 300d25b8     libucrt:errno.obj
 0002:00020c30       DblMax                     300d2c30     libucrt:87cdisp.obj
 0002:00020c38       DblMin                     300d2c38     libucrt:87cdisp.obj
 0002:00020c40       IeeeAdjO                   300d2c40     libucrt:87cdisp.obj
 0002:00020c48       IeeeAdjU                   300d2c48     libucrt:87cdisp.obj
 0002:00020c50       _infinity                  300d2c50     libucrt:87cdisp.obj
 0002:00020c58       _zero                      300d2c58     libucrt:87cdisp.obj
 0002:00020c60       _NAME_                     300d2c60     libucrt:cos_impl.obj
 0002:00021470       _NAME_                     300d3470     libucrt:sin_impl.obj
 0002:000214a8       ?strings@?1??fp_format_nan_or_infinity@@YAHW4__acrt_fp_class@@_NPADI1@Z@4QAY03QBDA 300d34a8     libucrt:cvt.obj
 0002:00021530       _NAME_                     300d3530     libucrt:acos_impl.obj
 0002:00022c40       _NAME_                     300d4c40     libucrt:tan_impl.obj
 0002:0002426e       One                        300d626e     libucrt:87disp.obj
 0002:00024276       Three                      300d6276     libucrt:87disp.obj
 0002:0002427e       XAMtoTagTab                300d627e     libucrt:87disp.obj
 0002:00024290       ?_mb_locale_names@@3QBQB_WB 300d6290     libucrt:mbctype.obj
 0002:000242d0       ?module_names@?A0x391cf84c@@3QBQB_WB 300d62d0     libucrt:winapi_thunks.obj
 0002:00024820       ?candidate_modules@?1??try_get_AreFileApisANSI@@YAP6GHXZXZ@4QBW4module_id@?A0x391cf84c@@B 300d6820     libucrt:winapi_thunks.obj
 0002:00024834       ?candidate_modules@?1??try_get_FlsGetValue2@@YAP6GPAXK@ZXZ@4QBW4module_id@?A0x391cf84c@@B 300d6834     libucrt:winapi_thunks.obj
 0002:0002484c       ?candidate_modules@?1??try_get_LCMapStringEx@@YAP6GHPB_WK0HPA_WHPAU_nlsversioninfo@@PAXJ@ZXZ@4QBW4module_id@?A0x391cf84c@@B 300d684c     libucrt:winapi_thunks.obj
 0002:00024864       ?candidate_modules@?1??try_get_LocaleNameToLCID@@YAP6GKPB_WK@ZXZ@4QBW4module_id@?A0x391cf84c@@B 300d6864     libucrt:winapi_thunks.obj
 0002:00024880       ?candidate_modules@?1??try_get_AppPolicyGetProcessTerminationMethod@@YAP6GJPAXPAW4AppPolicyProcessTerminationMethod@@@ZXZ@4QBW4module_id@?A0x391cf84c@@B 300d6880     libucrt:winapi_thunks.obj
 0002:000248c0       SC_1                       300d68c0     libucrt:cos_pentium4.obj
 0002:000248d0       SC_2                       300d68d0     libucrt:cos_pentium4.obj
 0002:000248e0       SC_3                       300d68e0     libucrt:cos_pentium4.obj
 0002:000248f0       SC_4                       300d68f0     libucrt:cos_pentium4.obj
 0002:00024900       PI32INV                    300d6900     libucrt:cos_pentium4.obj
 0002:00024908       SHIFTER                    300d6908     libucrt:cos_pentium4.obj
 0002:00024910       P_2                        300d6910     libucrt:cos_pentium4.obj
 0002:00024920       P_1                        300d6920     libucrt:cos_pentium4.obj
 0002:00024928       P_3                        300d6928     libucrt:cos_pentium4.obj
 0002:00024930       TWO_POW_55                 300d6930     libucrt:cos_pentium4.obj
 0002:00024938       TWO_POW_M55                300d6938     libucrt:cos_pentium4.obj
 0002:00024940       ALL_ONES                   300d6940     libucrt:cos_pentium4.obj
 0002:00024948       NEG_ZERO                   300d6948     libucrt:cos_pentium4.obj
 0002:00024950       ONE                        300d6950     libucrt:cos_pentium4.obj
 0002:00024960       SIGN_MASK                  300d6960     libucrt:cos_pentium4.obj
 0002:00024970       One                        300d6970     libucrt:common.obj
 0002:00024984       DblMax                     300d6984     libucrt:common.obj
 0002:0002498c       DblMin                     300d698c     libucrt:common.obj
 0002:00024994       IeeeAdjO                   300d6994     libucrt:common.obj
 0002:0002499c       IeeeAdjU                   300d699c     libucrt:common.obj
 0002:000249a4       _infinity                  300d69a4     libucrt:common.obj
 0002:000249ac       _zero                      300d69ac     libucrt:common.obj
 0002:000249c0       SC_1                       300d69c0     libucrt:sin_pentium4.obj
 0002:000249d0       SC_2                       300d69d0     libucrt:sin_pentium4.obj
 0002:000249e0       SC_3                       300d69e0     libucrt:sin_pentium4.obj
 0002:000249f0       SC_4                       300d69f0     libucrt:sin_pentium4.obj
 0002:00024a00       PI32INV                    300d6a00     libucrt:sin_pentium4.obj
 0002:00024a08       SHIFTER                    300d6a08     libucrt:sin_pentium4.obj
 0002:00024a10       P_2                        300d6a10     libucrt:sin_pentium4.obj
 0002:00024a20       P_1                        300d6a20     libucrt:sin_pentium4.obj
 0002:00024a28       P_3                        300d6a28     libucrt:sin_pentium4.obj
 0002:00024a30       TWO_POW_55                 300d6a30     libucrt:sin_pentium4.obj
 0002:00024a38       TWO_POW_M55                300d6a38     libucrt:sin_pentium4.obj
 0002:00024a40       ALL_ONES                   300d6a40     libucrt:sin_pentium4.obj
 0002:00024a48       NEG_ZERO                   300d6a48     libucrt:sin_pentium4.obj
 0002:00024a50       ONE                        300d6a50     libucrt:sin_pentium4.obj
 0002:00024a60       ?_names@?1??_get_fname@@9@4QBU<unnamed-type-_names>@?1??1@YAPADI@Z@B 300d6a60     libucrt:fpexcept.obj
 0002:00024c00       _over                      300d6c00     libucrt:fpctrl.obj
 0002:00024c0c       _under                     300d6c0c     libucrt:fpctrl.obj
 0002:00024c20       _NAME_                     300d6c20     libucrt:sqrt_impl.obj
 0002:00024c50       Shifter                    300d6c50     libucrt:acos_pentium4.obj
 0002:00024c60       PI_BY_2                    300d6c60     libucrt:acos_pentium4.obj
 0002:00024c70       NEG_PI                     300d6c70     libucrt:acos_pentium4.obj
 0002:00024c80       PI                         300d6c80     libucrt:acos_pentium4.obj
 0002:00024c90       SIGNMASK                   300d6c90     libucrt:acos_pentium4.obj
 0002:00024ca0       HALFMASK                   300d6ca0     libucrt:acos_pentium4.obj
 0002:00024cb0       HALFMASK2                  300d6cb0     libucrt:acos_pentium4.obj
 0002:00024cc0       cv                         300d6cc0     libucrt:acos_pentium4.obj
 0002:00024ce0       cv2                        300d6ce0     libucrt:acos_pentium4.obj
 0002:00024d20       ABSVALMASK                 300d6d20     libucrt:acos_pentium4.obj
 0002:00024d28       TMASK                      300d6d28     libucrt:acos_pentium4.obj
 0002:00024d30       ONEMASK                    300d6d30     libucrt:acos_pentium4.obj
 0002:00024d38       ONE_BY_2                   300d6d38     libucrt:acos_pentium4.obj
 0002:00024d40       EMIN                       300d6d40     libucrt:acos_pentium4.obj
 0002:00024d48       MAX_ARG                    300d6d48     libucrt:acos_pentium4.obj
 0002:00024d50       MIN_ARG                    300d6d50     libucrt:acos_pentium4.obj
 0002:00024d58       INF                        300d6d58     libucrt:acos_pentium4.obj
 0002:00024d60       ZERO                       300d6d60     libucrt:acos_pentium4.obj
 0002:00024d68       ALPHA                      300d6d68     libucrt:acos_pentium4.obj
 0002:00024d70       PI32INV                    300d6d70     libucrt:tan_pentium4.obj
 0002:00024d80       SHIFTER                    300d6d80     libucrt:tan_pentium4.obj
 0002:00024d90       P_1                        300d6d90     libucrt:tan_pentium4.obj
 0002:00024da0       P_2                        300d6da0     libucrt:tan_pentium4.obj
 0002:00024db0       P_3                        300d6db0     libucrt:tan_pentium4.obj
 0002:00024dc0       QQ_2                       300d6dc0     libucrt:tan_pentium4.obj
 0002:00024dc8       ONE                        300d6dc8     libucrt:tan_pentium4.obj
 0002:00024dd0       MASK_35                    300d6dd0     libucrt:tan_pentium4.obj
 0002:00024de0       sign_mask                  300d6de0     libucrt:tan_pentium4.obj
 0002:00024de8       TWO_POW_55                 300d6de8     libucrt:tan_pentium4.obj
 0002:00024df0       TWO_POW_M55                300d6df0     libucrt:tan_pentium4.obj
 0002:00024df8       TWO_POW_M53                300d6df8     libucrt:tan_pentium4.obj
 0002:00024e00       INF                        300d6e00     libucrt:tan_pentium4.obj
 0002:00024e10       ?LcidToLocaleNameTable@?A0x881e4c05@@3QBULcidToLocaleName@1@B 300d6e10     libucrt:lcidtoname_downlevel.obj
 0002:00025f30       ?LocaleNameToIndexTable@?A0x881e4c05@@3QBULocaleNameIndex@1@B 300d7f30     libucrt:lcidtoname_downlevel.obj
 0002:00026e80       emask                      300d8e80     libucrt:log10_sse2_precise.obj
 0002:00026e90       CC                         300d8e90     libucrt:log10_sse2_precise.obj
 0002:00026ea0       Magic                      300d8ea0     libucrt:log10_sse2_precise.obj
 0002:00026eb0       hi_mask                    300d8eb0     libucrt:log10_sse2_precise.obj
 0002:00026ec0       LOG10_2                    300d8ec0     libucrt:log10_sse2_precise.obj
 0002:00026ed0       place_L                    300d8ed0     libucrt:log10_sse2_precise.obj
 0002:00026ef0       One                        300d8ef0     libucrt:log10_sse2_precise.obj
 0002:00026f00       Zero                       300d8f00     libucrt:log10_sse2_precise.obj
 0002:00026f10       Two52                      300d8f10     libucrt:log10_sse2_precise.obj
 0002:00026f20       Infs                       300d8f20     libucrt:log10_sse2_precise.obj
 0002:00026f30       NaN                        300d8f30     libucrt:log10_sse2_precise.obj
 0002:00026f40       coeff                      300d8f40     libucrt:log10_sse2_precise.obj
 0002:00026f80       LOG_name                   300d8f80     libucrt:log10_impl.obj
 0002:000277c0       emask                      300d97c0     libucrt:log10_pentium4.obj
 0002:000277d0       CC                         300d97d0     libucrt:log10_pentium4.obj
 0002:000277e0       Magic                      300d97e0     libucrt:log10_pentium4.obj
 0002:000277f0       hi_mask                    300d97f0     libucrt:log10_pentium4.obj
 0002:00027800       LOG10_2                    300d9800     libucrt:log10_pentium4.obj
 0002:00027810       place_L                    300d9810     libucrt:log10_pentium4.obj
 0002:00027830       One                        300d9830     libucrt:log10_pentium4.obj
 0002:00027840       Zero                       300d9840     libucrt:log10_pentium4.obj
 0002:00027850       Two52                      300d9850     libucrt:log10_pentium4.obj
 0002:00027860       Infs                       300d9860     libucrt:log10_pentium4.obj
 0002:00027870       NaN                        300d9870     libucrt:log10_pentium4.obj
 0002:00027880       coeff                      300d9880     libucrt:log10_pentium4.obj
 0002:000278de       _log2max                   300d98de     libucrt:87tran.obj
 0002:000278e8       _smallarg                  300d98e8     libucrt:87tran.obj
 0002:000278f2       _half                      300d98f2     libucrt:87tran.obj
 0002:00027f88       __sehtable$?dllmain_crt_process_attach@@YAHQAUHINSTANCE__@@QAX@Z 300d9f88     LIBCMT:dll_dllmain.obj
 0002:00027fa8       __sehtable$?dllmain_crt_process_detach@@YAH_N@Z 300d9fa8     LIBCMT:dll_dllmain.obj
 0002:00027fd0       __sehtable$?dllmain_dispatch@@YAHQAUHINSTANCE__@@KQAX@Z 300d9fd0     LIBCMT:dll_dllmain.obj
 0002:00027ff0       __sehtable$___scrt_is_nonwritable_in_current_image 300d9ff0     LIBCMT:utility.obj
 0002:00028010       __sehtable$___DestructExceptionObject 300da010     libvcruntime:ehhelpers.obj
 0002:00028030       __sehtable$?FrameUnwindToState@__FrameHandler3@@SAXPAUEHRegistrationNode@@PAXPBU_s_FuncInfo@@H@Z 300da030     libvcruntime:frame.obj
 0002:00028058       __sehtable$?CallCatchBlock@@YAPAXPAUEHExceptionRecord@@PAUEHRegistrationNode@@PAU_CONTEXT@@PBU_s_FuncInfo@@PAXHK@Z 300da058     libvcruntime:frame.obj
 0002:00028080       __catchsym$?CallUnexpected@@YAXPBU_s_ESTypeList@@@Z$2 300da080     libvcruntime:frame.obj
 0002:00028090       __unwindtable$?CallUnexpected@@YAXPBU_s_ESTypeList@@@Z 300da090     libvcruntime:frame.obj
 0002:000280a0       __tryblocktable$?CallUnexpected@@YAXPBU_s_ESTypeList@@@Z 300da0a0     libvcruntime:frame.obj
 0002:000280b4       __ehfuncinfo$?CallUnexpected@@YAXPBU_s_ESTypeList@@@Z 300da0b4     libvcruntime:frame.obj
 0002:000280d8       __sehtable$??$BuildCatchObjectHelperInternal@V__FrameHandler3@@@@YAHPAUEHExceptionRecord@@PAXPBU_s_HandlerType@@PBU_s_CatchableType@@@Z 300da0d8     libvcruntime:frame.obj
 0002:000280f8       __sehtable$??$BuildCatchObjectInternal@V__FrameHandler3@@@@YAXPAUEHExceptionRecord@@PAXPBU_s_HandlerType@@PBU_s_CatchableType@@@Z 300da0f8     libvcruntime:frame.obj
 0002:00028168       __unwindtable$?common_exit@@YAXHW4_crt_exit_cleanup_mode@@W4_crt_exit_return_mode@@@Z 300da168     libucrt:exit.obj
 0002:00028168       __unwindtable$?state_case_type@?$output_processor@DV?$string_output_adapter@D@__crt_stdio_output@@V?$standard_base@DV?$string_output_adapter@D@__crt_stdio_output@@@2@@__crt_stdio_output@@AAE_NXZ 300da168     libucrt:output.obj
 0002:00028170       __ehfuncinfo$?common_exit@@YAXHW4_crt_exit_cleanup_mode@@W4_crt_exit_return_mode@@@Z 300da170     libucrt:exit.obj
 0002:00028170       __ehfuncinfo$?state_case_type@?$output_processor@DV?$string_output_adapter@D@__crt_stdio_output@@V?$standard_base@DV?$string_output_adapter@D@__crt_stdio_output@@@2@@__crt_stdio_output@@AAE_NXZ 300da170     libucrt:output.obj
 0002:00028194       __ehfuncinfo$?write_double_translated_ansi_nolock@@YA?AUwrite_result@?A0x17268360@@HQBDIAAV__crt_cached_ptd_host@@@Z 300da194     libucrt:write.obj
 0002:00028194       __ehfuncinfo$?try_cor_exit_process@@YAXI@Z 300da194     libucrt:exit.obj
 0002:000281b8       __sehtable$??R<lambda_6e4b09c48022b2350581041d5f6b0c4c>@@QBE@XZ 300da1b8     libucrt:exit.obj
 0002:000281d8       __sehtable$??$?RV<lambda_03b1d95aef87969028cfba75ccab2455>@@AAV<lambda_6e4b09c48022b2350581041d5f6b0c4c>@@V<lambda_22bdf7517842c4b3e53723af5aa32b9e>@@@?$__crt_seh_guarded_call@X@@QAEX$$QAV<lambda_03b1d95aef87969028cfba75ccab2455>@@AAV<lambda_6e4b09c48022b2350581041d5f6b0c4c>@@$$QAV<lambda_22bdf7517842c4b3e53723af5aa32b9e>@@@Z 300da1d8     libucrt:exit.obj
 0002:000281f4       __unwindtable$___dcrt_uninitialize_environments_nolock 300da1f4     libucrt:environment_initialization.obj
 0002:000281f4       __unwindtable$___acrt_getptd_noexit 300da1f4     libucrt:per_thread_data.obj
 0002:00028204       __ehfuncinfo$___dcrt_uninitialize_environments_nolock 300da204     libucrt:environment_initialization.obj
 0002:00028204       __ehfuncinfo$___acrt_getptd_noexit 300da204     libucrt:per_thread_data.obj
 0002:00028228       __unwindtable$___acrt_freeptd 300da228     libucrt:per_thread_data.obj
 0002:00028228       __unwindtable$___acrt_getptd_head 300da228     libucrt:per_thread_data.obj
 0002:00028228       __unwindtable$___acrt_getptd_noexit_explicit 300da228     libucrt:per_thread_data.obj
 0002:00028228       __unwindtable$__execute_onexit_table 300da228     libucrt:onexit.obj
 0002:00028230       __ehfuncinfo$___acrt_freeptd 300da230     libucrt:per_thread_data.obj
 0002:00028230       __ehfuncinfo$___acrt_getptd_head 300da230     libucrt:per_thread_data.obj
 0002:00028230       __ehfuncinfo$___acrt_getptd_noexit_explicit 300da230     libucrt:per_thread_data.obj
 0002:00028230       __ehfuncinfo$__execute_onexit_table 300da230     libucrt:onexit.obj
 0002:00028258       __sehtable$??$?RV<lambda_69a2805e680e0e292e8ba93315fe43a8>@@AAV<lambda_f03950bc5685219e0bcd2087efbe011e>@@V<lambda_03fcd07e894ec930e3f35da366ca99d6>@@@?$__crt_seh_guarded_call@H@@QAEH$$QAV<lambda_69a2805e680e0e292e8ba93315fe43a8>@@AAV<lambda_f03950bc5685219e0bcd2087efbe011e>@@$$QAV<lambda_03fcd07e894ec930e3f35da366ca99d6>@@@Z 300da258     libucrt:onexit.obj
 0002:00028278       __sehtable$_terminate      300da278     libucrt:terminate.obj
 0002:00028298       __sehtable$??$?RV<lambda_15ade71b0218206bbe3333a0c9b79046>@@AAV<lambda_da44e0f8b0f19ba52fefafb335991732>@@V<lambda_207f2d024fc103971653565357d6cd41>@@@?$__crt_seh_guarded_call@X@@QAEX$$QAV<lambda_15ade71b0218206bbe3333a0c9b79046>@@AAV<lambda_da44e0f8b0f19ba52fefafb335991732>@@$$QAV<lambda_207f2d024fc103971653565357d6cd41>@@@Z 300da298     libucrt:per_thread_data.obj
 0002:000282b8       __sehtable$??$?RV<lambda_a7e850c220f1c8d1e6efeecdedd162c6>@@AAV<lambda_46720907175c18b6c9d2717bc0d2d362>@@V<lambda_9048902d66e8d99359bc9897bbb930a8>@@@?$__crt_seh_guarded_call@X@@QAEX$$QAV<lambda_a7e850c220f1c8d1e6efeecdedd162c6>@@AAV<lambda_46720907175c18b6c9d2717bc0d2d362>@@$$QAV<lambda_9048902d66e8d99359bc9897bbb930a8>@@@Z 300da2b8     libucrt:per_thread_data.obj
 0002:000282d8       __sehtable$??$?RV<lambda_38edbb1296d33220d7e4dd0ed76b244a>@@AAV<lambda_5ce1d447e08cb34b2473517608e21441>@@V<lambda_fb385d3da700c9147fc39e65dd577a8c>@@@?$__crt_seh_guarded_call@X@@QAEX$$QAV<lambda_38edbb1296d33220d7e4dd0ed76b244a>@@AAV<lambda_5ce1d447e08cb34b2473517608e21441>@@$$QAV<lambda_fb385d3da700c9147fc39e65dd577a8c>@@@Z 300da2d8     libucrt:per_thread_data.obj
 0002:000282f8       __sehtable$??$?RV<lambda_6affb1475c98b40b75cdec977db92e3c>@@AAV<lambda_b8d4b9c228a6ecc3f80208dbb4b4a104>@@V<lambda_608742c3c92a14382c1684fc64f96c88>@@@?$__crt_seh_guarded_call@X@@QAEX$$QAV<lambda_6affb1475c98b40b75cdec977db92e3c>@@AAV<lambda_b8d4b9c228a6ecc3f80208dbb4b4a104>@@$$QAV<lambda_608742c3c92a14382c1684fc64f96c88>@@@Z 300da2f8     libucrt:per_thread_data.obj
 0002:00028318       __sehtable$??$?RV<lambda_e5124f882df8998aaf41531e079ba474>@@AAV<lambda_3e16ef9562a7dcce91392c22ab16ea36>@@V<lambda_e25ca0880e6ef98be67edffd8c599615>@@@?$__crt_seh_guarded_call@X@@QAEX$$QAV<lambda_e5124f882df8998aaf41531e079ba474>@@AAV<lambda_3e16ef9562a7dcce91392c22ab16ea36>@@$$QAV<lambda_e25ca0880e6ef98be67edffd8c599615>@@@Z 300da318     libucrt:wsetlocale.obj
 0002:00028338       __sehtable$___acrt_initialize_lowio 300da338     libucrt:ioinit.obj
 0002:00028358       __sehtable$?update_thread_multibyte_data_internal@@YAPAU__crt_multibyte_data@@QAU__acrt_ptd@@QAPAU1@@Z 300da358     libucrt:mbctype.obj
 0002:00028378       __sehtable$??$?RV<lambda_ceb1ee4838e85a9d631eb091e2fbe199>@@AAV<lambda_ae742caa10f662c28703da3d2ea5e57e>@@V<lambda_cd08b5d6af4937fe54fc07d0c9bf6b37>@@@?$__crt_seh_guarded_call@X@@QAEX$$QAV<lambda_ceb1ee4838e85a9d631eb091e2fbe199>@@AAV<lambda_ae742caa10f662c28703da3d2ea5e57e>@@$$QAV<lambda_cd08b5d6af4937fe54fc07d0c9bf6b37>@@@Z 300da378     libucrt:mbctype.obj
 0002:00028398       __sehtable$__set_new_handler 300da398     libucrt:new_handler.obj
 0002:000283b8       __sehtable$__query_new_handler 300da3b8     libucrt:new_handler.obj
 0002:000283d8       __sehtable$_raise          300da3d8     libucrt:signal.obj
 0002:000283f8       __sehtable$??$?RV<lambda_cbab9ec6f41b0180b23cc171c22676b0>@@AAV<lambda_44731a7d0e6d81c3e6aa82d741081786>@@V<lambda_4b292cb8dd18144e164572427af410ab>@@@?$__crt_seh_guarded_call@P6AXH@Z@@QAEP6AXH@Z$$QAV<lambda_cbab9ec6f41b0180b23cc171c22676b0>@@AAV<lambda_44731a7d0e6d81c3e6aa82d741081786>@@$$QAV<lambda_4b292cb8dd18144e164572427af410ab>@@@Z 300da3f8     libucrt:signal.obj
 0002:00028418       __sehtable$??$?RV<lambda_2866be3712abc81a800a822484c830d8>@@AAV<lambda_39ca0ed439415581b5b15c265174cece>@@V<lambda_2b24c74d71094a6cd0cb82e44167d71b>@@@?$__crt_seh_guarded_call@X@@QAEX$$QAV<lambda_2866be3712abc81a800a822484c830d8>@@AAV<lambda_39ca0ed439415581b5b15c265174cece>@@$$QAV<lambda_2b24c74d71094a6cd0cb82e44167d71b>@@@Z 300da418     libucrt:fflush.obj
 0002:00028438       __sehtable$??$?RV<lambda_2cc53f568c5a2bb6f192f930a45d44ea>@@AAV<lambda_ab61a845afdef5b7c387490eaf3616ee>@@V<lambda_c2ffc0b7726aa6be21d5f0026187e748>@@@?$__crt_seh_guarded_call@X@@QAEX$$QAV<lambda_2cc53f568c5a2bb6f192f930a45d44ea>@@AAV<lambda_ab61a845afdef5b7c387490eaf3616ee>@@$$QAV<lambda_c2ffc0b7726aa6be21d5f0026187e748>@@@Z 300da438     libucrt:fflush.obj
 0002:00028458       __sehtable$___acrt_update_thread_locale_data 300da458     libucrt:locale_refcounting.obj
 0002:00028478       __sehtable$__fcloseall     300da478     libucrt:closeall.obj
 0002:00028498       __sehtable$___acrt_lowio_ensure_fh_exists 300da498     libucrt:osfinfo.obj
 0002:000284b8       __sehtable$___set_fpsr_sse2 300da4b8     libucrt:fpctrl.obj
 0002:000284d8       __sehtable$??$?RV<lambda_9e9de3de5fa147e2223d7db92bc10aa6>@@AAV<lambda_38ce7e780aa69e748d6df282ebc68efe>@@V<lambda_8ca6da459f0f6780f1cff60fdc3d00e5>@@@?$__crt_seh_guarded_call@H@@QAEH$$QAV<lambda_9e9de3de5fa147e2223d7db92bc10aa6>@@AAV<lambda_38ce7e780aa69e748d6df282ebc68efe>@@$$QAV<lambda_8ca6da459f0f6780f1cff60fdc3d00e5>@@@Z 300da4d8     libucrt:commit.obj
 0002:000284f8       __sehtable$__write_internal 300da4f8     libucrt:write.obj
 0002:00028518       __sehtable$?_fclose_internal@@YAHQAU_iobuf@@AAV__crt_cached_ptd_host@@@Z 300da518     libucrt:fclose.obj
 0002:00028538       __sehtable$??$?RV<lambda_d422a76eb4c3bf3ad751449ab71a6ea4>@@AAV<lambda_c9ba49e555ba839a7b07aa3fbecb7617>@@V<lambda_9476263c8ee91a25d21c55370bdb50de>@@@?$__crt_seh_guarded_call@H@@QAEH$$QAV<lambda_d422a76eb4c3bf3ad751449ab71a6ea4>@@AAV<lambda_c9ba49e555ba839a7b07aa3fbecb7617>@@$$QAV<lambda_9476263c8ee91a25d21c55370bdb50de>@@@Z 300da538     libucrt:close.obj
 0002:00028558       __sehtable$__IsNonwritableInCurrentImage 300da558     LIBCMT:pesect.obj
 0002:00028580       .edata                     300da580     cgamex86.exp
 0002:000285a8       rgpv                       300da5a8     cgamex86.exp
 0002:000285b0       rgszName                   300da5b0     cgamex86.exp
 0002:000285b8       rgwOrd                     300da5b8     cgamex86.exp
 0002:000285bc       szName                     300da5bc     cgamex86.exp
 0002:000285c9       $N00001                    300da5c9     cgamex86.exp
 0002:000285d2       $N00002                    300da5d2     cgamex86.exp
 0002:00028c3c       .idata$6                   300dac3c     kernel32:KERNEL32.dll
 0003:00002140       _bg_poolTail               300dd140     bg_misc.obj
 0003:00005384       ?headClampMinAngles@?1??BG_G2PlayerAngles@@9@9 300e0384     bg_pmove.obj
 0003:00005390       ?headClampMaxAngles@?1??BG_G2PlayerAngles@@9@9 300e0390     bg_pmove.obj
 0003:00008cf0       _commands                  300e3cf0     cg_consolecmds.obj
 0003:000091d0       ?flip@?1??CG_DrawZoomMask@@9@9 300e41d0     cg_draw.obj
 0003:000091d4       ?seed@?1??CG_SmokePuff@@9@9 300e41d4     cg_effects.obj
 0003:00009b18       _cvarTable                 300e4b18     cg_main.obj
 0003:0000a458       _cvarTableSize             300e5458     cg_main.obj
 0003:0000a45c       ?drawTeamOverlayModificationCount@?1??CG_UpdateCvars@@9@9 300e545c     cg_main.obj
 0003:0000a460       ?sb_nums@?1??CG_RegisterGraphics@@9@9 300e5460     cg_main.obj
 0003:0000a48c       ?sb_t_nums@?1??CG_RegisterGraphics@@9@9 300e548c     cg_main.obj
 0003:0000a4b8       ?sb_c_nums@?1??CG_RegisterGraphics@@9@9 300e54b8     cg_main.obj
 0003:0000a4f0       _shaderAnimNames           300e54f0     cg_marks.obj
 0003:0000a570       _shaderAnimCounts          300e5570     cg_marks.obj
 0003:0000a5f0       _shaderAnimSTRatio         300e55f0     cg_marks.obj
 0003:0000a670       ?s@?1??CG_GetKillerText@@9@9 300e5670     cg_newDraw.obj
 0003:0000a674       ?s@?1??CG_GetGameStatusText@@9@9 300e5674     cg_newDraw.obj
 0003:0000b32c       _cg_effectorStringTable    300e632c     cg_players.obj
 0003:0000b350       _cg_vehThirdPersonAlpha    300e6350     cg_players.obj
 0003:0000b354       _syscall                   300e6354     cg_syscalls.obj
 0003:0000b368       _cameramins                300e6368     cg_view.obj
 0003:0000b374       _cameramaxs                300e6374     cg_view.obj
 0003:0000b380       _cg_siegeClassIndex        300e6380     cg_view.obj
 0003:0000b568       _WHITE                     300e6568     fx_bryarpistol.obj
 0003:0000b574       _BRIGHT                    300e6574     fx_bryarpistol.obj
 0003:0000b580       _WHITE                     300e6580     fx_disruptor.obj
 0003:0000be9c       _holdrand                  300e6e9c     q_math.obj
 0003:0000c5d8       ?staticNULL@?1??String_Alloc@@9@9 300e75d8     ui_shared.obj
 0003:0000c5dc       ?squiggy@?1??PC_String_Parse@@9@9 300e75dc     ui_shared.obj
 0003:0000c5e0       _g_bindings                300e75e0     ui_shared.obj
 0003:0000cfd0       ?__vcrt_flsindex@@3KA      300e7fd0     libvcruntime:per_thread_data.obj
 0003:0000d000       ?errno_no_memory@@3HA      300e8000     libucrt:errno.obj
 0003:0000d004       ?doserrno_no_memory@@3KA   300e8004     libucrt:errno.obj
 0003:0000d008       ?__acrt_flsindex@@3KA      300e8008     libucrt:per_thread_data.obj
 0003:0000d3a0       __mbctypes                 300e83a0     libucrt:mbctype.obj
 0003:0000d4a8       __mbcasemaps               300e84a8     libucrt:mbctype.obj
 0003:0000d5a8       ?__rgctypeflag@@3PADA      300e85a8     libucrt:mbctype.obj
 0003:0000d5b0       ?__rgcode_page_info@@3PAUcode_page_info@@A 300e85b0     libucrt:mbctype.obj
 0003:0000d700       ?__DAZ_ENABLED@?1??__set_fpsr_sse2@@9@9 300e8700     libucrt:fpctrl.obj
 0003:0000d810       ?__dcrt_lowio_console_output_handle@@3PAXA 300e8810     libucrt:initcon.obj
 0003:0000d880       _bg_pool                   300e8880     bg_misc.obj
 0003:00fad880       _bg_poolSize               31088880     bg_misc.obj
 0003:00fad89c       _pm_flying                 3108889c     bg_pmove.obj
 0003:00fad8a0       ?oldLookAngles@?1??BG_UpdateLookAngles@@9@9 310888a0     bg_pmove.obj
 0003:00fad8ac       ?lookAnglesDiff@?1??BG_UpdateLookAngles@@9@9 310888ac     bg_pmove.obj
 0003:00fad8b8       ?ang@?1??BG_UpdateLookAngles@@9@9 310888b8     bg_pmove.obj
 0003:00fad8bc       ?dir@?1??BG_G2PlayerAngles@@9@9 310888bc     bg_pmove.obj
 0003:00fad8c0       ?i@?1??BG_G2PlayerAngles@@9@9 310888c0     bg_pmove.obj
 0003:00fad8c4       ?dif@?1??BG_G2PlayerAngles@@9@9 310888c4     bg_pmove.obj
 0003:00fad8c8       ?dest@?1??BG_G2PlayerAngles@@9@9 310888c8     bg_pmove.obj
 0003:00fad8cc       ?speed@?1??BG_G2PlayerAngles@@9@9 310888cc     bg_pmove.obj
 0003:00fad8d0       ?eyeAngles@?1??BG_G2PlayerAngles@@9@9 310888d0     bg_pmove.obj
 0003:00fad8dc       ?neckAngles@?1??BG_G2PlayerAngles@@9@9 310888dc     bg_pmove.obj
 0003:00fad8e8       ?velocity@?1??BG_G2PlayerAngles@@9@9 310888e8     bg_pmove.obj
 0003:00fad8f4       ?torsoAngles@?1??BG_G2PlayerAngles@@9@9 310888f4     bg_pmove.obj
 0003:00fad900       ?headAngles@?1??BG_G2PlayerAngles@@9@9 31088900     bg_pmove.obj
 0003:00fad90c       ?velPos@?1??BG_G2PlayerAngles@@9@9 3108890c     bg_pmove.obj
 0003:00fad918       ?velAng@?1??BG_G2PlayerAngles@@9@9 31088918     bg_pmove.obj
 0003:00fad924       ?ulAngles@?1??BG_G2PlayerAngles@@9@9 31088924     bg_pmove.obj
 0003:00fad930       ?llAngles@?1??BG_G2PlayerAngles@@9@9 31088930     bg_pmove.obj
 0003:00fad93c       ?viewAngles@?1??BG_G2PlayerAngles@@9@9 3108893c     bg_pmove.obj
 0003:00fad948       ?angles@?1??BG_G2PlayerAngles@@9@9 31088948     bg_pmove.obj
 0003:00fad954       ?thoracicAngles@?1??BG_G2PlayerAngles@@9@9 31088954     bg_pmove.obj
 0003:00fad960       _SaberParms                31088960     bg_saberLoad.obj
 0003:012cd960       _bgSaberParseTBuffer       313a8960     bg_saberLoad.obj
 0003:015edc14       ?previousTimes@?1??CG_DrawFPS@@9@9 316c8c14     cg_draw.obj
 0003:015edc34       ?index@?1??CG_DrawFPS@@9@9 316c8c34     cg_draw.obj
 0003:015edc38       ?previous@?1??CG_DrawFPS@@9@9 316c8c38     cg_draw.obj
 0003:015edc3c       ?lastupdate@?1??CG_DrawFPS@@9@9 316c8c3c     cg_draw.obj
 0003:015edc40       _radarLockSoundDebounceTime 316c8c40     cg_draw.obj
 0003:015edc44       _impactSoundDebounceTime   316c8c44     cg_draw.obj
 0003:015edc48       ?oldDif@?1??CG_DrawRocketLocking@@9@9 316c8c48     cg_draw.obj
 0003:015edc4c       ?color@?1??CG_FadeColor@@9@9 316c8c4c     cg_drawtools.obj
 0003:015edc60       _offX                      316c8c60     cg_effects.obj
 0003:015ee2a0       _offZ                      316c92a0     cg_effects.obj
 0003:015ee8e0       ?lastPos@?1??CG_ScorePlum@@9@9 316c98e0     cg_effects.obj
 0003:015ee8f0       ?str@?1??CG_PlaceString@@9@9 316c98f0     cg_event.obj
 0003:015ee930       _cl_lightstyle             316c9930     cg_light.obj
 0003:015f2b30       _lastofs                   316cdb30     cg_light.obj
 0003:015f2b4c       _NumMiscEnts               316cdb4c     cg_main.obj
 0003:015f2b50       _MiscEnts                  316cdb50     cg_main.obj
 0003:016c1bd0       _Radius                    3179cbd0     cg_main.obj
 0003:016c5a50       _zOffset                   317a0a50     cg_main.obj
 0003:016c98d0       ?buffer@?1??CG_Argv@@9@9   317a48d0     cg_main.obj
 0003:016c9cd0       ?intext@?1??CG_GetStringEdString@@9@9 317a4cd0     cg_main.obj
 0003:016d19d0       ?translation@?1??CG_GetStringEdString@@9@9 317ac9d0     cg_main.obj
 0003:016d96d0       ?string@?1??CG_GetStringEdString@@9@9 317b46d0     cg_main.obj
 0003:016e13d0       ?index@?1??CG_GetStringEdString@@9@9 317bc3d0     cg_main.obj
 0003:016e13d4       _cg_strPoolSize            317bc3d4     cg_main.obj
 0003:016e13d8       ?buf@?1??CG_GetMenuBuffer@@9@9 317bc3d8     cg_main.obj
 0003:016f13d8       ?buf@?1??CG_LoadMenus@@9@9 317cc3d8     cg_main.obj
 0003:016f33d8       _cg_strPool                317ce3d8     cg_main.obj
 0003:016fb3d8       _cg_numSpawnVars           317d63d8     cg_main.obj
 0003:016fb3dc       _cg_numSpawnVarChars       317d63dc     cg_main.obj
 0003:016fb3e0       _cg_spawnVars              317d63e0     cg_main.obj
 0003:016fb5e0       _cg_spawnVarChars          317d65e0     cg_main.obj
 0003:016fc5e0       ?item@?1??CG_Init@@9@9     317d75e0     cg_main.obj
 0003:016fc5e8       ?text@?1??CG_GetLocationString@@9@9 317d75e8     cg_main.obj
 0003:016fc9ec       _markTotal                 317d79ec     cg_marks.obj
 0003:016fc9f0       _shaderAnims               317d79f0     cg_marks.obj
 0003:016fe9f0       _numShaderAnims            317d99f0     cg_marks.obj
 0003:016fe9f4       _roll                      317d99f4     cg_marks.obj
 0003:016fea28       _cg_animParseIncluding     317d9a28     cg_players.obj
 0003:016fea30       _lastFlyBySound            317d9a30     cg_players.obj
 0003:016ffa3c       _cg_numSolidEntities       317daa3c     cg_predict.obj
 0003:016ffa40       _cg_pmove                  317daa40     cg_predict.obj
 0003:016ffbec       _cg_numTriggerEntities     317dabec     cg_predict.obj
 0003:016ffbf0       _cg_solidEntities          317dabf0     cg_predict.obj
 0003:016ffff0       _cg_triggerEntities        317daff0     cg_predict.obj
 0003:01700408       _team1                     317db408     cg_saga.obj
 0003:01700608       _team2                     317db608     cg_saga.obj
 0003:01700808       _cgParseObjectives         317db808     cg_saga.obj
 0003:01704808       ?cur@?1??siege_Str@@9@9    317df808     cg_saga.obj
 0003:01704810       ?strings@?1??siege_Str@@9@9 317df810     cg_saga.obj
 0003:01744810       ?buf@?1??CG_SiegeObjectiveBuffer@@9@9 3181f810     cg_saga.obj
 0003:01746814       _localClient               31821814     cg_scoreboard.obj
 0003:01746878       ?zoomSoundTime@?BG@??CG_CalcFov@@9@9 31821878     cg_view.obj
 0003:0174687c       ?lastfov@?1??CG_DrawSkyBoxPortal@@9@9 3182187c     cg_view.obj
 0003:01746880       _cg_rangedFogging          31821880     cg_view.obj
 0003:01746884       ?veh@?1??CG_DrawActiveFrame@@9@9 31821884     cg_view.obj
 0003:01746888       _cgWeapFrame               31821888     cg_weapons.obj
 0003:0174688c       _cgWeapFrameTime           3182188c     cg_weapons.obj
 0003:01746890       _g2WeaponInstances         31821890     cg_weapons.obj
 0003:017468e0       _g2WeaponInstances2        318218e0     cg_weapons.obj
 0003:01746930       _g2WeaponInstances3        31821930     cg_weapons.obj
 0003:01746980       _g2WeaponInstances4        31821980     cg_weapons.obj
 0003:017469d0       _g2WeaponInstances5        318219d0     cg_weapons.obj
 0003:01746a20       _g2WeaponInstances6        31821a20     cg_weapons.obj
 0003:01746a70       _g2WeaponInstances7        31821a70     cg_weapons.obj
 0003:01746ac0       _g2WeaponInstances8        31821ac0     cg_weapons.obj
 0003:01746b10       _g2WeaponInstances9        31821b10     cg_weapons.obj
 0003:01746b60       _g2WeaponInstances10       31821b60     cg_weapons.obj
 0003:01746bb0       _g2WeaponInstances11       31821bb0     cg_weapons.obj
 0003:01746c00       _g2WeaponInstances12       31821c00     cg_weapons.obj
 0003:01746c68       ?bops_initialized@?1??BoxOnPlaneSide@@9@9 31821c68     q_math.obj
 0003:01746c6c       ?Ljmptab@?1??BoxOnPlaneSide@@9@9 31821c6c     q_math.obj
 0003:01746c8c       ?sr@?1??AngleVectors@@9@9  31821c8c     q_math.obj
 0003:01746c90       ?sp@?1??AngleVectors@@9@9  31821c90     q_math.obj
 0003:01746c94       ?sy@?1??AngleVectors@@9@9  31821c94     q_math.obj
 0003:01746c98       ?cr@?1??AngleVectors@@9@9  31821c98     q_math.obj
 0003:01746c9c       ?cp@?1??AngleVectors@@9@9  31821c9c     q_math.obj
 0003:01746ca0       ?cy@?1??AngleVectors@@9@9  31821ca0     q_math.obj
 0003:01746ca8       _com_token                 31821ca8     q_shared.obj
 0003:017470a8       _com_parsename             318220a8     q_shared.obj
 0003:017474a8       _com_lines                 318224a8     q_shared.obj
 0003:017474ac       ?index@?1??va@@9@9         318224ac     q_shared.obj
 0003:017474b0       ?string@?1??COM_ParseError@@9@9 318224b0     q_shared.obj
 0003:017484b0       ?string@?1??COM_ParseWarning@@9@9 318234b0     q_shared.obj
 0003:017494b0       ?final@?1??Q_StrReplace@@9@9 318244b0     q_shared.obj
 0003:017498b0       ?temp_buffer@?1??va@@9@9   318248b0     q_shared.obj
 0003:017515b0       ?string@?1??va@@9@9        3182c5b0     q_shared.obj
 0003:017592b0       ?value@?1??Info_ValueForKey@@9@9 318342b0     q_shared.obj
 0003:0175d2b0       ?valueindex@?1??Info_ValueForKey@@9@9 318382b0     q_shared.obj
 0003:0175d2cc       _scrollInfo                318382cc     ui_shared.obj
 0003:0175d2ec       _captureFunc               318382ec     ui_shared.obj
 0003:0175d2f0       _captureData               318382f0     ui_shared.obj
 0003:0175d2f4       _itemCapture               318382f4     ui_shared.obj
 0003:0175d2f8       _g_waitingForKey           318382f8     ui_shared.obj
 0003:0175d2fc       _g_editingField            318382fc     ui_shared.obj
 0003:0175d300       _g_bindItem                31838300     ui_shared.obj
 0003:0175d304       _g_editItem                31838304     ui_shared.obj
 0003:0175d308       _debugMode                 31838308     ui_shared.obj
 0003:0175d30c       _lastListBoxClickTime      3183830c     ui_shared.obj
 0003:0175d310       _memoryPool                31838310     ui_shared.obj
 0003:0275d310       _allocPoint                32838310     ui_shared.obj
 0003:0275d314       _outOfMemory               32838314     ui_shared.obj
 0003:0275d318       _strPoolIndex              32838318     ui_shared.obj
 0003:0275d31c       _strHandleCount            3283831c     ui_shared.obj
 0003:0275d320       _strPool                   32838320     ui_shared.obj
 0003:0277d320       _strHandle                 32858320     ui_shared.obj
 0003:0277f320       ?string@?1??PC_SourceWarning@@9@9 3285a320     ui_shared.obj
 0003:02780320       ?string@?1??PC_SourceError@@9@9 3285b320     ui_shared.obj
 0003:02781320       ?inHandleKey@?9??Menu_HandleKey@@9@9 3285c320     ui_shared.obj
 0003:02781324       ?__proc_attached@@3HA      3285c324     LIBCMT:dll_dllmain.obj
 0003:02781348       ?is_initialized_as_dll@@3_NA 3285c348     LIBCMT:utility.obj
 0003:02781349       ?module_local_atexit_table_initialized@@3_NA 3285c349     LIBCMT:utility.obj
 0003:0278134c       ?module_local_atexit_table@@3U_onexit_table_t@@A 3285c34c     LIBCMT:utility.obj
 0003:02781358       ?module_local_at_quick_exit_table@@3U_onexit_table_t@@A 3285c358     LIBCMT:utility.obj
 0003:02781368       _GS_ExceptionRecord        3285c368     LIBCMT:gs_report.obj
 0003:027813b8       _GS_ContextRecord          3285c3b8     LIBCMT:gs_report.obj
 0003:02781688       ?__vcrt_startup_thread_ptd@@3U__vcrt_ptd@@A 3285c688     libvcruntime:per_thread_data.obj
 0003:027816b0       ___vcrt_lock_table         3285c6b0     libvcruntime:locks.obj
 0003:027816c8       ___vcrt_locks_initialized  3285c6c8     libvcruntime:locks.obj
 0003:027816cc       ?module_handles@@3PAPAUHINSTANCE__@@A 3285c6cc     libvcruntime:winapi_downlevel.obj
 0003:027816d8       ?function_pointers@@3PAPAXA 3285c6d8     libvcruntime:winapi_downlevel.obj
 0003:027816f0       ?c_termination_complete@@3JA 3285c6f0     libucrt:exit.obj
 0003:027816f4       ?thread_local_exit_callback_func@@3P6GXPAXK0@ZA 3285c6f4     libucrt:exit.obj
 0003:027816f8       ?c_exit_complete@?1???R<lambda_6e4b09c48022b2350581041d5f6b0c4c>@@QBE@XZ@4_NA 3285c6f8     libucrt:exit.obj
 0003:02781700       ?program_name@?1???$common_configure_argv@D@@YAHW4_crt_argv_mode@@@Z@4PADA 3285c700     libucrt:argv_parsing.obj
 0003:02781830       ?__acrt_invalid_parameter_handler@@3V?$dual_state_global@P6AXPB_W00II@Z@__crt_state_management@@A 3285c830     libucrt:invalid_parameter.obj
 0003:02781840       ?internal_state@?1??_mbtowc_internal@@9@4U_Mbstatet@@A 3285c840     libucrt:mbtowc.obj
 0003:02781a54       __pmatherr_set             3285ca54     libucrt:libm_error.obj
 0003:02781a58       ?internal_pst@?1??__mbrtoc32_utf8@__crt_mbstring@@YAIPA_UPBDIPAU_Mbstatet@@AAV__crt_cached_ptd_host@@@Z@4U3@A 3285ca58     libucrt:mbrtoc32.obj
 0003:02781a60       ?internal_pst@?1??__c16rtomb_utf8@__crt_mbstring@@YAIPAD_SPAU_Mbstatet@@AAV__crt_cached_ptd_host@@@Z@4U3@A 3285ca60     libucrt:c16rtomb.obj
 0003:02781a68       ?enable_percent_n@@3IA     3285ca68     libucrt:printf_count_output.obj
 0003:02781a78       ?__acrt_lock_table@@3PAU_RTL_CRITICAL_SECTION@@A 3285ca78     libucrt:locks.obj
 0003:02781be0       ?__acrt_locks_initialized@@3IA 3285cbe0     libucrt:locks.obj
 0003:02781bf0       ?fSystemSet@@3HA           3285cbf0     libucrt:mbctype.obj
 0003:02781bf4       ?initialized@?1??__acrt_initialize_multibyte@@9@4_NA 3285cbf4     libucrt:mbctype.obj
 0003:02781c10       ?module_handles@@3PAPAUHINSTANCE__@@A 3285cc10     libucrt:winapi_thunks.obj
 0003:02781c70       ?__acrt_new_handler@@3V?$dual_state_global@P6AHI@Z@__crt_state_management@@A 3285cc70     libucrt:new_handler.obj
 0003:02781c74       ?ctrlc_action@@3V?$dual_state_global@P6AXH@Z@__crt_state_management@@A 3285cc74     libucrt:signal.obj
 0003:02781c78       ?ctrlbreak_action@@3V?$dual_state_global@P6AXH@Z@__crt_state_management@@A 3285cc78     libucrt:signal.obj
 0003:02781c7c       ?abort_action@@3V?$dual_state_global@P6AXH@Z@__crt_state_management@@A 3285cc7c     libucrt:signal.obj
 0003:02781c80       ?term_action@@3V?$dual_state_global@P6AXH@Z@__crt_state_management@@A 3285cc80     libucrt:signal.obj
 0003:02781c84       ?user_matherr@@3V?$dual_state_global@P6AHPAU_exception@@@Z@__crt_state_management@@A 3285cc84     libucrt:matherr.obj
 0003:02781c90       ?__acrt_global_new_mode@@3V?$dual_state_global@J@__crt_state_management@@A 3285cc90     libucrt:new_mode.obj
 0003:02781c98       ?__acrt_app_type@@3W4_crt_app_type@@A 3285cc98     libucrt:report_runtime_error.obj
 0004:00000000       ?function_pointers@@3PAPAXA 32ff7000     libucrt:winapi_thunks.obj
 0005:00000060       $R000000                   32ff8060     * linker generated manifest res *
