 uix86

 Timestamp is 688bf404 (Fri Aug  1 00:53:56 2025)

 Preferred load address is 40000000

 Start         Length     Name                   Class
 0001:00000000 00045eb3H .text$mn                CODE
 0001:00045eb3 000000fcH .text$x                 CODE
 0002:00000000 00000120H .idata$5                DATA
 0002:00000120 00000008H .00cfg                  DATA
 0002:00000128 00000004H .CRT$XCA                DATA
 0002:0000012c 00000004H .CRT$XCZ                DATA
 0002:00000130 00000004H .CRT$XIA                DATA
 0002:00000134 0000000cH .CRT$XIC                DATA
 0002:00000140 00000004H .CRT$XIZ                DATA
 0002:00000144 00000004H .CRT$XPA                DATA
 0002:00000148 00000008H .CRT$XPX                DATA
 0002:00000150 00000004H .CRT$XPXA               DATA
 0002:00000154 00000004H .CRT$XPZ                DATA
 0002:00000158 00000004H .CRT$XTA                DATA
 0002:0000015c 00000004H .CRT$XTZ                DATA
 0002:00000160 00000000H .gfids$y                DATA
 0002:00000160 0001a160H .rdata                  DATA
 0002:0001a2c0 00000000H .rdata$CastGuardVftablesA DATA
 0002:0001a2c0 00000000H .rdata$CastGuardVftablesC DATA
 0002:0001a2c0 000000dcH .rdata$r                DATA
 0002:0001a39c 00000030H .rdata$sxdata           DATA
 0002:0001a3cc 000000b8H .rdata$voltmd           DATA
 0002:0001a484 000002d8H .rdata$zzzdbg           DATA
 0002:0001a75c 00000004H .rtc$IAA                DATA
 0002:0001a760 00000004H .rtc$IZZ                DATA
 0002:0001a764 00000004H .rtc$TAA                DATA
 0002:0001a768 00000008H .rtc$TZZ                DATA
 0002:0001a770 000005f0H .xdata$x                DATA
 0002:0001ad60 00000058H .edata                  DATA
 0002:0001adb8 00000014H .idata$2                DATA
 0002:0001adcc 00000014H .idata$3                DATA
 0002:0001ade0 00000120H .idata$4                DATA
 0002:0001af00 00000526H .idata$6                DATA
 0003:00000000 00009cf0H .data                   DATA
 0003:00009cf0 0000003cH .data$r                 DATA
 0003:00009d2c 00000034H .data$rs                DATA
 0003:00009d60 02343370H .bss                    DATA
 0004:00000000 00000080H .fptable                DATA
 0005:00000000 00000060H .rsrc$01                DATA
 0005:00000060 00000180H .rsrc$02                DATA

  Address         Publics by Value              Rva+Base       Lib:Object

 0000:00000000       ___AbsoluteZero            00000000     <absolute>
 0000:00000000       ___arm64x_extra_rfe_table  00000000     <absolute>
 0000:00000000       ___arm64x_extra_rfe_table_size 00000000     <absolute>
 0000:00000000       ___arm64x_native_entrypoint 00000000     <absolute>
 0000:00000000       ___arm64x_redirection_metadata 00000000     <absolute>
 0000:00000000       ___arm64x_redirection_metadata_count 00000000     <absolute>
 0000:00000000       ___dynamic_value_reloc_table 00000000     <absolute>
 0000:00000000       ___enclave_config          00000000     <absolute>
 0000:00000000       ___guard_check_icall_a64n_fptr 00000000     <absolute>
 0000:00000000       ___guard_eh_cont_count     00000000     <absolute>
 0000:00000000       ___guard_eh_cont_table     00000000     <absolute>
 0000:00000000       ___guard_fids_count        00000000     <absolute>
 0000:00000000       ___guard_fids_table        00000000     <absolute>
 0000:00000000       ___guard_iat_count         00000000     <absolute>
 0000:00000000       ___guard_iat_table         00000000     <absolute>
 0000:00000000       ___guard_longjmp_count     00000000     <absolute>
 0000:00000000       ___guard_longjmp_table     00000000     <absolute>
 0000:00000000       ___hybrid_auxiliary_delayload_iat 00000000     <absolute>
 0000:00000000       ___hybrid_auxiliary_delayload_iat_copy 00000000     <absolute>
 0000:00000000       ___hybrid_auxiliary_iat    00000000     <absolute>
 0000:00000000       ___hybrid_auxiliary_iat_copy 00000000     <absolute>
 0000:00000000       ___hybrid_code_map         00000000     <absolute>
 0000:00000000       ___hybrid_code_map_count   00000000     <absolute>
 0000:00000000       ___hybrid_image_info_bitfield 00000000     <absolute>
 0000:00000000       ___x64_code_ranges_to_entry_points 00000000     <absolute>
 0000:00000000       ___x64_code_ranges_to_entry_points_count 00000000     <absolute>
 0000:00000000       __except_list              00000000     <absolute>
 0000:0000000c       ___safe_se_handler_count   0000000c     <absolute>
 0000:00000100       ___guard_flags             00000100     <absolute>
 0000:00000000       ___ImageBase               40000000     <linker-defined>
 0001:00000000       _BG_Alloc                  40001000 f   bg_misc.obj
 0001:00000050       _BG_FindItemForHoldable    40001050 f   bg_misc.obj
 0001:000000b0       _BG_FindItemForWeapon      400010b0 f   bg_misc.obj
 0001:000000f0       _BG_LegalizedForcePowers   400010f0 f   bg_misc.obj
 0001:00000810       _BG_GetClassOnBaseClass    40001810 f   bg_saga.obj
 0001:00000880       _BG_GetUIPortrait          40001880 f   bg_saga.obj
 0001:00000900       _BG_GetUIPortraitFile      40001900 f   bg_saga.obj
 0001:00000980       _BG_SiegeCountBaseClass    40001980 f   bg_saga.obj
 0001:000009f0       _BG_SiegeFindThemeForTeam  400019f0 f   bg_saga.obj
 0001:00000a10       _BG_SiegeGetPairedValue    40001a10 f   bg_saga.obj
 0001:00000c50       _BG_SiegeGetValueGroup     40001c50 f   bg_saga.obj
 0001:00000f60       _BG_SiegeLoadClasses       40001f60 f   bg_saga.obj
 0001:000010b0       _BG_SiegeLoadTeams         400020b0 f   bg_saga.obj
 0001:00001390       _BG_SiegeParseClassFile    40002390 f   bg_saga.obj
 0001:00001cc0       _BG_SiegeSetTeamTheme      40002cc0 f   bg_saga.obj
 0001:00001d30       _BG_SiegeStripTabs         40002d30 f   bg_saga.obj
 0001:00001d70       _BG_SiegeTranslateForcePowers 40002d70 f   bg_saga.obj
 0001:00001f90       _BG_SiegeTranslateGenericTable 40002f90 f   bg_saga.obj
 0001:00002060       _BG_SiegeTranslateSkills   40003060 f   bg_saga.obj
 0001:000021c0       _AnglesToAxis              400031c0 f   q_math.obj
 0001:000023d0       _AxisClear                 400033d0 f   q_math.obj
 0001:00002420       _Q_irand                   40003420 f   q_math.obj
 0001:00002450       _VectorNormalize           40003450 f   q_math.obj
 0001:00002510       _COM_BeginParseSession     40003510 f   q_shared.obj
 0001:00002540       _COM_Compress              40003540 f   q_shared.obj
 0001:00002640       _COM_Parse                 40003640 f   q_shared.obj
 0001:00002660       _COM_ParseExt              40003660 f   q_shared.obj
 0001:000027f0       _COM_ParseFloat            400037f0 f   q_shared.obj
 0001:00002830       _COM_ParseString           40003830 f   q_shared.obj
 0001:00002870       _COM_StripExtension        40003870 f   q_shared.obj
 0001:000028b0       _Com_Clamp                 400038b0 f   q_shared.obj
 0001:000028e0       _Com_Clampi                400038e0 f   q_shared.obj
 0001:00002900       _Com_sprintf               40003900 f   q_shared.obj
 0001:00002960       _GetIDForString            40003960 f   q_shared.obj
 0001:00002a20       _Info_SetValueForKey       40003a20 f   q_shared.obj
 0001:00002cb0       _Info_ValueForKey          40003cb0 f   q_shared.obj
 0001:00002df0       _Q_CleanStr                40003df0 f   q_shared.obj
 0001:00002e50       _Q_strcat                  40003e50 f   q_shared.obj
 0001:00002ef0       _Q_stricmp                 40003ef0 f   q_shared.obj
 0001:00002f80       _Q_stricmpn                40003f80 f   q_shared.obj
 0001:00003010       _Q_strncpyz                40004010 f   q_shared.obj
 0001:00003080       _Q_strrchr                 40004080 f   q_shared.obj
 0001:000030b0       _Q_strupr                  400040b0 f   q_shared.obj
 0001:000030e0       _SkipBracedSection         400040e0 f   q_shared.obj
 0001:00003250       _SkipRestOfLine            40004250 f   q_shared.obj
 0001:00003280       ___local_stdio_printf_options 40004280 f i q_shared.obj
 0001:00003290       _va                        40004290 f   q_shared.obj
 0001:00003320       _Com_Error                 40004320 f   ui_atoms.obj
 0001:00003370       _Com_Printf                40004370 f   ui_atoms.obj
 0001:00003870       _UI_ClearScores            40004870 f   ui_atoms.obj
 0001:00003ac0       _UI_ConsoleCommand         40004ac0 f   ui_atoms.obj
 0001:00003c90       _UI_Cvar_VariableString    40004c90 f   ui_atoms.obj
 0001:00003cb0       _UI_DrawHandlePic          40004cb0 f   ui_atoms.obj
 0001:00003d50       _UI_FillRect               40004d50 f   ui_atoms.obj
 0001:00003dd0       _UI_LoadBestScores         40004dd0 f   ui_atoms.obj
 0001:00003ec0       _UI_SetBestScores          40004ec0 f   ui_atoms.obj
 0001:000041e0       _UI_SetColor               400051e0 f   ui_atoms.obj
 0001:000041f0       _IsForceRank               400051f0 f   ui_force.obj
 0001:00004220       _UI_DrawForceStars         40005220 f   ui_force.obj
 0001:00004370       _UI_ForceConfigHandle      40005370 f   ui_force.obj
 0001:000047d0       _UI_ForceMaxRank_HandleKey 400057d0 f   ui_force.obj
 0001:00004850       _UI_ForcePowerRank_HandleKey 40005850 f   ui_force.obj
 0001:000049f0       _UI_ForceSide_HandleKey    400059f0 f   ui_force.obj
 0001:00004ad0       _UI_InitForceShaders       40005ad0 f   ui_force.obj
 0001:00004c90       _UI_JediNonJedi_HandleKey  40005c90 f   ui_force.obj
 0001:00004db0       _UI_ReadLegalForce         40005db0 f   ui_force.obj
 0001:000050f0       _UI_SaveForceTemplate      400060f0 f   ui_force.obj
 0001:000052c0       _UI_SkinColor_HandleKey    400062c0 f   ui_force.obj
 0001:00005340       _UI_UpdateClientForcePowers 40006340 f   ui_force.obj
 0001:00005420       _UI_UpdateForcePowers      40006420 f   ui_force.obj
 0001:00005640       _UpdateForceUsed           40006640 f   ui_force.obj
 0001:00007d00       _UI_GetBotNameByNumber     40008d00 f   ui_gameinfo.obj
 0001:00007d50       _UI_GetNumBots             40008d50 f   ui_gameinfo.obj
 0001:00007d60       _UI_LoadArenas             40008d60 f   ui_gameinfo.obj
 0001:000081b0       _UI_LoadBots               400091b0 f   ui_gameinfo.obj
 0001:000084e0       _UI_ParseInfos             400094e0 f   ui_gameinfo.obj
 0001:000086d0       _Asset_Parse               400096d0 f   ui_main.obj
 0001:000092a0       _Text_Height               4000a2a0 f   ui_main.obj
 0001:00009300       _Text_Paint                4000a300 f   ui_main.obj
 0001:000093c0       _Text_PaintCenter          4000a3c0 f   ui_main.obj
 0001:00009500       _Text_PaintWithCursor      4000a500 f   ui_main.obj
 0001:00009890       _Text_Width                4000a890 f   ui_main.obj
 0001:00009970       _UI_AllocMem               4000a970 f   ui_main.obj
 0001:0000aee0       _UI_ClampMaxPlayers        4000bee0 f   ui_main.obj
 0001:0000b8f0       _UI_DrawConnectScreen      4000c8f0 f   ui_main.obj
 0001:0000df70       _UI_FeederSelection        4000ef70 f   ui_main.obj
 0001:0000e8d0       _UI_FindCurrentSiegeTeamClass 4000f8d0 f   ui_main.obj
 0001:0000e9b0       ??3@YAXPAX@Z               4000f9b0 f   LIBCMT:delete_scalar.obj
 0001:0000e9b0       _UI_FreeMem                4000f9b0 f   ui_main.obj
 0001:0000f4b0       _UI_GetStringEdString      400104b0 f   ui_main.obj
 0001:0000f4e0       @_guard_check_icall_nop@4  400104e0 f   LIBCMT:guard_support.obj
 0001:0000f500       _UI_GetVideoSetup          40010500 f   ui_main.obj
 0001:0000f8b0       _UI_Load                   400108b0 f   ui_main.obj
 0001:0000f950       _UI_LoadForceConfig_List   40010950 f   ui_main.obj
 0001:0000fa80       _UI_LoadMenus              40010a80 f   ui_main.obj
 0001:00012820       _UI_ParseAnimationFile     40013820 f   ui_main.obj
 0001:00012c70       _UI_ParseMenu              40013c70 f   ui_main.obj
 0001:00012dc0       _UI_ReaAllocMem            40013dc0 f   ui_main.obj
 0001:00012f20       _UI_Report                 40013f20 f   ui_main.obj
 0001:00015970       _UI_SetSiegeTeams          40016970 f   ui_main.obj
 0001:00015c80       _UI_ShowPostGame           40016c80 f   ui_main.obj
 0001:00015dc0       _UI_SiegeClassNum          40016dc0 f   ui_main.obj
 0001:00015df0       _UI_SiegeSetCvarsForClass  40016df0 f   ui_main.obj
 0001:00016fa0       _UI_TeamName               40017fa0 f   ui_main.obj
 0001:000170c0       _UI_TrueJediEnabled        400180c0 f   ui_main.obj
 0001:00017a40       _UI_UpdateCharacterSkin    40018a40 f   ui_main.obj
 0001:00017b10       _UI_UpdateCvarsForClass    40018b10 f   ui_main.obj
 0001:00017e70       _UI_UpdateSiegeObjectiveGraphics 40018e70 f   ui_main.obj
 0001:00018070       _UI_UpdateSiegeStatusIcons 40019070 f   ui_main.obj
 0001:00018160       _UI_UpdateVideoSetup       40019160 f   ui_main.obj
 0001:000182c0       _UpdateBotButtons          400192c0 f   ui_main.obj
 0001:00018320       _UpdateForceStatus         40019320 f   ui_main.obj
 0001:00018710       __UI_DrawRect              40019710 f   ui_main.obj
 0001:000187a0       __UI_DrawSides             400197a0 f   ui_main.obj
 0001:00018880       __UI_DrawTopBottom         40019880 f   ui_main.obj
 0001:00018960       __UI_Init                  40019960 f   ui_main.obj
 0001:00019190       __UI_Refresh               4001a190 f   ui_main.obj
 0001:000194b0       __UI_SetActiveMenu         4001a4b0 f   ui_main.obj
 0001:00019770       ___local_stdio_scanf_options 4001a770 f i ui_main.obj
 0001:00019780       _siege_Cvar_Set            4001a780 f   ui_main.obj
 0001:00019860       _siege_Cvar_VariableStringBuffer 4001a860 f   ui_main.obj
 0001:00019930       _siege_Cvar_VariableValue  4001a930 f   ui_main.obj
 0001:000199b0       _sprintf                   4001a9b0 f i ui_main.obj
 0001:000199f0       _sscanf                    4001a9f0 f i ui_main.obj
 0001:00019a20       _vmMain                    4001aa20 f   ui_main.obj
 0001:00019bf0       _ParseRGBSaber             4001abf0 f   ui_saber.obj
 0001:00019c40       _RGB_AdjustSciptedSaberColor 4001ac40 f   ui_saber.obj
 0001:00019da0       _RGB_RandomRGB             4001ada0 f   ui_saber.obj
 0001:00019e00       _SaberColorToString        4001ae00 f   ui_saber.obj
 0001:00019ea0       _TranslateSaberColor       4001aea0 f   ui_saber.obj
 0001:0001a000       _TranslateSaberType        4001b000 f   ui_saber.obj
 0001:0001a150       _UI_CacheSaberGlowGraphics 4001b150 f   ui_saber.obj
 0001:0001a270       _UI_DoSaber                4001b270 f   ui_saber.obj
 0001:0001a900       _UI_FreeSabers             4001b900 f   ui_saber.obj
 0001:0001a920       _UI_GetSaberCount          4001b920 f   ui_saber.obj
 0001:0001a940       _UI_GetSaberForMenu        4001b940 f   ui_saber.obj
 0001:0001aac0       _UI_GetSaberHiltInfo       4001bac0 f   ui_saber.obj
 0001:0001aaf0       _UI_ParseScriptedSaber     4001baf0 f   ui_saber.obj
 0001:0001ac00       _UI_SaberAttachToChar      4001bc00 f   ui_saber.obj
 0001:0001ad20       _UI_SaberDrawBlade         4001bd20 f   ui_saber.obj
 0001:0001baa0       _UI_SaberDrawBlades        4001caa0 f   ui_saber.obj
 0001:0001bd30       _UI_SaberGetHiltInfo       4001cd30 f   ui_saber.obj
 0001:0001be80       _UI_SaberLoadParms         4001ce80 f   ui_saber.obj
 0001:0001c2b0       _UI_SaberModelForSaber     4001d2b0 f   ui_saber.obj
 0001:0001c2d0       _UI_SaberParseParm         4001d2d0 f   ui_saber.obj
 0001:0001c460       _UI_SaberProperNameForSaber 4001d460 f   ui_saber.obj
 0001:0001c4e0       _UI_SaberSkinForSaber      4001d4e0 f   ui_saber.obj
 0001:0001c500       _UI_SaberTypeForSaber      4001d500 f   ui_saber.obj
 0001:0001c520       _MenuParse_descX           4001d520 f   ui_shared.obj
 0001:0001c540       _MenuParse_descY           4001d540 f   ui_shared.obj
 0001:0001c560       _MenuParse_descScale       4001d560 f   ui_shared.obj
 0001:0001c580       _MenuParse_descColor       4001d580 f   ui_shared.obj
 0001:0001c640       _ItemParse_forecolor       4001d640 f   ui_shared.obj
 0001:0001c640       _MenuParse_forecolor       4001d640 f   ui_shared.obj
 0001:0001c730       _MenuParse_bordercolor     4001d730 f   ui_shared.obj
 0001:0001c7f0       _MenuParse_focuscolor      4001d7f0 f   ui_shared.obj
 0001:0001c8b0       _MenuParse_disablecolor    4001d8b0 f   ui_shared.obj
 0001:0001c970       _ItemParse_outlinecolor    4001d970 f   ui_shared.obj
 0001:0001c970       _MenuParse_outlinecolor    4001d970 f   ui_shared.obj
 0001:0001c990       _ItemParse_background      4001d990 f   ui_shared.obj
 0001:0001c990       _MenuParse_background      4001d990 f   ui_shared.obj
 0001:0001c9e0       _ItemParse_cinematic       4001d9e0 f   ui_shared.obj
 0001:0001c9e0       _MenuParse_cinematic       4001d9e0 f   ui_shared.obj
 0001:0001ca00       _ItemParse_ownerdrawFlag   4001da00 f   ui_shared.obj
 0001:0001ca00       _MenuParse_ownerdrawFlag   4001da00 f   ui_shared.obj
 0001:0001ca30       _MenuParse_ownerdraw       4001da30 f   ui_shared.obj
 0001:0001ca50       _MenuParse_popup           4001da50 f   ui_shared.obj
 0001:0001ca70       _MenuParse_outOfBounds     4001da70 f   ui_shared.obj
 0001:0001ca90       _ItemParse_text2           4001da90 f   ui_shared.obj
 0001:0001ca90       _MenuParse_soundLoop       4001da90 f   ui_shared.obj
 0001:0001cab0       _MenuParse_fadeClamp       4001dab0 f   ui_shared.obj
 0001:0001cad0       _ItemParse_textalignx      4001dad0 f   ui_shared.obj
 0001:0001cad0       _MenuParse_fadeAmount      4001dad0 f   ui_shared.obj
 0001:0001caf0       _ItemParse_align           4001daf0 f   ui_shared.obj
 0001:0001caf0       _MenuParse_fadeCycle       4001daf0 f   ui_shared.obj
 0001:0001cb10       _MenuParse_itemDef         4001db10 f   ui_shared.obj
 0001:0001cd30       _MenuParse_appearanceIncrement 4001dd30 f   ui_shared.obj
 0001:0001cd50       _Script_SetColor           4001dd50 f   ui_shared.obj
 0001:0001ce40       _Script_SetAsset           4001de40 f   ui_shared.obj
 0001:0001ce70       _Script_SetBackground      4001de70 f   ui_shared.obj
 0001:0001cec0       _Script_SetItemRectCvar    4001dec0 f   ui_shared.obj
 0001:0001d0d0       _Script_SetItemBackground  4001e0d0 f   ui_shared.obj
 0001:0001d190       _Script_SetItemText        4001e190 f   ui_shared.obj
 0001:0001d200       _Script_SetTeamColor       4001e200 f   ui_shared.obj
 0001:0001d240       _Script_SetItemColor       4001e240 f   ui_shared.obj
 0001:0001d3e0       _Script_SetItemColorCvar   4001e3e0 f   ui_shared.obj
 0001:0001d6a0       _Script_SetItemRect        4001e6a0 f   ui_shared.obj
 0001:0001d780       _Script_Show               4001e780 f   ui_shared.obj
 0001:0001d7d0       _Script_Hide               4001e7d0 f   ui_shared.obj
 0001:0001d820       _Script_FadeIn             4001e820 f   ui_shared.obj
 0001:0001d8c0       _Script_FadeOut            4001e8c0 f   ui_shared.obj
 0001:0001d960       _Script_Open               4001e960 f   ui_shared.obj
 0001:0001dab0       _Script_Close              4001eab0 f   ui_shared.obj
 0001:0001dbf0       _Script_Defer              4001ebf0 f   ui_shared.obj
 0001:0001dc40       _Script_RunDeferred        4001ec40 f   ui_shared.obj
 0001:0001dc70       _Script_Transition         4001ec70 f   ui_shared.obj
 0001:0001dd30       _Script_Disable            4001ed30 f   ui_shared.obj
 0001:0001de10       _Script_Scale              4001ee10 f   ui_shared.obj
 0001:0001df70       _Script_Orbit              4001ef70 f   ui_shared.obj
 0001:0001e100       _Script_SetFocus           4001f100 f   ui_shared.obj
 0001:0001e1f0       _Script_SetPlayerModel     4001f1f0 f   ui_shared.obj
 0001:0001e240       _Script_Transition2        4001f240 f   ui_shared.obj
 0001:0001e340       _Script_SetCvar            4001f340 f   ui_shared.obj
 0001:0001e3b0       _Script_SetCvarToCvar      4001f3b0 f   ui_shared.obj
 0001:0001e460       _Script_Exec               4001f460 f   ui_shared.obj
 0001:0001e540       _Script_Play               4001f540 f   ui_shared.obj
 0001:0001e590       _Script_PlayVoice          4001f590 f   ui_shared.obj
 0001:0001e5e0       _Script_playLooped         4001f5e0 f   ui_shared.obj
 0001:0001e640       _ItemParse_name            4001f640 f   ui_shared.obj
 0001:0001e660       _ItemParse_focusSound      4001f660 f   ui_shared.obj
 0001:0001e6b0       _ItemParse_text            4001f6b0 f   ui_shared.obj
 0001:0001e6d0       _ItemParse_descText        4001f6d0 f   ui_shared.obj
 0001:0001e6f0       _ItemParse_text2alignx     4001f6f0 f   ui_shared.obj
 0001:0001e710       _ItemParse_text2aligny     4001f710 f   ui_shared.obj
 0001:0001e730       _ItemParse_group           4001f730 f   ui_shared.obj
 0001:0001e750       _ItemParse_asset_model     4001f750 f   ui_shared.obj
 0001:0001e7e0       _ItemParse_asset_shader    4001f7e0 f   ui_shared.obj
 0001:0001e830       _ItemParse_model_origin    4001f830 f   ui_shared.obj
 0001:0001e890       _ItemParse_elementwidth    4001f890 f   ui_shared.obj
 0001:0001e890       _ItemParse_model_fovx      4001f890 f   ui_shared.obj
 0001:0001e8c0       _ItemParse_elementheight   4001f8c0 f   ui_shared.obj
 0001:0001e8c0       _ItemParse_model_fovy      4001f8c0 f   ui_shared.obj
 0001:0001e8f0       _ItemParse_model_rotation  4001f8f0 f   ui_shared.obj
 0001:0001e920       _ItemParse_model_angle     4001f920 f   ui_shared.obj
 0001:0001e950       _ItemParse_model_g2mins    4001f950 f   ui_shared.obj
 0001:0001e9b0       _ItemParse_model_g2maxs    4001f9b0 f   ui_shared.obj
 0001:0001ea10       _ItemParse_model_g2scale   4001fa10 f   ui_shared.obj
 0001:0001ea70       _ItemParse_model_g2skin    4001fa70 f   ui_shared.obj
 0001:0001ead0       _ItemParse_model_g2anim    4001fad0 f   ui_shared.obj
 0001:0001eb70       _ItemParse_rectcvar        4001fb70 f   ui_shared.obj
 0001:0001ec80       _ItemParse_rect            4001fc80 f   ui_shared.obj
 0001:0001ece0       _ItemParse_flag            4001fce0 f   ui_shared.obj
 0001:0001ed80       _ItemParse_style           4001fd80 f   ui_shared.obj
 0001:0001edc0       _ItemParse_decoration      4001fdc0 f   ui_shared.obj
 0001:0001ede0       _ItemParse_notselectable   4001fde0 f   ui_shared.obj
 0001:0001ee20       _ItemParse_scrollhidden    4001fe20 f   ui_shared.obj
 0001:0001ee60       _ItemParse_wrapped         4001fe60 f   ui_shared.obj
 0001:0001ee80       _ItemParse_autowrapped     4001fe80 f   ui_shared.obj
 0001:0001eea0       _ItemParse_horizontalscroll 4001fea0 f   ui_shared.obj
 0001:0001eec0       _ItemParse_type            4001fec0 f   ui_shared.obj
 0001:0001ef00       _ItemParse_feeder          4001ff00 f   ui_shared.obj
 0001:0001ef00       _ItemParse_special         4001ff00 f   ui_shared.obj
 0001:0001ef20       _ItemParse_elementtype     4001ff20 f   ui_shared.obj
 0001:0001ef60       _ItemParse_columns         4001ff60 f   ui_shared.obj
 0001:0001f020       _ItemParse_border          40020020 f   ui_shared.obj
 0001:0001f020       _MenuParse_border          40020020 f   ui_shared.obj
 0001:0001f040       _ItemParse_bordersize      40020040 f   ui_shared.obj
 0001:0001f040       _MenuParse_borderSize      40020040 f   ui_shared.obj
 0001:0001f060       _ItemParse_visible         40020060 f   ui_shared.obj
 0001:0001f060       _MenuParse_visible         40020060 f   ui_shared.obj
 0001:0001f0a0       _ItemParse_ownerdraw       400200a0 f   ui_shared.obj
 0001:0001f0d0       _ItemParse_isCharacter     400200d0 f   ui_shared.obj
 0001:0001f120       _ItemParse_textalign       40020120 f   ui_shared.obj
 0001:0001f160       _ItemParse_textaligny      40020160 f   ui_shared.obj
 0001:0001f180       _ItemParse_textscale       40020180 f   ui_shared.obj
 0001:0001f1a0       _ItemParse_textstyle       400201a0 f   ui_shared.obj
 0001:0001f1c0       _ItemParse_invertyesno     400201c0 f   ui_shared.obj
 0001:0001f1e0       _ItemParse_xoffset         400201e0 f   ui_shared.obj
 0001:0001f200       _ItemParse_backcolor       40020200 f   ui_shared.obj
 0001:0001f2b0       _ItemParse_bordercolor     400202b0 f   ui_shared.obj
 0001:0001f370       _ItemParse_doubleClick     40020370 f   ui_shared.obj
 0001:0001f3b0       _ItemParse_onFocus         400203b0 f   ui_shared.obj
 0001:0001f3d0       _ItemParse_leaveFocus      400203d0 f   ui_shared.obj
 0001:0001f3f0       _ItemParse_mouseEnter      400203f0 f   ui_shared.obj
 0001:0001f410       _ItemParse_mouseExit       40020410 f   ui_shared.obj
 0001:0001f430       _ItemParse_mouseEnterText  40020430 f   ui_shared.obj
 0001:0001f450       _ItemParse_mouseExitText   40020450 f   ui_shared.obj
 0001:0001f470       _ItemParse_action          40020470 f   ui_shared.obj
 0001:0001f490       _ItemParse_cvarTest        40020490 f   ui_shared.obj
 0001:0001f4b0       _ItemParse_cvar            400204b0 f   ui_shared.obj
 0001:0001f530       _ItemParse_font            40020530 f   ui_shared.obj
 0001:0001f560       _ItemParse_maxChars        40020560 f   ui_shared.obj
 0001:0001f5b0       _ItemParse_maxPaintChars   400205b0 f   ui_shared.obj
 0001:0001f600       _ItemParse_maxLineChars    40020600 f   ui_shared.obj
 0001:0001f650       _ItemParse_lineHeight      40020650 f   ui_shared.obj
 0001:0001f6a0       _ItemParse_cvarInt         400206a0 f   ui_shared.obj
 0001:0001f730       _ItemParse_cvarFloat       40020730 f   ui_shared.obj
 0001:0001f7a0       _ItemParse_cvarStrList     400207a0 f   ui_shared.obj
 0001:0001f9e0       _ItemParse_cvarFloatList   400209e0 f   ui_shared.obj
 0001:0001fad0       _ItemParse_addColorRange   40020ad0 f   ui_shared.obj
 0001:0001fb50       _ItemParse_enableCvar      40020b50 f   ui_shared.obj
 0001:0001fb90       _ItemParse_disableCvar     40020b90 f   ui_shared.obj
 0001:0001fbd0       _ItemParse_showCvar        40020bd0 f   ui_shared.obj
 0001:0001fc10       _ItemParse_hideCvar        40020c10 f   ui_shared.obj
 0001:0001fc50       _ItemParse_cvarSubString   40020c50 f   ui_shared.obj
 0001:0001fc70       _ItemParse_Appearance_slot 40020c70 f   ui_shared.obj
 0001:0001fc90       _ItemParse_isSaber         40020c90 f   ui_shared.obj
 0001:0001fd00       _ItemParse_isSaber2        40020d00 f   ui_shared.obj
 0001:0001fd70       _MenuParse_font            40020d70 f   ui_shared.obj
 0001:0001fdd0       _MenuParse_name            40020dd0 f   ui_shared.obj
 0001:0001fe10       _MenuParse_fullscreen      40020e10 f   ui_shared.obj
 0001:0001fe30       _MenuParse_rect            40020e30 f   ui_shared.obj
 0001:0001fe90       _MenuParse_style           40020e90 f   ui_shared.obj
 0001:0001fed0       _MenuParse_onOpen          40020ed0 f   ui_shared.obj
 0001:0001fef0       _MenuParse_onClose         40020ef0 f   ui_shared.obj
 0001:0001ff10       _MenuParse_onAccept        40020f10 f   ui_shared.obj
 0001:0001ff30       _MenuParse_onESC           40020f30 f   ui_shared.obj
 0001:0001ff50       _MenuParse_backcolor       40020f50 f   ui_shared.obj
 0001:00020000       _MenuParse_descAlignment   40021000 f   ui_shared.obj
 0001:00020040       _BindingIDFromName         40021040 f   ui_shared.obj
 0001:00020080       _Controls_GetConfig        40021080 f   ui_shared.obj
 0001:00020130       _Controls_SetConfig        40021130 f   ui_shared.obj
 0001:00020180       _Display_CacheAll          40021180 f   ui_shared.obj
 0001:00020390       _Display_KeyBindPending    40021390 f   ui_shared.obj
 0001:000203a0       _Display_MouseMove         400213a0 f   ui_shared.obj
 0001:000204a0       _Float_Parse               400214a0 f   ui_shared.obj
 0001:000204e0       _GradientBar_Paint         400214e0 f   ui_shared.obj
 0001:00020530       _Init_Display              40021530 f   ui_shared.obj
 0001:00020540       _Int_Parse                 40021540 f   ui_shared.obj
 0001:00020580       _ItemParse_asset_model_go  40021580 f   ui_shared.obj
 0001:000207f0       _ItemParse_model_g2anim_go 400217f0 f   ui_shared.obj
 0001:00020870       _ItemParse_model_g2skin_go 40021870 f   ui_shared.obj
 0001:000208e0       _Item_Bind_HandleKey       400218e0 f   ui_shared.obj
 0001:00020ba0       _Item_Bind_Paint           40021ba0 f   ui_shared.obj
 0001:00020f70       _Item_EnableShowViaCvar    40021f70 f   ui_shared.obj
 0001:000210d0       _Item_HandleKey            400220d0 f   ui_shared.obj
 0001:00021540       _Item_ListBox_HandleKey    40022540 f   ui_shared.obj
 0001:000219d0       _Item_ListBox_MaxScroll    400229d0 f   ui_shared.obj
 0001:00021a40       _Item_ListBox_MouseEnter   40022a40 f   ui_shared.obj
 0001:00021c30       _Item_ListBox_OverLB       40022c30 f   ui_shared.obj
 0001:00022040       _Item_ListBox_Paint        40023040 f   ui_shared.obj
 0001:00022ed0       _Item_ListBox_ThumbDrawPosition 40023ed0 f   ui_shared.obj
 0001:00022fb0       _Item_ListBox_ThumbPosition 40023fb0 f   ui_shared.obj
 0001:000230f0       _Item_Model_Paint          400240f0 f   ui_shared.obj
 0001:00023880       _Item_MouseEnter           40024880 f   ui_shared.obj
 0001:00023a40       _Item_Multi_HandleKey      40024a40 f   ui_shared.obj
 0001:00023cb0       _Item_Multi_Paint          40024cb0 f   ui_shared.obj
 0001:00023f70       _Item_OwnerDraw_Paint      40024f70 f   ui_shared.obj
 0001:000243f0       _Item_Paint                400253f0 f   ui_shared.obj
 0001:00024df0       _Item_RunScript            40025df0 f   ui_shared.obj
 0001:00024ed0       _Item_SetFocus             40025ed0 f   ui_shared.obj
 0001:00025000       _Item_SetScreenCoords      40026000 f   ui_shared.obj
 0001:00025090       _Item_SetTextExtents       40026090 f   ui_shared.obj
 0001:000252d0       _Item_Slider_ThumbPosition 400262d0 f   ui_shared.obj
 0001:00025380       _Item_StartCapture         40026380 f   ui_shared.obj
 0001:00025630       _Item_TextColor            40026630 f   ui_shared.obj
 0001:00025870       _Item_TextField_HandleKey  40026870 f   ui_shared.obj
 0001:00025d00       _Item_TextField_Paint      40026d00 f   ui_shared.obj
 0001:00026560       _Item_TextScroll_HandleKey 40027560 f   ui_shared.obj
 0001:000266f0       _Item_TextScroll_OverLB    400276f0 f   ui_shared.obj
 0001:000268d0       _Item_TextScroll_Paint     400278d0 f   ui_shared.obj
 0001:00026be0       _Item_TextScroll_ThumbDrawPosition 40027be0 f   ui_shared.obj
 0001:00026d90       _Item_Text_AutoWrapped_Paint 40027d90 f   ui_shared.obj
 0001:00027020       _Item_Text_Paint           40028020 f   ui_shared.obj
 0001:00027390       _Item_ValidateTypeData     40028390 f   ui_shared.obj
 0001:000274a0       _Item_YesNo_Paint          400284a0 f   ui_shared.obj
 0001:000276d0       _KeywordHash_Key           400286d0 f   ui_shared.obj
 0001:00027720       _Leaving_EditField         40028720 f   ui_shared.obj
 0001:00027750       _LerpColor                 40028750 f   ui_shared.obj
 0001:00027830       _Menu_ClearFocus           40028830 f   ui_shared.obj
 0001:00027980       _Menu_Count                40028980 f   ui_shared.obj
 0001:00027990       _Menu_FindItemByName       40028990 f   ui_shared.obj
 0001:000279f0       _Menu_GetFocused           400289f0 f   ui_shared.obj
 0001:00027a30       _Menu_GetMatchingItemByNumber 40028a30 f   ui_shared.obj
 0001:00027ab0       _Menu_HandleKey            40028ab0 f   ui_shared.obj
 0001:000280d0       _Menu_HandleMouseMove      400290d0 f   ui_shared.obj
 0001:000282f0       _Menu_ItemDisable          400292f0 f   ui_shared.obj
 0001:00028340       _Menu_ItemsMatchingGroup   40029340 f   ui_shared.obj
 0001:000283c0       _Menu_New                  400293c0 f   ui_shared.obj
 0001:000285b0       _Menu_Paint                400295b0 f   ui_shared.obj
 0001:00028760       _Menu_PaintAll             40029760 f   ui_shared.obj
 0001:00028a00       _Menu_Reset                40029a00 f   ui_shared.obj
 0001:00028a10       _Menu_SetFeederSelection   40029a10 f   ui_shared.obj
 0001:00028ae0       _Menu_SetItemBackground    40029ae0 f   ui_shared.obj
 0001:00028b40       _Menu_SetItemText          40029b40 f   ui_shared.obj
 0001:000291d0       _Menu_SetNextCursorItem    4002a1d0 f   ui_shared.obj
 0001:000292c0       _Menu_SetPrevCursorItem    4002a2c0 f   ui_shared.obj
 0001:000293b0       _Menu_ShowGroup            4002a3b0 f   ui_shared.obj
 0001:00029420       _Menu_ShowItemByName       4002a420 f   ui_shared.obj
 0001:000294a0       _Menu_TransitionItemByName 4002a4a0 f   ui_shared.obj
 0001:000295b0       _Menu_UpdatePosition       4002a5b0 f   ui_shared.obj
 0001:000296b0       _Menus_Activate            4002a6b0 f   ui_shared.obj
 0001:00029720       _Menus_ActivateByName      4002a720 f   ui_shared.obj
 0001:00029840       _Menus_AnyFullScreenVisible 4002a840 f   ui_shared.obj
 0001:00029870       _Menus_CloseAll            4002a870 f   ui_shared.obj
 0001:000298f0       _Menus_CloseByName         4002a8f0 f   ui_shared.obj
 0001:00029970       _Menus_FindByName          4002a970 f   ui_shared.obj
 0001:000299c0       _Menus_HandleOOBClick      4002a9c0 f   ui_shared.obj
 0001:00029d10       _Menus_OpenByName          4002ad10 f   ui_shared.obj
 0001:00029e30       _PC_Color_Parse            4002ae30 f   ui_shared.obj
 0001:00029ed0       _PC_Float_Parse            4002aed0 f   ui_shared.obj
 0001:00029f70       _PC_Int_Parse              4002af70 f   ui_shared.obj
 0001:0002a000       _PC_Script_Parse           4002b000 f   ui_shared.obj
 0001:0002a240       _PC_SourceError            4002b240 f   ui_shared.obj
 0001:0002a2b0       _PC_String_Parse           4002b2b0 f   ui_shared.obj
 0001:0002a320       _Rect_Parse                4002b320 f   ui_shared.obj
 0001:0002a940       _String_Alloc              4002b940 f   ui_shared.obj
 0001:0002aa90       _String_Init               4002ba90 f   ui_shared.obj
 0001:0002ac30       _String_Parse              4002bc30 f   ui_shared.obj
 0001:0002ac70       _String_Report             4002bc70 f   ui_shared.obj
 0001:0002ad00       _UI_Alloc                  4002bd00 f   ui_shared.obj
 0001:0002ad60       _UI_CleanupGhoul2          4002bd60 f   ui_shared.obj
 0001:0002ada0       _UI_InitMemory             4002bda0 f   ui_shared.obj
 0001:0002adc0       _UI_OutOfMemory            4002bdc0 f   ui_shared.obj
 0001:0002add0       _Window_Paint              4002bdd0 f   ui_shared.obj
 0001:0002b2c0       _dllEntry                  4002c2c0 f   ui_syscalls.obj
 0001:0002b2d0       _trap_AnyLanguage_ReadCharFromString 4002c2d0 f   ui_syscalls.obj
 0001:0002b2f0       _trap_Argc                 4002c2f0 f   ui_syscalls.obj
 0001:0002b300       _trap_Argv                 4002c300 f   ui_syscalls.obj
 0001:0002b320       _trap_CIN_DrawCinematic    4002c320 f   ui_syscalls.obj
 0001:0002b340       _trap_CIN_PlayCinematic    4002c340 f   ui_syscalls.obj
 0001:0002b370       _trap_CIN_RunCinematic     4002c370 f   ui_syscalls.obj
 0001:0002b390       _trap_CIN_SetExtents       4002c390 f   ui_syscalls.obj
 0001:0002b3b0       _trap_CIN_StopCinematic    4002c3b0 f   ui_syscalls.obj
 0001:0002b3d0       _trap_Cmd_ExecuteText      4002c3d0 f   ui_syscalls.obj
 0001:0002b3f0       _trap_Cvar_Register        4002c3f0 f   ui_syscalls.obj
 0001:0002b410       _trap_Cvar_Set             4002c410 f   ui_syscalls.obj
 0001:0002b430       _trap_Cvar_SetValue        4002c430 f   ui_syscalls.obj
 0001:0002b450       _trap_Cvar_Update          4002c450 f   ui_syscalls.obj
 0001:0002b470       _trap_Cvar_VariableStringBuffer 4002c470 f   ui_syscalls.obj
 0001:0002b490       _trap_Cvar_VariableValue   4002c490 f   ui_syscalls.obj
 0001:0002b4b0       _trap_Error                4002c4b0 f   ui_syscalls.obj
 0001:0002b4d0       _trap_FS_FCloseFile        4002c4d0 f   ui_syscalls.obj
 0001:0002b4f0       _trap_FS_FOpenFile         4002c4f0 f   ui_syscalls.obj
 0001:0002b510       _trap_FS_GetFileList       4002c510 f   ui_syscalls.obj
 0001:0002b530       _trap_FS_Read              4002c530 f   ui_syscalls.obj
 0001:0002b550       _trap_FS_Write             4002c550 f   ui_syscalls.obj
 0001:0002b570       _trap_G2API_AddBolt        4002c570 f   ui_syscalls.obj
 0001:0002b590       _trap_G2API_AttachG2Model  4002c590 f   ui_syscalls.obj
 0001:0002b5c0       _trap_G2API_CleanGhoul2Models 4002c5c0 f   ui_syscalls.obj
 0001:0002b5e0       _trap_G2API_GetBoltMatrix  4002c5e0 f   ui_syscalls.obj
 0001:0002b610       _trap_G2API_GetGLAName     4002c610 f   ui_syscalls.obj
 0001:0002b630       _trap_G2API_HasGhoul2ModelOnIndex 4002c630 f   ui_syscalls.obj
 0001:0002b650       _trap_G2API_InitGhoul2Model 4002c650 f   ui_syscalls.obj
 0001:0002b680       _trap_G2API_RemoveGhoul2Model 4002c680 f   ui_syscalls.obj
 0001:0002b6a0       _trap_G2API_SetBoneAnim    4002c6a0 f   ui_syscalls.obj
 0001:0002b6f0       _trap_G2API_SetSkin        4002c6f0 f   ui_syscalls.obj
 0001:0002b710       _trap_G2API_SetTime        4002c710 f   ui_syscalls.obj
 0001:0002b730       _trap_G2_HaveWeGhoul2Models 4002c730 f   ui_syscalls.obj
 0001:0002b750       _trap_GetClientState       4002c750 f   ui_syscalls.obj
 0001:0002b770       _trap_GetConfigString      4002c770 f   ui_syscalls.obj
 0001:0002b790       _trap_GetGlconfig          4002c790 f   ui_syscalls.obj
 0001:0002b7b0       _trap_GetLanguageName      4002c7b0 f   ui_syscalls.obj
 0001:0002b7d0       _trap_Key_ClearStates      4002c7d0 f   ui_syscalls.obj
 0001:0002b7e0       _trap_Key_GetBindingBuf    4002c7e0 f   ui_syscalls.obj
 0001:0002b800       _trap_Key_GetCatcher       4002c800 f   ui_syscalls.obj
 0001:0002b810       _trap_Key_GetOverstrikeMode 4002c810 f   ui_syscalls.obj
 0001:0002b820       _trap_Key_KeynumToStringBuf 4002c820 f   ui_syscalls.obj
 0001:0002b840       _trap_Key_SetBinding       4002c840 f   ui_syscalls.obj
 0001:0002b860       _trap_Key_SetCatcher       4002c860 f   ui_syscalls.obj
 0001:0002b880       _trap_Key_SetOverstrikeMode 4002c880 f   ui_syscalls.obj
 0001:0002b8a0       _trap_LAN_AddServer        4002c8a0 f   ui_syscalls.obj
 0001:0002b8c0       _trap_LAN_CompareServers   4002c8c0 f   ui_syscalls.obj
 0001:0002b8e0       _trap_LAN_GetServerAddressString 4002c8e0 f   ui_syscalls.obj
 0001:0002b900       _trap_LAN_GetServerCount   4002c900 f   ui_syscalls.obj
 0001:0002b920       _trap_LAN_GetServerInfo    4002c920 f   ui_syscalls.obj
 0001:0002b940       _trap_LAN_GetServerPing    4002c940 f   ui_syscalls.obj
 0001:0002b960       _trap_LAN_LoadCachedServers 4002c960 f   ui_syscalls.obj
 0001:0002b970       _trap_LAN_MarkServerVisible 4002c970 f   ui_syscalls.obj
 0001:0002b990       _trap_LAN_RemoveServer     4002c990 f   ui_syscalls.obj
 0001:0002b9b0       _trap_LAN_ResetPings       4002c9b0 f   ui_syscalls.obj
 0001:0002b9d0       _trap_LAN_SaveCachedServers 4002c9d0 f   ui_syscalls.obj
 0001:0002b9e0       _trap_LAN_ServerIsVisible  4002c9e0 f   ui_syscalls.obj
 0001:0002ba00       _trap_LAN_ServerStatus     4002ca00 f   ui_syscalls.obj
 0001:0002ba20       _trap_LAN_UpdateVisiblePings 4002ca20 f   ui_syscalls.obj
 0001:0002ba40       _trap_Language_IsAsian     4002ca40 f   ui_syscalls.obj
 0001:0002ba50       _trap_Language_UsesSpaces  4002ca50 f   ui_syscalls.obj
 0001:0002ba60       _trap_Milliseconds         4002ca60 f   ui_syscalls.obj
 0001:0002ba70       _trap_PC_FreeSource        4002ca70 f   ui_syscalls.obj
 0001:0002ba90       _trap_PC_LoadGlobalDefines 4002ca90 f   ui_syscalls.obj
 0001:0002bab0       _trap_PC_LoadSource        4002cab0 f   ui_syscalls.obj
 0001:0002bad0       _trap_PC_ReadToken         4002cad0 f   ui_syscalls.obj
 0001:0002baf0       _trap_PC_RemoveAllGlobalDefines 4002caf0 f   ui_syscalls.obj
 0001:0002bb00       _trap_PC_SourceFileAndLine 4002cb00 f   ui_syscalls.obj
 0001:0002bb20       _trap_Print                4002cb20 f   ui_syscalls.obj
 0001:0002bb40       _trap_R_AddRefEntityToScene 4002cb40 f   ui_syscalls.obj
 0001:0002bb60       _trap_R_ClearScene         4002cb60 f   ui_syscalls.obj
 0001:0002bb70       _trap_R_DrawStretchPic     4002cb70 f   ui_syscalls.obj
 0001:0002bbf0       _trap_R_Font_DrawString    4002cbf0 f   ui_syscalls.obj
 0001:0002bc20       _trap_R_Font_HeightPixels  4002cc20 f   ui_syscalls.obj
 0001:0002bc40       _trap_R_Font_StrLenChars   4002cc40 f   ui_syscalls.obj
 0001:0002bc60       _trap_R_Font_StrLenPixels  4002cc60 f   ui_syscalls.obj
 0001:0002bc90       _trap_R_ModelBounds        4002cc90 f   ui_syscalls.obj
 0001:0002bcb0       _trap_R_RegisterFont       4002ccb0 f   ui_syscalls.obj
 0001:0002bcd0       _trap_R_RegisterModel      4002ccd0 f   ui_syscalls.obj
 0001:0002bcf0       _trap_R_RegisterShaderNoMip 4002ccf0 f   ui_syscalls.obj
 0001:0002bd50       _trap_R_RegisterSkin       4002cd50 f   ui_syscalls.obj
 0001:0002bd70       _trap_R_RenderScene        4002cd70 f   ui_syscalls.obj
 0001:0002bd90       _trap_R_SetColor           4002cd90 f   ui_syscalls.obj
 0001:0002bdb0       _trap_R_ShaderNameFromIndex 4002cdb0 f   ui_syscalls.obj
 0001:0002bdd0       _trap_RealTime             4002cdd0 f   ui_syscalls.obj
 0001:0002bdf0       _trap_SP_GetNumLanguages   4002cdf0 f   ui_syscalls.obj
 0001:0002be00       _trap_SP_GetStringTextString 4002ce00 f   ui_syscalls.obj
 0001:0002be20       _trap_S_RegisterSound      4002ce20 f   ui_syscalls.obj
 0001:0002be40       _trap_S_StartBackgroundTrack 4002ce40 f   ui_syscalls.obj
 0001:0002be60       _trap_S_StartLocalSound    4002ce60 f   ui_syscalls.obj
 0001:0002be80       _trap_S_StopBackgroundTrack 4002ce80 f   ui_syscalls.obj
 0001:0002be90       __alloca_probe             4002ce90 f   LIBCMT:chkstk.obj
 0001:0002be90       __chkstk                   4002ce90 f   LIBCMT:chkstk.obj
 0001:0002bec0       __ftol2_sse                4002cec0 f   LIBCMT:ftol2.obj
 0001:0002bed0       __ftoi2                    4002ced0 f   LIBCMT:ftol2.obj
 0001:0002c29a       __DllMainCRTStartup@12     4002d29a f   LIBCMT:dll_dllmain.obj
 0001:0002c2bd       ___isa_available_init      4002d2bd f   LIBCMT:cpu_disp.obj
 0001:0002c624       ___security_init_cookie    4002d624 f   LIBCMT:gs_support.obj
 0001:0002c66f       _DllMain@12                4002d66f f   LIBCMT:dll_dllmain_stub.obj
 0001:0002c675       ?__scrt_initialize_type_info@@YAXXZ 4002d675 f   LIBCMT:tncleanup.obj
 0001:0002c681       ?__scrt_uninitialize_type_info@@YAXXZ 4002d681 f   LIBCMT:tncleanup.obj
 0001:0002c68d       ___scrt_initialize_default_local_stdio_options 4002d68d f   LIBCMT:default_local_stdio_options.obj
 0001:0002c6ec       ___scrt_acquire_startup_lock 4002d6ec f   LIBCMT:utility.obj
 0001:0002c71e       ___scrt_dllmain_after_initialize_c 4002d71e f   LIBCMT:utility.obj
 0001:0002c749       ___scrt_dllmain_before_initialize_c 4002d749 f   LIBCMT:utility.obj
 0001:0002c757       ___scrt_dllmain_crt_thread_attach 4002d757 f   LIBCMT:utility.obj
 0001:0002c776       ___scrt_dllmain_crt_thread_detach 4002d776 f   LIBCMT:utility.obj
 0001:0002c783       ___scrt_dllmain_exception_filter 4002d783 f   LIBCMT:utility.obj
 0001:0002c7b7       ___scrt_dllmain_uninitialize_c 4002d7b7 f   LIBCMT:utility.obj
 0001:0002c7da       ___scrt_dllmain_uninitialize_critical 4002d7da f   LIBCMT:utility.obj
 0001:0002c7e7       ___scrt_initialize_crt     4002d7e7 f   LIBCMT:utility.obj
 0001:0002c820       ___scrt_initialize_onexit_tables 4002d820 f   LIBCMT:utility.obj
 0001:0002c8a7       ___scrt_is_nonwritable_in_current_image 4002d8a7 f   LIBCMT:utility.obj
 0001:0002c93e       ___scrt_release_startup_lock 4002d93e f   LIBCMT:utility.obj
 0001:0002c95b       ___scrt_uninitialize_crt   4002d95b f   LIBCMT:utility.obj
 0001:0002c983       ___scrt_get_dyn_tls_init_callback 4002d983 f   LIBCMT:dyn_tls_init.obj
 0001:0002c989       ___scrt_fastfail           4002d989 f   LIBCMT:utility_desktop.obj
 0001:0002ca9e       __crt_debugger_hook        4002da9e f   LIBCMT:utility_desktop.obj
 0001:0002caa9       __RTC_Initialize           4002daa9 f   LIBCMT:initsect.obj
 0001:0002cad5       __RTC_Terminate            4002dad5 f   LIBCMT:initsect.obj
 0001:0002cb10       __SEH_prolog4              4002db10 f   LIBCMT:sehprolg4.obj
 0001:0002cb55       __get_startup_argv_mode    4002db55 f   LIBCMT:argv_mode.obj
 0001:0002cb59       ___scrt_is_ucrt_dll_in_use 4002db59 f   LIBCMT:ucrt_detection.obj
 0001:0002cb65       @__security_check_cookie@4 4002db65 f   LIBCMT:secchk.obj
 0001:0002cb73       ___raise_securityfailure   4002db73 f   LIBCMT:gs_report.obj
 0001:0002cb9b       ___report_gsfailure        4002db9b f   LIBCMT:gs_report.obj
 0001:0002cca0       _memset                    4002dca0 f   libvcruntime:memset.obj
 0001:0002ce00       _strchr                    4002de00 f   libvcruntime:strchr.obj
 0001:0002ce6e       ___from_strstr_to_strchr   4002de6e     libvcruntime:strchr.obj
 0001:0002cf30       _memcpy                    4002df30 f   libvcruntime:memcpy.obj
 0001:0002cf30       _memmove                   4002df30 f   libvcruntime:memmove.obj
 0001:0002d4b0       _strstr                    4002e4b0 f   libvcruntime:strstr.obj
 0001:0002d720       _strrchr                   4002e720 f   libvcruntime:strrchr.obj
 0001:0002d8a0       __except_handler4          4002e8a0 f   libvcruntime:chandler4.obj
 0001:0002d9fe       ___std_type_info_compare   4002e9fe f   libvcruntime:std_type_info.obj
 0001:0002da3a       ___std_type_info_destroy_list 4002ea3a f   libvcruntime:std_type_info.obj
 0001:0002da5d       ___vcrt_initialize         4002ea5d f   libvcruntime:initialization.obj
 0001:0002da7c       ___vcrt_thread_attach      4002ea7c f   libvcruntime:initialization.obj
 0001:0002da87       ___vcrt_thread_detach      4002ea87 f   libvcruntime:initialization.obj
 0001:0002da8f       ___vcrt_uninitialize       4002ea8f f   libvcruntime:initialization.obj
 0001:0002daa6       ___vcrt_uninitialize_critical 4002eaa6 f   libvcruntime:initialization.obj
 0001:0002daae       ___DestructExceptionObject 4002eaae f   libvcruntime:ehhelpers.obj
 0001:0002db56       ?_CallMemberFunction0@@YGXQAX0@Z 4002eb56 f i libvcruntime:ehhelpers.obj
 0001:0002dbbb       __IsExceptionObjectToBeDestroyed 4002ebbb f   libvcruntime:ehhelpers.obj
 0001:0002dbe1       ___AdjustPointer           4002ebe1 f   libvcruntime:ehhelpers.obj
 0001:0002dc06       ___FrameUnwindFilter       4002ec06 f   libvcruntime:ehhelpers.obj
 0001:0002dc5c       ___std_terminate           4002ec5c f   libvcruntime:ehhelpers.obj
 0001:0002dc70       __local_unwind4            4002ec70 f   libvcruntime:exsup4.obj
 0001:0002dd60       @_EH4_CallFilterFunc@8     4002ed60 f   libvcruntime:exsup4.obj
 0001:0002dd80       @_EH4_TransferToHandler@8  4002ed80 f   libvcruntime:exsup4.obj
 0001:0002dda0       @_EH4_GlobalUnwind2@8      4002eda0 f   libvcruntime:exsup4.obj
 0001:0002ddc0       @_EH4_LocalUnwind@16       4002edc0 f   libvcruntime:exsup4.obj
 0001:0002ddd7       ___except_validate_context_record 4002edd7 f   libvcruntime:jbcxrval.obj
 0001:0002de07       ___vcrt_freefls@4          4002ee07 f   libvcruntime:per_thread_data.obj
 0001:0002de23       ___vcrt_freeptd_for_this_thread 4002ee23 f   libvcruntime:per_thread_data.obj
 0001:0002de4e       ___vcrt_getptd             4002ee4e f   libvcruntime:per_thread_data.obj
 0001:0002de5c       ___vcrt_getptd_noexit      4002ee5c f   libvcruntime:per_thread_data.obj
 0001:0002deee       ___vcrt_initialize_ptd     4002eeee f   libvcruntime:per_thread_data.obj
 0001:0002df21       ___vcrt_uninitialize_ptd   4002ef21 f   libvcruntime:per_thread_data.obj
 0001:0002df3f       ___vcrt_initialize_locks   4002ef3f f   libvcruntime:locks.obj
 0001:0002df7b       ___vcrt_uninitialize_locks 4002ef7b f   libvcruntime:locks.obj
 0001:0002dfb0       __NLG_Notify1              4002efb0 f   libvcruntime:exsup.obj
 0001:0002dfc0       __NLG_Notify               4002efc0 f   libvcruntime:exsup.obj
 0001:0002dfd7       __NLG_Dispatch             4002efd7     libvcruntime:exsup.obj
 0001:0002dfd7       __NLG_Dispatch2            4002efd7     libvcruntime:exsup.obj
 0001:0002dfe0       __NLG_Call                 4002efe0 f   libvcruntime:exsup.obj
 0001:0002dfe2       __NLG_Return2              4002efe2     libvcruntime:exsup.obj
 0001:0002dfe3       ?GetRangeOfTrysToCheck@__FrameHandler3@@SA?AU?$pair@Viterator@TryBlockMap@__FrameHandler3@@V123@@std@@AAVTryBlockMap@1@HPAXPBU_s_FuncInfo@@H@Z 4002efe3 f   libvcruntime:trnsctrl.obj
 0001:0002e052       ?_CallCatchBlock2@@YAPAXPAUEHRegistrationNode@@PBU_s_FuncInfo@@PAXHK@Z 4002f052 f   libvcruntime:trnsctrl.obj
 0001:0002e0b2       ?_CallSETranslator@@YAHPAUEHExceptionRecord@@PAUEHRegistrationNode@@PAX2PBU_s_FuncInfo@@H1@Z 4002f0b2 f   libvcruntime:trnsctrl.obj
 0001:0002e1b1       ?_JumpToContinuation@@YGXPAXPAUEHRegistrationNode@@@Z 4002f1b1 f   libvcruntime:trnsctrl.obj
 0001:0002e1e1       ?_UnwindNestedFrames@@YGXPAUEHRegistrationNode@@PAUEHExceptionRecord@@@Z 4002f1e1 f   libvcruntime:trnsctrl.obj
 0001:0002e235       __CatchGuardHandler        4002f235 f   libvcruntime:trnsctrl.obj
 0001:0002e266       __CreateFrameInfo          4002f266 f   libvcruntime:trnsctrl.obj
 0001:0002e28a       __FindAndUnlinkFrame       4002f28a f   libvcruntime:trnsctrl.obj
 0001:0002e2d2       __TranslatorGuardHandler   4002f2d2 f   libvcruntime:trnsctrl.obj
 0001:0002e371       ___CxxFrameHandler3        4002f371 f   libvcruntime:trnsctrl.obj
 0001:0002e492       ___vcrt_FlsAlloc           4002f492 f   libvcruntime:winapi_downlevel.obj
 0001:0002e4cd       ___vcrt_FlsFree            4002f4cd f   libvcruntime:winapi_downlevel.obj
 0001:0002e508       ___vcrt_FlsGetValue        4002f508 f   libvcruntime:winapi_downlevel.obj
 0001:0002e543       ___vcrt_FlsSetValue        4002f543 f   libvcruntime:winapi_downlevel.obj
 0001:0002e581       ___vcrt_InitializeCriticalSectionEx 4002f581 f   libvcruntime:winapi_downlevel.obj
 0001:0002ecfc       ??$TypeMatchHelper@V__FrameHandler3@@@@YAHPBU_s_HandlerType@@PBU_s_CatchableType@@PBU_s_ThrowInfo@@@Z 4002fcfc f i libvcruntime:frame.obj
 0001:0002ed8a       ??$__InternalCxxFrameHandler@V__FrameHandler3@@@@YA?AW4_EXCEPTION_DISPOSITION@@PAUEHExceptionRecord@@PAUEHRegistrationNode@@PAU_CONTEXT@@PAXPBU_s_FuncInfo@@H1E@Z 4002fd8a f i libvcruntime:frame.obj
 0001:0002ee8c       ??$__InternalCxxFrameHandlerWrapper@V__FrameHandler3@@@@YA?AW4_EXCEPTION_DISPOSITION@@PAUEHExceptionRecord@@PAUEHRegistrationNode@@PAU_CONTEXT@@PAXPBU_s_FuncInfo@@H1E@Z 4002fe8c f i libvcruntime:frame.obj
 0001:0002ee95       ??0bad_exception@std@@QAE@ABV01@@Z 4002fe95 f i libvcruntime:frame.obj
 0001:0002eeb0       ??0bad_exception@std@@QAE@XZ 4002feb0 f i libvcruntime:frame.obj
 0001:0002eece       ??0exception@std@@QAE@ABV01@@Z 4002fece f i libvcruntime:frame.obj
 0001:0002ef00       ??1bad_exception@std@@UAE@XZ 4002ff00 f i libvcruntime:frame.obj
 0001:0002ef11       ??8type_info@@QBE_NABV0@@Z 4002ff11 f i libvcruntime:frame.obj
 0001:0002ef30       ??_Ebad_exception@std@@UAEPAXI@Z 4002ff30 f i libvcruntime:frame.obj
 0001:0002ef30       ??_Eexception@std@@UAEPAXI@Z 4002ff30 f i libvcruntime:frame.obj
 0001:0002ef30       ??_Gbad_exception@std@@UAEPAXI@Z 4002ff30 f i libvcruntime:frame.obj
 0001:0002ef30       ??_Gexception@std@@UAEPAXI@Z 4002ff30 f i libvcruntime:frame.obj
 0001:0002f1b8       ?FrameUnwindToEmptyState@__FrameHandler3@@SAXPAUEHRegistrationNode@@PAXPBU_s_FuncInfo@@@Z 400301b8 f   libvcruntime:frame.obj
 0001:0002f1d0       ?FrameUnwindToState@__FrameHandler3@@SAXPAUEHRegistrationNode@@PAXPBU_s_FuncInfo@@H@Z 400301d0 f   libvcruntime:frame.obj
 0001:0002f358       ?_CallMemberFunction1@@YGXQAX00@Z 40030358 f i libvcruntime:frame.obj
 0001:0002f368       ?_CallMemberFunction2@@YGXQAX00H@Z 40030368 f i libvcruntime:frame.obj
 0001:0002f37b       ?getESTypes@__FrameHandler3@@SAPBU_s_ESTypeList@@PBU_s_FuncInfo@@@Z 4003037b f i libvcruntime:frame.obj
 0001:0002f386       ?what@exception@std@@UBEPBDXZ 40030386 f i libvcruntime:frame.obj
 0001:0002f3a0       __CallSettingFrame@12      400303a0 f   libvcruntime:lowhelpr.obj
 0001:0002f3c7       __NLG_Return               400303c7     libvcruntime:lowhelpr.obj
 0001:0002f3ec       _unexpected                400303ec f   libvcruntime:unexpected.obj
 0001:0002f409       ?GetCurrentState@__FrameHandler3@@SAHPAUEHRegistrationNode@@PAXPBU_s_FuncInfo@@@Z 40030409 f   libvcruntime:ehstate.obj
 0001:0002f426       ?SetState@__FrameHandler3@@SAXPAUEHRegistrationNode@@PBU_s_FuncInfo@@H@Z 40030426 f   libvcruntime:ehstate.obj
 0001:0002f434       ___std_exception_copy      40030434 f   libvcruntime:std_exception.obj
 0001:0002f497       ___std_exception_destroy   40030497 f   libvcruntime:std_exception.obj
 0001:0002f4b9       __CxxThrowException@8      400304b9 f   libvcruntime:throw.obj
 0001:0002f526       ??$is_overflow_condition@K@__crt_strtox@@YA_NIK@Z 40030526 f i libucrt:atox.obj
 0001:0002f55a       ??$is_overflow_condition@_K@__crt_strtox@@YA_NI_K@Z 4003055a f i libucrt:atox.obj
 0001:0002f59b       ??$parse_integer@KV?$c_string_character_source@D@__crt_strtox@@$00@__crt_strtox@@YAKAAV__crt_cached_ptd_host@@V?$c_string_character_source@D@0@H_N@Z 4003059b f i libucrt:atox.obj
 0001:0002f7e6       ??$parse_integer@_KV?$c_string_character_source@D@__crt_strtox@@$00@__crt_strtox@@YA_KAAV__crt_cached_ptd_host@@V?$c_string_character_source@D@0@H_N@Z 400307e6 f i libucrt:atox.obj
 0001:0002faa0       ??0__crt_cached_ptd_host@@QAE@QAU__crt_locale_pointers@@@Z 40030aa0 f i libucrt:atox.obj
 0001:0002fb00       ??1__crt_cached_ptd_host@@QAE@XZ 40030b00 f i libucrt:atox.obj
 0001:0002fb40       ?force_synchronize_per_thread_data@__crt_cached_ptd_host@@AAEPAU__acrt_ptd@@XZ 40030b40 f i libucrt:atox.obj
 0001:0002fb90       ?get_raw_ptd@__crt_cached_ptd_host@@QAEPAU__acrt_ptd@@XZ 40030b90 f i libucrt:atox.obj
 0001:0002fbec       ?unget@?$c_string_character_source@D@__crt_strtox@@QAEXD@Z 40030bec f i libucrt:atox.obj
 0001:0002fc20       ?update_locale_slow@__crt_cached_ptd_host@@AAEXXZ 40030c20 f i libucrt:atox.obj
 0001:0002fc7b       ?validate@?$c_string_character_source@D@__crt_strtox@@QBE_NXZ 40030c7b f i libucrt:atox.obj
 0001:0002fc96       ___acrt_locale_get_ctype_array_value 40030c96 f i libucrt:atox.obj
 0001:0002fcb8       __ischartype_l             40030cb8 f i libucrt:atox.obj
 0001:0002fd0f       _atoi                      40030d0f f   libucrt:atox.obj
 0001:0002fd50       __CIatan2                  40030d50 f   libucrt:87ctriga.obj
 0001:0002fd60       __libm_sse2_cos_precise    40030d60 f   libucrt:cos_sse2_precise.obj
 0001:0002ff20       __libm_sse2_sin_precise    40030f20 f   libucrt:sin_sse2_precise.obj
 0001:000300e8       ??$assemble_floating_point_snan@N@__crt_strtox@@YAX_NAAN@Z 400310e8 f i libucrt:atof.obj
 0001:00030109       ??$assemble_floating_point_value_t@M@__crt_strtox@@YA?AW4SLD_STATUS@@_NH_KAAM@Z 40031109 f i libucrt:atof.obj
 0001:00030148       ??$assemble_floating_point_value_t@N@__crt_strtox@@YA?AW4SLD_STATUS@@_NH_KAAN@Z 40031148 f i libucrt:atof.obj
 0001:000301fb       ??$convert_decimal_string_to_floating_type@M@__crt_strtox@@YA?AW4SLD_STATUS@@ABUfloating_point_string@0@AAM@Z 400311fb f i libucrt:atof.obj
 0001:0003021c       ??$convert_decimal_string_to_floating_type@N@__crt_strtox@@YA?AW4SLD_STATUS@@ABUfloating_point_string@0@AAN@Z 4003121c f i libucrt:atof.obj
 0001:0003023d       ??$convert_hexadecimal_string_to_floating_type@M@__crt_strtox@@YA?AW4SLD_STATUS@@ABUfloating_point_string@0@AAM@Z 4003123d f i libucrt:atof.obj
 0001:0003025e       ??$convert_hexadecimal_string_to_floating_type@N@__crt_strtox@@YA?AW4SLD_STATUS@@ABUfloating_point_string@0@AAN@Z 4003125e f i libucrt:atof.obj
 0001:0003027f       ??$parse_floating_point@V?$c_string_character_source@D@__crt_strtox@@N@__crt_strtox@@YA?AW4SLD_STATUS@@QAU__crt_locale_pointers@@V?$c_string_character_source@D@0@QAN@Z 4003127f f i libucrt:atof.obj
 0001:000302ff       ??$parse_floating_point_from_source@V?$c_string_character_source@D@__crt_strtox@@@__crt_strtox@@YA?AW4floating_point_parse_result@0@QAU__crt_locale_pointers@@AAV?$c_string_character_source@D@0@AAUfloating_point_string@0@@Z 400312ff f i libucrt:atof.obj
 0001:00030727       ??$parse_floating_point_possible_infinity@DV?$c_string_character_source@D@__crt_strtox@@PBD@__crt_strtox@@YA?AW4floating_point_parse_result@0@AADAAV?$c_string_character_source@D@0@PBD@Z 40031727 f i libucrt:atof.obj
 0001:000307d9       ??$parse_floating_point_possible_nan@DV?$c_string_character_source@D@__crt_strtox@@PBD@__crt_strtox@@YA?AW4floating_point_parse_result@0@AADAAV?$c_string_character_source@D@0@PBD@Z 400317d9 f i libucrt:atof.obj
 0001:000308dd       ??$parse_floating_point_possible_nan_is_ind@DV?$c_string_character_source@D@__crt_strtox@@@__crt_strtox@@YA_NAADAAV?$c_string_character_source@D@0@@Z 400318dd f i libucrt:atof.obj
 0001:00030919       ??$parse_floating_point_possible_nan_is_snan@DV?$c_string_character_source@D@__crt_strtox@@@__crt_strtox@@YA_NAADAAV?$c_string_character_source@D@0@@Z 40031919 f i libucrt:atof.obj
 0001:00030955       ??$parse_floating_point_write_result@M@__crt_strtox@@YA?AW4SLD_STATUS@@W4floating_point_parse_result@0@ABUfloating_point_string@0@QAM@Z 40031955 f i libucrt:atof.obj
 0001:00030a9d       ??$parse_floating_point_write_result@N@__crt_strtox@@YA?AW4SLD_STATUS@@W4floating_point_parse_result@0@ABUfloating_point_string@0@QAN@Z 40031a9d f i libucrt:atof.obj
 0001:00030bc1       ??0_LocaleUpdate@@QAE@QAU__crt_locale_pointers@@@Z 40031bc1 f i libucrt:atof.obj
 0001:00030c43       ??R<lambda_32aa245da1b5b882fa96db788295c8b2>@@QBE@XZ 40031c43 f i libucrt:atof.obj
 0001:00030c43       ??R<lambda_690cf26ff5d754c94c32cf642e9f01bc>@@QBE@XZ 40031c43 f i libucrt:atof.obj
 0001:00030c43       ??R<lambda_e51f7abad2595a5950d3223319845217>@@QBE@XZ 40031c43 f i libucrt:atof.obj
 0001:00030c69       ?as_double@floating_point_value@__crt_strtox@@QBEAANXZ 40031c69 f i libucrt:atof.obj
 0001:00030c8e       ?as_float@floating_point_value@__crt_strtox@@QBEAAMXZ 40031c8e f i libucrt:atof.obj
 0001:00030cb3       ?assemble_floating_point_infinity@__crt_strtox@@YAX_NABVfloating_point_value@1@@Z 40031cb3 f i libucrt:atof.obj
 0001:00030cf3       ?assemble_floating_point_value@__crt_strtox@@YA?AW4SLD_STATUS@@_KH_N1ABVfloating_point_value@1@@Z 40031cf3 f i libucrt:atof.obj
 0001:0003108c       ?assemble_floating_point_value_from_big_integer@__crt_strtox@@YA?AW4SLD_STATUS@@ABUbig_integer@1@I_N1ABVfloating_point_value@1@@Z 4003208c f i libucrt:atof.obj
 0001:00031229       ?assemble_floating_point_zero@__crt_strtox@@YAX_NABVfloating_point_value@1@@Z 40032229 f i libucrt:atof.obj
 0001:0003125e       ?convert_decimal_string_to_floating_type_common@__crt_strtox@@YA?AW4SLD_STATUS@@ABUfloating_point_string@1@ABVfloating_point_value@1@@Z 4003225e f i libucrt:atof.obj
 0001:00032f5d       ?convert_hexadecimal_string_to_floating_type_common@__crt_strtox@@YA?AW4SLD_STATUS@@ABUfloating_point_string@1@ABVfloating_point_value@1@@Z 40033f5d f i libucrt:atof.obj
 0001:0003300e       ?denormal_mantissa_mask@floating_point_value@__crt_strtox@@QBE_KXZ 4003400e f i libucrt:atof.obj
 0001:00033030       ?divide@__crt_strtox@@YA_KAAUbig_integer@1@ABU21@@Z 40034030 f i libucrt:atof.obj
 0001:00033507       ?normal_mantissa_mask@floating_point_value@__crt_strtox@@QBE_KXZ 40034507 f i libucrt:atof.obj
 0001:0003351e       _atof                      4003451e f   libucrt:atof.obj
 0001:000335c0       __CIfmod                   400345c0 f   libucrt:87fmod_impl.obj
 0001:000335d0       __fFMOD                    400345d0 f   libucrt:87fmod_impl.obj
 0001:000335e0       __libm_sse2_acos_precise   400345e0 f   libucrt:acos_sse2_precise.obj
 0001:00033b00       __libm_sse2_sqrt_precise   40034b00 f   libucrt:sqrt_sse2_precise.obj
 0001:00033d74       ??$count@D@formatting_buffer@__crt_stdio_output@@QBEIXZ 40034d74 f i libucrt:output.obj
 0001:00033d8c       ??$ensure_buffer_is_big_enough@D@formatting_buffer@__crt_stdio_output@@QAE_NIAAV__crt_cached_ptd_host@@@Z 40034d8c f i libucrt:output.obj
 0001:00033e0c       ??$is_wide_character_specifier@D@__crt_stdio_output@@YA_N_KDW4length_modifier@0@@Z 40034e0c f i libucrt:output.obj
 0001:00033e3d       ??$make_c_string_character_source@DPAPAD@__crt_strtox@@YA?AV?$c_string_character_source@D@0@QBDQAPAD@Z 40034e3d f i libucrt:output.obj
 0001:00033e58       ??$parse_integer@KV?$c_string_character_source@D@__crt_strtox@@$0A@@__crt_strtox@@YAKAAV__crt_cached_ptd_host@@V?$c_string_character_source@D@0@H_N@Z 40034e58 f i libucrt:output.obj
 0001:0003406b       ??$scratch_data@D@formatting_buffer@__crt_stdio_output@@QAEPADXZ 4003506b f i libucrt:output.obj
 0001:00034089       ??$type_case_integer@$07@?$output_processor@DV?$string_output_adapter@D@__crt_stdio_output@@V?$standard_base@DV?$string_output_adapter@D@__crt_stdio_output@@@2@@__crt_stdio_output@@AAE_N_N@Z 40035089 f i libucrt:output.obj
 0001:00034216       ??$type_case_integer@$09@?$output_processor@DV?$string_output_adapter@D@__crt_stdio_output@@V?$standard_base@DV?$string_output_adapter@D@__crt_stdio_output@@@2@@__crt_stdio_output@@AAE_N_N@Z 40035216 f i libucrt:output.obj
 0001:000343a3       ??$type_case_integer@$0BA@@?$output_processor@DV?$string_output_adapter@D@__crt_stdio_output@@V?$standard_base@DV?$string_output_adapter@D@__crt_stdio_output@@@2@@__crt_stdio_output@@AAE_N_N@Z 400353a3 f i libucrt:output.obj
 0001:00034530       ??$type_case_integer_parse_into_buffer@I$07@?$output_processor@DV?$string_output_adapter@D@__crt_stdio_output@@V?$standard_base@DV?$string_output_adapter@D@__crt_stdio_output@@@2@@__crt_stdio_output@@AAEXI_N@Z 40035530 f i libucrt:output.obj
 0001:00034592       ??$type_case_integer_parse_into_buffer@I$09@?$output_processor@DV?$string_output_adapter@D@__crt_stdio_output@@V?$standard_base@DV?$string_output_adapter@D@__crt_stdio_output@@@2@@__crt_stdio_output@@AAEXI_N@Z 40035592 f i libucrt:output.obj
 0001:00034611       ??$type_case_integer_parse_into_buffer@I$0BA@@?$output_processor@DV?$string_output_adapter@D@__crt_stdio_output@@V?$standard_base@DV?$string_output_adapter@D@__crt_stdio_output@@@2@@__crt_stdio_output@@AAEXI_N@Z 40035611 f i libucrt:output.obj
 0001:0003468d       ??$type_case_integer_parse_into_buffer@_K$07@?$output_processor@DV?$string_output_adapter@D@__crt_stdio_output@@V?$standard_base@DV?$string_output_adapter@D@__crt_stdio_output@@@2@@__crt_stdio_output@@AAEX_K_N@Z 4003568d f i libucrt:output.obj
 0001:00034701       ??$type_case_integer_parse_into_buffer@_K$09@?$output_processor@DV?$string_output_adapter@D@__crt_stdio_output@@V?$standard_base@DV?$string_output_adapter@D@__crt_stdio_output@@@2@@__crt_stdio_output@@AAEX_K_N@Z 40035701 f i libucrt:output.obj
 0001:00034793       ??$type_case_integer_parse_into_buffer@_K$0BA@@?$output_processor@DV?$string_output_adapter@D@__crt_stdio_output@@V?$standard_base@DV?$string_output_adapter@D@__crt_stdio_output@@@2@@__crt_stdio_output@@AAEX_K_N@Z 40035793 f i libucrt:output.obj
 0001:00034819       ??0?$output_adapter_data@DV?$string_output_adapter@D@__crt_stdio_output@@@__crt_stdio_output@@IAE@ABV?$string_output_adapter@D@1@_KQBDAAV__crt_cached_ptd_host@@QAD@Z 40035819 f i libucrt:output.obj
 0001:00034880       ??1formatting_buffer@__crt_stdio_output@@QAE@XZ 40035880 f i libucrt:output.obj
 0001:0003489a       ??4?$__crt_unique_heap_ptr@DU__crt_internal_free_policy@@@@QAEAAV0@$$QAV0@@Z 4003589a f i libucrt:output.obj
 0001:000348be       ?crop_zeroes@__crt_stdio_output@@YAXPADQAU__crt_locale_pointers@@@Z 400358be f i libucrt:output.obj
 0001:00034928       ?find_next_state@?$output_processor@DV?$string_output_adapter@D@__crt_stdio_output@@V?$standard_base@DV?$string_output_adapter@D@__crt_stdio_output@@@2@@__crt_stdio_output@@ABE?AW4state@2@DW432@@Z 40035928 f i libucrt:output.obj
 0001:00034963       ?force_decimal_point@__crt_stdio_output@@YAXPADQAU__crt_locale_pointers@@@Z 40035963 f i libucrt:output.obj
 0001:000349c5       ?parse_int_from_format_string@?$output_processor@DV?$string_output_adapter@D@__crt_stdio_output@@V?$standard_base@DV?$string_output_adapter@D@__crt_stdio_output@@@2@@__crt_stdio_output@@AAE_NQAH@Z 400359c5 f i libucrt:output.obj
 0001:00034a3d       ?process@?$output_processor@DV?$string_output_adapter@D@__crt_stdio_output@@V?$standard_base@DV?$string_output_adapter@D@__crt_stdio_output@@@2@@__crt_stdio_output@@QAEHXZ 40035a3d f i libucrt:output.obj
 0001:00034d11       ?state_case_size@?$output_processor@DV?$string_output_adapter@D@__crt_stdio_output@@V?$standard_base@DV?$string_output_adapter@D@__crt_stdio_output@@@2@@__crt_stdio_output@@AAE_NXZ 40035d11 f i libucrt:output.obj
 0001:00034e6a       ?state_case_type@?$output_processor@DV?$string_output_adapter@D@__crt_stdio_output@@V?$standard_base@DV?$string_output_adapter@D@__crt_stdio_output@@@2@@__crt_stdio_output@@AAE_NXZ 40035e6a f i libucrt:output.obj
 0001:000352a9       ?to_integer_size@__crt_stdio_output@@YAIW4length_modifier@1@@Z 400362a9 f i libucrt:output.obj
 0001:000352fd       ?type_case_Z@?$output_processor@DV?$string_output_adapter@D@__crt_stdio_output@@V?$standard_base@DV?$string_output_adapter@D@__crt_stdio_output@@@2@@__crt_stdio_output@@AAE_NXZ 400362fd f i libucrt:output.obj
 0001:00035370       ?type_case_a@?$output_processor@DV?$string_output_adapter@D@__crt_stdio_output@@V?$standard_base@DV?$string_output_adapter@D@__crt_stdio_output@@@2@@__crt_stdio_output@@AAE_NXZ 40036370 f i libucrt:output.obj
 0001:00035527       ?type_case_c_tchar@?$output_processor@DV?$string_output_adapter@D@__crt_stdio_output@@V?$standard_base@DV?$string_output_adapter@D@__crt_stdio_output@@@2@@__crt_stdio_output@@AAE_ND@Z 40036527 f i libucrt:output.obj
 0001:000355b3       ?type_case_n@?$output_processor@DV?$string_output_adapter@D@__crt_stdio_output@@V?$standard_base@DV?$string_output_adapter@D@__crt_stdio_output@@@2@@__crt_stdio_output@@AAE_NXZ 400365b3 f i libucrt:output.obj
 0001:00035638       ?type_case_o@?$output_processor@DV?$string_output_adapter@D@__crt_stdio_output@@V?$standard_base@DV?$string_output_adapter@D@__crt_stdio_output@@@2@@__crt_stdio_output@@AAE_NXZ 40036638 f i libucrt:output.obj
 0001:00035655       ?type_case_p@?$output_processor@DV?$string_output_adapter@D@__crt_stdio_output@@V?$standard_base@DV?$string_output_adapter@D@__crt_stdio_output@@@2@@__crt_stdio_output@@AAE_NXZ 40036655 f i libucrt:output.obj
 0001:0003566b       ?type_case_s@?$output_processor@DV?$string_output_adapter@D@__crt_stdio_output@@V?$standard_base@DV?$string_output_adapter@D@__crt_stdio_output@@@2@@__crt_stdio_output@@AAE_NXZ 4003666b f i libucrt:output.obj
 0001:000356de       ?validate@?$string_output_adapter@D@__crt_stdio_output@@QBE_NAAV__crt_cached_ptd_host@@@Z 400366de f i libucrt:output.obj
 0001:0003570f       ?write_string@?$string_output_adapter@D@__crt_stdio_output@@QBEXQBDHQAHAAV__crt_cached_ptd_host@@@Z 4003670f f i libucrt:output.obj
 0001:0003577e       ___stdio_common_vsprintf   4003677e f   libucrt:output.obj
 0001:000357c0       _strncpy                   400367c0 f   libucrt:strncpy.obj
 0001:000358f0       _free                      400368f0 f   libucrt:free.obj
 0001:00035900       _malloc                    40036900 f   libucrt:malloc.obj
 0001:0003590b       __tolower_l                4003690b f   libucrt:tolower_toupper.obj
 0001:00035a09       __toupper_l                40036a09 f   libucrt:tolower_toupper.obj
 0001:00035b07       _tolower                   40036b07 f   libucrt:tolower_toupper.obj
 0001:00035b37       _toupper                   40036b37 f   libucrt:tolower_toupper.obj
 0001:00035c1b       ??$make_input_adapter_character_source@V?$string_input_adapter@D@__crt_stdio_input@@@__crt_strtox@@YA?AV?$input_adapter_character_source@V?$string_input_adapter@D@__crt_stdio_input@@@0@QAV?$string_input_adapter@D@__crt_stdio_input@@_KQA_N@Z 40036c1b f i libucrt:input.obj
 0001:00035c39       ??$parse_floating_point@V?$input_adapter_character_source@V?$string_input_adapter@D@__crt_stdio_input@@@__crt_strtox@@M@__crt_strtox@@YA?AW4SLD_STATUS@@QAU__crt_locale_pointers@@V?$input_adapter_character_source@V?$string_input_adapter@D@__crt_stdio_input@@@0@QAM@Z 40036c39 f i libucrt:input.obj
 0001:00035cc3       ??$parse_floating_point@V?$input_adapter_character_source@V?$string_input_adapter@D@__crt_stdio_input@@@__crt_strtox@@N@__crt_strtox@@YA?AW4SLD_STATUS@@QAU__crt_locale_pointers@@V?$input_adapter_character_source@V?$string_input_adapter@D@__crt_stdio_input@@@0@QAN@Z 40036cc3 f i libucrt:input.obj
 0001:00035d4d       ??$parse_floating_point_from_source@V?$input_adapter_character_source@V?$string_input_adapter@D@__crt_stdio_input@@@__crt_strtox@@@__crt_strtox@@YA?AW4floating_point_parse_result@0@QAU__crt_locale_pointers@@AAV?$input_adapter_character_source@V?$string_input_adapter@D@__crt_stdio_input@@@0@AAUfloating_point_string@0@@Z 40036d4d f i libucrt:input.obj
 0001:000361ba       ??$parse_floating_point_possible_infinity@DV?$input_adapter_character_source@V?$string_input_adapter@D@__crt_stdio_input@@@__crt_strtox@@_K@__crt_strtox@@YA?AW4floating_point_parse_result@0@AADAAV?$input_adapter_character_source@V?$string_input_adapter@D@__crt_stdio_input@@@0@_K@Z 400371ba f i libucrt:input.obj
 0001:00036275       ??$parse_floating_point_possible_nan@DV?$input_adapter_character_source@V?$string_input_adapter@D@__crt_stdio_input@@@__crt_strtox@@_K@__crt_strtox@@YA?AW4floating_point_parse_result@0@AADAAV?$input_adapter_character_source@V?$string_input_adapter@D@__crt_stdio_input@@@0@_K@Z 40037275 f i libucrt:input.obj
 0001:0003637d       ??$parse_floating_point_possible_nan_is_ind@DV?$input_adapter_character_source@V?$string_input_adapter@D@__crt_stdio_input@@@__crt_strtox@@@__crt_strtox@@YA_NAADAAV?$input_adapter_character_source@V?$string_input_adapter@D@__crt_stdio_input@@@0@@Z 4003737d f i libucrt:input.obj
 0001:000363b7       ??$parse_floating_point_possible_nan_is_snan@DV?$input_adapter_character_source@V?$string_input_adapter@D@__crt_stdio_input@@@__crt_strtox@@@__crt_strtox@@YA_NAADAAV?$input_adapter_character_source@V?$string_input_adapter@D@__crt_stdio_input@@@0@@Z 400373b7 f i libucrt:input.obj
 0001:000363f1       ??$parse_integer@_KV?$input_adapter_character_source@V?$string_input_adapter@D@__crt_stdio_input@@@__crt_strtox@@$00@__crt_strtox@@YA_KAAV__crt_cached_ptd_host@@V?$input_adapter_character_source@V?$string_input_adapter@D@__crt_stdio_input@@@0@H_N@Z 400373f1 f i libucrt:input.obj
 0001:000366e5       ??$parse_integer@_KV?$input_adapter_character_source@V?$string_input_adapter@D@__crt_stdio_input@@@__crt_strtox@@@__crt_strtox@@YA_KQAU__crt_locale_pointers@@V?$input_adapter_character_source@V?$string_input_adapter@D@__crt_stdio_input@@@0@H_N@Z 400376e5 f i libucrt:input.obj
 0001:00036741       ??$process_floating_point_specifier_t@M@?$input_processor@DV?$string_input_adapter@D@__crt_stdio_input@@@__crt_stdio_input@@AAE_NXZ 40037741 f i libucrt:input.obj
 0001:000367a9       ??$process_floating_point_specifier_t@N@?$input_processor@DV?$string_input_adapter@D@__crt_stdio_input@@@__crt_stdio_input@@AAE_NXZ 400377a9 f i libucrt:input.obj
 0001:00036815       ??$process_string_specifier_tchar@D@?$input_processor@DV?$string_input_adapter@D@__crt_stdio_input@@@__crt_stdio_input@@AAE_NW4conversion_mode@1@D@Z 40037815 f i libucrt:input.obj
 0001:00036981       ??$process_string_specifier_tchar@_W@?$input_processor@DV?$string_input_adapter@D@__crt_stdio_input@@@__crt_stdio_input@@AAE_NW4conversion_mode@1@_W@Z 40037981 f i libucrt:input.obj
 0001:00036af9       ??$skip_whitespace@Vstring_input_adapter@__crt_stdio_input@@D@__crt_stdio_input@@YAHAAV?$string_input_adapter@D@0@QAU__crt_locale_pointers@@@Z 40037af9 f i libucrt:input.obj
 0001:00036b28       ??$write_floating_point@M@?$input_processor@DV?$string_input_adapter@D@__crt_stdio_input@@@__crt_stdio_input@@AAE_NABM@Z 40037b28 f i libucrt:input.obj
 0001:00036b5d       ??$write_floating_point@N@?$input_processor@DV?$string_input_adapter@D@__crt_stdio_input@@@__crt_stdio_input@@AAE_NABN@Z 40037b5d f i libucrt:input.obj
 0001:00036b98       ??0?$format_string_parser@D@__crt_stdio_input@@QAE@_KQBE@Z 40037b98 f i libucrt:input.obj
 0001:00036be2       ??0?$input_adapter_character_source@V?$string_input_adapter@D@__crt_stdio_input@@@__crt_strtox@@QAE@$$QAV01@@Z 40037be2 f i libucrt:input.obj
 0001:00036c1f       ??0?$input_adapter_character_source@V?$string_input_adapter@D@__crt_stdio_input@@@__crt_strtox@@QAE@QAV?$string_input_adapter@D@__crt_stdio_input@@_KQA_N@Z 40037c1f f i libucrt:input.obj
 0001:00036c50       ??0?$input_processor@DV?$string_input_adapter@D@__crt_stdio_input@@@__crt_stdio_input@@QAE@ABV?$string_input_adapter@D@1@_KQBDQAU__crt_locale_pointers@@QAD@Z 40037c50 f i libucrt:input.obj
 0001:00036c94       ??R<lambda_644f8ab42ed3fd1d660977a2364b3a7d>@@QBE@XZ 40037c94 f i libucrt:input.obj
 0001:00036c94       ??R<lambda_f1fa4c266c18b246f3ed9c36247dab4f>@@QBE@XZ 40037c94 f i libucrt:input.obj
 0001:00036c94       ??R<lambda_f765c90ab33e8386abf09c0f079d37e9>@@QBE@XZ 40037c94 f i libucrt:input.obj
 0001:00036cbe       ?advance@?$format_string_parser@D@__crt_stdio_input@@QAE_NXZ 40037cbe f i libucrt:input.obj
 0001:00036dd6       ?get@?$input_adapter_character_source@V?$string_input_adapter@D@__crt_stdio_input@@@__crt_strtox@@QAEDXZ 40037dd6 f i libucrt:input.obj
 0001:00036e17       ?get@?$string_input_adapter@D@__crt_stdio_input@@QAEHXZ 40037e17 f i libucrt:input.obj
 0001:00036e2d       ?is_character_allowed_in_string@?$input_processor@DV?$string_input_adapter@D@__crt_stdio_input@@@__crt_stdio_input@@ABE_NW4conversion_mode@2@H@Z 40037e2d f i libucrt:input.obj
 0001:00036e7d       ?length@?$format_string_parser@D@__crt_stdio_input@@QBEIXZ 40037e7d f i libucrt:input.obj
 0001:00036ecb       ?process@?$input_processor@DV?$string_input_adapter@D@__crt_stdio_input@@@__crt_stdio_input@@QAEHXZ 40037ecb f i libucrt:input.obj
 0001:00036f50       ?process_character_count_specifier@?$input_processor@DV?$string_input_adapter@D@__crt_stdio_input@@@__crt_stdio_input@@AAE_NXZ 40037f50 f i libucrt:input.obj
 0001:00036f68       ?process_conversion_specifier@?$input_processor@DV?$string_input_adapter@D@__crt_stdio_input@@@__crt_stdio_input@@AAE_NXZ 40037f68 f i libucrt:input.obj
 0001:00036fdc       ?process_floating_point_specifier@?$input_processor@DV?$string_input_adapter@D@__crt_stdio_input@@@__crt_stdio_input@@AAE_NXZ 40037fdc f i libucrt:input.obj
 0001:0003700c       ?process_integer_specifier@?$input_processor@DV?$string_input_adapter@D@__crt_stdio_input@@@__crt_stdio_input@@AAE_NI_N@Z 4003800c f i libucrt:input.obj
 0001:00037071       ?process_literal_character@?$input_processor@DV?$string_input_adapter@D@__crt_stdio_input@@@__crt_stdio_input@@AAE_NXZ 40038071 f i libucrt:input.obj
 0001:000370a7       ?process_literal_character_tchar@?$input_processor@DV?$string_input_adapter@D@__crt_stdio_input@@@__crt_stdio_input@@AAE_ND@Z 400380a7 f i libucrt:input.obj
 0001:000370f5       ?process_state@?$input_processor@DV?$string_input_adapter@D@__crt_stdio_input@@@__crt_stdio_input@@AAE_NXZ 400380f5 f i libucrt:input.obj
 0001:00037137       ?process_string_specifier@?$input_processor@DV?$string_input_adapter@D@__crt_stdio_input@@@__crt_stdio_input@@AAE_NW4conversion_mode@2@@Z 40038137 f i libucrt:input.obj
 0001:0003717f       ?process_whitespace@?$input_processor@DV?$string_input_adapter@D@__crt_stdio_input@@@__crt_stdio_input@@AAE_NXZ 4003817f f i libucrt:input.obj
 0001:0003719c       ?restore_state@?$input_adapter_character_source@V?$string_input_adapter@D@__crt_stdio_input@@@__crt_strtox@@QAE_N_K@Z 4003819c f i libucrt:input.obj
 0001:000371c1       ?scan_conversion_specifier@?$format_string_parser@D@__crt_stdio_input@@AAE_NXZ 400381c1 f i libucrt:input.obj
 0001:0003733d       ?scan_optional_field_width@?$format_string_parser@D@__crt_stdio_input@@AAE_NXZ 4003833d f i libucrt:input.obj
 0001:000373d1       ?scan_optional_length_modifier@?$format_string_parser@D@__crt_stdio_input@@AAEXXZ 400383d1 f i libucrt:input.obj
 0001:000374e6       ?scan_optional_literal_character_trail_bytes_tchar@?$format_string_parser@D@__crt_stdio_input@@AAE_ND@Z 400384e6 f i libucrt:input.obj
 0001:00037538       ?scan_optional_wide_modifier@?$format_string_parser@D@__crt_stdio_input@@AAEXXZ 40038538 f i libucrt:input.obj
 0001:00037556       ?scan_scanset_range@?$format_string_parser@D@__crt_stdio_input@@AAE_NXZ 40038556 f i libucrt:input.obj
 0001:000376a6       ?set@?$scanset_buffer@E@__crt_stdio_input@@QAEXE@Z 400386a6 f i libucrt:input.obj
 0001:000376d1       ?set_wide_for_c_s_or_scanset@?$format_string_parser@D@__crt_stdio_input@@AAEXXZ 400386d1 f i libucrt:input.obj
 0001:000376f2       ?to_floating_point_length@__crt_stdio_input@@YAIW4length_modifier@1@@Z 400386f2 f i libucrt:input.obj
 0001:00037715       ?to_integer_length@__crt_stdio_input@@YAIW4length_modifier@1@@Z 40038715 f i libucrt:input.obj
 0001:00037768       ?unget@?$input_adapter_character_source@V?$string_input_adapter@D@__crt_stdio_input@@@__crt_strtox@@QAEXD@Z 40038768 f i libucrt:input.obj
 0001:000377af       ?unget@?$string_input_adapter@D@__crt_stdio_input@@QAEXH@Z 400387af f i libucrt:input.obj
 0001:000377ce       ?validate@?$format_string_parser@D@__crt_stdio_input@@QBE_NXZ 400387ce f i libucrt:input.obj
 0001:000377ea       ?validate@?$input_adapter_character_source@V?$string_input_adapter@D@__crt_stdio_input@@@__crt_strtox@@QBE_NXZ 400387ea f i libucrt:input.obj
 0001:0003780b       ?validate@?$string_input_adapter@D@__crt_stdio_input@@QAE_NXZ 4003880b f i libucrt:input.obj
 0001:0003782d       ?write_character@?$input_processor@DV?$string_input_adapter@D@__crt_stdio_input@@@__crt_stdio_input@@AAE_NQA_WIAAPA_WAAID@Z 4003882d f i libucrt:input.obj
 0001:0003789a       ?write_integer@?$input_processor@DV?$string_input_adapter@D@__crt_stdio_input@@@__crt_stdio_input@@AAE_N_K@Z 4003889a f i libucrt:input.obj
 0001:00037909       ___stdio_common_vsscanf    40038909 f   libucrt:input.obj
 0001:00037930       _realloc                   40038930 f   libucrt:realloc.obj
 0001:00037940       _qsort                     40038940 f   libucrt:qsort.obj
 0001:00037d80       __ceil_no_sse41            40038d80 f   libucrt:ceil_pentium4.obj
 0001:00037dc0       _ceil                      40038dc0 f   libucrt:ceil_pentium4.obj
 0001:00037de0       __ceil_pentium4            40038de0 f   libucrt:ceil_pentium4.obj
 0001:00037ec0       __floor_no_sse41           40038ec0 f   libucrt:floor_pentium4.obj
 0001:00037f00       _floor                     40038f00 f   libucrt:floor_pentium4.obj
 0001:00037f20       __floor_pentium4           40038f20 f   libucrt:floor_pentium4.obj
 0001:00037fdd       _rand                      40038fdd f   libucrt:rand.obj
 0001:00038094       _strtod                    40039094 f   libucrt:strtod.obj
 0001:000380b0       __libm_sse2_tan_precise    400390b0 f   libucrt:tan_sse2_precise.obj
 0001:00038320       __initterm                 40039320 f   libucrt:initterm.obj
 0001:0003834b       __initterm_e               4003934b f   libucrt:initterm.obj
 0001:00038379       __seh_filter_dll           40039379 f   libucrt:exception_filter.obj
 0001:00038399       __seh_filter_exe           40039399 f   libucrt:exception_filter.obj
 0001:0003852c       ??$__crt_fast_decode_pointer@P6AHI@Z@@YAP6AHI@ZQ6AHI@Z@Z 4003952c f i libucrt:new_handler.obj
 0001:0003852c       ??$__crt_fast_decode_pointer@P6AXH@Z@@YAP6AXH@ZQ6AXH@Z@Z 4003952c f i libucrt:signal.obj
 0001:0003852c       ??$__crt_fast_decode_pointer@P6GXPAXK0@Z@@YAP6GXPAXK0@ZQ6GX0K0@Z@Z 4003952c f i libucrt:exit.obj
 0001:000387df       ___acrt_initialize_thread_local_exit_callback 400397df f   libucrt:exit.obj
 0001:000387ee       __cexit                    400397ee f   libucrt:exit.obj
 0001:000387fd       __exit                     400397fd f   libucrt:exit.obj
 0001:00038813       __is_c_termination_complete 40039813 f   libucrt:exit.obj
 0001:00038ac9       ___acrt_allocate_buffer_for_argv 40039ac9 f   libucrt:argv_parsing.obj
 0001:00038b18       __configure_narrow_argv    40039b18 f   libucrt:argv_parsing.obj
 0001:00038cc7       ___dcrt_uninitialize_environments_nolock 40039cc7 f   libucrt:environment_initialization.obj
 0001:00038d18       __initialize_narrow_environment 40039d18 f   libucrt:environment_initialization.obj
 0001:00038e52       __execute_onexit_table     40039e52 f   libucrt:onexit.obj
 0001:00038e90       __initialize_onexit_table  40039e90 f   libucrt:onexit.obj
 0001:00038ee0       ___acrt_uninitialize_command_line 40039ee0 f   libucrt:argv_data.obj
 0001:00038fb7       ___acrt_initialize         40039fb7 f   libucrt:initialization.obj
 0001:00038fc9       ___acrt_thread_attach      40039fc9 f   libucrt:initialization.obj
 0001:00038fd4       ___acrt_thread_detach      40039fd4 f   libucrt:initialization.obj
 0001:00038fdd       ___acrt_uninitialize       40039fdd f   libucrt:initialization.obj
 0001:0003900d       ___acrt_uninitialize_critical 4003a00d f   libucrt:initialization.obj
 0001:0003901f       _terminate                 4003a01f f   libucrt:terminate.obj
 0001:00039060       _strcpy_s                  4003a060 f   libucrt:strcpy_s.obj
 0001:000390ef       _abort                     4003a0ef f   libucrt:abort.obj
 0001:00039140       _strncmp                   4003a140 f   libucrt:strncmp.obj
 0001:000391c0       _calloc                    4003a1c0 f   libucrt:calloc.obj
 0001:000391cc       @_guard_check_icall@4      4003a1cc f i libucrt:checkcfg.obj
 0001:000391e0       _wcsncmp                   4003a1e0 f   libucrt:wcsncmp.obj
 0001:00039223       ?check_synchronize_global_state_index@__crt_cached_ptd_host@@AAEIXZ 4003a223 f i libucrt:invalid_parameter.obj
 0001:0003924c       ___acrt_call_reportfault   4003a24c f   libucrt:invalid_parameter.obj
 0001:00039385       ___acrt_initialize_invalid_parameter_handler 4003a385 f   libucrt:invalid_parameter.obj
 0001:00039394       __invalid_parameter        4003a394 f   libucrt:invalid_parameter.obj
 0001:000393cb       __invalid_parameter_internal 4003a3cb f   libucrt:invalid_parameter.obj
 0001:00039448       __invalid_parameter_noinfo 4003a448 f   libucrt:invalid_parameter.obj
 0001:00039458       __invoke_watson            4003a458 f   libucrt:invalid_parameter.obj
 0001:0003948c       ___pctype_func             4003a48c f   libucrt:ctype.obj
 0001:000394b0       __isctype_l                4003a4b0 f   libucrt:isctype.obj
 0001:000395fa       ___acrt_errno_from_os_error 4003a5fa f   libucrt:errno.obj
 0001:00039659       ___acrt_errno_map_os_error 4003a659 f   libucrt:errno.obj
 0001:0003967c       ___acrt_errno_map_os_error_ptd 4003a67c f   libucrt:errno.obj
 0001:000396a0       ___doserrno                4003a6a0 f   libucrt:errno.obj
 0001:000396b5       __errno                    4003a6b5 f   libucrt:errno.obj
 0001:000396ca       ___acrt_update_locale_info 4003a6ca f   libucrt:locale_update.obj
 0001:000396f7       ___acrt_update_locale_info_explicit 4003a6f7 f   libucrt:locale_update.obj
 0001:00039728       ___acrt_update_multibyte_info 4003a728 f   libucrt:locale_update.obj
 0001:00039755       ___acrt_update_multibyte_info_explicit 4003a755 f   libucrt:locale_update.obj
 0001:00039a79       ?internal_get_ptd_head_slow@@YAPAU__acrt_ptd@@XZ 4003aa79 f   libucrt:per_thread_data.obj
 0001:00039b6c       ___acrt_freeptd            4003ab6c f   libucrt:per_thread_data.obj
 0001:00039bb0       ___acrt_getptd             4003abb0 f   libucrt:per_thread_data.obj
 0001:00039bbe       ___acrt_getptd_head        4003abbe f   libucrt:per_thread_data.obj
 0001:00039c01       ___acrt_getptd_noexit      4003ac01 f   libucrt:per_thread_data.obj
 0001:00039c8d       ___acrt_getptd_noexit_explicit 4003ac8d f   libucrt:per_thread_data.obj
 0001:00039cd6       ___acrt_initialize_ptd     4003acd6 f   libucrt:per_thread_data.obj
 0001:00039d0c       ___acrt_uninitialize_ptd   4003ad0c f   libucrt:per_thread_data.obj
 0001:00039d94       ___acrt_set_locale_changed 4003ad94 f   libucrt:wsetlocale.obj
 0001:00039d9f       ___acrt_uninitialize_locale 4003ad9f f   libucrt:wsetlocale.obj
 0001:00039df0       __fFATN2                   4003adf0 f   libucrt:87triga.obj
 0001:00039e40       __rtpiby2                  4003ae40     libucrt:87triga.obj
 0001:00039e50       __rtforatn20               4003ae50 f   libucrt:87triga.obj
 0001:00039e80       __rtforatnby0              4003ae80 f   libucrt:87triga.obj
 0001:00039e90       __cintrindisp2             4003ae90 f   libucrt:87cdisp.obj
 0001:00039ee0       __cintrindisp1             4003aee0 f   libucrt:87cdisp.obj
 0001:00039f29       __ctrandisp2               4003af29 f   libucrt:87cdisp.obj
 0001:0003a0b8       __ctrandisp1               4003b0b8 f   libucrt:87cdisp.obj
 0001:0003a0eb       __fload                    4003b0eb f   libucrt:87cdisp.obj
 0001:0003a130       __CIcos                    4003b130 f   libucrt:cos_impl.obj
 0001:0003a16b       __CIcos_default            4003b16b f   libucrt:cos_impl.obj
 0001:0003a17f       __cos_default              4003b17f     libucrt:cos_impl.obj
 0001:0003a220       __CIsin                    4003b220 f   libucrt:sin_impl.obj
 0001:0003a25b       __CIsin_default            4003b25b f   libucrt:sin_impl.obj
 0001:0003a26f       __sin_default              4003b26f     libucrt:sin_impl.obj
 0001:0003a310       _fegetround                4003b310 f   libucrt:fegetround.obj
 0001:0003a320       __trandisp1                4003b320 f   libucrt:87disp.obj
 0001:0003a395       __trandisp2                4003b395 f   libucrt:87disp.obj
 0001:0003a42f       __rttospopde               4003b42f     libucrt:87disp.obj
 0001:0003a434       __rttospop                 4003b434     libucrt:87disp.obj
 0001:0003a440       __rtnospop                 4003b440 f   libucrt:87disp.obj
 0001:0003a450       __rttosnpop                4003b450 f   libucrt:87disp.obj
 0001:0003a451       __rtnospopde               4003b451     libucrt:87disp.obj
 0001:0003a458       __rtzeropop                4003b458     libucrt:87disp.obj
 0001:0003a45a       __rtzeronpop               4003b45a     libucrt:87disp.obj
 0001:0003a460       __rtzerospop               4003b460 f   libucrt:87disp.obj
 0001:0003a46d       __rtonepop                 4003b46d     libucrt:87disp.obj
 0001:0003a470       __rtonenpop                4003b470 f   libucrt:87disp.obj
 0001:0003a480       __tosnan1                  4003b480 f   libucrt:87disp.obj
 0001:0003a4b0       __nosnan2                  4003b4b0 f   libucrt:87disp.obj
 0001:0003a4c0       __tosnan2                  4003b4c0 f   libucrt:87disp.obj
 0001:0003a4f0       __nan2                     4003b4f0 f   libucrt:87disp.obj
 0001:0003a530       __rtindfpop                4003b530 f   libucrt:87disp.obj
 0001:0003a532       __rtindfnpop               4003b532     libucrt:87disp.obj
 0001:0003a543       __rttosnpopde              4003b543     libucrt:87disp.obj
 0001:0003a550       __rtatan2inf               4003b550 f   libucrt:87disp.obj
 0001:0003a56d       __rtchsifneg               4003b56d     libucrt:87disp.obj
 0001:0003a580       ___libm_error_support      4003b580 f   libucrt:libm_error.obj
 0001:0003a820       __CIacos                   4003b820 f   libucrt:acos_impl.obj
 0001:0003a85b       __CIacos_default           4003b85b f   libucrt:acos_impl.obj
 0001:0003a86f       __acos_default             4003b86f     libucrt:acos_impl.obj
 0001:0003a930       _sqrt                      4003b930 f   libucrt:sqrt.obj
 0001:0003a940       __free_base                4003b940 f   libucrt:free_base.obj
 0001:0003a990       __malloc_base              4003b990 f   libucrt:malloc_base.obj
 0001:0003a9f0       _strnlen                   4003b9f0 f   libucrt:strnlen.obj
 0001:0003ab50       _wcsnlen                   4003bb50 f   libucrt:strnlen.obj
 0001:0003ad25       ?__acrt_fp_classify@@YA?AW4__acrt_fp_class@@ABN@Z 4003bd25 f i libucrt:cvt.obj
 0001:0003b6d4       ___acrt_fp_format          4003c6d4 f   libucrt:cvt.obj
 0001:0003b854       __wctomb_internal          4003c854 f   libucrt:wctomb.obj
 0001:0003b9b8       __mbtowc_internal          4003c9b8 f   libucrt:mbtowc.obj
 0001:0003bae8       __mbtowc_l                 4003cae8 f   libucrt:mbtowc.obj
 0001:0003bb20       ?__mblen_utf8@__crt_mbstring@@YAHPBD@Z 4003cb20 f   libucrt:mbrtoc32.obj
 0001:0003bb61       ?__mbrtoc32_utf8@__crt_mbstring@@YAIPA_UPBDIPAU_Mbstatet@@AAV__crt_cached_ptd_host@@@Z 4003cb61 f   libucrt:mbrtoc32.obj
 0001:0003bd1a       ?__c16rtomb_utf8@__crt_mbstring@@YAIPAD_SPAU_Mbstatet@@AAV__crt_cached_ptd_host@@@Z 4003cd1a f   libucrt:c16rtomb.obj
 0001:0003bdf1       ?__mbrtowc_utf8@__crt_mbstring@@YAIPA_WPBDIPAU_Mbstatet@@AAV__crt_cached_ptd_host@@@Z 4003cdf1 f   libucrt:mbrtowc.obj
 0001:0003be34       ?__mbsrtowcs_utf8@__crt_mbstring@@YAIPA_WPAPBDIPAU_Mbstatet@@AAV__crt_cached_ptd_host@@@Z 4003ce34 f   libucrt:mbrtowc.obj
 0001:0003bf47       __fileno                   4003cf47 f   libucrt:fileno.obj
 0001:0003bf6e       ___acrt_initialize_stdio   4003cf6e f   libucrt:_file.obj
 0001:0003c036       ___acrt_uninitialize_stdio 4003d036 f   libucrt:_file.obj
 0001:0003c082       __lock_file                4003d082 f   libucrt:_file.obj
 0001:0003c096       __unlock_file              4003d096 f   libucrt:_file.obj
 0001:0003c0aa       __get_printf_count_output  4003d0aa f   libucrt:printf_count_output.obj
 0001:0003c21f       ___acrt_initialize_lowio   4003d21f f   libucrt:ioinit.obj
 0001:0003c27f       ___acrt_uninitialize_lowio 4003d27f f   libucrt:ioinit.obj
 0001:0003c498       ___acrt_LCMapStringA       4003d498 f   libucrt:lcmapstringa.obj
 0001:0003c4e1       __freea_crt                4003d4e1 f i libucrt:lcmapstringa.obj
 0001:0003c510       _isspace                   4003d510 f   libucrt:_ctype.obj
 0001:0003c5a0       __calloc_base              4003d5a0 f   libucrt:calloc_base.obj
 0001:0003c600       _strtoull                  4003d600 f   libucrt:strtox.obj
 0001:0003c650       __realloc_base             4003d650 f   libucrt:realloc_base.obj
 0001:0003c6c0       ___acrt_initialize_sse2    4003d6c0 f   libucrt:mathfcns.obj
 0001:0003c6d0       __ceil_default             4003d6d0 f   libucrt:ceil.obj
 0001:0003c7d0       __floor_default            4003d7d0 f   libucrt:floor.obj
 0001:0003c8d0       __CItan                    4003d8d0 f   libucrt:tan_impl.obj
 0001:0003c90b       __CItan_default            4003d90b f   libucrt:tan_impl.obj
 0001:0003c91f       __tan_default              4003d91f     libucrt:tan_impl.obj
 0001:0003c9b6       ___acrt_initialize_locks   4003d9b6 f   libucrt:locks.obj
 0001:0003c9f7       ___acrt_lock               4003d9f7 f   libucrt:locks.obj
 0001:0003ca0e       ___acrt_uninitialize_locks 4003da0e f   libucrt:locks.obj
 0001:0003ca3f       ___acrt_unlock             4003da3f f   libucrt:locks.obj
 0001:0003ca56       ___acrt_app_verifier_enabled 4003da56 f   libucrt:peb_access.obj
 0001:0003ca68       ___acrt_is_secure_process  4003da68 f   libucrt:peb_access.obj
 0001:0003ca7b       ___acrt_get_process_end_policy 4003da7b f   libucrt:win_policies.obj
 0001:0003caba       ??$__acrt_convert_wcs_mbs_cp@D_WV<lambda_62f6974d9771e494a5ea317cc32e971c>@@U__crt_win32_buffer_internal_dynamic_resizing@@@@YAHQBDAAV?$__crt_win32_buffer@_WU__crt_win32_buffer_internal_dynamic_resizing@@@@ABV<lambda_62f6974d9771e494a5ea317cc32e971c>@@I@Z 4003daba f i libucrt:argv_wildcards.obj
 0001:0003cb6c       ??$__acrt_convert_wcs_mbs_cp@_WDV<lambda_28bda7af82a03b66c1cb3803a755f95d>@@U__crt_win32_buffer_internal_dynamic_resizing@@@@YAHQB_WAAV?$__crt_win32_buffer@DU__crt_win32_buffer_internal_dynamic_resizing@@@@ABV<lambda_28bda7af82a03b66c1cb3803a755f95d>@@I@Z 4003db6c f i libucrt:argv_wildcards.obj
 0001:0003cc32       ??$__acrt_mbs_to_wcs_cp@U__crt_win32_buffer_internal_dynamic_resizing@@@@YAHQBDAAV?$__crt_win32_buffer@_WU__crt_win32_buffer_internal_dynamic_resizing@@@@I@Z 4003dc32 f i libucrt:argv_wildcards.obj
 0001:0003d12e       ??R<lambda_0fec1a7b3f42a53036604e18c2d5e07e>@@QBE@IQB_WQADI@Z 4003e12e f i libucrt:getmodulefilenamea.obj
 0001:0003d12e       ??R<lambda_28bda7af82a03b66c1cb3803a755f95d>@@QBE@IQB_WQADI@Z 4003e12e f i libucrt:argv_wildcards.obj
 0001:0003d152       ?__acrt_get_utf8_acp_compatibility_codepage@@YAIXZ 4003e152 f i libucrt:argv_wildcards.obj
 0001:0003d191       ?_deallocate@?$__crt_win32_buffer@DU__crt_win32_buffer_internal_dynamic_resizing@@@@AAEXXZ 4003e191 f i libucrt:argv_wildcards.obj
 0001:0003d191       ?_deallocate@?$__crt_win32_buffer@_WU__crt_win32_buffer_internal_dynamic_resizing@@@@AAEXXZ 4003e191 f i libucrt:argv_wildcards.obj
 0001:0003d1ab       ?allocate@?$__crt_win32_buffer@DU__crt_win32_buffer_internal_dynamic_resizing@@@@QAEHI@Z 4003e1ab f i libucrt:argv_wildcards.obj
 0001:0003d1e7       ?allocate@?$__crt_win32_buffer@_WU__crt_win32_buffer_internal_dynamic_resizing@@@@QAEHI@Z 4003e1e7 f i libucrt:argv_wildcards.obj
 0001:0003d226       ?allocate@__crt_win32_buffer_internal_dynamic_resizing@@SAHQAPAXIABV__crt_win32_buffer_empty_debug_info@@@Z 4003e226 f i libucrt:argv_wildcards.obj
 0001:0003d2ce       ___acrt_expand_narrow_argv_wildcards 4003e2ce f   libucrt:argv_wildcards.obj
 0001:0003d2d9       ??$__acrt_convert_wcs_mbs_cp@_WDV<lambda_0fec1a7b3f42a53036604e18c2d5e07e>@@U__crt_win32_buffer_no_resizing@@@@YAHQB_WAAV?$__crt_win32_buffer@DU__crt_win32_buffer_no_resizing@@@@ABV<lambda_0fec1a7b3f42a53036604e18c2d5e07e>@@I@Z 4003e2d9 f i libucrt:getmodulefilenamea.obj
 0001:0003d39b       ?allocate@?$__crt_win32_buffer@DU__crt_win32_buffer_no_resizing@@@@QAEHI@Z 4003e39b f i libucrt:getmodulefilenamea.obj
 0001:0003d3c2       ?set_to_nullptr@?$__crt_win32_buffer@DU__crt_win32_buffer_no_resizing@@@@QAEXXZ 4003e3c2 f i libucrt:getmodulefilenamea.obj
 0001:0003d3d6       ___acrt_GetModuleFileNameA 4003e3d6 f   libucrt:getmodulefilenamea.obj
 0001:0003d9f3       ___acrt_initialize_multibyte 4003e9f3 f   libucrt:mbctype.obj
 0001:0003da3b       ___acrt_update_thread_multibyte_data 4003ea3b f   libucrt:mbctype.obj
 0001:0003da4e       __setmbcp_nolock           4003ea4e f   libucrt:mbctype.obj
 0001:0003dca3       __ismbblead                4003eca3 f   libucrt:ismbbyte.obj
 0001:0003dcbb       ___acrt_initialize_command_line 4003ecbb f   libucrt:argv_data.obj
 0001:0003dd6c       ___acrt_MultiByteToWideChar 4003ed6c f   libucrt:multibytetowidechar.obj
 0001:0003de26       ___acrt_WideCharToMultiByte 4003ee26 f   libucrt:widechartomultibyte.obj
 0001:0003dec7       ___dcrt_get_narrow_environment_from_os 4003eec7 f   libucrt:get_environment_from_os.obj
 0001:0003df70       __recalloc_base            4003ef70 f   libucrt:recalloc.obj
 0001:0003dff0       __recalloc                 4003eff0 f   libucrt:recalloc.obj
 0001:0003e1ab       ___acrt_AppPolicyGetProcessTerminationMethodInternal@4 4003f1ab f   libucrt:winapi_thunks.obj
 0001:0003e1fa       ___acrt_AreFileApisANSI@0  4003f1fa f   libucrt:winapi_thunks.obj
 0001:0003e219       ___acrt_FlsAlloc@4         4003f219 f   libucrt:winapi_thunks.obj
 0001:0003e225       ___acrt_FlsFree@4          4003f225 f   libucrt:winapi_thunks.obj
 0001:0003e231       ___acrt_FlsGetValue2@4     4003f231 f   libucrt:winapi_thunks.obj
 0001:0003e23e       ___acrt_FlsGetValue@4      4003f23e f   libucrt:winapi_thunks.obj
 0001:0003e24a       ___acrt_FlsSetValue@8      4003f24a f   libucrt:winapi_thunks.obj
 0001:0003e256       ___acrt_InitializeCriticalSectionEx@12 4003f256 f   libucrt:winapi_thunks.obj
 0001:0003e262       ___acrt_LCMapStringEx@36   4003f262 f   libucrt:winapi_thunks.obj
 0001:0003e2bf       ___acrt_LocaleNameToLCID@8 4003f2bf f   libucrt:winapi_thunks.obj
 0001:0003e2f0       ___acrt_initialize_winapi_thunks 4003f2f0 f   libucrt:winapi_thunks.obj
 0001:0003e313       ___acrt_tls2_supported     4003f313 f   libucrt:winapi_thunks.obj
 0001:0003e344       ___acrt_uninitialize_winapi_thunks 4003f344 f   libucrt:winapi_thunks.obj
 0001:0003e380       __get_heap_handle          4003f380 f   libucrt:heap_handle.obj
 0001:0003e390       ___acrt_initialize_heap    4003f390 f   libucrt:heap_handle.obj
 0001:0003e3b0       ___acrt_uninitialize_heap  4003f3b0 f   libucrt:heap_handle.obj
 0001:0003e3c0       ___acrt_getheap            4003f3c0 f   libucrt:heap_handle.obj
 0001:0003e3c6       ___acrt_execute_initializers 4003f3c6 f   libucrt:shared_initialization.obj
 0001:0003e42e       ___acrt_execute_uninitializers 4003f42e f   libucrt:shared_initialization.obj
 0001:0003e460       __callnewh                 4003f460 f   libucrt:new_handler.obj
 0001:0003e4a0       ___acrt_initialize_new_handler 4003f4a0 f   libucrt:new_handler.obj
 0001:0003e4c0       __query_new_handler        4003f4c0 f   libucrt:new_handler.obj
 0001:0003e520       __set_new_handler          4003f520 f   libucrt:new_handler.obj
 0001:0003e590       ?_set_new_handler@@YAP6AHI@ZH@Z 4003f590 f   libucrt:new_handler.obj
 0001:0003e59d       ??$__crt_fast_encode_pointer@P6AHI@Z@@YAP6AHI@ZQ6AHI@Z@Z 4003f59d f i libucrt:new_handler.obj
 0001:0003e68e       ___acrt_get_sigabrt_handler 4003f68e f   libucrt:signal.obj
 0001:0003e6b5       ___acrt_initialize_signal_handlers 4003f6b5 f   libucrt:signal.obj
 0001:0003e6d3       _raise                     4003f6d3 f   libucrt:signal.obj
 0001:0003e8d0       ___acrt_has_user_matherr   4003f8d0 f   libucrt:matherr.obj
 0001:0003e8f0       ___acrt_initialize_user_matherr 4003f8f0 f   libucrt:matherr.obj
 0001:0003e900       ___acrt_invoke_user_matherr 4003f900 f   libucrt:matherr.obj
 0001:0003eb11       ___acrt_stdio_flush_nolock 4003fb11 f   libucrt:fflush.obj
 0001:0003eb7a       __fflush_nolock            4003fb7a f   libucrt:fflush.obj
 0001:0003ebdf       __flushall                 4003fbdf f   libucrt:fflush.obj
 0001:0003ebe8       ___acrt_GetStringTypeA     4003fbe8 f   libucrt:getstringtypea.obj
 0001:0003ece6       ___acrt_add_locale_ref     4003fce6 f   libucrt:locale_refcounting.obj
 0001:0003ed63       ___acrt_free_locale        4003fd63 f   libucrt:locale_refcounting.obj
 0001:0003eeab       ___acrt_locale_add_lc_time_reference 4003feab f   libucrt:locale_refcounting.obj
 0001:0003eed4       ___acrt_locale_free_lc_time_if_unreferenced 4003fed4 f   libucrt:locale_refcounting.obj
 0001:0003ef05       ___acrt_locale_release_lc_time_reference 4003ff05 f   libucrt:locale_refcounting.obj
 0001:0003ef2e       ___acrt_release_locale_ref 4003ff2e f   libucrt:locale_refcounting.obj
 0001:0003efaf       ___acrt_update_thread_locale_data 4003ffaf f   libucrt:locale_refcounting.obj
 0001:0003f030       __updatetlocinfoEx_nolock  40040030 f   libucrt:locale_refcounting.obj
 0001:0003f080       ___acrt_locale_free_monetary 40040080 f   libucrt:initmon.obj
 0001:0003f17e       ___acrt_locale_free_numeric 4004017e f   libucrt:initnum.obj
 0001:0003f20c       ___acrt_locale_free_time   4004020c f   libucrt:inittime.obj
 0001:0003f2f0       __87except                 400402f0 f   libucrt:87except.obj
 0001:0003f430       __CIcos_pentium4           40040430 f   libucrt:cos_pentium4.obj
 0001:0003f448       __cos_pentium4             40040448     libucrt:cos_pentium4.obj
 0001:0003f5e0       __twoToTOS                 400405e0 f   libucrt:common.obj
 0001:0003f5f5       __load_CW                  400405f5 f   libucrt:common.obj
 0001:0003f60c       __convertTOStoQNaN         4004060c f   libucrt:common.obj
 0001:0003f625       __fload_withFB             40040625 f   libucrt:common.obj
 0001:0003f668       __checkTOS_withFB          40040668 f   libucrt:common.obj
 0001:0003f67e       __fast_exit                4004067e f   libucrt:common.obj
 0001:0003f68b       __math_exit                4004068b f   libucrt:common.obj
 0001:0003f6b5       __check_overflow_exit      400406b5 f   libucrt:common.obj
 0001:0003f6c9       __check_range_exit         400406c9 f   libucrt:common.obj
 0001:0003f770       __startTwoArgErrorHandling 40040770 f   libucrt:genexcep.obj
 0001:0003f787       __startOneArgErrorHandling 40040787 f   libucrt:genexcep.obj
 0001:0003f7d0       __CIsin_pentium4           400407d0 f   libucrt:sin_pentium4.obj
 0001:0003f7e8       __sin_pentium4             400407e8     libucrt:sin_pentium4.obj
 0001:0003f9a0       ___acrt_fenv_get_common_round_control 400409a0 f   libucrt:_fenvutils.obj
 0001:0003f9d0       ___acrt_fenv_get_control   400409d0 f   libucrt:_fenvutils.obj
 0001:0003fbb0       ___acrt_fenv_get_status    40040bb0 f   libucrt:_fenvutils.obj
 0001:0003fc60       ___acrt_fenv_set_control   40040c60 f   libucrt:_fenvutils.obj
 0001:0003feb0       ___acrt_fenv_set_status    40040eb0 f   libucrt:_fenvutils.obj
 0001:0003ffc0       __CIacos_pentium4          40040fc0 f   libucrt:acos_pentium4.obj
 0001:0003ffd8       __acos_pentium4            40040fd8     libucrt:acos_pentium4.obj
 0001:00040520       __CIsqrt                   40041520 f   libucrt:sqrt_impl.obj
 0001:00040534       __sqrt_common              40041534     libucrt:sqrt_impl.obj
 0001:000405e0       __query_new_mode           400415e0 f   libucrt:new_mode.obj
 0001:000405f0       __set_new_mode             400415f0 f   libucrt:new_mode.obj
 0001:000406d0       ___acrt_fp_strflt_to_string 400416d0 f   libucrt:_fptostr.obj
 0001:000407c9       ___acrt_fltout             400417c9 f   libucrt:cfout.obj
 0001:00041c97       ?__c32rtomb_utf8@__crt_mbstring@@YAIPAD_UPAU_Mbstatet@@AAV__crt_cached_ptd_host@@@Z 40042c97 f   libucrt:c32rtomb.obj
 0001:00041d45       ?reset_and_return@__crt_mbstring@@YAIIPAU_Mbstatet@@@Z 40042d45 f   libucrt:common_utf8.obj
 0001:00041d59       ?return_illegal_sequence@__crt_mbstring@@YAIPAU_Mbstatet@@AAV__crt_cached_ptd_host@@@Z 40042d59 f   libucrt:common_utf8.obj
 0001:00041d7b       __fcloseall                40042d7b f   libucrt:closeall.obj
 0001:00041e26       ___acrt_stdio_free_buffer_nolock 40042e26 f   libucrt:_freebuf.obj
 0001:00041e66       __isatty                   40042e66 f   libucrt:isatty.obj
 0001:00041ebc       ___acrt_lowio_create_handle_array 40042ebc f   libucrt:osfinfo.obj
 0001:00041f37       ___acrt_lowio_destroy_handle_array 40042f37 f   libucrt:osfinfo.obj
 0001:00041f6c       ___acrt_lowio_ensure_fh_exists 40042f6c f   libucrt:osfinfo.obj
 0001:0004200a       ___acrt_lowio_lock_fh      4004300a f   libucrt:osfinfo.obj
 0001:0004202d       ___acrt_lowio_unlock_fh    4004302d f   libucrt:osfinfo.obj
 0001:00042050       __free_osfhnd              40043050 f   libucrt:osfinfo.obj
 0001:000420e1       __get_osfhandle            400430e1 f   libucrt:osfinfo.obj
 0001:00042150       ___strncnt                 40043150 f   libucrt:strncnt.obj
 0001:00042170       __frnd                     40043170 f   libucrt:frnd.obj
 0001:00042190       __except1                  40043190 f   libucrt:fpexcept.obj
 0001:000422d0       __handle_exc               400432d0 f   libucrt:fpexcept.obj
 0001:00042600       __raise_exc                40043600 f   libucrt:fpexcept.obj
 0001:00042630       __raise_exc_ex             40043630 f   libucrt:fpexcept.obj
 0001:00042960       __set_errno_from_matherr   40043960 f   libucrt:fpexcept.obj
 0001:000429a0       __umatherr                 400439a0 f   libucrt:fpexcept.obj
 0001:00042aa0       __decomp                   40043aa0 f i libucrt:frexp.obj
 0001:00042bb0       __sptype                   40043bb0 f i libucrt:frexp.obj
 0001:00042c30       ___set_fpsr_sse2           40043c30 f   libucrt:fpctrl.obj
 0001:00042d10       __clrfp                    40043d10 f   libucrt:fpctrl.obj
 0001:00042d30       __ctrlfp                   40043d30 f   libucrt:fpctrl.obj
 0001:00042d60       __set_statfp               40043d60 f   libucrt:fpctrl.obj
 0001:00042dc0       __statfp                   40043dc0 f   libucrt:fpctrl.obj
 0001:00042de0       __CItan_pentium4           40043de0 f   libucrt:tan_pentium4.obj
 0001:00042df8       __tan_pentium4             40043df8     libucrt:tan_pentium4.obj
 0001:00043040       _strncpy_s                 40044040 f   libucrt:strncpy_s.obj
 0001:00043140       _strpbrk                   40044140 f   libucrt:strpbrk.obj
 0001:00043180       __mbsdec                   40044180 f   libucrt:mbsdec.obj
 0001:00043197       __mbsdec_l                 40044197 f   libucrt:mbsdec.obj
 0001:00043230       __msize_base               40044230 f   libucrt:msize.obj
 0001:00043270       __msize                    40044270 f   libucrt:msize.obj
 0001:000432cf       ___acrt_DownlevelLocaleNameToLCID 400442cf f   libucrt:lcidtoname_downlevel.obj
 0001:0004339d       __commit                   4004439d f   libucrt:commit.obj
 0001:00043bc0       __write_internal           40044bc0 f   libucrt:write.obj
 0001:00043cd1       __write_nolock             40044cd1 f   libucrt:write.obj
 0001:00043ef0       ___ascii_wcsnicmp          40044ef0 f   libucrt:wcsnicmp.obj
 0001:00043f60       __controlfp_s              40044f60 f   libucrt:contrlfp.obj
 0001:00043fd0       _fegetenv                  40044fd0 f   libucrt:fegetenv.obj
 0001:00043ff0       _fesetenv                  40044ff0 f   libucrt:fesetenv.obj
 0001:00044050       _feholdexcept              40045050 f   libucrt:feholdexcept.obj
 0001:000440b0       __libm_sse2_log10_precise  400450b0 f   libucrt:log10_sse2_precise.obj
 0001:00044485       _fclose                    40045485 f   libucrt:fclose.obj
 0001:00044538       __lseeki64_nolock_internal 40045538 f   libucrt:lseek.obj
 0001:00044556       __query_app_type           40045556 f   libucrt:report_runtime_error.obj
 0001:0004455c       __putwch_nolock            4004555c f   libucrt:putwch.obj
 0001:00044660       __clearfp                  40045660 f   libucrt:ieee87.obj
 0001:00044780       __control87                40045780 f   libucrt:ieee87.obj
 0001:00044c10       __CIlog10                  40045c10 f   libucrt:log10_impl.obj
 0001:00044c4b       __CIlog10_default          40045c4b f   libucrt:log10_impl.obj
 0001:00044c5f       __log10_default            40045c5f     libucrt:log10_impl.obj
 0001:00044db1       __close_internal           40045db1 f   libucrt:close.obj
 0001:00044e54       __close_nolock_internal    40045e54 f   libucrt:close.obj
 0001:00044ef4       ?__acrt_stdio_free_stream@@YAXV__crt_stdio_stream@@@Z 40045ef4 f   libucrt:stream.obj
 0001:00044f30       ___ascii_strnicmp          40045f30 f   libucrt:_strnicm.obj
 0001:00044fb0       ___dcrt_lowio_ensure_console_output_initialized 40045fb0 f   libucrt:initcon.obj
 0001:00044fcf       ___dcrt_terminate_console_output 40045fcf f   libucrt:initcon.obj
 0001:00044fe7       ___dcrt_write_console      40045fe7 f   libucrt:initcon.obj
 0001:00045040       __CIlog10_pentium4         40046040 f   libucrt:log10_pentium4.obj
 0001:00045058       __log10_pentium4           40046058     libucrt:log10_pentium4.obj
 0001:000452f0       __fFEXP                    400462f0 f   libucrt:87tran.obj
 0001:00045347       __rtinfpopse               40046347     libucrt:87tran.obj
 0001:00045349       __rtinfnpopse              40046349     libucrt:87tran.obj
 0001:00045359       __fFLN                     40046359     libucrt:87tran.obj
 0001:0004540e       __rtinfpop                 4004640e     libucrt:87tran.obj
 0001:00045410       __rtinfnpop                40046410     libucrt:87tran.obj
 0001:00045420       __rtforexpinf              40046420 f   libucrt:87tran.obj
 0001:0004542d       __ffexpm1                  4004642d     libucrt:87tran.obj
 0001:000454e0       __powhlp                   400464e0 f   libucrt:powhlp.obj
 0001:000456e0       __fpclass                  400466e0 f   libucrt:ieeemisc.obj
 0001:000457b0       __FindPESection            400467b0 f   LIBCMT:pesect.obj
 0001:00045800       __IsNonwritableInCurrentImage 40046800 f   LIBCMT:pesect.obj
 0001:000458c0       __ValidateImageBase        400468c0 f   LIBCMT:pesect.obj
 0001:000458f1       ??_Etype_info@@UAEPAXI@Z   400468f1 f i LIBCMT:std_type_info_static.obj
 0001:000458f1       ??_Gtype_info@@UAEPAXI@Z   400468f1 f i LIBCMT:std_type_info_static.obj
 0001:00045914       __EH_epilog3               40046914 f   LIBCMT:ehprolg3.obj
 0001:00045928       __EH_prolog3               40046928 f   LIBCMT:ehprolg3.obj
 0001:0004595b       __EH_prolog3_catch         4004695b f   LIBCMT:ehprolg3.obj
 0001:000459a0       __aulldvrm                 400469a0 f   LIBCMT:ulldvrm.obj
 0001:00045a35       ??3@YAXPAXI@Z              40046a35 f   LIBCMT:delete_scalar_size.obj
 0001:00045a50       __allmul                   40046a50 f   LIBCMT:llmul.obj
 0001:00045a90       __aulldiv                  40046a90 f   LIBCMT:ulldiv.obj
 0001:00045b00       __allshl                   40046b00 f   LIBCMT:llshl.obj
 0001:00045b20       __aullrem                  40046b20 f   LIBCMT:ullrem.obj
 0001:00045ba0       __aullshr                  40046ba0 f   LIBCMT:ullshr.obj
 0001:00045bc0       __alldiv                   40046bc0 f   LIBCMT:lldiv.obj
 0001:00045c70       __alldvrm                  40046c70 f   LIBCMT:lldvrm.obj
 0001:00045d50       __allrem                   40046d50 f   LIBCMT:llrem.obj
 0001:00045e10       __alloca_probe_16          40046e10 f   LIBCMT:alloca16.obj
 0001:00045e26       __alloca_probe_8           40046e26     LIBCMT:alloca16.obj
 0001:00045e3c       __filter_x86_sse2_floating_point_exception 40046e3c f   LIBCMT:x86_exception_filter.obj
 0001:00045e3c       __filter_x86_sse2_floating_point_exception_default 40046e3c f   LIBCMT:x86_exception_filter.obj
 0002:00000000       __imp__IsProcessorFeaturePresent@4 40047000     kernel32:KERNEL32.dll
 0002:00000004       __imp__QueryPerformanceCounter@4 40047004     kernel32:KERNEL32.dll
 0002:00000008       __imp__GetCurrentProcessId@0 40047008     kernel32:KERNEL32.dll
 0002:0000000c       __imp__GetCurrentThreadId@0 4004700c     kernel32:KERNEL32.dll
 0002:00000010       __imp__GetSystemTimeAsFileTime@4 40047010     kernel32:KERNEL32.dll
 0002:00000014       __imp__InitializeSListHead@4 40047014     kernel32:KERNEL32.dll
 0002:00000018       __imp__IsDebuggerPresent@0 40047018     kernel32:KERNEL32.dll
 0002:0000001c       __imp__UnhandledExceptionFilter@4 4004701c     kernel32:KERNEL32.dll
 0002:00000020       __imp__SetUnhandledExceptionFilter@4 40047020     kernel32:KERNEL32.dll
 0002:00000024       __imp__GetStartupInfoW@4   40047024     kernel32:KERNEL32.dll
 0002:00000028       __imp__GetModuleHandleW@4  40047028     kernel32:KERNEL32.dll
 0002:0000002c       __imp__GetCurrentProcess@0 4004702c     kernel32:KERNEL32.dll
 0002:00000030       __imp__TerminateProcess@8  40047030     kernel32:KERNEL32.dll
 0002:00000034       __imp__InterlockedFlushSList@4 40047034     kernel32:KERNEL32.dll
 0002:00000038       __imp__RtlUnwind@16        40047038     kernel32:KERNEL32.dll
 0002:0000003c       __imp__GetLastError@0      4004703c     kernel32:KERNEL32.dll
 0002:00000040       __imp__SetLastError@4      40047040     kernel32:KERNEL32.dll
 0002:00000044       __imp__EnterCriticalSection@4 40047044     kernel32:KERNEL32.dll
 0002:00000048       __imp__LeaveCriticalSection@4 40047048     kernel32:KERNEL32.dll
 0002:0000004c       __imp__DeleteCriticalSection@4 4004704c     kernel32:KERNEL32.dll
 0002:00000050       __imp__InitializeCriticalSectionAndSpinCount@8 40047050     kernel32:KERNEL32.dll
 0002:00000054       __imp__TlsAlloc@0          40047054     kernel32:KERNEL32.dll
 0002:00000058       __imp__TlsGetValue@4       40047058     kernel32:KERNEL32.dll
 0002:0000005c       __imp__TlsSetValue@8       4004705c     kernel32:KERNEL32.dll
 0002:00000060       __imp__TlsFree@4           40047060     kernel32:KERNEL32.dll
 0002:00000064       __imp__FreeLibrary@4       40047064     kernel32:KERNEL32.dll
 0002:00000068       __imp__GetProcAddress@8    40047068     kernel32:KERNEL32.dll
 0002:0000006c       __imp__LoadLibraryExW@12   4004706c     kernel32:KERNEL32.dll
 0002:00000070       __imp__EncodePointer@4     40047070     kernel32:KERNEL32.dll
 0002:00000074       __imp__RaiseException@16   40047074     kernel32:KERNEL32.dll
 0002:00000078       __imp__ExitProcess@4       40047078     kernel32:KERNEL32.dll
 0002:0000007c       __imp__GetModuleHandleExW@12 4004707c     kernel32:KERNEL32.dll
 0002:00000080       __imp__GetModuleFileNameW@12 40047080     kernel32:KERNEL32.dll
 0002:00000084       __imp__DecodePointer@4     40047084     kernel32:KERNEL32.dll
 0002:00000088       __imp__HeapFree@12         40047088     kernel32:KERNEL32.dll
 0002:0000008c       __imp__HeapAlloc@12        4004708c     kernel32:KERNEL32.dll
 0002:00000090       __imp__GetStdHandle@4      40047090     kernel32:KERNEL32.dll
 0002:00000094       __imp__GetFileType@4       40047094     kernel32:KERNEL32.dll
 0002:00000098       __imp__HeapReAlloc@16      40047098     kernel32:KERNEL32.dll
 0002:0000009c       __imp__FindClose@4         4004709c     kernel32:KERNEL32.dll
 0002:000000a0       __imp__FindFirstFileExW@24 400470a0     kernel32:KERNEL32.dll
 0002:000000a4       __imp__FindNextFileW@8     400470a4     kernel32:KERNEL32.dll
 0002:000000a8       __imp__IsValidCodePage@4   400470a8     kernel32:KERNEL32.dll
 0002:000000ac       __imp__GetACP@0            400470ac     kernel32:KERNEL32.dll
 0002:000000b0       __imp__GetOEMCP@0          400470b0     kernel32:KERNEL32.dll
 0002:000000b4       __imp__GetCPInfo@8         400470b4     kernel32:KERNEL32.dll
 0002:000000b8       __imp__GetCommandLineA@0   400470b8     kernel32:KERNEL32.dll
 0002:000000bc       __imp__GetCommandLineW@0   400470bc     kernel32:KERNEL32.dll
 0002:000000c0       __imp__MultiByteToWideChar@24 400470c0     kernel32:KERNEL32.dll
 0002:000000c4       __imp__WideCharToMultiByte@32 400470c4     kernel32:KERNEL32.dll
 0002:000000c8       __imp__GetEnvironmentStringsW@0 400470c8     kernel32:KERNEL32.dll
 0002:000000cc       __imp__FreeEnvironmentStringsW@4 400470cc     kernel32:KERNEL32.dll
 0002:000000d0       __imp__FlsAlloc@4          400470d0     kernel32:KERNEL32.dll
 0002:000000d4       __imp__FlsGetValue@4       400470d4     kernel32:KERNEL32.dll
 0002:000000d8       __imp__FlsSetValue@8       400470d8     kernel32:KERNEL32.dll
 0002:000000dc       __imp__FlsFree@4           400470dc     kernel32:KERNEL32.dll
 0002:000000e0       __imp__InitializeCriticalSectionEx@12 400470e0     kernel32:KERNEL32.dll
 0002:000000e4       __imp__VirtualProtect@16   400470e4     kernel32:KERNEL32.dll
 0002:000000e8       __imp__LCMapStringW@24     400470e8     kernel32:KERNEL32.dll
 0002:000000ec       __imp__GetProcessHeap@0    400470ec     kernel32:KERNEL32.dll
 0002:000000f0       __imp__GetStringTypeW@16   400470f0     kernel32:KERNEL32.dll
 0002:000000f4       __imp__SetFilePointerEx@20 400470f4     kernel32:KERNEL32.dll
 0002:000000f8       __imp__SetStdHandle@8      400470f8     kernel32:KERNEL32.dll
 0002:000000fc       __imp__HeapSize@12         400470fc     kernel32:KERNEL32.dll
 0002:00000100       __imp__FlushFileBuffers@4  40047100     kernel32:KERNEL32.dll
 0002:00000104       __imp__WriteFile@20        40047104     kernel32:KERNEL32.dll
 0002:00000108       __imp__GetConsoleOutputCP@0 40047108     kernel32:KERNEL32.dll
 0002:0000010c       __imp__GetConsoleMode@8    4004710c     kernel32:KERNEL32.dll
 0002:00000110       __imp__CloseHandle@4       40047110     kernel32:KERNEL32.dll
 0002:00000114       __imp__CreateFileW@28      40047114     kernel32:KERNEL32.dll
 0002:00000118       __imp__WriteConsoleW@20    40047118     kernel32:KERNEL32.dll
 0002:0000011c       \177KERNEL32_NULL_THUNK_DATA 4004711c     kernel32:KERNEL32.dll
 0002:00000120       ___guard_check_icall_fptr  40047120     LIBCMT:guard_support.obj
 0002:00000124       ___castguard_check_failure_os_handled_fptr 40047124     LIBCMT:guard_support.obj
 0002:00000128       ___xc_a                    40047128     LIBCMT:initializers.obj
 0002:0000012c       ___xc_z                    4004712c     LIBCMT:initializers.obj
 0002:00000130       ___xi_a                    40047130     LIBCMT:initializers.obj
 0002:00000134       ___acrt_stdio_initializer  40047134     libucrt:stdio_initializer.obj
 0002:00000138       ___acrt_tran_sse2_initializer 40047138     libucrt:sse2_initializer.obj
 0002:0000013c       ___acrt_multibyte_initializer 4004713c     libucrt:multibyte_initializer.obj
 0002:00000140       ___xi_z                    40047140     LIBCMT:initializers.obj
 0002:00000144       ___xp_a                    40047144     LIBCMT:initializers.obj
 0002:00000148       ___acrt_locale_terminator  40047148     libucrt:locale_initializer.obj
 0002:0000014c       ___dcrt_console_output_terminator 4004714c     libucrt:console_output_initializer.obj
 0002:00000150       ___acrt_stdio_terminator   40047150     libucrt:stdio_initializer.obj
 0002:00000154       ___xp_z                    40047154     LIBCMT:initializers.obj
 0002:00000158       ___xt_a                    40047158     LIBCMT:initializers.obj
 0002:0000015c       ___xt_z                    4004715c     LIBCMT:initializers.obj
 0002:00000160       _bgToggleableSurfaceDebris 40047160     bg_misc.obj
 0002:000001dc       ??_C@_09EPBMGDBP@l_arm_key@ 400471dc     bg_misc.obj
 0002:000001e8       ??_C@_0BA@FKJGEIF@torso_canister1@ 400471e8     bg_misc.obj
 0002:000001f8       ??_C@_0BA@COIEDHEG@torso_canister2@ 400471f8     bg_misc.obj
 0002:00000208       ??_C@_0BA@DHJPAGAH@torso_canister3@ 40047208     bg_misc.obj
 0002:00000218       ??_C@_0M@DPGBHBIA@torso_tube1@ 40047218     bg_misc.obj
 0002:00000224       ??_C@_0M@BEEMCCED@torso_tube2@ 40047224     bg_misc.obj
 0002:00000230       ??_C@_0M@NFHBDAC@torso_tube3@ 40047230     bg_misc.obj
 0002:0000023c       ??_C@_0M@ECBGIFMF@torso_tube4@ 4004723c     bg_misc.obj
 0002:00000248       ??_C@_0M@FLANLEIE@torso_tube5@ 40047248     bg_misc.obj
 0002:00000254       ??_C@_0M@HACAOHEH@torso_tube6@ 40047254     bg_misc.obj
 0002:00000260       ??_C@_05LGCIJDDO@r_arm@    40047260     bg_misc.obj
 0002:00000268       ??_C@_05IPPEPANF@l_arm@    40047268     bg_misc.obj
 0002:00000270       ??_C@_0N@IFENOPML@torso_shield@ 40047270     bg_misc.obj
 0002:00000280       ??_C@_0BB@FPOHHKLE@torso_galaktorso@ 40047280     bg_misc.obj
 0002:00000294       ??_C@_0N@FODOKFMD@torso_collar@ 40047294     bg_misc.obj
 0002:000002a4       ??_C@_07HDAMFNEH@r_wing1@  400472a4     bg_misc.obj
 0002:000002ac       ??_C@_07FICBAOIE@r_wing2@  400472ac     bg_misc.obj
 0002:000002b4       ??_C@_07BKDNHOFO@l_wing1@  400472b4     bg_misc.obj
 0002:000002bc       ??_C@_07DBBACNJN@l_wing2@  400472bc     bg_misc.obj
 0002:000002c4       ??_C@_06JHEKENKO@r_gear@   400472c4     bg_misc.obj
 0002:000002cc       ??_C@_06KAKLKKDN@l_gear@   400472cc     bg_misc.obj
 0002:000002d4       ??_C@_04DCKHGPHA@nose@     400472d4     bg_misc.obj
 0002:000002dc       ??_C@_05CJLHJDEI@blah4@    400472dc     bg_misc.obj
 0002:000002e4       ??_C@_05DAKMKCAJ@blah5@    400472e4     bg_misc.obj
 0002:000002ec       ??_C@_06LKFNFIFB@l_hand@   400472ec     bg_misc.obj
 0002:000002f4       ??_C@_06INLMLPMC@r_hand@   400472f4     bg_misc.obj
 0002:000002fc       ??_C@_06BCDCLMEB@helmet@   400472fc     bg_misc.obj
 0002:00000304       ??_C@_04NEODDMOL@head@     40047304     bg_misc.obj
 0002:0000030c       ??_C@_0BI@FPANAMDK@head_concussion_charger@ 4004730c     bg_misc.obj
 0002:00000324       ??_C@_0BI@KPCBHBOL@head_light_blaster_cann@ 40047324     bg_misc.obj
 0002:0000033c       ??_C@_0N@ODJGPHCM@force_shield@ 4004733c     bg_misc.obj
 0002:0000034c       ??_C@_0M@MHLPAMFK@?$CKatt_attack@ 4004734c     bg_misc.obj
 0002:00000358       ??_C@_0N@GFADGNOG@?$CKatt_primary@ 40047358     bg_misc.obj
 0002:00000368       ??_C@_0M@ECCLODLO@?$CKatt_second@ 40047368     bg_misc.obj
 0002:00000374       ??_C@_09PJJIIOPG@?$CKdef_guns@ 40047374     bg_misc.obj
 0002:00000380       ??_C@_0O@EGEINPEB@?$CKdef_position@ 40047380     bg_misc.obj
 0002:00000390       ??_C@_0N@LBIDFACI@?$CKdef_primary@ 40047390     bg_misc.obj
 0002:000003a0       ??_C@_0M@HJCGMPNN@?$CKdef_second@ 400473a0     bg_misc.obj
 0002:000003ac       ??_C@_0O@LCDECPIN@?$CKreply_coming@ 400473ac     bg_misc.obj
 0002:000003bc       ??_C@_09FJFLGJJB@?$CKreply_go@ 400473bc     bg_misc.obj
 0002:000003c8       ??_C@_09FGIKFCBO@?$CKreply_no@ 400473c8     bg_misc.obj
 0002:000003d4       ??_C@_0M@PJKELJII@?$CKreply_stay@ 400473d4     bg_misc.obj
 0002:000003e0       ??_C@_0L@DOBCHHPE@?$CKreply_yes@ 400473e0     bg_misc.obj
 0002:000003ec       ??_C@_0M@MJLNGIKA@?$CKreq_assist@ 400473ec     bg_misc.obj
 0002:000003f8       ??_C@_09HHLDNJAG@?$CKreq_demo@ 400473f8     bg_misc.obj
 0002:00000404       ??_C@_08BDPMJJAM@?$CKreq_hvy@ 40047404     bg_misc.obj
 0002:00000410       ??_C@_0L@PJEOEMHI@?$CKreq_medic@ 40047410     bg_misc.obj
 0002:0000041c       ??_C@_08EHGAEMIC@?$CKreq_sup@ 4004741c     bg_misc.obj
 0002:00000428       ??_C@_09FCIMPFEJ@?$CKreq_tech@ 40047428     bg_misc.obj
 0002:00000434       ??_C@_09KPOPDKGM@?$CKspot_air@ 40047434     bg_misc.obj
 0002:00000440       ??_C@_0P@ILGDCGKG@?$CKspot_defenses@ 40047440     bg_misc.obj
 0002:00000450       ??_C@_0P@LLDGJFLE@?$CKspot_emplaced@ 40047450     bg_misc.obj
 0002:00000460       ??_C@_0N@JGIPLKJE@?$CKspot_sniper@ 40047460     bg_misc.obj
 0002:00000470       ??_C@_0N@KDPAKEEJ@?$CKspot_troops@ 40047470     bg_misc.obj
 0002:00000480       ??_C@_0L@EHELGHNE@?$CKtac_cover@ 40047480     bg_misc.obj
 0002:0000048c       ??_C@_0O@NFGMPNBH@?$CKtac_fallback@ 4004748c     bg_misc.obj
 0002:0000049c       ??_C@_0M@PABJGNLG@?$CKtac_follow@ 4004749c     bg_misc.obj
 0002:000004a8       ??_C@_09DINJJNAI@?$CKtac_hold@ 400474a8     bg_misc.obj
 0002:000004b4       ??_C@_0L@MGMJIMAF@?$CKtac_split@ 400474b4     bg_misc.obj
 0002:000004c0       ??_C@_0O@GKPNHIOC@?$CKtac_together@ 400474c0     bg_misc.obj
 0002:000004d0       ??_C@_08BLACEHGF@MASTERY0@ 400474d0     bg_misc.obj
 0002:000004dc       ??_C@_08CBJHGCE@MASTERY1@  400474dc     bg_misc.obj
 0002:000004e8       ??_C@_08CJDECFOH@MASTERY2@ 400474e8     bg_misc.obj
 0002:000004f4       ??_C@_08DACPBEKG@MASTERY3@ 400474f4     bg_misc.obj
 0002:00000500       ??_C@_08HPGOICGB@MASTERY4@ 40047500     bg_misc.obj
 0002:0000050c       ??_C@_08GGHFLDCA@MASTERY5@ 4004750c     bg_misc.obj
 0002:00000518       ??_C@_08ENFIOAOD@MASTERY6@ 40047518     bg_misc.obj
 0002:00000524       ??_C@_08FEEDNBKC@MASTERY7@ 40047524     bg_misc.obj
 0002:0000052d       ??_C@_00CNPNBAHC@@         4004752d     bg_misc.obj
 0002:00000530       ??_C@_0BH@DINJFPKN@item_shield_sm_instant@ 40047530     bg_misc.obj
 0002:00000548       ??_C@_0BO@CHCEMMJK@sound?1player?1pickupshield?4wav@ 40047548     bg_misc.obj
 0002:00000568       ??_C@_0CB@FFNAAGJJ@models?1map_objects?1mp?1psd_sm?4md@ 40047568     bg_misc.obj
 0002:0000058c       ??_C@_0BE@GPDHMLPP@gfx?1mp?1small_shield@ 4004758c     bg_misc.obj
 0002:000005a0       ??_C@_0BI@HGJKGJEB@item_shield_lrg_instant@ 400475a0     bg_misc.obj
 0002:000005b8       ??_C@_0BO@JPJCNECL@models?1map_objects?1mp?1psd?4md3@ 400475b8     bg_misc.obj
 0002:000005d8       ??_C@_0BE@JKBNBKPH@gfx?1mp?1large_shield@ 400475d8     bg_misc.obj
 0002:000005ec       ??_C@_0BE@MEFMIHAD@item_medpak_instant@ 400475ec     bg_misc.obj
 0002:00000600       ??_C@_0BO@NIGJKPEE@sound?1player?1pickuphealth?4wav@ 40047600     bg_misc.obj
 0002:00000620       ??_C@_0CB@PABPOCJH@models?1map_objects?1mp?1medpac?4md@ 40047620     bg_misc.obj
 0002:00000644       ??_C@_0BG@PFBKDHHG@gfx?1hud?1i_icon_medkit@ 40047644     bg_misc.obj
 0002:0000065c       ??_C@_0M@CJHMIAK@item_seeker@ 4004765c     bg_misc.obj
 0002:00000668       ??_C@_0BJ@IBMECGJM@sound?1weapons?1w_pkup?4wav@ 40047668     bg_misc.obj
 0002:00000684       ??_C@_0BI@PEKMFNBP@models?1items?1remote?4md3@ 40047684     bg_misc.obj
 0002:0000069c       ??_C@_0BG@KANLKHLH@gfx?1hud?1i_icon_seeker@ 4004769c     bg_misc.obj
 0002:000006b4       ??_C@_0BP@JJMOPAPI@?$EAMENUS_AN_ATTACK_DRONE_SIMILAR@ 400476b4     bg_misc.obj
 0002:000006d4       ??_C@_0M@IIGPMPLO@item_shield@ 400476d4     bg_misc.obj
 0002:000006e0       ??_C@_0CB@EAKHAPIK@models?1map_objects?1mp?1shield?4md@ 400476e0     bg_misc.obj
 0002:00000704       ??_C@_0BK@OODCPGGP@gfx?1hud?1i_icon_shieldwall@ 40047704     bg_misc.obj
 0002:00000720       ??_C@_0KM@PHBHELNF@sound?1weapons?1detpack?1stick?4wav@ 40047720     bg_misc.obj
 0002:000007cc       ??_C@_0BO@HHEDFEHB@?$EAMENUS_THIS_STATIONARY_ENERGY@ 400477cc     bg_misc.obj
 0002:000007ec       ??_C@_0M@NLNOFNHL@item_medpac@ 400477ec     bg_misc.obj
 0002:000007f8       ??_C@_0CA@COCFAODK@models?1map_objects?1mp?1bacta?4md3@ 400477f8     bg_misc.obj
 0002:00000818       ??_C@_0BF@EDJNGJL@gfx?1hud?1i_icon_bacta@ 40047818     bg_misc.obj
 0002:00000830       ??_C@_0BG@BFJBNBGL@?$EASP_INGAME_BACTA_DESC@ 40047830     bg_misc.obj
 0002:00000848       ??_C@_0BD@LMNDHPPK@item_shieldbooster@ 40047848     bg_misc.obj
 0002:0000085c       ??_C@_0BN@HOLCIIND@gfx?1hud?1i_icon_shieldbooster@ 4004785c     bg_misc.obj
 0002:0000087c       ??_C@_0BA@KBLOKIGM@item_binoculars@ 4004787c     bg_misc.obj
 0002:0000088c       ??_C@_0BM@HNHCIOH@models?1items?1binoculars?4md3@ 4004788c     bg_misc.obj
 0002:000008a8       ??_C@_0BE@PKBACEEE@gfx?1hud?1i_icon_zoom@ 400478a8     bg_misc.obj
 0002:000008bc       ??_C@_0BL@PADDACKM@?$EASP_INGAME_LA_GOGGLES_DESC@ 400478bc     bg_misc.obj
 0002:000008d8       ??_C@_0BA@HKIJMOIG@item_sentry_gun@ 400478d8     bg_misc.obj
 0002:000008e8       ??_C@_0BH@PFALJFOC@models?1items?1psgun?4glm@ 400478e8     bg_misc.obj
 0002:00000900       ??_C@_0BJ@JKBMBJCM@gfx?1hud?1i_icon_sentrygun@ 40047900     bg_misc.obj
 0002:0000091c       ??_C@_0BN@MFHKBDDJ@?$EAMENUS_THIS_DEADLY_WEAPON_IS@ 4004791c     bg_misc.obj
 0002:0000093c       ??_C@_0N@EIBGMPAH@item_jetpack@ 4004793c     bg_misc.obj
 0002:0000094c       ??_C@_0BH@PNGEEMFJ@gfx?1hud?1i_icon_jetpack@ 4004794c     bg_misc.obj
 0002:00000964       ??_C@_0BF@CHFBNMLA@effects?1boba?1jet?4efx@ 40047964     bg_misc.obj
 0002:00000980       ??_C@_0FD@EDGCAKBF@sound?1chars?1boba?1JETON?4wav?5soun@ 40047980     bg_misc.obj
 0002:000009d4       ??_C@_0BE@JOMGFMAF@?$EAMENUS_JETPACK_DESC@ 400479d4     bg_misc.obj
 0002:000009e8       ??_C@_0P@JIJKDGKE@item_squadteam@ 400479e8     bg_misc.obj
 0002:000009f8       ??_C@_0BJ@MIBDCBJG@gfx?1hud?1i_icon_squadteam@ 400479f8     bg_misc.obj
 0002:00000a14       ??_C@_0BC@LAPFGMJJ@item_vehiclemount@ 40047a14     bg_misc.obj
 0002:00000a28       ??_C@_0BM@GPNOCCF@gfx?1hud?1i_icon_vehiclemount@ 40047a28     bg_misc.obj
 0002:00000a44       ??_C@_0BD@FNDPGFNF@item_eweb_holdable@ 40047a44     bg_misc.obj
 0002:00000a58       ??_C@_0CA@PCDIFNM@sound?1interface?1shieldcon_empty@ 40047a58     bg_misc.obj
 0002:00000a78       ??_C@_0CH@FJBCGPDI@models?1map_objects?1hoth?1eweb_mo@ 40047a78     bg_misc.obj
 0002:00000aa0       ??_C@_0BE@HACMCHO@gfx?1hud?1i_icon_eweb@ 40047aa0     bg_misc.obj
 0002:00000ab4       ??_C@_0BB@BOLMLFOH@?$EAMENUS_EWEB_DESC@ 40047ab4     bg_misc.obj
 0002:00000ac8       ??_C@_0L@LGDPDIAF@item_cloak@ 40047ac8     bg_misc.obj
 0002:00000ad4       ??_C@_0BF@JNCBPHCG@gfx?1hud?1i_icon_cloak@ 40047ad4     bg_misc.obj
 0002:00000aec       ??_C@_0BC@GHMKCCIP@?$EAMENUS_CLOAK_DESC@ 40047aec     bg_misc.obj
 0002:00000b00       ??_C@_0BC@FEOIGMFL@item_flamethrower@ 40047b00     bg_misc.obj
 0002:00000b14       ??_C@_0BF@LKKKMFEM@gfx?1hud?1i_icon_flame@ 40047b14     bg_misc.obj
 0002:00000b2c       ??_C@_0N@LDKIPHF@Flamethrower@ 40047b2c     bg_misc.obj
 0002:00000b3c       ??_C@_0BE@DEHFGJJM@item_electroshocker@ 40047b3c     bg_misc.obj
 0002:00000b50       ??_C@_0BO@HGAFJAAH@gfx?1hud?1i_icon_electroshocker@ 40047b50     bg_misc.obj
 0002:00000b70       ??_C@_0P@GHBIMKA@Electroshocker@ 40047b70     bg_misc.obj
 0002:00000b80       ??_C@_0BC@EFHFLELG@item_sphereshield@ 40047b80     bg_misc.obj
 0002:00000b94       ??_C@_0BM@PDHNDKAK@gfx?1hud?1i_icon_sphereshield@ 40047b94     bg_misc.obj
 0002:00000bb0       ??_C@_0N@BKKHFHJI@Sphereshield@ 40047bb0     bg_misc.obj
 0002:00000bc0       ??_C@_0O@BEKOJGOG@item_overload@ 40047bc0     bg_misc.obj
 0002:00000bd0       ??_C@_0BI@JIMIJIJG@gfx?1hud?1i_icon_overload@ 40047bd0     bg_misc.obj
 0002:00000be8       ??_C@_08JKIFACLF@Overload@ 40047be8     bg_misc.obj
 0002:00000bf4       ??_C@_0N@FPALLBPH@item_grapple@ 40047bf4     bg_misc.obj
 0002:00000c04       ??_C@_0BH@OKHJDCKJ@gfx?1hud?1i_icon_grapple@ 40047c04     bg_misc.obj
 0002:00000c1c       ??_C@_07MKHABLGK@Grapple@  40047c1c     bg_misc.obj
 0002:00000c24       ??_C@_0BL@MINBJMDE@item_force_enlighten_light@ 40047c24     bg_misc.obj
 0002:00000c40       ??_C@_0BP@GFNNPIJO@sound?1player?1enlightenment?4wav@ 40047c40     bg_misc.obj
 0002:00000c60       ??_C@_0CN@DIMKCGKC@models?1map_objects?1mp?1jedi_enli@ 40047c60     bg_misc.obj
 0002:00000c90       ??_C@_0BD@MPGMMGMB@gfx?1hud?1mpi_jlight@ 40047c90     bg_misc.obj
 0002:00000ca4       ??_C@_0BK@JFKBFAGB@item_force_enlighten_dark@ 40047ca4     bg_misc.obj
 0002:00000cc0       ??_C@_0CL@IJLGBCPL@models?1map_objects?1mp?1dk_enligh@ 40047cc0     bg_misc.obj
 0002:00000cec       ??_C@_0BE@NFHAGLDO@gfx?1hud?1mpi_dklight@ 40047cec     bg_misc.obj
 0002:00000d00       ??_C@_0BA@HALIIJIE@item_force_boon@ 40047d00     bg_misc.obj
 0002:00000d10       ??_C@_0BG@GFIPDGIH@sound?1player?1boon?4wav@ 40047d10     bg_misc.obj
 0002:00000d28       ??_C@_0CF@JPDLAKMB@models?1map_objects?1mp?1force_boo@ 40047d28     bg_misc.obj
 0002:00000d50       ??_C@_0BC@DEOLDKOL@gfx?1hud?1mpi_fboon@ 40047d50     bg_misc.obj
 0002:00000d64       ??_C@_0P@BMGIHJKN@item_ysalimari@ 40047d64     bg_misc.obj
 0002:00000d74       ??_C@_0BL@LEFKKCEP@sound?1player?1ysalimari?4wav@ 40047d74     bg_misc.obj
 0002:00000d90       ??_C@_0CE@KCIGBHIN@models?1map_objects?1mp?1ysalimari@ 40047d90     bg_misc.obj
 0002:00000db4       ??_C@_0BE@OEFHDNBF@gfx?1hud?1mpi_ysamari@ 40047db4     bg_misc.obj
 0002:00000dc8       ??_C@_0BC@EJEDEKOE@weapon_stun_baton@ 40047dc8     bg_misc.obj
 0002:00000ddc       ??_C@_0CH@BLMKNANE@models?1weapons2?1stun_baton?1bato@ 40047ddc     bg_misc.obj
 0002:00000e04       ??_C@_0CF@INEBKGM@models?1weapons2?1stun_baton?1bato@ 40047e04     bg_misc.obj
 0002:00000e2c       ??_C@_0BJ@JFPGMAAH@gfx?1hud?1w_icon_stunbaton@ 40047e2c     bg_misc.obj
 0002:00000e48       ??_C@_0N@LBBGELFA@weapon_melee@ 40047e48     bg_misc.obj
 0002:00000e58       ??_C@_0BF@GPOFHEPB@gfx?1hud?1w_icon_melee@ 40047e58     bg_misc.obj
 0002:00000e70       ??_C@_0BC@CEFBGLCB@?$EAMENUS_MELEE_DESC@ 40047e70     bg_misc.obj
 0002:00000e84       ??_C@_0N@JIBGHNNO@weapon_saber@ 40047e84     bg_misc.obj
 0002:00000e94       ??_C@_0CC@PBCBCODB@models?1weapons2?1saber?1saber_w?4g@ 40047e94     bg_misc.obj
 0002:00000eb8       ??_C@_0CC@LELHOPDH@models?1weapons2?1saber?1saber_w?4m@ 40047eb8     bg_misc.obj
 0002:00000edc       ??_C@_0BK@DENAAEJI@gfx?1hud?1w_icon_lightsaber@ 40047edc     bg_misc.obj
 0002:00000ef8       ??_C@_0BN@GPMHMMHO@?$EAMENUS_AN_ELEGANT_WEAPON_FOR@ 40047ef8     bg_misc.obj
 0002:00000f18       ??_C@_0BG@JEHALHIL@weapon_blaster_pistol@ 40047f18     bg_misc.obj
 0002:00000f30       ??_C@_0DE@EHAMJOHG@models?1weapons2?1blaster_pistol?1@ 40047f30     bg_misc.obj
 0002:00000f64       ??_C@_0DC@EGNBDNKO@models?1weapons2?1blaster_pistol?1@ 40047f64     bg_misc.obj
 0002:00000f98       ??_C@_0BO@EGOADNOO@gfx?1hud?1w_icon_blaster_pistol@ 40047f98     bg_misc.obj
 0002:00000fb8       ??_C@_0BL@EJPJHBLO@?$EAMENUS_BLASTER_PISTOL_DESC@ 40047fb8     bg_misc.obj
 0002:00000fd4       ??_C@_0BI@JFLEEDJH@weapon_concussion_rifle@ 40047fd4     bg_misc.obj
 0002:00000fec       ??_C@_0CJ@OKJJMKPH@models?1weapons2?1concussion?1c_ri@ 40047fec     bg_misc.obj
 0002:00001018       ??_C@_0CH@PIBGBJPN@models?1weapons2?1concussion?1c_ri@ 40048018     bg_misc.obj
 0002:00001040       ??_C@_0BH@PEIIGOLA@gfx?1hud?1w_icon_c_rifle@ 40048040     bg_misc.obj
 0002:00001058       ??_C@_0BH@OEFKMKID@?$EAMENUS_CONC_RIFLE_DESC@ 40048058     bg_misc.obj
 0002:00001070       ??_C@_0BE@NCEGAEHJ@weapon_bryar_pistol@ 40048070     bg_misc.obj
 0002:00001084       ??_C@_0DA@DCLFBBNM@models?1weapons2?1briar_pistol?1br@ 40048084     bg_misc.obj
 0002:000010b4       ??_C@_0CO@LMBDAEMJ@models?1weapons2?1briar_pistol?1br@ 400480b4     bg_misc.obj
 0002:000010e4       ??_C@_0BF@HJCHFBMO@gfx?1hud?1w_icon_briar@ 400480e4     bg_misc.obj
 0002:000010fc       ??_C@_0BK@JHPMONHL@?$EASP_INGAME_BLASTER_PISTOL@ 400480fc     bg_misc.obj
 0002:00001118       ??_C@_0P@PPIDHAJM@weapon_blaster@ 40048118     bg_misc.obj
 0002:00001128       ??_C@_0CI@FHMEJMJP@models?1weapons2?1blaster_r?1blast@ 40048128     bg_misc.obj
 0002:00001150       ??_C@_0CG@IJILPHPH@models?1weapons2?1blaster_r?1blast@ 40048150     bg_misc.obj
 0002:00001178       ??_C@_0BH@POPJAOPK@gfx?1hud?1w_icon_blaster@ 40048178     bg_misc.obj
 0002:00001190       ??_C@_0BN@KLDCJACF@?$EAMENUS_THE_PRIMARY_WEAPON_OF@ 40048190     bg_misc.obj
 0002:000011b0       ??_C@_0BB@EKCEEAKB@weapon_disruptor@ 400481b0     bg_misc.obj
 0002:000011c4       ??_C@_0CK@LDOPBIMF@models?1weapons2?1disruptor?1disru@ 400481c4     bg_misc.obj
 0002:000011f0       ??_C@_0CI@KNAINLEF@models?1weapons2?1disruptor?1disru@ 400481f0     bg_misc.obj
 0002:00001218       ??_C@_0BJ@MODONBMB@gfx?1hud?1w_icon_disruptor@ 40048218     bg_misc.obj
 0002:00001234       ??_C@_0BN@PDALGMFE@?$EAMENUS_THIS_NEFARIOUS_WEAPON@ 40048234     bg_misc.obj
 0002:00001254       ??_C@_0BB@KDLDGPGH@weapon_bowcaster@ 40048254     bg_misc.obj
 0002:00001268       ??_C@_0CK@OFDEGMIN@models?1weapons2?1bowcaster?1bowca@ 40048268     bg_misc.obj
 0002:00001294       ??_C@_0CI@MANABGJH@models?1weapons2?1bowcaster?1bowca@ 40048294     bg_misc.obj
 0002:000012bc       ??_C@_0BJ@CHKJPOAH@gfx?1hud?1w_icon_bowcaster@ 400482bc     bg_misc.obj
 0002:000012d8       ??_C@_0BM@MHHBLDA@?$EAMENUS_THIS_ARCHAIC_LOOKING@ 400482d8     bg_misc.obj
 0002:000012f4       ??_C@_0BA@BKCKPFDA@weapon_repeater@ 400482f4     bg_misc.obj
 0002:00001304       ??_C@_0DE@LBIFBLHF@models?1weapons2?1heavy_repeater?1@ 40048304     bg_misc.obj
 0002:00001338       ??_C@_0DC@FAHGABEB@models?1weapons2?1heavy_repeater?1@ 40048338     bg_misc.obj
 0002:0000136c       ??_C@_0BI@LOPKELCD@gfx?1hud?1w_icon_repeater@ 4004836c     bg_misc.obj
 0002:00001384       ??_C@_0CD@FCKGGFFG@?$EAMENUS_THIS_DESTRUCTIVE_PROJECT@ 40048384     bg_misc.obj
 0002:000013a8       ??_C@_0N@MBLCNHPF@weapon_demp2@ 400483a8     bg_misc.obj
 0002:000013b8       ??_C@_0CC@DIKAHCC@models?1weapons2?1demp2?1demp2_w?4g@ 400483b8     bg_misc.obj
 0002:000013dc       ??_C@_0CA@PKACJAPI@models?1weapons2?1demp2?1demp2?4md3@ 400483dc     bg_misc.obj
 0002:000013fc       ??_C@_0BF@BPEBOIFE@gfx?1hud?1w_icon_demp2@ 400483fc     bg_misc.obj
 0002:00001414       ??_C@_0BM@BCDPDFEB@?$EAMENUS_COMMONLY_REFERRED_TO@ 40048414     bg_misc.obj
 0002:00001430       ??_C@_0BB@HNIDLLLF@weapon_flechette@ 40048430     bg_misc.obj
 0002:00001444       ??_C@_0CM@GDMOBBJ@models?1weapons2?1golan_arms?1gola@ 40048444     bg_misc.obj
 0002:00001470       ??_C@_0CK@CNAHGKMH@models?1weapons2?1golan_arms?1gola@ 40048470     bg_misc.obj
 0002:0000149c       ??_C@_0BJ@PJJJCKNF@gfx?1hud?1w_icon_flechette@ 4004849c     bg_misc.obj
 0002:000014b8       ??_C@_0CE@HHDMNMLP@?$EAMENUS_WIDELY_USED_BY_THE_CORPO@ 400484b8     bg_misc.obj
 0002:000014dc       ??_C@_0BH@CFPMIEJH@weapon_rocket_launcher@ 400484dc     bg_misc.obj
 0002:000014f4       ??_C@_0CK@IJJCBMNO@models?1weapons2?1merr_sonn?1merr_@ 400484f4     bg_misc.obj
 0002:00001520       ??_C@_0CI@CPIMDKHH@models?1weapons2?1merr_sonn?1merr_@ 40048520     bg_misc.obj
 0002:00001548       ??_C@_0BI@DDNFEDEJ@gfx?1hud?1w_icon_merrsonn@ 40048548     bg_misc.obj
 0002:00001560       ??_C@_0CC@EJOKBHDJ@?$EAMENUS_THE_PLX_2M_IS_AN_EXTREME@ 40048560     bg_misc.obj
 0002:00001584       ??_C@_0N@IBCNMHOJ@ammo_thermal@ 40048584     bg_misc.obj
 0002:00001594       ??_C@_0CH@BBPIBDBM@models?1weapons2?1thermal?1thermal@ 40048594     bg_misc.obj
 0002:000015bc       ??_C@_0CG@CCBCCJGG@models?1weapons2?1thermal?1thermal@ 400485bc     bg_misc.obj
 0002:000015e4       ??_C@_0CE@PJGNCPEG@models?1weapons2?1thermal?1thermal@ 400485e4     bg_misc.obj
 0002:00001608       ??_C@_0BH@OIMKPGPF@gfx?1hud?1w_icon_thermal@ 40048608     bg_misc.obj
 0002:00001620       ??_C@_0BN@FMFLLCGL@?$EAMENUS_THE_THERMAL_DETONATOR@ 40048620     bg_misc.obj
 0002:00001640       ??_C@_0O@GAPOPCOE@ammo_tripmine@ 40048640     bg_misc.obj
 0002:00001650       ??_C@_0CN@JOEHJLGB@models?1weapons2?1laser_trap?1lase@ 40048650     bg_misc.obj
 0002:00001680       ??_C@_0CM@PIAEKLLK@models?1weapons2?1laser_trap?1lase@ 40048680     bg_misc.obj
 0002:000016ac       ??_C@_0CK@BPCANEAG@models?1weapons2?1laser_trap?1lase@ 400486ac     bg_misc.obj
 0002:000016d8       ??_C@_0BI@HEJGEJJK@gfx?1hud?1w_icon_tripmine@ 400486d8     bg_misc.obj
 0002:000016f0       ??_C@_0BN@CMMDBNGF@?$EAMENUS_TRIP_MINES_CONSIST_OF@ 400486f0     bg_misc.obj
 0002:00001710       ??_C@_0N@CIBIOIEN@ammo_detpack@ 40048710     bg_misc.obj
 0002:00001720       ??_C@_0CI@CBJMGLP@models?1weapons2?1detpack?1det_pac@ 40048720     bg_misc.obj
 0002:00001748       ??_C@_0CK@CDFEGPDE@models?1weapons2?1detpack?1det_pac@ 40048748     bg_misc.obj
 0002:00001774       ??_C@_0CH@KPFPNMHO@models?1weapons2?1detpack?1det_pac@ 40048774     bg_misc.obj
 0002:0000179c       ??_C@_0CF@NONMEFGL@models?1weapons2?1detpack?1det_pac@ 4004879c     bg_misc.obj
 0002:000017c4       ??_C@_0BH@EBPPNJFB@gfx?1hud?1w_icon_detpack@ 400487c4     bg_misc.obj
 0002:000017dc       ??_C@_0BM@MOLHJNKH@?$EAMENUS_A_DETONATION_PACK_IS@ 400487dc     bg_misc.obj
 0002:000017f8       ??_C@_0P@OJLAIIJD@weapon_thermal@ 400487f8     bg_misc.obj
 0002:00001808       ??_C@_0BB@KBIODFKP@weapon_trip_mine@ 40048808     bg_misc.obj
 0002:0000181c       ??_C@_0BA@DBJEACCG@weapon_det_pack@ 4004881c     bg_misc.obj
 0002:0000182c       ??_C@_0BA@PHDHEKAE@weapon_emplaced@ 4004882c     bg_misc.obj
 0002:0000183c       ??_C@_0BA@EENDCNMH@weapon_turretwp@ 4004883c     bg_misc.obj
 0002:0000184c       ??_C@_0L@GKDELMG@ammo_force@ 4004884c     bg_misc.obj
 0002:00001858       ??_C@_0BO@EBHMDMMM@sound?1player?1pickupenergy?4wav@ 40048858     bg_misc.obj
 0002:00001878       ??_C@_0BN@BKBHFNLE@models?1items?1energy_cell?4md3@ 40048878     bg_misc.obj
 0002:00001898       ??_C@_0N@JHBODPOG@ammo_blaster@ 40048898     bg_misc.obj
 0002:000018a8       ??_C@_0BH@MFDMPLPM@gfx?1hud?1i_icon_battery@ 400488a8     bg_misc.obj
 0002:000018c0       ??_C@_0P@GBMHNHF@ammo_powercell@ 400488c0     bg_misc.obj
 0002:000018d0       ??_C@_0BM@GDMBBHDI@models?1items?1power_cell?4md3@ 400488d0     bg_misc.obj
 0002:000018ec       ??_C@_0BH@KBMOAFPH@gfx?1mp?1ammo_power_cell@ 400488ec     bg_misc.obj
 0002:00001904       ??_C@_0BE@OMMGIMPN@ammo_metallic_bolts@ 40048904     bg_misc.obj
 0002:00001918       ??_C@_0CA@POKDMLNN@models?1items?1metallic_bolts?4md3@ 40048918     bg_misc.obj
 0002:00001938       ??_C@_0BL@IPLJCMOM@gfx?1mp?1ammo_metallic_bolts@ 40048938     bg_misc.obj
 0002:00001954       ??_C@_0N@CLEPKBOE@ammo_rockets@ 40048954     bg_misc.obj
 0002:00001964       ??_C@_0BJ@BCBNBFGD@models?1items?1rockets?4md3@ 40048964     bg_misc.obj
 0002:00001980       ??_C@_0BE@IIEBFJHN@gfx?1mp?1ammo_rockets@ 40048980     bg_misc.obj
 0002:00001994       ??_C@_08LLJPIFOF@ammo_all@ 40048994     bg_misc.obj
 0002:000019a0       ??_C@_0BJ@DIDDNCPE@models?1items?1battery?4md3@ 400489a0     bg_misc.obj
 0002:000019bc       ??_C@_0BB@JNMMCIHG@team_CTF_redflag@ 400489bc     bg_misc.obj
 0002:000019d0       ??_C@_0BI@PEHEOJEO@models?1flags?1r_flag?4md3@ 400489d0     bg_misc.obj
 0002:000019e8       ??_C@_0BN@DGDBEGIO@models?1flags?1r_flag_ysal?4md3@ 400489e8     bg_misc.obj
 0002:00001a08       ??_C@_0BC@JAMFOFAL@gfx?1hud?1mpi_rflag@ 40048a08     bg_misc.obj
 0002:00001a1c       ??_C@_0BC@NLKCOFAB@team_CTF_blueflag@ 40048a1c     bg_misc.obj
 0002:00001a30       ??_C@_0BI@FKICCNIF@models?1flags?1b_flag?4md3@ 40048a30     bg_misc.obj
 0002:00001a48       ??_C@_0BN@NABGHIBA@models?1flags?1b_flag_ysal?4md3@ 40048a48     bg_misc.obj
 0002:00001a68       ??_C@_0BC@JDBDOHJA@gfx?1hud?1mpi_bflag@ 40048a68     bg_misc.obj
 0002:00001a7c       ??_C@_0BF@NFGOPKAE@team_CTF_neutralflag@ 40048a7c     bg_misc.obj
 0002:00001a94       ??_C@_0BI@FAJILPEC@models?1flags?1n_flag?4md3@ 40048a94     bg_misc.obj
 0002:00001aac       ??_C@_0BF@OGGGKBMJ@icons?1iconf_neutral1@ 40048aac     bg_misc.obj
 0002:00001ac4       ??_C@_0N@IDOEINCB@item_redcube@ 40048ac4     bg_misc.obj
 0002:00001ad4       ??_C@_0BO@LDKNFLC@models?1powerups?1orb?1r_orb?4md3@ 40048ad4     bg_misc.obj
 0002:00001af4       ??_C@_0BB@PKDLFOID@icons?1iconh_rorb@ 40048af4     bg_misc.obj
 0002:00001b08       ??_C@_0O@NHDOFNIN@item_bluecube@ 40048b08     bg_misc.obj
 0002:00001b18       ??_C@_0BO@CMJEFEFK@models?1powerups?1orb?1b_orb?4md3@ 40048b18     bg_misc.obj
 0002:00001b38       ??_C@_0BB@JKNLMJAB@icons?1iconh_borb@ 40048b38     bg_misc.obj
 0002:00001b4c       ??_C@_07JFMDDPHJ@EV_NONE@  40048b4c     bg_misc.obj
 0002:00001b54       ??_C@_0O@JHBAELOC@EV_CLIENTJOIN@ 40048b54     bg_misc.obj
 0002:00001b64       ??_C@_0M@HLKBOJPO@EV_FOOTSTEP@ 40048b64     bg_misc.obj
 0002:00001b70       ??_C@_0BC@DIJMAMMI@EV_FOOTSTEP_METAL@ 40048b70     bg_misc.obj
 0002:00001b84       ??_C@_0O@HLJHKIDH@EV_FOOTSPLASH@ 40048b84     bg_misc.obj
 0002:00001b94       ??_C@_0M@NPJBGELA@EV_FOOTWADE@ 40048b94     bg_misc.obj
 0002:00001ba0       ??_C@_07FFIIIPLH@EV_SWIM@  40048ba0     bg_misc.obj
 0002:00001ba8       ??_C@_09OLFOHJNB@EV_STEP_4@ 40048ba8     bg_misc.obj
 0002:00001bb4       ??_C@_09EHOLDGNN@EV_STEP_8@ 40048bb4     bg_misc.obj
 0002:00001bc0       ??_C@_0L@BKIECKKB@EV_STEP_12@ 40048bc0     bg_misc.obj
 0002:00001bcc       ??_C@_0L@HOOIOPKF@EV_STEP_16@ 40048bcc     bg_misc.obj
 0002:00001bd8       ??_C@_07JHCKGMKM@EV_FALL@  40048bd8     bg_misc.obj
 0002:00001be0       ??_C@_0N@PAALAJAC@EV_SABERLOCK@ 40048be0     bg_misc.obj
 0002:00001bf0       ??_C@_0P@BMAPLDAL@EV_GHOUL2_MARK@ 40048bf0     bg_misc.obj
 0002:00001c00       ??_C@_0P@MHGGNABN@EV_GLOBAL_DUEL@ 40048c00     bg_misc.obj
 0002:00001c10       ??_C@_0BA@NCAJLGNF@EV_PRIVATE_DUEL@ 40048c10     bg_misc.obj
 0002:00001c20       ??_C@_07GKBEHGAP@EV_JUMP@  40048c20     bg_misc.obj
 0002:00001c28       ??_C@_07OCJFCKNN@EV_ROLL@  40048c28     bg_misc.obj
 0002:00001c30       ??_C@_0P@GCDBKPMP@EV_WATER_TOUCH@ 40048c30     bg_misc.obj
 0002:00001c40       ??_C@_0P@LHDMOIIG@EV_WATER_LEAVE@ 40048c40     bg_misc.obj
 0002:00001c50       ??_C@_0P@MIAIODEJ@EV_WATER_UNDER@ 40048c50     bg_misc.obj
 0002:00001c60       ??_C@_0P@NIPCJOBG@EV_WATER_CLEAR@ 40048c60     bg_misc.obj
 0002:00001c70       ??_C@_0P@BGIOEPCB@EV_ITEM_PICKUP@ 40048c70     bg_misc.obj
 0002:00001c80       ??_C@_0BG@KFILGAMN@EV_GLOBAL_ITEM_PICKUP@ 40048c80     bg_misc.obj
 0002:00001c98       ??_C@_0M@MNGOLNFL@EV_VEH_FIRE@ 40048c98     bg_misc.obj
 0002:00001ca4       ??_C@_09NMIICG@EV_NOAMMO@  40048ca4     bg_misc.obj
 0002:00001cb0       ??_C@_0BB@ENKPHJLP@EV_CHANGE_WEAPON@ 40048cb0     bg_misc.obj
 0002:00001cc4       ??_C@_0P@PFJPAFGH@EV_FIRE_WEAPON@ 40048cc4     bg_misc.obj
 0002:00001cd4       ??_C@_0M@LKPOHPHC@EV_ALT_FIRE@ 40048cd4     bg_misc.obj
 0002:00001ce0       ??_C@_0BA@FJAFFDLF@EV_SABER_ATTACK@ 40048ce0     bg_misc.obj
 0002:00001cf0       ??_C@_0N@IKFBFHKB@EV_SABER_HIT@ 40048cf0     bg_misc.obj
 0002:00001d00       ??_C@_0P@MNCBBKHB@EV_SABER_BLOCK@ 40048d00     bg_misc.obj
 0002:00001d10       ??_C@_0BE@HNEOPGEL@EV_SABER_CLASHFLARE@ 40048d10     bg_misc.obj
 0002:00001d24       ??_C@_0BD@FFJMPGGA@EV_SABER_UNHOLSTER@ 40048d24     bg_misc.obj
 0002:00001d38       ??_C@_0BF@MBILLJJH@EV_BECOME_JEDIMASTER@ 40048d38     bg_misc.obj
 0002:00001d50       ??_C@_0BH@KDGLLAMO@EV_DISRUPTOR_MAIN_SHOT@ 40048d50     bg_misc.obj
 0002:00001d68       ??_C@_0BJ@MDNKGNJN@EV_DISRUPTOR_SNIPER_SHOT@ 40048d68     bg_misc.obj
 0002:00001d84       ??_C@_0BJ@POMLOPMI@EV_DISRUPTOR_SNIPER_MISS@ 40048d84     bg_misc.obj
 0002:00001da0       ??_C@_0BB@JNGCFFFI@EV_DISRUPTOR_HIT@ 40048da0     bg_misc.obj
 0002:00001db4       ??_C@_0BH@GCPNKPAL@EV_DISRUPTOR_ZOOMSOUND@ 40048db4     bg_misc.obj
 0002:00001dcc       ??_C@_0P@MDPKBHNH@EV_PREDEFSOUND@ 40048dcc     bg_misc.obj
 0002:00001ddc       ??_C@_0O@GMONIJJI@EV_TEAM_POWER@ 40048ddc     bg_misc.obj
 0002:00001dec       ??_C@_0P@EIHBPBOL@EV_SCREENSHAKE@ 40048dec     bg_misc.obj
 0002:00001dfc       ??_C@_0O@GLOAIHAI@EV_LOCALTIMER@ 40048dfc     bg_misc.obj
 0002:00001e0c       ??_C@_06LBDBNJG@EV_USE@    40048e0c     bg_misc.obj
 0002:00001e14       ??_C@_0N@CGCBJKGD@EV_USE_ITEM0@ 40048e14     bg_misc.obj
 0002:00001e24       ??_C@_0N@DPDKKLCC@EV_USE_ITEM1@ 40048e24     bg_misc.obj
 0002:00001e34       ??_C@_0N@BEBHPIOB@EV_USE_ITEM2@ 40048e34     bg_misc.obj
 0002:00001e44       ??_C@_0N@NAMMJKA@EV_USE_ITEM3@ 40048e44     bg_misc.obj
 0002:00001e54       ??_C@_0N@ECENFPGH@EV_USE_ITEM4@ 40048e54     bg_misc.obj
 0002:00001e64       ??_C@_0N@FLFGGOCG@EV_USE_ITEM5@ 40048e64     bg_misc.obj
 0002:00001e74       ??_C@_0N@HAHLDNOF@EV_USE_ITEM6@ 40048e74     bg_misc.obj
 0002:00001e84       ??_C@_0N@GJGAAMKE@EV_USE_ITEM7@ 40048e84     bg_misc.obj
 0002:00001e94       ??_C@_0N@OOPIBAGL@EV_USE_ITEM8@ 40048e94     bg_misc.obj
 0002:00001ea4       ??_C@_0N@PHODCBCK@EV_USE_ITEM9@ 40048ea4     bg_misc.obj
 0002:00001eb4       ??_C@_0O@KBJENLM@EV_USE_ITEM10@ 40048eb4     bg_misc.obj
 0002:00001ec4       ??_C@_0O@BDACHMPN@EV_USE_ITEM11@ 40048ec4     bg_misc.obj
 0002:00001ed4       ??_C@_0O@DICPCPDO@EV_USE_ITEM12@ 40048ed4     bg_misc.obj
 0002:00001ee4       ??_C@_0O@CBDEBOHP@EV_USE_ITEM13@ 40048ee4     bg_misc.obj
 0002:00001ef4       ??_C@_0O@GOHFIILI@EV_USE_ITEM14@ 40048ef4     bg_misc.obj
 0002:00001f04       ??_C@_0O@HHGOLJPJ@EV_USE_ITEM15@ 40048f04     bg_misc.obj
 0002:00001f14       ??_C@_0P@JFHCOBFC@EV_ITEMUSEFAIL@ 40048f14     bg_misc.obj
 0002:00001f24       ??_C@_0BA@GJNCODNG@EV_ITEM_RESPAWN@ 40048f24     bg_misc.obj
 0002:00001f34       ??_C@_0M@ECGFPIMP@EV_ITEM_POP@ 40048f34     bg_misc.obj
 0002:00001f40       ??_C@_0BG@HBBJKNDP@EV_PLAYER_TELEPORT_IN@ 40048f40     bg_misc.obj
 0002:00001f58       ??_C@_0BH@FNNILPIN@EV_PLAYER_TELEPORT_OUT@ 40048f58     bg_misc.obj
 0002:00001f70       ??_C@_0BC@ECIIAFLJ@EV_GRENADE_BOUNCE@ 40048f70     bg_misc.obj
 0002:00001f84       ??_C@_0BB@JGOOAGDJ@EV_MISSILE_STICK@ 40048f84     bg_misc.obj
 0002:00001f98       ??_C@_0P@PLIFONPM@EV_PLAY_EFFECT@ 40048f98     bg_misc.obj
 0002:00001fa8       ??_C@_0BC@LCOMFDPL@EV_PLAY_EFFECT_ID@ 40048fa8     bg_misc.obj
 0002:00001fbc       ??_C@_0BJ@CGDHKBCK@EV_PLAY_PORTAL_EFFECT_ID@ 40048fbc     bg_misc.obj
 0002:00001fd8       ??_C@_0BB@OGNONJKP@EV_PLAYDOORSOUND@ 40048fd8     bg_misc.obj
 0002:00001fec       ??_C@_0BF@BLAPJAMF@EV_PLAYDOORLOOPSOUND@ 40048fec     bg_misc.obj
 0002:00002004       ??_C@_0BA@EGLCGAMO@EV_BMODEL_SOUND@ 40049004     bg_misc.obj
 0002:00002014       ??_C@_0O@JHBKAOKG@EV_MUTE_SOUND@ 40049014     bg_misc.obj
 0002:00002024       ??_C@_0BC@GMNGJAOD@EV_VOICECMD_SOUND@ 40049024     bg_misc.obj
 0002:00002038       ??_C@_0BB@LJGGMAII@EV_GENERAL_SOUND@ 40049038     bg_misc.obj
 0002:0000204c       ??_C@_0BA@JAMKLOPJ@EV_GLOBAL_SOUND@ 4004904c     bg_misc.obj
 0002:0000205c       ??_C@_0BF@DDOIKLHD@EV_GLOBAL_TEAM_SOUND@ 4004905c     bg_misc.obj
 0002:00002074       ??_C@_0BA@LLJGBFCE@EV_ENTITY_SOUND@ 40049074     bg_misc.obj
 0002:00002084       ??_C@_0N@BEKJCCJE@EV_PLAY_ROFF@ 40049084     bg_misc.obj
 0002:00002094       ??_C@_0BB@HHFJBAND@EV_GLASS_SHATTER@ 40049094     bg_misc.obj
 0002:000020a8       ??_C@_09KLJDDMJG@EV_DEBRIS@ 400490a8     bg_misc.obj
 0002:000020b4       ??_C@_0BC@MLGOBNCG@EV_MISC_MODEL_EXP@ 400490b4     bg_misc.obj
 0002:000020c8       ??_C@_0BD@PIOAMKHB@EV_CONC_ALT_IMPACT@ 400490c8     bg_misc.obj
 0002:000020dc       ??_C@_0P@JFMFNBMO@EV_MISSILE_HIT@ 400490dc     bg_misc.obj
 0002:000020ec       ??_C@_0BA@CAHALNAE@EV_MISSILE_MISS@ 400490ec     bg_misc.obj
 0002:000020fc       ??_C@_0BG@LPAHEABB@EV_MISSILE_MISS_METAL@ 400490fc     bg_misc.obj
 0002:00002114       ??_C@_09ICDIPKFJ@EV_BULLET@ 40049114     bg_misc.obj
 0002:00002120       ??_C@_07EMHHKOOH@EV_PAIN@  40049120     bg_misc.obj
 0002:00002128       ??_C@_09JPFBHKII@EV_DEATH1@ 40049128     bg_misc.obj
 0002:00002134       ??_C@_09LEHMCJEL@EV_DEATH2@ 40049134     bg_misc.obj
 0002:00002140       ??_C@_09KNGHBIAK@EV_DEATH3@ 40049140     bg_misc.obj
 0002:0000214c       ??_C@_0M@PPLCDPP@EV_OBITUARY@ 4004914c     bg_misc.obj
 0002:00002158       ??_C@_0BA@HLHGHIIE@EV_POWERUP_QUAD@ 40049158     bg_misc.obj
 0002:00002168       ??_C@_0BG@CHAMNADK@EV_POWERUP_BATTLESUIT@ 40049168     bg_misc.obj
 0002:00002180       ??_C@_0BB@KGMADNKO@EV_FORCE_DRAINED@ 40049180     bg_misc.obj
 0002:00002194       ??_C@_0BB@LDCLJANJ@EV_FORCE_SEVERED@ 40049194     bg_misc.obj
 0002:000021a8       ??_C@_0BA@PGDIDKOJ@EV_FORCE_HEALED@ 400491a8     bg_misc.obj
 0002:000021b8       ??_C@_0BF@OMLNBOMB@EV_FORCE_REGENERATED@ 400491b8     bg_misc.obj
 0002:000021d0       ??_C@_0BA@FPIIBJNI@EV_FORCE_STASIS@ 400491d0     bg_misc.obj
 0002:000021e0       ??_C@_0BC@MKAIHILO@EV_FORCE_INSANITY@ 400491e0     bg_misc.obj
 0002:000021f4       ??_C@_0BD@NHHNFEOE@EV_FORCE_LIGHTNING@ 400491f4     bg_misc.obj
 0002:00002208       ??_C@_0BD@EMEDLHAI@EV_FORCE_JUDGEMENT@ 40049208     bg_misc.obj
 0002:0000221c       ??_C@_0BG@KGJCLJPB@EV_FORCE_DEATHFIELDED@ 4004921c     bg_misc.obj
 0002:00002234       ??_C@_0BG@HKJINGOK@EV_FORCE_DEATHSIGHTED@ 40049234     bg_misc.obj
 0002:0000224c       ??_C@_0BB@GGIAGNKD@EV_FORCE_BLINDED@ 4004924c     bg_misc.obj
 0002:00002260       ??_C@_09LNCDAJGA@EV_BURNED@ 40049260     bg_misc.obj
 0002:0000226c       ??_C@_09OJINGGLK@EV_FROZEN@ 4004926c     bg_misc.obj
 0002:00002278       ??_C@_0L@MJMHMMBL@EV_SHOCKED@ 40049278     bg_misc.obj
 0002:00002284       ??_C@_0L@ONOAHIP@EV_SOUNDED@ 40049284     bg_misc.obj
 0002:00002290       ??_C@_0L@EBIMIOFL@EV_FLASHED@ 40049290     bg_misc.obj
 0002:0000229c       ??_C@_0O@JLGFLKBE@EV_GIB_PLAYER@ 4004929c     bg_misc.obj
 0002:000022ac       ??_C@_0N@GAJBP@EV_SCOREPLUM@ 400492ac     bg_misc.obj
 0002:000022bc       ??_C@_0O@NEHCEMNJ@EV_CTFMESSAGE@ 400492bc     bg_misc.obj
 0002:000022cc       ??_C@_0M@GBGEMMKK@EV_BODYFADE@ 400492cc     bg_misc.obj
 0002:000022d8       ??_C@_0BD@LACADBAO@EV_SIEGE_ROUNDOVER@ 400492d8     bg_misc.obj
 0002:000022ec       ??_C@_0BL@CGBBFEIE@EV_SIEGE_OBJECTIVECOMPLETE@ 400492ec     bg_misc.obj
 0002:00002308       ??_C@_0BL@DNICLAEN@EV_DESTROY_GHOUL2_INSTANCE@ 40049308     bg_misc.obj
 0002:00002324       ??_C@_0BI@CEGPCIEH@EV_DESTROY_WEAPON_MODEL@ 40049324     bg_misc.obj
 0002:0000233c       ??_C@_0BB@JIHOLMBD@EV_GIVE_NEW_RANK@ 4004933c     bg_misc.obj
 0002:00002350       ??_C@_0BC@DDJADHAK@EV_SET_FREE_SABER@ 40049350     bg_misc.obj
 0002:00002364       ??_C@_0BF@KFICFFCM@EV_SET_FORCE_DISABLE@ 40049364     bg_misc.obj
 0002:0000237c       ??_C@_0BB@HAHOHAKJ@EV_WEAPON_CHARGE@ 4004937c     bg_misc.obj
 0002:00002390       ??_C@_0BF@LLJHJACN@EV_WEAPON_CHARGE_ALT@ 40049390     bg_misc.obj
 0002:000023a8       ??_C@_0O@CBLOOGHB@EV_SHIELD_HIT@ 400493a8     bg_misc.obj
 0002:000023b8       ??_C@_0O@PBPAKHP@EV_DEBUG_LINE@ 400493b8     bg_misc.obj
 0002:000023c8       ??_C@_0M@LDAKOPJP@EV_TESTLINE@ 400493c8     bg_misc.obj
 0002:000023d4       ??_C@_0BE@OHJHDFJH@EV_STOPLOOPINGSOUND@ 400493d4     bg_misc.obj
 0002:000023e8       ??_C@_0BF@EAHNFOOG@EV_STARTLOOPINGSOUND@ 400493e8     bg_misc.obj
 0002:00002400       ??_C@_08GBKLDCBE@EV_TAUNT@ 40049400     bg_misc.obj
 0002:0000240c       ??_C@_0BG@LLNBCDKB@EV_PLAY_EFFECT_BOLTED@ 4004940c     bg_misc.obj
 0002:00002424       ??_C@_0CI@GINMDDBF@5?91?9000000000000000000000000000@ 40049424     bg_misc.obj
 0002:0000244c       ??_C@_03COHLNFKP@?$CFi?9@  4004944c     bg_misc.obj
 0002:00002450       ??_C@_02IKAHHCAI@?$CFi@    40049450     bg_misc.obj
 0002:00002454       ??_C@_0BH@MFGKJDLM@HoldableItem?5not?5found@ 40049454     bg_misc.obj
 0002:0000246c       ??_C@_0CB@DEACFJO@Couldn?8t?5find?5item?5for?5weapon?5?$CF@ 4004946c     bg_misc.obj
 0002:00002490       ??_C@_04JIEPAMAO@kyle@     40049490     bg_misc.obj
 0002:00002498       ??_C@_0CJ@BDGLLNGN@BG_Alloc?3?5buffer?5exceeded?5tail?5@ 40049498     bg_misc.obj
 0002:000024c4       __real@3a83126f            400494c4     bg_misc.obj
 0002:000024c8       __real@3f800000            400494c8     bg_misc.obj
 0002:000024d0       __real@3fe0000000000000    400494d0     bg_misc.obj
 0002:000024d8       __real@40490fdb            400494d8     bg_misc.obj
 0002:000024dc       __real@42100000            400494dc     bg_misc.obj
 0002:000024e0       __real@42300000            400494e0     bg_misc.obj
 0002:000024e4       __real@42b40000            400494e4     bg_misc.obj
 0002:000024e8       __real@43b40000            400494e8     bg_misc.obj
 0002:000024ec       __real@bf800000            400494ec     bg_misc.obj
 0002:000024f0       __xmm@00000001000000010000000100000001 400494f0     bg_misc.obj
 0002:00002500       __xmm@80000000800000008000000080000000 40049500     bg_misc.obj
 0002:00002510       __xmm@ffffffffffffffffffffffffffffffff 40049510     bg_misc.obj
 0002:00002520       ??_C@_0BB@OIJDKHFE@CFL_MORESABERDMG@ 40049520     bg_saga.obj
 0002:00002534       ??_C@_0BK@JLDBMALB@CFL_STRONGAGAINSTPHYSICAL@ 40049534     bg_saga.obj
 0002:00002550       ??_C@_0BD@DNMLPLIL@CFL_FASTFORCEREGEN@ 40049550     bg_saga.obj
 0002:00002564       ??_C@_0P@DKGINMOP@CFL_STATVIEWER@ 40049564     bg_saga.obj
 0002:00002574       ??_C@_0P@NCLEBEDM@CFL_HEAVYMELEE@ 40049574     bg_saga.obj
 0002:00002584       ??_C@_0BC@LICHKKD@CFL_SINGLE_ROCKET@ 40049584     bg_saga.obj
 0002:00002598       ??_C@_0P@LBJDDHDM@CFL_CUSTOMSKEL@ 40049598     bg_saga.obj
 0002:000025a8       ??_C@_0P@KICFDAJ@CFL_EXTRA_AMMO@ 400495a8     bg_saga.obj
 0002:000025b8       ??_C@_07HNCPCIHC@SS_NONE@  400495b8     bg_saga.obj
 0002:000025c0       ??_C@_07OKKHAHLD@SS_FAST@  400495c0     bg_saga.obj
 0002:000025c8       ??_C@_09JHAJINFA@SS_MEDIUM@ 400495c8     bg_saga.obj
 0002:000025d4       ??_C@_09EIDFCCBI@SS_STRONG@ 400495d4     bg_saga.obj
 0002:000025e0       ??_C@_09COLLLEKM@SS_DESANN@ 400495e0     bg_saga.obj
 0002:000025ec       ??_C@_09NOGCKHNM@SS_TAVION@ 400495ec     bg_saga.obj
 0002:000025f8       ??_C@_07NCKFHLFM@SS_DUAL@  400495f8     bg_saga.obj
 0002:00002600       ??_C@_08OKAIMOGC@SS_STAFF@ 40049600     bg_saga.obj
 0002:0000260c       ??_C@_04HIBGFPH@NULL@      4004960c     bg_saga.obj
 0002:00002614       ??_C@_07MIINDMBF@WP_NONE@  40049614     bg_saga.obj
 0002:0000261c       ??_C@_0O@NNFLCPNL@WP_STUN_BATON@ 4004961c     bg_saga.obj
 0002:0000262c       ??_C@_08IGDGHABD@WP_MELEE@ 4004962c     bg_saga.obj
 0002:00002638       ??_C@_08KPDGEGJN@WP_SABER@ 40049638     bg_saga.obj
 0002:00002644       ??_C@_0BA@GBAOKNDN@WP_BRYAR_PISTOL@ 40049644     bg_saga.obj
 0002:00002654       ??_C@_0BC@LEINJGEK@WP_BLASTER_PISTOL@ 40049654     bg_saga.obj
 0002:00002668       ??_C@_0L@DIBFNABM@WP_BLASTER@ 40049668     bg_saga.obj
 0002:00002674       ??_C@_0N@KLINONG@WP_DISRUPTOR@ 40049674     bg_saga.obj
 0002:00002684       ??_C@_0N@ODCPPBBA@WP_BOWCASTER@ 40049684     bg_saga.obj
 0002:00002694       ??_C@_0M@GCNBMEBC@WP_REPEATER@ 40049694     bg_saga.obj
 0002:000026a0       ??_C@_08GDBGMIBE@WP_DEMP2@ 400496a0     bg_saga.obj
 0002:000026ac       ??_C@_0N@DNBPCFMC@WP_FLECHETTE@ 400496ac     bg_saga.obj
 0002:000026bc       ??_C@_0BD@JBJHCOEB@WP_ROCKET_LAUNCHER@ 400496bc     bg_saga.obj
 0002:000026d0       ??_C@_0L@COCGCIBD@WP_THERMAL@ 400496d0     bg_saga.obj
 0002:000026dc       ??_C@_0N@OGLOKOOO@WP_TRIP_MINE@ 400496dc     bg_saga.obj
 0002:000026ec       ??_C@_0M@EOMDDGDC@WP_DET_PACK@ 400496ec     bg_saga.obj
 0002:000026f8       ??_C@_0O@MNNKJNKC@WP_CONCUSSION@ 400496f8     bg_saga.obj
 0002:00002708       ??_C@_0N@OIFGJENP@WP_BRYAR_OLD@ 40049708     bg_saga.obj
 0002:00002718       ??_C@_0BA@HPLIMHOO@WP_EMPLACED_GUN@ 40049718     bg_saga.obj
 0002:00002728       ??_C@_09LJGBHCLN@WP_TURRET@ 40049728     bg_saga.obj
 0002:00002734       ??_C@_07ECPPOEBA@FP_HEAL@  40049734     bg_saga.obj
 0002:0000273c       ??_C@_0O@GOCMKMCC@FP_LEVITATION@ 4004973c     bg_saga.obj
 0002:0000274c       ??_C@_08MIECCDPD@FP_SPEED@ 4004974c     bg_saga.obj
 0002:00002758       ??_C@_07DJLINNNG@FP_PUSH@  40049758     bg_saga.obj
 0002:00002760       ??_C@_07EKKOPMJP@FP_PULL@  40049760     bg_saga.obj
 0002:00002768       ??_C@_0N@EOKHLCHN@FP_TELEPATHY@ 40049768     bg_saga.obj
 0002:00002778       ??_C@_07OFAFBAAC@FP_GRIP@  40049778     bg_saga.obj
 0002:00002780       ??_C@_0N@MLCJOEAL@FP_LIGHTNING@ 40049780     bg_saga.obj
 0002:00002790       ??_C@_07DCICDLJP@FP_RAGE@  40049790     bg_saga.obj
 0002:00002798       ??_C@_0L@GMEKEMHM@FP_PROTECT@ 40049798     bg_saga.obj
 0002:000027a4       ??_C@_09MANKLPPB@FP_ABSORB@ 400497a4     bg_saga.obj
 0002:000027b0       ??_C@_0N@MKMKNEAO@FP_TEAM_HEAL@ 400497b0     bg_saga.obj
 0002:000027c0       ??_C@_0O@FDDGJKAO@FP_TEAM_FORCE@ 400497c0     bg_saga.obj
 0002:000027d0       ??_C@_08NAMGMEAJ@FP_DRAIN@ 400497d0     bg_saga.obj
 0002:000027dc       ??_C@_06NBGCGEAI@FP_SEE@   400497dc     bg_saga.obj
 0002:000027e4       ??_C@_0BB@IIFNHLOA@FP_SABER_OFFENSE@ 400497e4     bg_saga.obj
 0002:000027f8       ??_C@_0BB@OENPHNCL@FP_SABER_DEFENSE@ 400497f8     bg_saga.obj
 0002:0000280c       ??_C@_0O@HFIJJPHA@FP_SABERTHROW@ 4004980c     bg_saga.obj
 0002:0000281c       ??_C@_07JPFAMGIP@HI_NONE@  4004981c     bg_saga.obj
 0002:00002824       ??_C@_09FNJEOG@HI_SEEKER@  40049824     bg_saga.obj
 0002:00002830       ??_C@_09IKKFJDFC@HI_SHIELD@ 40049830     bg_saga.obj
 0002:0000283c       ??_C@_09NJBEABJH@HI_MEDPAC@ 4004983c     bg_saga.obj
 0002:00002848       ??_C@_0BB@PHGOPPGA@HI_SHIELDBOOSTER@ 40049848     bg_saga.obj
 0002:0000285c       ??_C@_0O@ELJADNKI@HI_BINOCULARS@ 4004985c     bg_saga.obj
 0002:0000286c       ??_C@_0O@FBGGHEEG@HI_SENTRY_GUN@ 4004986c     bg_saga.obj
 0002:0000287c       ??_C@_0L@HECMIPKK@HI_JETPACK@ 4004987c     bg_saga.obj
 0002:00002888       ??_C@_0N@FICGOLOI@HI_SQUADTEAM@ 40049888     bg_saga.obj
 0002:00002898       ??_C@_0BA@DCMPJBHE@HI_VEHICLEMOUNT@ 40049898     bg_saga.obj
 0002:000028a8       ??_C@_0BA@NGNCJBLG@HI_FLAMETHROWER@ 400498a8     bg_saga.obj
 0002:000028b8       ??_C@_0BC@LBGAIKOE@HI_ELECTROSHOCKER@ 400498b8     bg_saga.obj
 0002:000028cc       ??_C@_07DODJPBMI@HI_EWEB@  400498cc     bg_saga.obj
 0002:000028d4       ??_C@_08CKJOPOAO@HI_CLOAK@ 400498d4     bg_saga.obj
 0002:000028e0       ??_C@_0BA@MHEPEJFL@HI_SPHERESHIELD@ 400498e0     bg_saga.obj
 0002:000028f0       ??_C@_0M@CJHBFHFB@HI_OVERLOAD@ 400498f0     bg_saga.obj
 0002:000028fc       ??_C@_0L@GDDBPBFK@HI_GRAPPLE@ 400498fc     bg_saga.obj
 0002:00002908       ??_C@_0O@MMBFHIEB@PW_BATTLESUIT@ 40049908     bg_saga.obj
 0002:00002918       ??_C@_07DFNNPKLN@PW_PULL@  40049918     bg_saga.obj
 0002:00002920       ??_C@_0L@EHANBCOH@PW_REDFLAG@ 40049920     bg_saga.obj
 0002:0000292c       ??_C@_0M@MJPEKDEL@PW_BLUEFLAG@ 4004992c     bg_saga.obj
 0002:00002938       ??_C@_0P@IBLDCDDO@PW_NEUTRALFLAG@ 40049938     bg_saga.obj
 0002:00002948       ??_C@_0N@GHPJGBHC@PW_SHIELDHIT@ 40049948     bg_saga.obj
 0002:00002958       ??_C@_0O@ENGHHLHL@PW_SPEEDBURST@ 40049958     bg_saga.obj
 0002:00002968       ??_C@_0M@FBGLLBBK@PW_DISINT_4@ 40049968     bg_saga.obj
 0002:00002974       ??_C@_08BNFNBBBB@PW_SPEED@ 40049974     bg_saga.obj
 0002:00002980       ??_C@_0L@LJAIJPE@PW_CLOAKED@ 40049980     bg_saga.obj
 0002:0000298c       ??_C@_0BL@EBGCPDCI@PW_FORCE_ENLIGHTENED_LIGHT@ 4004998c     bg_saga.obj
 0002:000029a8       ??_C@_0BK@MOILIMDA@PW_FORCE_ENLIGHTENED_DARK@ 400499a8     bg_saga.obj
 0002:000029c4       ??_C@_0O@IGDAJBEG@PW_FORCE_BOON@ 400499c4     bg_saga.obj
 0002:000029d4       ??_C@_0N@POBOEFDG@PW_YSALAMIRI@ 400499d4     bg_saga.obj
 0002:000029e4       ??_C@_0BC@NLIMOMDB@PW_SPHERESHIELDED@ 400499e4     bg_saga.obj
 0002:000029f8       ??_C@_0O@KPOBMMCJ@PW_OVERLOADED@ 400499f8     bg_saga.obj
 0002:00002a08       ??_C@_0L@PNAOBMBI@SK_JETPACK@ 40049a08     bg_saga.obj
 0002:00002a14       ??_C@_09IJMDIDHL@SK_PISTOL@ 40049a14     bg_saga.obj
 0002:00002a20       ??_C@_0L@FHICNJIB@SK_BLASTER@ 40049a20     bg_saga.obj
 0002:00002a2c       ??_C@_0L@EBLBCBIO@SK_THERMAL@ 40049a2c     bg_saga.obj
 0002:00002a38       ??_C@_09CPBDLMIL@SK_ROCKET@ 40049a38     bg_saga.obj
 0002:00002a44       ??_C@_08NPDGAEGC@SK_BACTA@ 40049a44     bg_saga.obj
 0002:00002a50       ??_C@_0BA@MCKIDFAE@SK_FLAMETHROWER@ 40049a50     bg_saga.obj
 0002:00002a60       ??_C@_0N@FOBMNCHE@SK_BOWCASTER@ 40049a60     bg_saga.obj
 0002:00002a70       ??_C@_0O@BAPBHPEJ@SK_FORCEFIELD@ 40049a70     bg_saga.obj
 0002:00002a80       ??_C@_08EGCOCFNP@SK_CLOAK@ 40049a80     bg_saga.obj
 0002:00002a8c       ??_C@_09PBOFMGHP@SK_SEEKER@ 40049a8c     bg_saga.obj
 0002:00002a98       ??_C@_09HENCNMJJ@SK_SENTRY@ 40049a98     bg_saga.obj
 0002:00002aa4       ??_C@_0L@OIIEAOCK@SK_DETPACK@ 40049aa4     bg_saga.obj
 0002:00002ab0       ??_C@_0M@OMAALMOC@SK_REPEATER@ 40049ab0     bg_saga.obj
 0002:00002abc       ??_C@_0N@LHILPNLC@SK_DISRUPTOR@ 40049abc     bg_saga.obj
 0002:00002acc       ??_C@_0N@ECGCMELC@SK_BLUESTYLE@ 40049acc     bg_saga.obj
 0002:00002adc       ??_C@_0M@PKCGJKIP@SK_REDSTYLE@ 40049adc     bg_saga.obj
 0002:00002ae8       ??_C@_0P@JBHBIA@SK_PURPLESTYLE@ 40049ae8     bg_saga.obj
 0002:00002af8       ??_C@_0O@MHFJMBGJ@SK_GREENSTYLE@ 40049af8     bg_saga.obj
 0002:00002b08       ??_C@_0N@CCHGDKNN@SK_DUALSTYLE@ 40049b08     bg_saga.obj
 0002:00002b18       ??_C@_0O@DEOEBOOP@SK_STAFFSTYLE@ 40049b18     bg_saga.obj
 0002:00002b28       ??_C@_0N@IACMAGKG@SK_FLECHETTE@ 40049b28     bg_saga.obj
 0002:00002b38       ??_C@_0M@CGGMLOFL@SK_TRIPMINE@ 40049b38     bg_saga.obj
 0002:00002b44       ??_C@_08BPCLLEGF@SK_DEMP2@ 40049b44     bg_saga.obj
 0002:00002b50       ??_C@_0O@IHLIALMA@SK_CONCUSSION@ 40049b50     bg_saga.obj
 0002:00002b60       ??_C@_06IBJAMHNA@SK_OLD@   40049b60     bg_saga.obj
 0002:00002b68       ??_C@_07IIHHMNJM@SK_EWEB@  40049b68     bg_saga.obj
 0002:00002b70       ??_C@_0O@CEGIPGC@SK_BINOCULARS@ 40049b70     bg_saga.obj
 0002:00002b80       ??_C@_08PGCKGKON@SK_WRIST@ 40049b80     bg_saga.obj
 0002:00002b8c       ??_C@_09FBKCKDKO@SK_HEALTH@ 40049b8c     bg_saga.obj
 0002:00002b98       ??_C@_0L@JNFLAIGO@SK_SHIELDS@ 40049b98     bg_saga.obj
 0002:00002ba4       ??_C@_09JJDFMMDJ@SK_REPAIR@ 40049ba4     bg_saga.obj
 0002:00002bb0       ??_C@_0BC@LGCIDFFF@SK_ELECTROSHOCKER@ 40049bb0     bg_saga.obj
 0002:00002bc4       ??_C@_0BA@NDDFONOJ@SK_SPHERESHIELD@ 40049bc4     bg_saga.obj
 0002:00002bd4       ??_C@_0M@MJHKHGC@SK_OVERLOAD@ 40049bd4     bg_saga.obj
 0002:00002be0       ??_C@_0N@OHNDGMAO@SK_SQUADTEAM@ 40049be0     bg_saga.obj
 0002:00002bf0       ??_C@_0O@ODNIACP@SK_SQUADTEAMA@ 40049bf0     bg_saga.obj
 0002:00002c00       ??_C@_0O@CFBANDOM@SK_SQUADTEAMB@ 40049c00     bg_saga.obj
 0002:00002c10       ??_C@_0O@DMALOCKN@SK_SQUADTEAMC@ 40049c10     bg_saga.obj
 0002:00002c20       ??_C@_0BA@CGLFDFMG@SK_VEHICLEMOUNT@ 40049c20     bg_saga.obj
 0002:00002c30       ??_C@_0BB@CGNGEOGD@SK_LIGHTVEHICLEA@ 40049c30     bg_saga.obj
 0002:00002c44       ??_C@_0BC@GHKLGEGD@SK_MEDIUMVEHICLEA@ 40049c44     bg_saga.obj
 0002:00002c58       ??_C@_0BB@EDIDLJBO@SK_HEAVYVEHICLEA@ 40049c58     bg_saga.obj
 0002:00002c6c       ??_C@_0BA@COCLOIAE@SK_FIGHTERSHIPA@ 40049c6c     bg_saga.obj
 0002:00002c7c       ??_C@_0P@MBBHCFFJ@SK_BOMBERSHIPA@ 40049c7c     bg_saga.obj
 0002:00002c8c       ??_C@_0BC@CLFLFLIP@SK_TRANSPORTSHIPA@ 40049c8c     bg_saga.obj
 0002:00002ca0       ??_C@_0BB@NPLBNKA@SK_LIGHTVEHICLEB@ 40049ca0     bg_saga.obj
 0002:00002cb4       ??_C@_0BC@EMIGDHKA@SK_MEDIUMVEHICLEB@ 40049cb4     bg_saga.obj
 0002:00002cc8       ??_C@_0BB@GIKOOKNN@SK_HEAVYVEHICLEB@ 40049cc8     bg_saga.obj
 0002:00002cdc       ??_C@_0BA@FAGLLMH@SK_FIGHTERSHIPB@ 40049cdc     bg_saga.obj
 0002:00002cec       ??_C@_0P@OKDKHGJK@SK_BOMBERSHIPB@ 40049cec     bg_saga.obj
 0002:00002cfc       ??_C@_0BC@HGAIEM@SK_TRANSPORTSHIPB@ 40049cfc     bg_saga.obj
 0002:00002d10       ??_C@_0L@OKBDGCOI@SK_GRAPPLE@ 40049d10     bg_saga.obj
 0002:00002d1c       ??_C@_0L@IJIKJHGI@SK_AGILITY@ 40049d1c     bg_saga.obj
 0002:00002d28       ??_C@_0M@LBMANEAB@SK_STRENGTH@ 40049d28     bg_saga.obj
 0002:00002d34       ??_C@_0BC@JMOEBHNC@SK_BACKPACKROCKET@ 40049d34     bg_saga.obj
 0002:00002d48       ??_C@_0BD@IBCDCJKL@SK_BACKPACKROCKETA@ 40049d48     bg_saga.obj
 0002:00002d5c       ??_C@_0BE@HHLBHKNH@SK_SPECIALCHARACTER@ 40049d5c     bg_saga.obj
 0002:00002d70       ??_C@_0M@PKPDOIAO@SK_JETPACKA@ 40049d70     bg_saga.obj
 0002:00002d7c       ??_C@_0M@NBNOLLMN@SK_JETPACKB@ 40049d7c     bg_saga.obj
 0002:00002d88       ??_C@_0M@MIMFIKIM@SK_JETPACKC@ 40049d88     bg_saga.obj
 0002:00002d94       ??_C@_0L@CODMBFHD@SK_PISTOLA@ 40049d94     bg_saga.obj
 0002:00002da0       ??_C@_0L@FBBEGLA@SK_PISTOLB@ 40049da0     bg_saga.obj
 0002:00002dac       ??_C@_0M@HDIKEPCL@SK_BLASTERA@ 40049dac     bg_saga.obj
 0002:00002db8       ??_C@_0M@FIKHBMOI@SK_BLASTERB@ 40049db8     bg_saga.obj
 0002:00002dc4       ??_C@_0O@MMLKCHBJ@SK_DISRUPTORA@ 40049dc4     bg_saga.obj
 0002:00002dd4       ??_C@_0O@OHJHHENK@SK_DISRUPTORB@ 40049dd4     bg_saga.obj
 0002:00002de4       ??_C@_0O@LOFENHLD@SK_BOWCASTERA@ 40049de4     bg_saga.obj
 0002:00002df4       ??_C@_0O@JFHJIEHA@SK_BOWCASTERB@ 40049df4     bg_saga.obj
 0002:00002e04       ??_C@_0N@KHIKPNKM@SK_REPEATERA@ 40049e04     bg_saga.obj
 0002:00002e14       ??_C@_0N@IMKHKOGP@SK_REPEATERB@ 40049e14     bg_saga.obj
 0002:00002e24       ??_C@_09NEKFMACH@SK_DEMP2A@ 40049e24     bg_saga.obj
 0002:00002e30       ??_C@_09PPIIJDOE@SK_DEMP2B@ 40049e30     bg_saga.obj
 0002:00002e3c       ??_C@_0O@NGFHFEJP@SK_FLECHETTEA@ 40049e3c     bg_saga.obj
 0002:00002e4c       ??_C@_0O@PNHKAHFM@SK_FLECHETTEB@ 40049e4c     bg_saga.obj
 0002:00002e5c       ??_C@_0P@HCIBAEPP@SK_CONCUSSIONA@ 40049e5c     bg_saga.obj
 0002:00002e6c       ??_C@_0P@FJKMFHDM@SK_CONCUSSIONB@ 40049e6c     bg_saga.obj
 0002:00002e7c       ??_C@_0L@JDCHDHFA@SK_ROCKETA@ 40049e7c     bg_saga.obj
 0002:00002e88       ??_C@_0L@LIAKGEJD@SK_ROCKETB@ 40049e88     bg_saga.obj
 0002:00002e94       ??_C@_0M@ODCDGBEC@SK_THERMALA@ 40049e94     bg_saga.obj
 0002:00002ea0       ??_C@_0M@MIAODCIB@SK_THERMALB@ 40049ea0     bg_saga.obj
 0002:00002eac       ??_C@_0N@BFPNJKIG@SK_TRIPMINEA@ 40049eac     bg_saga.obj
 0002:00002ebc       ??_C@_0N@DONAMJEF@SK_TRIPMINEB@ 40049ebc     bg_saga.obj
 0002:00002ecc       ??_C@_0M@DCDBDDJM@SK_DETPACKA@ 40049ecc     bg_saga.obj
 0002:00002ed8       ??_C@_0M@BJBMGAFP@SK_DETPACKB@ 40049ed8     bg_saga.obj
 0002:00002ee4       ??_C@_07GPDADMFH@SK_OLDA@  40049ee4     bg_saga.obj
 0002:00002eec       ??_C@_07EEBNGPJE@SK_OLDB@  40049eec     bg_saga.obj
 0002:00002ef4       ??_C@_0BB@OOMNBCGI@SK_FLAMETHROWERA@ 40049ef4     bg_saga.obj
 0002:00002f08       ??_C@_0BD@PCNFPDAK@SK_ELECTROSHOCKERA@ 40049f08     bg_saga.obj
 0002:00002f1c       ??_C@_0O@MPKEMFFA@SK_LIGHTNINGA@ 40049f1c     bg_saga.obj
 0002:00002f2c       ??_C@_09HPHMJGCE@SK_DRAINA@ 40049f2c     bg_saga.obj
 0002:00002f38       ??_C@_08MAAPDADL@SK_GRIPA@ 40049f38     bg_saga.obj
 0002:00002f44       ??_C@_0L@CDPHHEOH@SK_ABSORBA@ 40049f44     bg_saga.obj
 0002:00002f50       ??_C@_0M@KJNBNAHM@SK_PROTECTA@ 40049f50     bg_saga.obj
 0002:00002f5c       ??_C@_0BA@LFHONBJE@SK_DESTRUCTIONA@ 40049f5c     bg_saga.obj
 0002:00002f6c       ??_C@_08DDBBLLIH@SK_HEALA@ 40049f6c     bg_saga.obj
 0002:00002f78       ??_C@_08EOGGFIOJ@SK_RAGEA@ 40049f78     bg_saga.obj
 0002:00002f84       ??_C@_0O@HGEHJPAP@SK_TELEPATHYA@ 40049f84     bg_saga.obj
 0002:00002f94       ??_C@_0L@GIJFCLIP@SK_STASISA@ 40049f94     bg_saga.obj
 0002:00002fa0       ??_C@_08EBGNJLDL@SK_PUSHA@ 40049fa0     bg_saga.obj
 0002:00002fac       ??_C@_08EOBOHECO@SK_PULLA@ 40049fac     bg_saga.obj
 0002:00002fb8       ??_C@_08INGIFBIO@SK_POWER@ 40049fb8     bg_saga.obj
 0002:00002fc4       ??_C@_0O@CAGBOAJK@SK_RESISTANCE@ 40049fc4     bg_saga.obj
 0002:00002fd4       ??_C@_08GMEOELGB@infantry@ 40049fd4     bg_saga.obj
 0002:00002fe0       ??_C@_08KMDKBEDF@vanguard@ 40049fe0     bg_saga.obj
 0002:00002fec       ??_C@_07ILMBEDPO@support@  40049fec     bg_saga.obj
 0002:00002ff4       ??_C@_0N@DFCFOLOG@jedi_general@ 40049ff4     bg_saga.obj
 0002:00003004       ??_C@_0O@FEHNADND@demolitionist@ 4004a004     bg_saga.obj
 0002:00003014       ??_C@_0O@OALEAKPJ@heavy_weapons@ 4004a014     bg_saga.obj
 0002:00003024       ??_C@_0CM@DMIPCGDB@Unexpected?5EOF?5while?5looking?5fo@ 4004a024     bg_saga.obj
 0002:00003050       ??_C@_0FA@EHNNLFND@Found?5a?5closing?5bracket?5without@ 4004a050     bg_saga.obj
 0002:000030a0       ??_C@_0CI@BBIKCBO@Group?5?8?$CFs?8?5is?5missing?5a?5closing@ 4004a0a0     bg_saga.obj
 0002:000030c8       ??_C@_0GA@DIGHOEOC@Error?5parsing?5group?5in?5file?0?5un@ 4004a0c8     bg_saga.obj
 0002:00003128       ??_C@_0FJ@KOGMAIHK@Found?5an?5opening?5bracket?5withou@ 4004a128     bg_saga.obj
 0002:00003188       ??_C@_0EJ@GJJGBCAC@Unexpected?5closing?5bracket?5?$CItoo@ 4004a188     bg_saga.obj
 0002:000031d8       ??_C@_0EP@OCHOIPPN@Unexpected?5EOF?5while?5looking?5fo@ 4004a1d8     bg_saga.obj
 0002:00003228       ??_C@_0FH@PHDPJEBI@Unexpected?5EOF?5while?5looking?5fo@ 4004a228     bg_saga.obj
 0002:00003280       ??_C@_0EA@CICFFHLL@Error?5parsing?5file?0?5unexpected?5@ 4004a280     bg_saga.obj
 0002:000032c0       ??_C@_0DL@MANGCKOJ@Error?5parsing?5file?0?5found?5comme@ 4004a2c0     bg_saga.obj
 0002:000032fc       ??_C@_06PFGBHLNK@FP_ALL@   4004a2fc     bg_saga.obj
 0002:00003304       ??_C@_07IHELEENG@FP_JUMP@  4004a304     bg_saga.obj
 0002:0000330c       ??_C@_0M@PPJNHBMP@description@ 4004a30c     bg_saga.obj
 0002:00003318       ??_C@_0BI@JBHHAHFA@DESCRIPTION?5UNAVAILABLE@ 4004a318     bg_saga.obj
 0002:00003330       ??_C@_09LPPNDGJE@ClassInfo@ 4004a330     bg_saga.obj
 0002:0000333c       ??_C@_04MEMAJGDJ@name@     4004a33c     bg_saga.obj
 0002:00003344       ??_C@_0BP@JPFHBDB@Siege?5class?5without?5name?5entry@ 4004a344     bg_saga.obj
 0002:00003364       ??_C@_05NCCFOPHA@model@    4004a364     bg_saga.obj
 0002:0000336c       ??_C@_04NHPAFEHJ@skin@     4004a36c     bg_saga.obj
 0002:00003374       ??_C@_06CJJKOFI@saber1@    4004a374     bg_saga.obj
 0002:0000337c       ??_C@_06CJLEPNJL@saber2@   4004a37c     bg_saga.obj
 0002:00003384       ??_C@_0L@JCGAKIIA@saberstyle@ 4004a384     bg_saga.obj
 0002:00003390       ??_C@_0L@OGIEJBOK@sabercolor@ 4004a390     bg_saga.obj
 0002:0000339c       ??_C@_0M@OOLLFDOG@saber2color@ 4004a39c     bg_saga.obj
 0002:000033a8       ??_C@_07PKKCMMCH@weapons@  4004a3a8     bg_saga.obj
 0002:000033b0       ??_C@_0CC@FAKKFGGN@Siege?5class?5without?5weapons?5ent@ 4004a3b0     bg_saga.obj
 0002:000033d4       ??_C@_0M@IOJHBENM@forcepowers@ 4004a3d4     bg_saga.obj
 0002:000033e0       ??_C@_06HNCNFAFI@skills@   4004a3e0     bg_saga.obj
 0002:000033e8       ??_C@_0L@GKKNICAL@classflags@ 4004a3e8     bg_saga.obj
 0002:000033f4       ??_C@_09MHNPKMIF@maxhealth@ 4004a3f4     bg_saga.obj
 0002:00003400       ??_C@_0M@JKHBPLJM@starthealth@ 4004a400     bg_saga.obj
 0002:0000340c       ??_C@_08KAGIGECM@maxarmor@ 4004a40c     bg_saga.obj
 0002:00003418       ??_C@_0L@GGCEHPNG@startarmor@ 4004a418     bg_saga.obj
 0002:00003424       ??_C@_05HJCMGBKF@speed@    4004a424     bg_saga.obj
 0002:0000342c       ??_C@_08BGECLNMM@uishader@ 4004a42c     bg_saga.obj
 0002:00003438       ??_C@_0CD@GDIFDMKP@Siege?5class?5without?5uishader?5en@ 4004a438     bg_saga.obj
 0002:0000345c       ??_C@_0N@NNMCCMOK@class_shader@ 4004a45c     bg_saga.obj
 0002:0000346c       ??_C@_0DE@BHILLBOP@ERROR?3?5could?5not?5find?5class_sha@ 4004a46c     bg_saga.obj
 0002:000034a0       ??_C@_0CN@HKDFKNIC@ERROR?3?5no?5class_shader?5defined?5@ 4004a4a0     bg_saga.obj
 0002:000034d0       ??_C@_09LOIGNDON@holdables@ 4004a4d0     bg_saga.obj
 0002:000034dc       ??_C@_08BOHIELLL@powerups@ 4004a4dc     bg_saga.obj
 0002:000034e8       ??_C@_04LNHPMHCH@?4scl@    4004a4e8     bg_saga.obj
 0002:000034f0       ??_C@_0BH@NCMEBBFN@ext_data?1Siege?1Classes@ 4004a4f0     bg_saga.obj
 0002:00003508       ??_C@_0BI@HBENBDF@ext_data?1Siege?1Classes?1@ 4004a508     bg_saga.obj
 0002:00003520       ??_C@_0CD@FDGFFIBB@Siege?5team?5with?5no?5name?5definit@ 4004a520     bg_saga.obj
 0002:00003544       ??_C@_07DPIHKJGF@Classes@  4004a544     bg_saga.obj
 0002:0000354c       ??_C@_07GEGLMCI@class?$CFi@ 4004a54c     bg_saga.obj
 0002:00003554       ??_C@_0BO@LFIIBAMC@Invalid?5class?5specified?3?5?8?$CFs?8@ 4004a554     bg_saga.obj
 0002:00003574       ??_C@_0CI@JBGGEKDP@Team?5defined?5with?5no?5allowable?5@ 4004a574     bg_saga.obj
 0002:0000359c       ??_C@_05OKHHMPNJ@?4team@   4004a59c     bg_saga.obj
 0002:000035a4       ??_C@_0BF@KACDOLPP@ext_data?1Siege?1Teams@ 4004a5a4     bg_saga.obj
 0002:000035bc       ??_C@_0BG@DPLOPEAL@ext_data?1Siege?1Teams?1@ 4004a5bc     bg_saga.obj
 0002:000035d4       __real@00000000            4004a5d4     q_math.obj
 0002:000035d8       __real@3c8efa35            4004a5d8     q_math.obj
 0002:000035dc       __real@3f000000            4004a5dc     q_math.obj
 0002:000035e0       __real@3ff0000000000000    4004a5e0     q_math.obj
 0002:000035e8       __real@437f0000            4004a5e8     q_math.obj
 0002:000035f0       __xmm@7fffffffffffffff7fffffffffffffff 4004a5f0     q_math.obj
 0002:00003600       __xmm@80000000000000008000000000000000 4004a600     q_math.obj
 0002:00003610       ??_C@_04HDOCAJNK@?$CFs?$CFs@ 4004a610     q_shared.obj
 0002:00003618       ??_C@_02DKCKIIND@?$CFs@    4004a618     q_shared.obj
 0002:0000361c       ??_C@_0BA@FOCLBKAP@unexpected?5EOF?6@ 4004a61c     q_shared.obj
 0002:0000362c       ??_C@_0BG@EKAPNPCH@Q_strncpyz?3?5NULL?5dest@ 4004a62c     q_shared.obj
 0002:00003644       ??_C@_0BF@BJHHBLMD@Q_strncpyz?3?5NULL?5src@ 4004a644     q_shared.obj
 0002:0000365c       ??_C@_0BJ@OLBOPICM@Q_strncpyz?3?5destsize?5?$DM?51@ 4004a65c     q_shared.obj
 0002:00003678       ??_C@_0BN@EFOOAHFL@Q_strcat?3?5already?5overflowed@ 4004a678     q_shared.obj
 0002:00003698       ??_C@_0CL@PJCCCJHN@Com_sprintf2?3?5overflow?5of?5?$CFi?5by@ 4004a698     q_shared.obj
 0002:000036c4       ??_C@_0CO@NIJHFKAJ@Attempted?5to?5overrun?5string?5in?5@ 4004a6c4     q_shared.obj
 0002:000036f4       ??_C@_0CG@FLHABLN@Info_ValueForKey?3?5oversize?5info@ 4004a6f4     q_shared.obj
 0002:0000371c       ??_C@_0CE@HMPLGKDK@Info_RemoveKey?3?5oversize?5infost@ 4004a71c     q_shared.obj
 0002:00003740       ??_C@_0CJ@CEEBDGNA@Info_SetValueForKey?3?5oversize?5i@ 4004a740     q_shared.obj
 0002:0000376c       ??_C@_0CD@JIDDAEOO@Can?8t?5use?5keys?5or?5values?5with?5a@ 4004a76c     q_shared.obj
 0002:00003790       ??_C@_0CL@JCFAGLFD@Can?8t?5use?5keys?5or?5values?5with?5a@ 4004a790     q_shared.obj
 0002:000037bc       ??_C@_0CD@MGFMEBLE@Can?8t?5use?5keys?5or?5values?5with?5a@ 4004a7bc     q_shared.obj
 0002:000037e0       ??_C@_06NELKLDPM@?2?$CFs?2?$CFs@ 4004a7e0     q_shared.obj
 0002:000037e8       ??_C@_0BN@CAOBGKLE@Info?5string?5length?5exceeded?6@ 4004a7e8     q_shared.obj
 0002:00003808       ??_C@_04KAKHEEPD@?$CFi?$CF?$CF@ 4004a808     ui_atoms.obj
 0002:00003810       ??_C@_0BB@LEIIJBCD@ui_scoreAccuracy@ 4004a810     ui_atoms.obj
 0002:00003824       ??_C@_0BE@KMODLOOM@ui_scoreImpressives@ 4004a824     ui_atoms.obj
 0002:00003838       ??_C@_0BD@LEJGNMPP@ui_scoreExcellents@ 4004a838     ui_atoms.obj
 0002:0000384c       ??_C@_0BA@OHCNNIJG@ui_scoreDefends@ 4004a84c     ui_atoms.obj
 0002:0000385c       ??_C@_0BA@IDHNCNBN@ui_scoreAssists@ 4004a85c     ui_atoms.obj
 0002:0000386c       ??_C@_0BC@FJFOJAKM@ui_scoreGauntlets@ 4004a86c     ui_atoms.obj
 0002:00003880       ??_C@_0O@BGACMNMN@ui_scoreScore@ 4004a880     ui_atoms.obj
 0002:00003890       ??_C@_0BA@FNDENKFJ@ui_scorePerfect@ 4004a890     ui_atoms.obj
 0002:000038a0       ??_C@_08HANDPKCB@?$CFi?5to?5?$CFi@ 4004a8a0     ui_atoms.obj
 0002:000038ac       ??_C@_0N@DFFLNFA@ui_scoreTeam@ 4004a8ac     ui_atoms.obj
 0002:000038bc       ??_C@_0N@LEOMLFDD@ui_scoreBase@ 4004a8bc     ui_atoms.obj
 0002:000038cc       ??_C@_0BC@MAAGAFGN@ui_scoreTimeBonus@ 4004a8cc     ui_atoms.obj
 0002:000038e0       ??_C@_0BD@MCPJGPPJ@ui_scoreSkillBonus@ 4004a8e0     ui_atoms.obj
 0002:000038f4       ??_C@_0BF@ICEBEKBD@ui_scoreShutoutBonus@ 4004a8f4     ui_atoms.obj
 0002:0000390c       ??_C@_09INMNFPPH@?$CF02i?3?$CF02i@ 4004a90c     ui_atoms.obj
 0002:00003918       ??_C@_0N@IIEAHBIE@ui_scoreTime@ 4004a918     ui_atoms.obj
 0002:00003928       ??_C@_0BB@ELNPFLHH@ui_scoreCaptures@ 4004a928     ui_atoms.obj
 0002:0000393c       ??_C@_0BC@EPKDKNJC@ui_scoreAccuracy2@ 4004a93c     ui_atoms.obj
 0002:00003950       ??_C@_0BF@EEGABJJM@ui_scoreImpressives2@ 4004a950     ui_atoms.obj
 0002:00003968       ??_C@_0BE@MAMGCNCA@ui_scoreExcellents2@ 4004a968     ui_atoms.obj
 0002:0000397c       ??_C@_0BB@PEPLEPNI@ui_scoreDefends2@ 4004a97c     ui_atoms.obj
 0002:00003990       ??_C@_0BB@IOPFEFIF@ui_scoreAssists2@ 4004a990     ui_atoms.obj
 0002:000039a4       ??_C@_0BD@DCEJOFCC@ui_scoreGauntlets2@ 4004a9a4     ui_atoms.obj
 0002:000039b8       ??_C@_0P@ILDOILB@ui_scoreScore2@ 4004a9b8     ui_atoms.obj
 0002:000039c8       ??_C@_0BB@PPJKIJPL@ui_scorePerfect2@ 4004a9c8     ui_atoms.obj
 0002:000039dc       ??_C@_0O@IGBIFADI@ui_scoreTeam2@ 4004a9dc     ui_atoms.obj
 0002:000039ec       ??_C@_0O@FCBENJNC@ui_scoreBase2@ 4004a9ec     ui_atoms.obj
 0002:000039fc       ??_C@_0BD@NOLDEPJB@ui_scoreTimeBonus2@ 4004a9fc     ui_atoms.obj
 0002:00003a10       ??_C@_0BE@CJNDOHKG@ui_scoreSkillBonus2@ 4004aa10     ui_atoms.obj
 0002:00003a24       ??_C@_0BG@GJEMFEOF@ui_scoreShutoutBonus2@ 4004aa24     ui_atoms.obj
 0002:00003a3c       ??_C@_0O@HCNFDDJ@ui_scoreTime2@ 4004aa3c     ui_atoms.obj
 0002:00003a4c       ??_C@_0BC@CDFKGPLF@ui_scoreCaptures2@ 4004aa4c     ui_atoms.obj
 0002:00003a60       ??_C@_0BB@MNGNFDI@games?1?$CFs_?$CFi?4game@ 4004aa60     ui_atoms.obj
 0002:00003a74       ??_C@_08FCFPNNHF@protocol@ 4004aa74     ui_atoms.obj
 0002:00003a80       ??_C@_0BC@CFMHHAMH@demos?1?$CFs_?$CFd?4dm_?$CFd@ 4004aa80     ui_atoms.obj
 0002:00003a94       ??_C@_04MJNAPEEI@game@     4004aa94     ui_atoms.obj
 0002:00003a9c       ??_C@_05HMNMDDGD@games@    4004aa9c     ui_atoms.obj
 0002:00003aa4       ??_C@_08PDFKJPJM@games?1?$CFs@ 4004aaa4     ui_atoms.obj
 0002:00003ab0       ??_C@_09LDNKBKJF@model?5?$CFs?6@ 4004aab0     ui_atoms.obj
 0002:00003abc       ??_C@_07KMNEBLH@mapname@   4004aabc     ui_atoms.obj
 0002:00003ac4       ??_C@_0L@GFINLBEC@g_gametype@ 4004aac4     ui_atoms.obj
 0002:00003ad0       ??_C@_0BC@FKLDKIMG@ui_matchStartTime@ 4004aad0     ui_atoms.obj
 0002:00003ae4       ??_C@_09OGEBNCBM@g_spSkill@ 4004aae4     ui_atoms.obj
 0002:00003af0       ??_C@_0BE@FJHNGDNB@ui_saveCaptureLimit@ 4004aaf0     ui_atoms.obj
 0002:00003b04       ??_C@_0N@FCAHJCDA@capturelimit@ 4004ab04     ui_atoms.obj
 0002:00003b14       ??_C@_0BB@BLOPBDC@ui_saveFragLimit@ 4004ab14     ui_atoms.obj
 0002:00003b28       ??_C@_09GCIEGDDN@fraglimit@ 4004ab28     ui_atoms.obj
 0002:00003b34       ??_C@_0BB@OHGHBGMG@ui_saveDuelLimit@ 4004ab34     ui_atoms.obj
 0002:00003b48       ??_C@_0P@CFJBJECC@duel_fraglimit@ 4004ab48     ui_atoms.obj
 0002:00003b58       ??_C@_0N@KDFOGKPE@ui_drawTimer@ 4004ab58     ui_atoms.obj
 0002:00003b68       ??_C@_0N@FOINMAON@cg_drawTimer@ 4004ab68     ui_atoms.obj
 0002:00003b78       ??_C@_0M@EBIAJMEJ@ui_doWarmup@ 4004ab78     ui_atoms.obj
 0002:00003b84       ??_C@_0L@LPENDGCI@g_doWarmup@ 4004ab84     ui_atoms.obj
 0002:00003b90       ??_C@_09GCFCELDK@ui_Warmup@ 4004ab90     ui_atoms.obj
 0002:00003b9c       ??_C@_08LPHDKCKM@g_Warmup@ 4004ab9c     ui_atoms.obj
 0002:00003ba8       ??_C@_07HHFHJPML@ui_pure@  4004aba8     ui_atoms.obj
 0002:00003bb0       ??_C@_07CAKOHKGL@sv_pure@  4004abb0     ui_atoms.obj
 0002:00003bb8       ??_C@_0BA@PHMBDCHA@ui_friendlyFire@ 4004abb8     ui_atoms.obj
 0002:00003bc8       ??_C@_0P@IEOFAMLI@g_friendlyFire@ 4004abc8     ui_atoms.obj
 0002:00003bd8       ??_C@_07IANFCHLD@ui_test@  4004abd8     ui_atoms.obj
 0002:00003be0       ??_C@_09NFKMFHHN@ui_report@ 4004abe0     ui_atoms.obj
 0002:00003bec       ??_C@_07OKJIHONL@ui_load@  4004abec     ui_atoms.obj
 0002:00003bf4       ??_C@_0BB@FEAJPNFL@ui_opensiegemenu@ 4004abf4     ui_atoms.obj
 0002:00003c08       ??_C@_0M@OCOELHNF@ui_openmenu@ 4004ac08     ui_atoms.obj
 0002:00003c14       ??_C@_08FNKAODFI@postgame@ 4004ac14     ui_atoms.obj
 0002:00003c20       ??_C@_08OEBEDBJL@ui_cache@ 4004ac20     ui_atoms.obj
 0002:00003c2c       ??_C@_0O@DJEGGJPO@ui_teamOrders@ 4004ac2c     ui_atoms.obj
 0002:00003c3c       ??_C@_08HOPFIAK@ui_cdkey@  4004ac3c     ui_atoms.obj
 0002:00003c48       __real@40e00000            4004ac48     ui_atoms.obj
 0002:00003c4c       __real@447a0000            4004ac4c     ui_atoms.obj
 0002:00003c50       ??_C@_0L@NPAHEBBH@forcestar0@ 4004ac50     ui_force.obj
 0002:00003c5c       ??_C@_0N@KPLCJGNG@forcecircle1@ 4004ac5c     ui_force.obj
 0002:00003c6c       ??_C@_0L@MGBMHAFG@forcestar1@ 4004ac6c     ui_force.obj
 0002:00003c78       ??_C@_0N@IEJPMFBF@forcecircle2@ 4004ac78     ui_force.obj
 0002:00003c88       ??_C@_0L@ONDBCDJF@forcestar2@ 4004ac88     ui_force.obj
 0002:00003c94       ??_C@_0N@JNIEPEFE@forcecircle3@ 4004ac94     ui_force.obj
 0002:00003ca4       ??_C@_0L@PECKBCNE@forcestar3@ 4004aca4     ui_force.obj
 0002:00003cb0       ??_C@_0N@NCMFGCJD@forcecircle4@ 4004acb0     ui_force.obj
 0002:00003cc0       ??_C@_0L@LLGLIEBD@forcestar4@ 4004acc0     ui_force.obj
 0002:00003ccc       ??_C@_0N@MLNOFDNC@forcecircle5@ 4004accc     ui_force.obj
 0002:00003cdc       ??_C@_0L@KCHALFFC@forcestar5@ 4004acdc     ui_force.obj
 0002:00003ce8       ??_C@_0N@OAPDAABB@forcecircle6@ 4004ace8     ui_force.obj
 0002:00003cf8       ??_C@_0L@IJFNOGJB@forcestar6@ 4004acf8     ui_force.obj
 0002:00003d04       ??_C@_0N@PJOIDBFA@forcecircle7@ 4004ad04     ui_force.obj
 0002:00003d14       ??_C@_0L@JAEGNHNA@forcestar7@ 4004ad14     ui_force.obj
 0002:00003d20       ??_C@_0N@HOHACNJP@forcecircle8@ 4004ad20     ui_force.obj
 0002:00003d30       ??_C@_0L@BHNOMLBP@forcestar8@ 4004ad30     ui_force.obj
 0002:00003d3c       ??_C@_0BH@HEOMFFNL@gfx?1menus?1forcecircle9@ 4004ad3c     ui_force.obj
 0002:00003d54       ??_C@_0BF@NBKANNJL@gfx?1menus?1forcestar9@ 4004ad54     ui_force.obj
 0002:00003d6c       ??_C@_0BI@MACAIAEC@gfx?1menus?1forcecircle10@ 4004ad6c     ui_force.obj
 0002:00003d84       ??_C@_0BG@LGFJINFK@gfx?1menus?1forcestar10@ 4004ad84     ui_force.obj
 0002:00003d9c       ??_C@_0BD@KHLEJLON@menu?1art?1saber_red@ 4004ad9c     ui_force.obj
 0002:00003db0       ??_C@_0BG@KBFCOFDK@menu?1art?1saber_orange@ 4004adb0     ui_force.obj
 0002:00003dc8       ??_C@_0BG@JPPBFDLM@menu?1art?1saber_yellow@ 4004adc8     ui_force.obj
 0002:00003de0       ??_C@_0BF@IJAOE@menu?1art?1saber_green@ 4004ade0     ui_force.obj
 0002:00003df8       ??_C@_0BE@MGJKKEPD@menu?1art?1saber_blue@ 4004adf8     ui_force.obj
 0002:00003e0c       ??_C@_0BG@LGBCBLLK@menu?1art?1saber_purple@ 4004ae0c     ui_force.obj
 0002:00003e24       ??_C@_0BE@GEOGPIIJ@menu?1art?1saber_cyan@ 4004ae24     ui_force.obj
 0002:00003e38       ??_C@_06BJHMHGNB@?$CFi?9?$CFi?9@ 4004ae38     ui_force.obj
 0002:00003e40       ??_C@_0BG@EMKCEHIJ@forcechanged?5?$CC?$CFs?$CC?5?$CFs?6@ 4004ae40     ui_force.obj
 0002:00003e58       ??_C@_0BD@KFGFOEKO@forcechanged?5x?5?$CFs?6@ 4004ae58     ui_force.obj
 0002:00003e6c       ??_C@_0L@ILFFGINB@ui_SaveFCF@ 4004ae6c     ui_force.obj
 0002:00003e78       ??_C@_0CO@EONCPKBJ@You?5did?5not?5provide?5a?5name?5for?5@ 4004ae78     ui_force.obj
 0002:00003ea8       ??_C@_0BG@JAIAENKC@forcecfg?1light?1?$CFs?4fcf@ 4004aea8     ui_force.obj
 0002:00003ec0       ??_C@_0BF@EMDAAAIC@forcecfg?1dark?1?$CFs?4fcf@ 4004aec0     ui_force.obj
 0002:00003ed8       ??_C@_0DM@BFNMJPFC@There?5was?5an?5error?5writing?5the?5@ 4004aed8     ui_force.obj
 0002:00003f14       ??_C@_0BJ@DHONGHAN@Template?5saved?5as?5?$CC?$CFs?$CC?4?6@ 4004af14     ui_force.obj
 0002:00003f30       ??_C@_09CPHDILCP@ui_myteam@ 4004af30     ui_force.obj
 0002:00003f3c       ??_C@_0BE@NNMHCJFP@ingame_playerforce1@ 4004af3c     ui_force.obj
 0002:00003f50       ??_C@_0BE@PGOKHKJM@ingame_playerforce2@ 4004af50     ui_force.obj
 0002:00003f64       ??_C@_0BE@OBOCPLPN@g_duelWeaponDisable@ 4004af64     ui_force.obj
 0002:00003f78       ??_C@_0BA@DKHOJHPN@g_weaponDisable@ 4004af78     ui_force.obj
 0002:00003f88       ??_C@_0BC@ICHIHINJ@setfp_saberattack@ 4004af88     ui_force.obj
 0002:00003f9c       ??_C@_0BC@CMIFKGJ@setfp_saberdefend@ 4004af9c     ui_force.obj
 0002:00003fb0       ??_C@_0BA@JKGFPIHJ@setfp_bluestyle@ 4004afb0     ui_force.obj
 0002:00003fc0       ??_C@_0P@MLFPKLOP@setfp_redstyle@ 4004afc0     ui_force.obj
 0002:00003fd0       ??_C@_0BB@FOLDPJMP@setfp_greenstyle@ 4004afd0     ui_force.obj
 0002:00003fe4       ??_C@_0BC@KKDJLJMH@setfp_purplestyle@ 4004afe4     ui_force.obj
 0002:00003ff8       ??_C@_0BA@PKHBAGBG@setfp_dualstyle@ 4004aff8     ui_force.obj
 0002:00004008       ??_C@_0BB@KNAOCGEJ@setfp_staffstyle@ 4004b008     ui_force.obj
 0002:0000401c       ??_C@_0BB@FNLMOMKO@setfp_saberthrow@ 4004b01c     ui_force.obj
 0002:00004030       ??_C@_0M@DDBKIDMA@effectentry@ 4004b030     ui_force.obj
 0002:0000403c       ??_C@_0M@GNPPPOC@effectfield@ 4004b03c     ui_force.obj
 0002:00004048       ??_C@_07MJJMKCLG@nosaber@  4004b048     ui_force.obj
 0002:00004050       ??_C@_0BC@PIECDPPG@notforcesensitive@ 4004b050     ui_force.obj
 0002:00004064       ??_C@_0O@LHILFHLO@neutralpowers@ 4004b064     ui_force.obj
 0002:00004074       ??_C@_0L@BICDFDBI@darkpowers@ 4004b074     ui_force.obj
 0002:00004080       ??_C@_0M@HPNGNDDK@lightpowers@ 4004b080     ui_force.obj
 0002:0000408c       ??_C@_0M@OBFFACNN@setsk_pusha@ 4004b08c     ui_force.obj
 0002:00004098       ??_C@_0M@OOCGONMI@setsk_pulla@ 4004b098     ui_force.obj
 0002:000040a4       ??_C@_0M@JDCJCCGB@setsk_heala@ 4004b0a4     ui_force.obj
 0002:000040b0       ??_C@_0O@PMJMJBH@setsk_absorba@ 4004b0b0     ui_force.obj
 0002:000040c0       ??_C@_0P@IBMEDIHP@setsk_protecta@ 4004b0c0     ui_force.obj
 0002:000040d0       ??_C@_0BB@FOHCOMNB@setsk_telepathya@ 4004b0d0     ui_force.obj
 0002:000040e4       ??_C@_0O@EEKLJGHP@setsk_stasisa@ 4004b0e4     ui_force.obj
 0002:000040f4       ??_C@_0M@GADHKJNN@setsk_gripa@ 4004b0f4     ui_force.obj
 0002:00004100       ??_C@_0BB@OHJBLGIO@setsk_lightninga@ 4004b100     ui_force.obj
 0002:00004114       ??_C@_0N@KDDBMNFC@setsk_draina@ 4004b114     ui_force.obj
 0002:00004124       ??_C@_0M@OOFOMBAP@setsk_ragea@ 4004b124     ui_force.obj
 0002:00004130       ??_C@_0BD@MOAAFDPE@setsk_destructiona@ 4004b130     ui_force.obj
 0002:00004144       ??_C@_0BG@INKNHLEK@ingame_playergunnery1@ 4004b144     ui_force.obj
 0002:0000415c       ??_C@_0L@GGCFICHP@setsk_olda@ 4004b15c     ui_force.obj
 0002:00004168       ??_C@_0L@ENAINBLM@setsk_oldb@ 4004b168     ui_force.obj
 0002:00004174       ??_C@_0O@CACKIID@setsk_pistola@ 4004b174     ui_force.obj
 0002:00004184       ??_C@_0O@CJCPPLEA@setsk_pistolb@ 4004b184     ui_force.obj
 0002:00004194       ??_C@_0P@FLJPKHCI@setsk_blastera@ 4004b194     ui_force.obj
 0002:000041a4       ??_C@_0P@HALCPEOL@setsk_blasterb@ 4004b1a4     ui_force.obj
 0002:000041b4       ??_C@_0BB@JGGBKEGN@setsk_bowcastera@ 4004b1b4     ui_force.obj
 0002:000041c8       ??_C@_0BB@LNEMPHKO@setsk_bowcasterb@ 4004b1c8     ui_force.obj
 0002:000041dc       ??_C@_0N@DAKFNNLB@setsk_demp2a@ 4004b1dc     ui_force.obj
 0002:000041ec       ??_C@_0N@BLIIIOHC@setsk_demp2b@ 4004b1ec     ui_force.obj
 0002:000041fc       ??_C@_0BG@KGIACIIJ@ingame_playergunnery2@ 4004b1fc     ui_force.obj
 0002:00004214       ??_C@_0BB@OEIPFEMH@setsk_disruptora@ 4004b214     ui_force.obj
 0002:00004228       ??_C@_0BB@MPKCAHAE@setsk_disruptorb@ 4004b228     ui_force.obj
 0002:0000423c       ??_C@_0BA@KLCPJNFM@setsk_repeatera@ 4004b23c     ui_force.obj
 0002:0000424c       ??_C@_0BA@IAACMOJP@setsk_repeaterb@ 4004b24c     ui_force.obj
 0002:0000425c       ??_C@_0BB@POGCCHEB@setsk_flechettea@ 4004b25c     ui_force.obj
 0002:00004270       ??_C@_0BB@NFEPHEIC@setsk_flechetteb@ 4004b270     ui_force.obj
 0002:00004284       ??_C@_0BC@IGEGOKPN@setsk_concussiona@ 4004b284     ui_force.obj
 0002:00004298       ??_C@_0BC@KNGLLJDO@setsk_concussionb@ 4004b298     ui_force.obj
 0002:000042ac       ??_C@_0O@LPBJIKKA@setsk_rocketa@ 4004b2ac     ui_force.obj
 0002:000042bc       ??_C@_0O@JEDENJGD@setsk_rocketb@ 4004b2bc     ui_force.obj
 0002:000042cc       ??_C@_0BG@LPJLBJMI@ingame_playergunnery3@ 4004b2cc     ui_force.obj
 0002:000042e4       ??_C@_0P@MLDGIJEB@setsk_thermala@ 4004b2e4     ui_force.obj
 0002:000042f4       ??_C@_0P@OABLNKIC@setsk_thermalb@ 4004b2f4     ui_force.obj
 0002:00004304       ??_C@_0BA@BJFIPKHG@setsk_tripminea@ 4004b304     ui_force.obj
 0002:00004314       ??_C@_0BA@DCHFKJLF@setsk_tripmineb@ 4004b314     ui_force.obj
 0002:00004324       ??_C@_0P@BKCENLJP@setsk_detpacka@ 4004b324     ui_force.obj
 0002:00004334       ??_C@_0P@DBAJIIFM@setsk_detpackb@ 4004b334     ui_force.obj
 0002:00004344       ??_C@_0BG@NONPJABH@ingame_playergadgets1@ 4004b344     ui_force.obj
 0002:0000435c       ??_C@_0BE@DGIACJBA@setsk_flamethrowera@ 4004b35c     ui_force.obj
 0002:00004370       ??_C@_0BG@JPBFDNP@setsk_electroshockera@ 4004b370     ui_force.obj
 0002:00004388       ??_C@_0BG@PFPCMDNE@ingame_playergadgets2@ 4004b388     ui_force.obj
 0002:000043a0       ??_C@_0P@NCOGAAAN@setsk_jetpacka@ 4004b3a0     ui_force.obj
 0002:000043b0       ??_C@_0P@PJMLFDMO@setsk_jetpackb@ 4004b3b0     ui_force.obj
 0002:000043c0       ??_C@_0P@OANAGCIP@setsk_jetpackc@ 4004b3c0     ui_force.obj
 0002:000043d0       ??_C@_0BB@CGAIPDPB@setsk_squadteama@ 4004b3d0     ui_force.obj
 0002:000043e4       ??_C@_0BB@NCFKADC@setsk_squadteamb@ 4004b3e4     ui_force.obj
 0002:000043f8       ??_C@_0BB@BEDOJBHD@setsk_squadteamc@ 4004b3f8     ui_force.obj
 0002:0000440c       ??_C@_0BG@HKAHIJHO@setsk_backpackrocketa@ 4004b40c     ui_force.obj
 0002:00004424       ??_C@_0BG@NMINLLEO@ingame_playervehicles@ 4004b424     ui_force.obj
 0002:0000443c       ??_C@_0BE@POJLHFBL@setsk_lightvehiclea@ 4004b43c     ui_force.obj
 0002:00004450       ??_C@_0BE@NFLGCGNI@setsk_lightvehicleb@ 4004b450     ui_force.obj
 0002:00004464       ??_C@_0BF@KMCJPEPE@setsk_mediumvehiclea@ 4004b464     ui_force.obj
 0002:0000447c       ??_C@_0BF@IHAEKHDH@setsk_mediumvehicleb@ 4004b47c     ui_force.obj
 0002:00004494       ??_C@_0BE@JLMOICGG@setsk_heavyvehiclea@ 4004b494     ui_force.obj
 0002:000044a8       ??_C@_0BE@LAODNBKF@setsk_heavyvehicleb@ 4004b4a8     ui_force.obj
 0002:000044bc       ??_C@_0BD@FFFFGKGE@setsk_fightershipa@ 4004b4bc     ui_force.obj
 0002:000044d0       ??_C@_0BD@HOHIDJKH@setsk_fightershipb@ 4004b4d0     ui_force.obj
 0002:000044e4       ??_C@_0BC@DFNAMLFL@setsk_bombershipa@ 4004b4e4     ui_force.obj
 0002:000044f8       ??_C@_0BC@BOPNJIJI@setsk_bombershipb@ 4004b4f8     ui_force.obj
 0002:0000450c       ??_C@_0BF@OANJMLBI@setsk_transportshipa@ 4004b50c     ui_force.obj
 0002:00004524       ??_C@_0BF@MLPEJINL@setsk_transportshipb@ 4004b524     ui_force.obj
 0002:0000453c       ??_C@_09BJAMOEBE@setsk_old@ 4004b53c     ui_force.obj
 0002:00004548       ??_C@_0N@FFIONIAN@setsk_pistol@ 4004b548     ui_force.obj
 0002:00004558       ??_C@_0O@HLLMGEHB@setsk_blaster@ 4004b558     ui_force.obj
 0002:00004568       ??_C@_0BA@FCLJLCIE@setsk_bowcaster@ 4004b568     ui_force.obj
 0002:00004578       ??_C@_0M@CKJHAJCB@setsk_demp2@ 4004b578     ui_force.obj
 0002:00004584       ??_C@_0M@FGBCPDAL@setsk_wrist@ 4004b584     ui_force.obj
 0002:00004590       ??_C@_0BA@LLCOJNEC@setsk_disruptor@ 4004b590     ui_force.obj
 0002:000045a0       ??_C@_0P@MEBFFEOB@setsk_repeater@ 4004b5a0     ui_force.obj
 0002:000045b0       ??_C@_0BA@IMIJGGFG@setsk_flechette@ 4004b5b0     ui_force.obj
 0002:000045c0       ??_C@_0BB@KPINHIBO@setsk_concussion@ 4004b5c0     ui_force.obj
 0002:000045d4       ??_C@_0N@PDFOOHPN@setsk_rocket@ 4004b5d4     ui_force.obj
 0002:000045e4       ??_C@_0O@GNIPJMHO@setsk_thermal@ 4004b5e4     ui_force.obj
 0002:000045f4       ??_C@_0P@OHJFGFI@setsk_tripmine@ 4004b5f4     ui_force.obj
 0002:00004604       ??_C@_0O@MELKLDNK@setsk_detpack@ 4004b604     ui_force.obj
 0002:00004614       ??_C@_0P@HKLJLBMJ@forceranktitle@ 4004b614     ui_force.obj
 0002:00004624       ??_C@_0BA@PLCJHNE@forceranktitle2@ 4004b624     ui_force.obj
 0002:00004634       ??_C@_0BA@LKALNOB@forceranktitleA@ 4004b634     ui_force.obj
 0002:00004644       ??_C@_0BB@GINDNKBO@forceranktitle2A@ 4004b644     ui_force.obj
 0002:00004658       ??_C@_0BA@CAINOOCC@forceranktitleB@ 4004b658     ui_force.obj
 0002:00004668       ??_C@_0BB@EDPOIJNN@forceranktitle2B@ 4004b668     ui_force.obj
 0002:0000467c       ??_C@_0BA@DJJGNPGD@forceranktitleC@ 4004b67c     ui_force.obj
 0002:0000468c       ??_C@_0BB@FKOFLIJM@forceranktitle2C@ 4004b68c     ui_force.obj
 0002:000046a0       ??_C@_0BA@HGNHEJKE@forceranktitleD@ 4004b6a0     ui_force.obj
 0002:000046b0       ??_C@_0BB@BFKECOFL@forceranktitle2D@ 4004b6b0     ui_force.obj
 0002:000046c4       ??_C@_0BA@GPMMHIOF@forceranktitleE@ 4004b6c4     ui_force.obj
 0002:000046d4       ??_C@_0BB@MLPBPBK@forceranktitle2E@ 4004b6d4     ui_force.obj
 0002:000046e8       ??_C@_0BE@EDCPOKDI@g_forcePowerDisable@ 4004b6e8     ui_force.obj
 0002:000046fc       ??_C@_0P@NBMLJLBN@setfp_healself@ 4004b6fc     ui_force.obj
 0002:0000470c       ??_C@_0N@BMJHOEIH@setfp_absorb@ 4004b70c     ui_force.obj
 0002:0000471c       ??_C@_0O@EAHEPBIM@setfp_protect@ 4004b71c     ui_force.obj
 0002:0000472c       ??_C@_0BA@PBNMDIEG@setfp_mindtrick@ 4004b72c     ui_force.obj
 0002:0000473c       ??_C@_0BA@MBMDLBMI@setfp_team_heal@ 4004b73c     ui_force.obj
 0002:0000474c       ??_C@_0L@OMBAKOCK@setfp_grip@ 4004b74c     ui_force.obj
 0002:00004758       ??_C@_0BA@MHIMIEPL@setfp_lightning@ 4004b758     ui_force.obj
 0002:00004768       ??_C@_0M@HAPOFNOP@setfp_drain@ 4004b768     ui_force.obj
 0002:00004774       ??_C@_0L@DLJHIFLH@setfp_rage@ 4004b774     ui_force.obj
 0002:00004780       ??_C@_0BB@LELONAEM@setfp_team_force@ 4004b780     ui_force.obj
 0002:00004794       ??_C@_09EJPOEHMM@setfp_see@ 4004b794     ui_force.obj
 0002:000047a0       ??_C@_0M@GIHKLKBF@setfp_speed@ 4004b7a0     ui_force.obj
 0002:000047ac       ??_C@_0L@DAKNGDPO@setfp_push@ 4004b7ac     ui_force.obj
 0002:000047b8       ??_C@_0L@EDLLECLH@setfp_pull@ 4004b7b8     ui_force.obj
 0002:000047c4       ??_C@_0BB@EGBJNPPM@setfp_levitation@ 4004b7c4     ui_force.obj
 0002:000047d8       ??_C@_0O@NKDJOJCH@g_itemDisable@ 4004b7d8     ui_force.obj
 0002:000047e8       ??_C@_0M@HPAOJNIE@setsk_bacta@ 4004b7e8     ui_force.obj
 0002:000047f4       ??_C@_0N@EFHIJHEP@setsk_repair@ 4004b7f4     ui_force.obj
 0002:00004804       ??_C@_0BB@CKHDPMLM@setsk_binoculars@ 4004b804     ui_force.obj
 0002:00004818       ??_C@_0BB@DIMEAMJH@setsk_forcefield@ 4004b818     ui_force.obj
 0002:0000482c       ??_C@_0N@CNKIJNAJ@setsk_seeker@ 4004b82c     ui_force.obj
 0002:0000483c       ??_C@_0N@KIJPIHOP@setsk_sentry@ 4004b83c     ui_force.obj
 0002:0000484c       ??_C@_0L@IBGCHDLE@setsk_eweb@ 4004b84c     ui_force.obj
 0002:00004858       ??_C@_0BD@LJNGLHGE@setsk_flamethrower@ 4004b858     ui_force.obj
 0002:0000486c       ??_C@_0BF@HNKKKFMC@setsk_electroshocker@ 4004b86c     ui_force.obj
 0002:00004884       ??_C@_0M@OGBGLMDJ@setsk_cloak@ 4004b884     ui_force.obj
 0002:00004890       ??_C@_0BD@KIELGPIJ@setsk_sphereshield@ 4004b890     ui_force.obj
 0002:000048a4       ??_C@_0P@CEICEPGB@setsk_overload@ 4004b8a4     ui_force.obj
 0002:000048b4       ??_C@_0BA@OLHGAMPO@setsk_squadteam@ 4004b8b4     ui_force.obj
 0002:000048c4       ??_C@_0BF@FHGGIHEF@setsk_backpackrocket@ 4004b8c4     ui_force.obj
 0002:000048dc       ??_C@_0BD@FNMLLHKG@setsk_vehiclemount@ 4004b8dc     ui_force.obj
 0002:000048f0       ??_C@_0O@MGCNNPBI@setsk_grapple@ 4004b8f0     ui_force.obj
 0002:00004900       ??_C@_0O@NBDAKBOI@setsk_jetpack@ 4004b900     ui_force.obj
 0002:00004910       ??_C@_0BC@PJKMCDAC@g_forceBasedTeams@ 4004b910     ui_force.obj
 0002:00004924       ??_C@_0P@CHCANPBO@g_maxForceRank@ 4004b924     ui_force.obj
 0002:00004934       __real@40c00000            4004b934     ui_force.obj
 0002:00004940       __xmm@3f8000003e4ccccd3e4ccccd3e4ccccd 4004b940     ui_force.obj
 0002:00004950       ??_C@_01HCONENDN@?$HL@     4004b950     ui_gameinfo.obj
 0002:00004954       ??_C@_0BI@BMEIBPEH@Missing?5?$HL?5in?5info?5file?6@ 4004b954     ui_gameinfo.obj
 0002:0000496c       ??_C@_0BE@IKMJLADL@Max?5infos?5exceeded?6@ 4004b96c     ui_gameinfo.obj
 0002:00004980       ??_C@_0BN@HAJDHEGK@Unexpected?5end?5of?5info?5file?6@ 4004b980     ui_gameinfo.obj
 0002:000049a0       ??_C@_01CELHOKLL@?$HN@     4004b9a0     ui_gameinfo.obj
 0002:000049a4       ??_C@_06CBHGEMFM@?$DMNULL?$DO@ 4004b9a4     ui_gameinfo.obj
 0002:000049ac       ??_C@_02DPKJAMEF@?$CFd@    4004b9ac     ui_gameinfo.obj
 0002:000049b0       ??_C@_0CG@EOIIGGEM@?$FO1Out?5of?5memory?5while?5loading?5a@ 4004b9b0     ui_gameinfo.obj
 0002:000049d8       ??_C@_0BG@BJEIGKLP@?$FO1file?5not?5found?3?5?$CFs?6@ 4004b9d8     ui_gameinfo.obj
 0002:000049f0       ??_C@_0CO@OKDDPLPD@?$FO1file?5too?5large?3?5?$CFs?5is?5?$CFi?0?5max@ 4004b9f0     ui_gameinfo.obj
 0002:00004a20       ??_C@_06IPPMLGON@?4arena@  4004ba20     ui_gameinfo.obj
 0002:00004a28       ??_C@_07OMEBBDEO@scripts@  4004ba28     ui_gameinfo.obj
 0002:00004a30       ??_C@_08IDJEBFOJ@scripts?1@ 4004ba30     ui_gameinfo.obj
 0002:00004a3c       ??_C@_0DJ@KGDBIAGM@?$FO3WARNING?3?5not?5anough?5memory?5in@ 4004ba3c     ui_gameinfo.obj
 0002:00004a78       ??_C@_03HBNNNHNM@map@      4004ba78     ui_gameinfo.obj
 0002:00004a7c       ??_C@_08JJAPLNHH@longname@ 4004ba7c     ui_gameinfo.obj
 0002:00004a88       ??_C@_0O@OBEFLHGN@levelshots?1?$CFs@ 4004ba88     ui_gameinfo.obj
 0002:00004a98       ??_C@_04GPMDFGEJ@type@     4004ba98     ui_gameinfo.obj
 0002:00004aa0       ??_C@_03PAEKGFEI@ffa@      4004baa0     ui_gameinfo.obj
 0002:00004aa4       ??_C@_04KADBPNCB@team@     4004baa4     ui_gameinfo.obj
 0002:00004aac       ??_C@_04OILOBHMB@coop@     4004baac     ui_gameinfo.obj
 0002:00004ab4       ??_C@_08OFGDEOFK@holocron@ 4004bab4     ui_gameinfo.obj
 0002:00004ac0       ??_C@_0L@PPBFGKBC@jedimaster@ 4004bac0     ui_gameinfo.obj
 0002:00004acc       ??_C@_04IONKKEKB@duel@     4004bacc     ui_gameinfo.obj
 0002:00004ad4       ??_C@_09OHBAKHCG@powerduel@ 4004bad4     ui_gameinfo.obj
 0002:00004ae0       ??_C@_05OEDHBHJ@siege@     4004bae0     ui_gameinfo.obj
 0002:00004ae8       ??_C@_03JHHHHEKD@ctf@      4004bae8     ui_gameinfo.obj
 0002:00004aec       ??_C@_03FKCNHKDN@cty@      4004baec     ui_gameinfo.obj
 0002:00004af0       ??_C@_0CK@PEOKDGPG@?$FO1Failed?5to?5allocate?5memory?5for@ 4004baf0     ui_gameinfo.obj
 0002:00004b1c       ??_C@_09IAMOOHNI@?$EASTOPHERE@ 4004bb1c     ui_gameinfo.obj
 0002:00004b28       ??_C@_0L@IDJNDIMJ@g_botsFile@ 4004bb28     ui_gameinfo.obj
 0002:00004b34       ??_C@_0BC@BOHIEOJI@botfiles?1bots?4txt@ 4004bb34     ui_gameinfo.obj
 0002:00004b48       ??_C@_04NONLJGOA@?4bot@    4004bb48     ui_gameinfo.obj
 0002:00004b50       ??_C@_0BK@DFMGEDHJ@?$FO1Invalid?5bot?5number?3?5?$CFi?6@ 4004bb50     ui_gameinfo.obj
 0002:00004b6c       ??_C@_04FJIOCDAK@Kyle@     4004bb6c     ui_gameinfo.obj
 0002:00004b74       ??_C@_0N@LBKNMFEF@ui_netSource@ 4004bb74     ui_main.obj
 0002:00004b84       ??_C@_0BB@KBADOJHA@cg_drawCrosshair@ 4004bb84     ui_main.obj
 0002:00004b98       ??_C@_0M@BFKLKEBI@ui_mapIndex@ 4004bb98     ui_main.obj
 0002:00004ba4       ??_C@_0BG@JDIGCOKJ@ui_singlePlayerActive@ 4004bba4     ui_main.obj
 0002:00004bbc       ??_C@_08HAMOJLDA@g_warmup@ 4004bbbc     ui_main.obj
 0002:00004bc8       ??_C@_0BA@OHINOCDN@ui_recordSPDemo@ 4004bbc8     ui_main.obj
 0002:00004bd8       ??_C@_01FDFGLJHB@2@        4004bbd8     ui_main.obj
 0002:00004bdc       ??_C@_01FAMBOPH@4@         4004bbdc     ui_main.obj
 0002:00004be0       ??_C@_0O@GAOPNBBO@ui_char_model@ 4004bbe0     ui_main.obj
 0002:00004bf0       ??_C@_0BC@DKIABBKG@ui_char_skin_head@ 4004bbf0     ui_main.obj
 0002:00004c04       ??_C@_0BD@LIILGGGB@ui_char_skin_torso@ 4004bc04     ui_main.obj
 0002:00004c18       ??_C@_0BC@MOAOEPEC@ui_char_skin_legs@ 4004bc18     ui_main.obj
 0002:00004c2c       ??_C@_0BC@MMKBHBBG@ui_char_color_red@ 4004bc2c     ui_main.obj
 0002:00004c40       ??_C@_0BE@LHJPMIOB@ui_char_color_green@ 4004bc40     ui_main.obj
 0002:00004c54       ??_C@_0BD@OMJOJKIN@ui_char_color_blue@ 4004bc54     ui_main.obj
 0002:00004c68       ??_C@_0BG@JJNEEMEL@ui_selectedModelIndex@ 4004bc68     ui_main.obj
 0002:00004c80       ??_C@_07PDGBEMPJ@head_a1@  4004bc80     ui_main.obj
 0002:00004c88       ??_C@_08EMHHCMDP@torso_a1@ 4004bc88     ui_main.obj
 0002:00004c94       ??_C@_08EEKIFBEE@lower_a1@ 4004bc94     ui_main.obj
 0002:00004ca0       ??_C@_08FCCFEDKA@ui_saber@ 4004bca0     ui_main.obj
 0002:00004cac       ??_C@_09DLPENCNK@ui_saber2@ 4004bcac     ui_main.obj
 0002:00004cb8       ??_C@_0P@JBHGENEB@ui_saber_color@ 4004bcb8     ui_main.obj
 0002:00004cc8       ??_C@_0BA@OEHEDBF@ui_saber2_color@ 4004bcc8     ui_main.obj
 0002:00004cd8       ??_C@_0O@OEELDHBB@ui_saber_type@ 4004bcd8     ui_main.obj
 0002:00004ce8       ??_C@_06EJFMBPJF@single@   4004bce8     ui_main.obj
 0002:00004cf0       ??_C@_09LPHHNAJJ@ui_sab1_r@ 4004bcf0     ui_main.obj
 0002:00004cfc       ??_C@_09IIMCDGIN@ui_sab1_g@ 4004bcfc     ui_main.obj
 0002:00004d08       ??_C@_09PFLFMCMI@ui_sab1_b@ 4004bd08     ui_main.obj
 0002:00004d14       ??_C@_09KNMCHPHH@ui_sab2_r@ 4004bd14     ui_main.obj
 0002:00004d20       ??_C@_09JKHHJJGD@ui_sab2_g@ 4004bd20     ui_main.obj
 0002:00004d2c       ??_C@_09OHAAGNCG@ui_sab2_b@ 4004bd2c     ui_main.obj
 0002:00004d38       ??_C@_09KPHKOKCC@timelimit@ 4004bd38     ui_main.obj
 0002:00004d44       ??_C@_0L@LCIJJLAJ@ui_bottype@ 4004bd44     ui_main.obj
 0002:00004d50       ??_C@_04CGFJFPFD@none@     4004bd50     ui_main.obj
 0002:00004d58       ??_C@_01EKENIIDA@3@        4004bd58     ui_main.obj
 0002:00004d5c       ??_C@_0M@NHCIKFPA@sv_hostname@ 4004bd5c     ui_main.obj
 0002:00004d68       ??_C@_04FABLJDN@Name@      4004bd68     ui_main.obj
 0002:00004d70       ??_C@_07EODJIPPN@Address@  4004bd70     ui_main.obj
 0002:00004d78       ??_C@_08HCPAIKAO@gamename@ 4004bd78     ui_main.obj
 0002:00004d84       ??_C@_09EDNKFDHC@Game?5name@ 4004bd84     ui_main.obj
 0002:00004d90       ??_C@_09OINJJDAC@Game?5type@ 4004bd90     ui_main.obj
 0002:00004d9c       ??_C@_03NBOPHIOC@Map@      4004bd9c     ui_main.obj
 0002:00004da0       ??_C@_07CPCPJPKL@version@  4004bda0     ui_main.obj
 0002:00004da8       ??_C@_0O@GPABEMKP@ui_findPlayer@ 4004bda8     ui_main.obj
 0002:00004db8       ??_C@_03EAIPFAE@255@       4004bdb8     ui_main.obj
 0002:00004dbc       ??_C@_0BB@GEGILEGG@ui_ffa_fraglimit@ 4004bdbc     ui_main.obj
 0002:00004dd0       ??_C@_0BB@KJJGDNHJ@ui_ffa_timelimit@ 4004bdd0     ui_main.obj
 0002:00004de4       ??_C@_02KMALDIDP@16@       4004bde4     ui_main.obj
 0002:00004de8       ??_C@_07PGAOLEIO@jedi_tf@  4004bde8     ui_main.obj
 0002:00004df0       ??_C@_0N@KGBGHFND@ui_char_anim@ 4004bdf0     ui_main.obj
 0002:00004e00       ??_C@_08CAIDFEMJ@single_1@ 4004be00     ui_main.obj
 0002:00004e0c       ??_C@_06ENJNJKEL@yellow@   4004be0c     ui_main.obj
 0002:00004e14       ??_C@_0BC@FMPOBOM@ui_PrecacheModels@ 4004be14     ui_main.obj
 0002:00004e28       ??_C@_0BC@JFOHFEHA@ui_team_fraglimit@ 4004be28     ui_main.obj
 0002:00004e3c       ??_C@_0BC@FIBJNNGP@ui_team_timelimit@ 4004be3c     ui_main.obj
 0002:00004e50       ??_C@_0BB@LCPLFLFK@ui_team_friendly@ 4004be50     ui_main.obj
 0002:00004e64       ??_C@_0BE@FLADFGIH@ui_ctf_capturelimit@ 4004be64     ui_main.obj
 0002:00004e78       ??_C@_01KJLJFBPL@8@        4004be78     ui_main.obj
 0002:00004e7c       ??_C@_0BB@INPGKJAK@ui_ctf_timelimit@ 4004be7c     ui_main.obj
 0002:00004e90       ??_C@_0BA@DNMONKHI@ui_ctf_friendly@ 4004be90     ui_main.obj
 0002:00004ea0       ??_C@_0BB@KIFEKFLJ@ui_browserMaster@ 4004bea0     ui_main.obj
 0002:00004eb4       ??_C@_0BD@POMFLHHE@ui_browserGameType@ 4004beb4     ui_main.obj
 0002:00004ec8       ??_C@_0BC@OHDOHLCL@ui_browserSortKey@ 4004bec8     ui_main.obj
 0002:00004edc       ??_C@_0BD@FNCPJHJM@ui_browserShowFull@ 4004bedc     ui_main.obj
 0002:00004ef0       ??_C@_0BE@NJOHIGEF@ui_browserShowEmpty@ 4004bef0     ui_main.obj
 0002:00004f04       ??_C@_0BG@PFLNOEEN@cg_drawCrosshairNames@ 4004bf04     ui_main.obj
 0002:00004f1c       ??_C@_08OCDFECFG@cg_marks@ 4004bf1c     ui_main.obj
 0002:00004f28       ??_C@_08JCOFJCCH@ui_debug@ 4004bf28     ui_main.obj
 0002:00004f34       ??_C@_0P@GEBMJNJK@ui_initialized@ 4004bf34     ui_main.obj
 0002:00004f44       ??_C@_09CBAPOGED@Rebellion@ 4004bf44     ui_main.obj
 0002:00004f50       ??_C@_0O@LNLHFCCF@ui_rankChange@ 4004bf50     ui_main.obj
 0002:00004f60       ??_C@_0N@KGLGFCPL@ui_freeSaber@ 4004bf60     ui_main.obj
 0002:00004f70       ??_C@_0BF@LBOIACLJ@ui_forcePowerDisable@ 4004bf70     ui_main.obj
 0002:00004f88       ??_C@_0L@KGGGFMJP@ui_redteam@ 4004bf88     ui_main.obj
 0002:00004f94       ??_C@_06DAMJBNEB@Empire@   4004bf94     ui_main.obj
 0002:00004f9c       ??_C@_0M@NBBBDCHM@ui_blueteam@ 4004bf9c     ui_main.obj
 0002:00004fa8       ??_C@_0N@MHIHNKN@ui_dedicated@ 4004bfa8     ui_main.obj
 0002:00004fb8       ??_C@_0M@JLEABLCD@ui_gametype@ 4004bfb8     ui_main.obj
 0002:00004fc4       ??_C@_0BA@DLIBAHLB@ui_joinGametype@ 4004bfc4     ui_main.obj
 0002:00004fd4       ??_C@_0P@EMDAIJBA@ui_netGametype@ 4004bfd4     ui_main.obj
 0002:00004fe4       ??_C@_0BF@HAOCHBD@ui_actualNetGametype@ 4004bfe4     ui_main.obj
 0002:00004ffc       ??_C@_0M@KGELOPDL@ui_redteam1@ 4004bffc     ui_main.obj
 0002:00005008       ??_C@_0M@INGGLMPI@ui_redteam2@ 4004c008     ui_main.obj
 0002:00005014       ??_C@_0M@JEHNINLJ@ui_redteam3@ 4004c014     ui_main.obj
 0002:00005020       ??_C@_0M@NLDMBLHO@ui_redteam4@ 4004c020     ui_main.obj
 0002:0000502c       ??_C@_0M@MCCHCKDP@ui_redteam5@ 4004c02c     ui_main.obj
 0002:00005038       ??_C@_0M@OJAKHJPM@ui_redteam6@ 4004c038     ui_main.obj
 0002:00005044       ??_C@_0M@PABBEILN@ui_redteam7@ 4004c044     ui_main.obj
 0002:00005050       ??_C@_0M@HHIJFEHC@ui_redteam8@ 4004c050     ui_main.obj
 0002:0000505c       ??_C@_0N@JPDPCLJH@ui_blueteam1@ 4004c05c     ui_main.obj
 0002:0000506c       ??_C@_0N@LEBCHIFE@ui_blueteam2@ 4004c06c     ui_main.obj
 0002:0000507c       ??_C@_0N@KNAJEJBF@ui_blueteam3@ 4004c07c     ui_main.obj
 0002:0000508c       ??_C@_0N@OCEINPNC@ui_blueteam4@ 4004c08c     ui_main.obj
 0002:0000509c       ??_C@_0N@PLFDOOJD@ui_blueteam5@ 4004c09c     ui_main.obj
 0002:000050ac       ??_C@_0N@NAHOLNFA@ui_blueteam6@ 4004c0ac     ui_main.obj
 0002:000050bc       ??_C@_0N@MJGFIMBB@ui_blueteam7@ 4004c0bc     ui_main.obj
 0002:000050cc       ??_C@_0N@EOPNJANO@ui_blueteam8@ 4004c0cc     ui_main.obj
 0002:000050dc       ??_C@_0BD@NCLFMBGL@ui_currentOpponent@ 4004c0dc     ui_main.obj
 0002:000050f0       ??_C@_0BH@IKBHIKEK@ui_lastServerRefresh_0@ 4004c0f0     ui_main.obj
 0002:00005108       ??_C@_0BH@JDAMLLAL@ui_lastServerRefresh_1@ 4004c108     ui_main.obj
 0002:00005120       ??_C@_0BH@LICBOIMI@ui_lastServerRefresh_2@ 4004c120     ui_main.obj
 0002:00005138       ??_C@_0BH@KBDKNJIJ@ui_lastServerRefresh_3@ 4004c138     ui_main.obj
 0002:00005150       ??_C@_06EFEAFBKM@0?5to?50@ 4004c150     ui_main.obj
 0002:00005158       ??_C@_05IPNNCKNB@00?300@   4004c158     ui_main.obj
 0002:00005160       ??_C@_0BH@CNJFJKJI@ui_serverStatusTimeOut@ 4004c160     ui_main.obj
 0002:00005178       ??_C@_04CBNKEHLG@7000@     4004c178     ui_main.obj
 0002:00005180       ??_C@_0M@DBLGOKHK@se_language@ 4004c180     ui_main.obj
 0002:0000518c       ??_C@_07CNNBJDHA@english@  4004c18c     ui_main.obj
 0002:00005194       ??_C@_0BG@PHKLMOCP@ui_bypassMainMenuLoad@ 4004c194     ui_main.obj
 0002:000051ac       ??_C@_0L@IMFBDHL@FACE_TALK0@ 4004c1ac     ui_main.obj
 0002:000051b8       ??_C@_0L@BBNOCCDK@FACE_TALK1@ 4004c1b8     ui_main.obj
 0002:000051c4       ??_C@_0L@DKPDHBPJ@FACE_TALK2@ 4004c1c4     ui_main.obj
 0002:000051d0       ??_C@_0L@CDOIEALI@FACE_TALK3@ 4004c1d0     ui_main.obj
 0002:000051dc       ??_C@_0L@GMKJNGHP@FACE_TALK4@ 4004c1dc     ui_main.obj
 0002:000051e8       ??_C@_0L@MMCADNDE@FACE_ALERT@ 4004c1e8     ui_main.obj
 0002:000051f4       ??_C@_0L@LAOJKFMG@FACE_SMILE@ 4004c1f4     ui_main.obj
 0002:00005200       ??_C@_0L@NHKOPMDL@FACE_FROWN@ 4004c200     ui_main.obj
 0002:0000520c       ??_C@_09OODFOJKI@FACE_DEAD@ 4004c20c     ui_main.obj
 0002:00005218       ??_C@_0M@DCIIGDOC@BOTH_DEATH1@ 4004c218     ui_main.obj
 0002:00005224       ??_C@_0M@BJKFDACB@BOTH_DEATH2@ 4004c224     ui_main.obj
 0002:00005230       ??_C@_0M@LOABGA@BOTH_DEATH3@ 4004c230     ui_main.obj
 0002:0000523c       ??_C@_0M@EPPPJHKH@BOTH_DEATH4@ 4004c23c     ui_main.obj
 0002:00005248       ??_C@_0M@FGOEKGOG@BOTH_DEATH5@ 4004c248     ui_main.obj
 0002:00005254       ??_C@_0M@HNMJPFCF@BOTH_DEATH6@ 4004c254     ui_main.obj
 0002:00005260       ??_C@_0M@GENCMEGE@BOTH_DEATH7@ 4004c260     ui_main.obj
 0002:0000526c       ??_C@_0M@ODEKNIKL@BOTH_DEATH8@ 4004c26c     ui_main.obj
 0002:00005278       ??_C@_0M@PKFBOJOK@BOTH_DEATH9@ 4004c278     ui_main.obj
 0002:00005284       ??_C@_0N@JBHADNME@BOTH_DEATH10@ 4004c284     ui_main.obj
 0002:00005294       ??_C@_0N@IIGLAMIF@BOTH_DEATH11@ 4004c294     ui_main.obj
 0002:000052a4       ??_C@_0N@KDEGFPEG@BOTH_DEATH12@ 4004c2a4     ui_main.obj
 0002:000052b4       ??_C@_0N@LKFNGOAH@BOTH_DEATH13@ 4004c2b4     ui_main.obj
 0002:000052c4       ??_C@_0N@PFBMPIMA@BOTH_DEATH14@ 4004c2c4     ui_main.obj
 0002:000052d4       ??_C@_0N@OMAHMJIB@BOTH_DEATH15@ 4004c2d4     ui_main.obj
 0002:000052e4       ??_C@_0N@MHCKJKEC@BOTH_DEATH16@ 4004c2e4     ui_main.obj
 0002:000052f4       ??_C@_0N@NODBKLAD@BOTH_DEATH17@ 4004c2f4     ui_main.obj
 0002:00005304       ??_C@_0N@FJKJLHMM@BOTH_DEATH18@ 4004c304     ui_main.obj
 0002:00005314       ??_C@_0N@EALCIGIN@BOTH_DEATH19@ 4004c314     ui_main.obj
 0002:00005324       ??_C@_0N@JDDGIDJN@BOTH_DEATH20@ 4004c324     ui_main.obj
 0002:00005334       ??_C@_0N@IKCNLCNM@BOTH_DEATH21@ 4004c334     ui_main.obj
 0002:00005344       ??_C@_0N@KBAAOBBP@BOTH_DEATH22@ 4004c344     ui_main.obj
 0002:00005354       ??_C@_0N@LIBLNAFO@BOTH_DEATH23@ 4004c354     ui_main.obj
 0002:00005364       ??_C@_0N@PHFKEGJJ@BOTH_DEATH24@ 4004c364     ui_main.obj
 0002:00005374       ??_C@_0N@OOEBHHNI@BOTH_DEATH25@ 4004c374     ui_main.obj
 0002:00005384       ??_C@_0BD@LFAMCLEB@BOTH_DEATHFORWARD1@ 4004c384     ui_main.obj
 0002:00005398       ??_C@_0BD@JOCBHIIC@BOTH_DEATHFORWARD2@ 4004c398     ui_main.obj
 0002:000053ac       ??_C@_0BD@IHDKEJMD@BOTH_DEATHFORWARD3@ 4004c3ac     ui_main.obj
 0002:000053c0       ??_C@_0BE@MDPCGIFE@BOTH_DEATHBACKWARD1@ 4004c3c0     ui_main.obj
 0002:000053d4       ??_C@_0BE@OINPDLJH@BOTH_DEATHBACKWARD2@ 4004c3d4     ui_main.obj
 0002:000053e8       ??_C@_0BA@LIHBIFLP@BOTH_DEATH1IDLE@ 4004c3e8     ui_main.obj
 0002:000053f8       ??_C@_0BB@FAMFDOML@BOTH_LYINGDEATH1@ 4004c3f8     ui_main.obj
 0002:0000540c       ??_C@_0BD@HAOKEEDM@BOTH_STUMBLEDEATH1@ 4004c40c     ui_main.obj
 0002:00005420       ??_C@_0BA@MMMHHMBO@BOTH_FALLDEATH1@ 4004c420     ui_main.obj
 0002:00005430       ??_C@_0BF@BGGMCFAN@BOTH_FALLDEATH1INAIR@ 4004c430     ui_main.obj
 0002:00005448       ??_C@_0BE@KLPONOFB@BOTH_FALLDEATH1LAND@ 4004c448     ui_main.obj
 0002:0000545c       ??_C@_0BA@JLHMHBEO@BOTH_DEATH_ROLL@ 4004c45c     ui_main.obj
 0002:0000546c       ??_C@_0BA@PMBFHAFE@BOTH_DEATH_FLIP@ 4004c46c     ui_main.obj
 0002:0000547c       ??_C@_0BF@PGHFNEMI@BOTH_DEATH_SPIN_90_R@ 4004c47c     ui_main.obj
 0002:00005494       ??_C@_0BF@CCDEOLBH@BOTH_DEATH_SPIN_90_L@ 4004c494     ui_main.obj
 0002:000054ac       ??_C@_0BE@GAFFKNDC@BOTH_DEATH_SPIN_180@ 4004c4ac     ui_main.obj
 0002:000054c0       ??_C@_0BE@KCPIFEBO@BOTH_DEATH_LYING_UP@ 4004c4c0     ui_main.obj
 0002:000054d4       ??_C@_0BE@GLFNKCIG@BOTH_DEATH_LYING_DN@ 4004c4d4     ui_main.obj
 0002:000054e8       ??_C@_0BG@KFLMOKCA@BOTH_DEATH_FALLING_DN@ 4004c4e8     ui_main.obj
 0002:00005500       ??_C@_0BG@GMBJBMLI@BOTH_DEATH_FALLING_UP@ 4004c500     ui_main.obj
 0002:00005518       ??_C@_0BE@CACMPNDI@BOTH_DEATH_CROUCHED@ 4004c518     ui_main.obj
 0002:0000552c       ??_C@_0L@ODAKGANJ@BOTH_DEAD1@ 4004c52c     ui_main.obj
 0002:00005538       ??_C@_0L@MICHDDBK@BOTH_DEAD2@ 4004c538     ui_main.obj
 0002:00005544       ??_C@_0L@NBDMACFL@BOTH_DEAD3@ 4004c544     ui_main.obj
 0002:00005550       ??_C@_0L@JOHNJEJM@BOTH_DEAD4@ 4004c550     ui_main.obj
 0002:0000555c       ??_C@_0L@IHGGKFNN@BOTH_DEAD5@ 4004c55c     ui_main.obj
 0002:00005568       ??_C@_0L@KMELPGBO@BOTH_DEAD6@ 4004c568     ui_main.obj
 0002:00005574       ??_C@_0L@LFFAMHFP@BOTH_DEAD7@ 4004c574     ui_main.obj
 0002:00005580       ??_C@_0L@DCMINLJA@BOTH_DEAD8@ 4004c580     ui_main.obj
 0002:0000558c       ??_C@_0L@CLNDOKNB@BOTH_DEAD9@ 4004c58c     ui_main.obj
 0002:00005598       ??_C@_0M@CAKKFGOD@BOTH_DEAD10@ 4004c598     ui_main.obj
 0002:000055a4       ??_C@_0M@DJLBGHKC@BOTH_DEAD11@ 4004c5a4     ui_main.obj
 0002:000055b0       ??_C@_0M@BCJMDEGB@BOTH_DEAD12@ 4004c5b0     ui_main.obj
 0002:000055bc       ??_C@_0M@LIHAFCA@BOTH_DEAD13@ 4004c5bc     ui_main.obj
 0002:000055c8       ??_C@_0M@EEMGJDOH@BOTH_DEAD14@ 4004c5c8     ui_main.obj
 0002:000055d4       ??_C@_0M@FNNNKCKG@BOTH_DEAD15@ 4004c5d4     ui_main.obj
 0002:000055e0       ??_C@_0M@HGPAPBGF@BOTH_DEAD16@ 4004c5e0     ui_main.obj
 0002:000055ec       ??_C@_0M@GPOLMACE@BOTH_DEAD17@ 4004c5ec     ui_main.obj
 0002:000055f8       ??_C@_0M@OIHDNMOL@BOTH_DEAD18@ 4004c5f8     ui_main.obj
 0002:00005604       ??_C@_0M@PBGIONKK@BOTH_DEAD19@ 4004c604     ui_main.obj
 0002:00005610       ??_C@_0M@CCOMOILK@BOTH_DEAD20@ 4004c610     ui_main.obj
 0002:0000561c       ??_C@_0M@DLPHNJPL@BOTH_DEAD21@ 4004c61c     ui_main.obj
 0002:00005628       ??_C@_0M@BANKIKDI@BOTH_DEAD22@ 4004c628     ui_main.obj
 0002:00005634       ??_C@_0M@JMBLLHJ@BOTH_DEAD23@ 4004c634     ui_main.obj
 0002:00005640       ??_C@_0M@EGIACNLO@BOTH_DEAD24@ 4004c640     ui_main.obj
 0002:0000564c       ??_C@_0M@FPJLBMPP@BOTH_DEAD25@ 4004c64c     ui_main.obj
 0002:00005658       ??_C@_0BC@MMDCJFEJ@BOTH_DEADFORWARD1@ 4004c658     ui_main.obj
 0002:0000566c       ??_C@_0BC@OHBPMGIK@BOTH_DEADFORWARD2@ 4004c66c     ui_main.obj
 0002:00005680       ??_C@_0BD@MNFANONI@BOTH_DEADBACKWARD1@ 4004c680     ui_main.obj
 0002:00005694       ??_C@_0BD@OGHNINBL@BOTH_DEADBACKWARD2@ 4004c694     ui_main.obj
 0002:000056a8       ??_C@_0BA@HDEKJGIF@BOTH_LYINGDEAD1@ 4004c6a8     ui_main.obj
 0002:000056b8       ??_C@_0BC@DDLFNCPA@BOTH_STUMBLEDEAD1@ 4004c6b8     ui_main.obj
 0002:000056cc       ??_C@_0BD@BHDKBOHF@BOTH_FALLDEAD1LAND@ 4004c6cc     ui_main.obj
 0002:000056e0       ??_C@_0P@DCNFIPCD@BOTH_DEADFLOP1@ 4004c6e0     ui_main.obj
 0002:000056f0       ??_C@_0P@BJPINMOA@BOTH_DEADFLOP2@ 4004c6f0     ui_main.obj
 0002:00005700       ??_C@_0BF@OGJIODF@BOTH_DISMEMBER_HEAD1@ 4004c700     ui_main.obj
 0002:00005718       ??_C@_0BG@CFOELION@BOTH_DISMEMBER_TORSO1@ 4004c718     ui_main.obj
 0002:00005730       ??_C@_0BE@EHHEBFGH@BOTH_DISMEMBER_LLEG@ 4004c730     ui_main.obj
 0002:00005744       ??_C@_0BE@JIKEDMIE@BOTH_DISMEMBER_RLEG@ 4004c744     ui_main.obj
 0002:00005758       ??_C@_0BE@IJEILJCG@BOTH_DISMEMBER_RARM@ 4004c758     ui_main.obj
 0002:0000576c       ??_C@_0BE@FGJIJAMF@BOTH_DISMEMBER_LARM@ 4004c76c     ui_main.obj
 0002:00005780       ??_C@_0L@EGOOCLKN@BOTH_PAIN1@ 4004c780     ui_main.obj
 0002:0000578c       ??_C@_0L@GNMDHIGO@BOTH_PAIN2@ 4004c78c     ui_main.obj
 0002:00005798       ??_C@_0L@HENIEJCP@BOTH_PAIN3@ 4004c798     ui_main.obj
 0002:000057a4       ??_C@_0L@DLJJNPOI@BOTH_PAIN4@ 4004c7a4     ui_main.obj
 0002:000057b0       ??_C@_0L@CCICOOKJ@BOTH_PAIN5@ 4004c7b0     ui_main.obj
 0002:000057bc       ??_C@_0L@JKPLNGK@BOTH_PAIN6@ 4004c7bc     ui_main.obj
 0002:000057c8       ??_C@_0L@BALEIMCL@BOTH_PAIN7@ 4004c7c8     ui_main.obj
 0002:000057d4       ??_C@_0L@JHCMJAOE@BOTH_PAIN8@ 4004c7d4     ui_main.obj
 0002:000057e0       ??_C@_0L@IODHKBKF@BOTH_PAIN9@ 4004c7e0     ui_main.obj
 0002:000057ec       ??_C@_0M@HHGHAHIN@BOTH_PAIN10@ 4004c7ec     ui_main.obj
 0002:000057f8       ??_C@_0M@GOHMDGMM@BOTH_PAIN11@ 4004c7f8     ui_main.obj
 0002:00005804       ??_C@_0M@EFFBGFAP@BOTH_PAIN12@ 4004c804     ui_main.obj
 0002:00005810       ??_C@_0M@FMEKFEEO@BOTH_PAIN13@ 4004c810     ui_main.obj
 0002:0000581c       ??_C@_0M@BDALMCIJ@BOTH_PAIN14@ 4004c81c     ui_main.obj
 0002:00005828       ??_C@_0M@KBAPDMI@BOTH_PAIN15@ 4004c828     ui_main.obj
 0002:00005834       ??_C@_0M@CBDNKAAL@BOTH_PAIN16@ 4004c834     ui_main.obj
 0002:00005840       ??_C@_0M@DICGJBEK@BOTH_PAIN17@ 4004c840     ui_main.obj
 0002:0000584c       ??_C@_0M@LPLOINIF@BOTH_PAIN18@ 4004c84c     ui_main.obj
 0002:00005858       ??_C@_0N@HEFOHEMG@BOTH_ATTACK1@ 4004c858     ui_main.obj
 0002:00005868       ??_C@_0N@FPHDCHAF@BOTH_ATTACK2@ 4004c868     ui_main.obj
 0002:00005878       ??_C@_0N@EGGIBGEE@BOTH_ATTACK3@ 4004c878     ui_main.obj
 0002:00005888       ??_C@_0N@JCJIAID@BOTH_ATTACK4@ 4004c888     ui_main.obj
 0002:00005898       ??_C@_0N@BADCLBMC@BOTH_ATTACK5@ 4004c898     ui_main.obj
 0002:000058a8       ??_C@_0N@DLBPOCAB@BOTH_ATTACK6@ 4004c8a8     ui_main.obj
 0002:000058b8       ??_C@_0N@CCAENDEA@BOTH_ATTACK7@ 4004c8b8     ui_main.obj
 0002:000058c8       ??_C@_0O@KNDFAPAC@BOTH_ATTACK10@ 4004c8c8     ui_main.obj
 0002:000058d8       ??_C@_0O@LECODOED@BOTH_ATTACK11@ 4004c8d8     ui_main.obj
 0002:000058e8       ??_C@_0M@LPPNEBCJ@BOTH_MELEE1@ 4004c8e8     ui_main.obj
 0002:000058f4       ??_C@_0M@JENABCOK@BOTH_MELEE2@ 4004c8f4     ui_main.obj
 0002:00005900       ??_C@_0BD@FIPEGIGM@BOTH_THERMAL_READY@ 4004c900     ui_main.obj
 0002:00005914       ??_C@_0BD@KGEHHFNO@BOTH_THERMAL_THROW@ 4004c914     ui_main.obj
 0002:00005928       ??_C@_0O@KKJLHNCF@BOTH_A1_T__B_@ 4004c928     ui_main.obj
 0002:00005938       ??_C@_0O@EGEMCONK@BOTH_A1__L__R@ 4004c938     ui_main.obj
 0002:00005948       ??_C@_0O@ENNNDIOG@BOTH_A1__R__L@ 4004c948     ui_main.obj
 0002:00005958       ??_C@_0O@DIHFOODK@BOTH_A1_TL_BR@ 4004c958     ui_main.obj
 0002:00005968       ??_C@_0O@POMAMGEC@BOTH_A1_BR_TL@ 4004c968     ui_main.obj
 0002:00005978       ??_C@_0O@PFFBNAHO@BOTH_A1_BL_TR@ 4004c978     ui_main.obj
 0002:00005988       ??_C@_0O@DDOEPIAG@BOTH_A1_TR_BL@ 4004c988     ui_main.obj
 0002:00005998       ??_C@_0O@MAIDBBEC@BOTH_T1_BR__R@ 4004c998     ui_main.obj
 0002:000059a8       ??_C@_0O@BIJHMBHM@BOTH_T1_BR_TL@ 4004c9a8     ui_main.obj
 0002:000059b8       ??_C@_0O@BEMCCOJN@BOTH_T1_BR__L@ 4004c9b8     ui_main.obj
 0002:000059c8       ??_C@_0O@DMBOLO@BOTH_T1_BR_BL@ 4004c9c8     ui_main.obj
 0002:000059d8       ??_C@_0O@HDJOOPOG@BOTH_T1__R_TR@ 4004c9d8     ui_main.obj
 0002:000059e8       ??_C@_0O@KHNPNADJ@BOTH_T1__R_TL@ 4004c9e8     ui_main.obj
 0002:000059f8       ??_C@_0O@KLIKDPNI@BOTH_T1__R__L@ 4004c9f8     ui_main.obj
 0002:00005a08       ??_C@_0O@LPHEAPPL@BOTH_T1__R_BL@ 4004ca08     ui_main.obj
 0002:00005a18       ??_C@_0O@BPCMAOH@BOTH_T1_TR_BR@ 4004ca18     ui_main.obj
 0002:00005a28       ??_C@_0O@MNBICAPK@BOTH_T1_TR_TL@ 4004ca28     ui_main.obj
 0002:00005a38       ??_C@_0O@MBENMPBL@BOTH_T1_TR__L@ 4004ca38     ui_main.obj
 0002:00005a48       ??_C@_0O@NFLDPPDI@BOTH_T1_TR_BL@ 4004ca48     ui_main.obj
 0002:00005a58       ??_C@_0O@PJGCAEFG@BOTH_T1_T__BR@ 4004ca58     ui_main.obj
 0002:00005a68       ??_C@_0O@ONJMDEHF@BOTH_T1_T___R@ 4004ca68     ui_main.obj
 0002:00005a78       ??_C@_0O@OBMJNLJE@BOTH_T1_T__TR@ 4004ca78     ui_main.obj
 0002:00005a88       ??_C@_0O@DFIIOEEL@BOTH_T1_T__TL@ 4004ca88     ui_main.obj
 0002:00005a98       ??_C@_0O@DJNNALKK@BOTH_T1_T___L@ 4004ca98     ui_main.obj
 0002:00005aa8       ??_C@_0O@CNCDDLIJ@BOTH_T1_T__BL@ 4004caa8     ui_main.obj
 0002:00005ab8       ??_C@_0O@NOCCOJAE@BOTH_T1_TL_BR@ 4004cab8     ui_main.obj
 0002:00005ac8       ??_C@_0O@KGDNGNL@BOTH_T1_TL_BL@ 4004cac8     ui_main.obj
 0002:00005ad8       ??_C@_0O@LEOFBJMH@BOTH_T1__L_BR@ 4004cad8     ui_main.obj
 0002:00005ae8       ??_C@_0O@KABLCJOE@BOTH_T1__L__R@ 4004cae8     ui_main.obj
 0002:00005af8       ??_C@_0O@HIAPPJNK@BOTH_T1__L_TL@ 4004caf8     ui_main.obj
 0002:00005b08       ??_C@_0O@LKNAIIC@BOTH_T1_BL_BR@ 4004cb08     ui_main.obj
 0002:00005b18       ??_C@_0O@BPFDDIKB@BOTH_T1_BL__R@ 4004cb18     ui_main.obj
 0002:00005b28       ??_C@_0O@BDAGNHEA@BOTH_T1_BL_TR@ 4004cb28     ui_main.obj
 0002:00005b38       ??_C@_0O@MLBCAHHO@BOTH_T1_BL__L@ 4004cb38     ui_main.obj
 0002:00005b48       ??_C@_0O@MMNGPOKD@BOTH_T1_BR_TR@ 4004cb48     ui_main.obj
 0002:00005b58       ??_C@_0O@HJHIIAOO@BOTH_T1_BR_T_@ 4004cb58     ui_main.obj
 0002:00005b68       ??_C@_0O@GLDFDACE@BOTH_T1__R_BR@ 4004cb68     ui_main.obj
 0002:00005b78       ??_C@_0O@MGDAJBKL@BOTH_T1__R_T_@ 4004cb78     ui_main.obj
 0002:00005b88       ??_C@_0O@BFAMPAME@BOTH_T1_TR__R@ 4004cb88     ui_main.obj
 0002:00005b98       ??_C@_0O@KMPHGBGI@BOTH_T1_TR_T_@ 4004cb98     ui_main.obj
 0002:00005ba8       ??_C@_0O@MKNMNJCH@BOTH_T1_TL__R@ 4004cba8     ui_main.obj
 0002:00005bb8       ??_C@_0O@MGIJDGMG@BOTH_T1_TL_TR@ 4004cbb8     ui_main.obj
 0002:00005bc8       ??_C@_0O@HDCHEIIL@BOTH_T1_TL_T_@ 4004cbc8     ui_main.obj
 0002:00005bd8       ??_C@_0O@BOJNOGPI@BOTH_T1_TL__L@ 4004cbd8     ui_main.obj
 0002:00005be8       ??_C@_0O@KMEOMGAF@BOTH_T1__L_TR@ 4004cbe8     ui_main.obj
 0002:00005bf8       ??_C@_0O@BJOALIEI@BOTH_T1__L_T_@ 4004cbf8     ui_main.obj
 0002:00005c08       ??_C@_0O@GAKECGBI@BOTH_T1__L_BL@ 4004cc08     ui_main.obj
 0002:00005c18       ??_C@_0O@KGKIKJAN@BOTH_T1_BL_T_@ 4004cc18     ui_main.obj
 0002:00005c28       ??_C@_0O@MHEHOIJP@BOTH_T1_BL_TL@ 4004cc28     ui_main.obj
 0002:00005c38       ??_C@_0O@LABDBIE@BOTH_S1_S1_T_@ 4004cc38     ui_main.obj
 0002:00005c48       ??_C@_0O@GGLLJPPH@BOTH_S1_S1__L@ 4004cc48     ui_main.obj
 0002:00005c58       ??_C@_0O@LCPKKACI@BOTH_S1_S1__R@ 4004cc58     ui_main.obj
 0002:00005c68       ??_C@_0O@GKOOHABG@BOTH_S1_S1_TL@ 4004cc68     ui_main.obj
 0002:00005c78       ??_C@_0O@KGAEJAAL@BOTH_S1_S1_BR@ 4004cc78     ui_main.obj
 0002:00005c88       ??_C@_0O@HCEFKPNE@BOTH_S1_S1_BL@ 4004cc88     ui_main.obj
 0002:00005c98       ??_C@_0O@LOKPEPMJ@BOTH_S1_S1_TR@ 4004cc98     ui_main.obj
 0002:00005ca8       ??_C@_0O@MMDGNHJ@BOTH_R1_B__S1@ 4004cca8     ui_main.obj
 0002:00005cb8       ??_C@_0O@JEMLJBGO@BOTH_R1__L_S1@ 4004ccb8     ui_main.obj
 0002:00005cc8       ??_C@_0O@ELBLLIIN@BOTH_R1__R_S1@ 4004ccc8     ui_main.obj
 0002:00005cd8       ??_C@_0O@POAMGBKN@BOTH_R1_TL_S1@ 4004ccd8     ui_main.obj
 0002:00005ce8       ??_C@_0O@PEFDKJMI@BOTH_R1_BR_S1@ 4004cce8     ui_main.obj
 0002:00005cf8       ??_C@_0O@CLIDIACL@BOTH_R1_BL_S1@ 4004ccf8     ui_main.obj
 0002:00005d08       ??_C@_0O@CBNMEIEO@BOTH_R1_TR_S1@ 4004cd08     ui_main.obj
 0002:00005d18       ??_C@_0O@KKPHFEPE@BOTH_B1_BR___@ 4004cd18     ui_main.obj
 0002:00005d28       ??_C@_0O@BFLPEFLB@BOTH_B1__R___@ 4004cd28     ui_main.obj
 0002:00005d38       ??_C@_0O@HPHILFHC@BOTH_B1_TR___@ 4004cd38     ui_main.obj
 0002:00005d48       ??_C@_0O@IHOIHBMD@BOTH_B1_T____@ 4004cd48     ui_main.obj
 0002:00005d58       ??_C@_0O@KAKIJMJB@BOTH_B1_TL___@ 4004cd58     ui_main.obj
 0002:00005d68       ??_C@_0O@MKGPGMFC@BOTH_B1__L___@ 4004cd68     ui_main.obj
 0002:00005d78       ??_C@_0O@HFCHHNBH@BOTH_B1_BL___@ 4004cd78     ui_main.obj
 0002:00005d88       ??_C@_0O@NJONCNHO@BOTH_D1_BR___@ 4004cd88     ui_main.obj
 0002:00005d98       ??_C@_0O@GGKFDMDL@BOTH_D1__R___@ 4004cd98     ui_main.obj
 0002:00005da8       ??_C@_0O@MGCMMPI@BOTH_D1_TR___@ 4004cda8     ui_main.obj
 0002:00005db8       ??_C@_0O@NDLCOFBL@BOTH_D1_TL___@ 4004cdb8     ui_main.obj
 0002:00005dc8       ??_C@_0O@LJHFBFNI@BOTH_D1__L___@ 4004cdc8     ui_main.obj
 0002:00005dd8       ??_C@_0O@GDNAEJN@BOTH_D1_BL___@ 4004cdd8     ui_main.obj
 0002:00005de8       ??_C@_0O@CBHNOJMP@BOTH_D1_B____@ 4004cde8     ui_main.obj
 0002:00005df8       ??_C@_0O@CEBEHKMG@BOTH_A2_T__B_@ 4004cdf8     ui_main.obj
 0002:00005e08       ??_C@_0O@MIMDCJDJ@BOTH_A2__L__R@ 4004ce08     ui_main.obj
 0002:00005e18       ??_C@_0O@MDFCDPAF@BOTH_A2__R__L@ 4004ce18     ui_main.obj
 0002:00005e28       ??_C@_0O@LGPKOJNJ@BOTH_A2_TL_BR@ 4004ce28     ui_main.obj
 0002:00005e38       ??_C@_0O@HAEPMBKB@BOTH_A2_BR_TL@ 4004ce38     ui_main.obj
 0002:00005e48       ??_C@_0O@HLNONHJN@BOTH_A2_BL_TR@ 4004ce48     ui_main.obj
 0002:00005e58       ??_C@_0O@LNGLPPOF@BOTH_A2_TR_BL@ 4004ce58     ui_main.obj
 0002:00005e68       ??_C@_0O@EOAMBGKB@BOTH_T2_BR__R@ 4004ce68     ui_main.obj
 0002:00005e78       ??_C@_0O@JGBIMGJP@BOTH_T2_BR_TL@ 4004ce78     ui_main.obj
 0002:00005e88       ??_C@_0O@JKENCJHO@BOTH_T2_BR__L@ 4004ce88     ui_main.obj
 0002:00005e98       ??_C@_0O@IOLDBJFN@BOTH_T2_BR_BL@ 4004ce98     ui_main.obj
 0002:00005ea8       ??_C@_0O@PNBBOIAF@BOTH_T2__R_TR@ 4004cea8     ui_main.obj
 0002:00005eb8       ??_C@_0O@CJFANHNK@BOTH_T2__R_TL@ 4004ceb8     ui_main.obj
 0002:00005ec8       ??_C@_0O@CFAFDIDL@BOTH_T2__R__L@ 4004cec8     ui_main.obj
 0002:00005ed8       ??_C@_0O@DBPLAIBI@BOTH_T2__R_BL@ 4004ced8     ui_main.obj
 0002:00005ee8       ??_C@_0O@IPHNMHAE@BOTH_T2_TR_BR@ 4004cee8     ui_main.obj
 0002:00005ef8       ??_C@_0O@EDJHCHBJ@BOTH_T2_TR_TL@ 4004cef8     ui_main.obj
 0002:00005f08       ??_C@_0O@EPMCMIPI@BOTH_T2_TR__L@ 4004cf08     ui_main.obj
 0002:00005f18       ??_C@_0O@FLDMPINL@BOTH_T2_TR_BL@ 4004cf18     ui_main.obj
 0002:00005f28       ??_C@_0O@HHONADLF@BOTH_T2_T__BR@ 4004cf28     ui_main.obj
 0002:00005f38       ??_C@_0O@GDBDDDJG@BOTH_T2_T___R@ 4004cf38     ui_main.obj
 0002:00005f48       ??_C@_0O@GPEGNMHH@BOTH_T2_T__TR@ 4004cf48     ui_main.obj
 0002:00005f58       ??_C@_0O@LLAHODKI@BOTH_T2_T__TL@ 4004cf58     ui_main.obj
 0002:00005f68       ??_C@_0O@LHFCAMEJ@BOTH_T2_T___L@ 4004cf68     ui_main.obj
 0002:00005f78       ??_C@_0O@KDKMDMGK@BOTH_T2_T__BL@ 4004cf78     ui_main.obj
 0002:00005f88       ??_C@_0O@FAKNOOOH@BOTH_T2_TL_BR@ 4004cf88     ui_main.obj
 0002:00005f98       ??_C@_0O@IEOMNBDI@BOTH_T2_TL_BL@ 4004cf98     ui_main.obj
 0002:00005fa8       ??_C@_0O@DKGKBOCE@BOTH_T2__L_BR@ 4004cfa8     ui_main.obj
 0002:00005fb8       ??_C@_0O@COJECOAH@BOTH_T2__L__R@ 4004cfb8     ui_main.obj
 0002:00005fc8       ??_C@_0O@PGIAPODJ@BOTH_T2__L_TL@ 4004cfc8     ui_main.obj
 0002:00005fd8       ??_C@_0O@IFCCAPGB@BOTH_T2_BL_BR@ 4004cfd8     ui_main.obj
 0002:00005fe8       ??_C@_0O@JBNMDPEC@BOTH_T2_BL__R@ 4004cfe8     ui_main.obj
 0002:00005ff8       ??_C@_0O@JNIJNAKD@BOTH_T2_BL_TR@ 4004cff8     ui_main.obj
 0002:00006008       ??_C@_0O@EFJNAAJN@BOTH_T2_BL__L@ 4004d008     ui_main.obj
 0002:00006018       ??_C@_0O@ECFJPJEA@BOTH_T2_BR_TR@ 4004d018     ui_main.obj
 0002:00006028       ??_C@_0O@PHPHIHAN@BOTH_T2_BR_T_@ 4004d028     ui_main.obj
 0002:00006038       ??_C@_0O@OFLKDHMH@BOTH_T2__R_BR@ 4004d038     ui_main.obj
 0002:00006048       ??_C@_0O@EILPJGEI@BOTH_T2__R_T_@ 4004d048     ui_main.obj
 0002:00006058       ??_C@_0O@JLIDPHCH@BOTH_T2_TR__R@ 4004d058     ui_main.obj
 0002:00006068       ??_C@_0O@CCHIGGIL@BOTH_T2_TR_T_@ 4004d068     ui_main.obj
 0002:00006078       ??_C@_0O@EEFDNOME@BOTH_T2_TL__R@ 4004d078     ui_main.obj
 0002:00006088       ??_C@_0O@EIAGDBCF@BOTH_T2_TL_TR@ 4004d088     ui_main.obj
 0002:00006098       ??_C@_0O@PNKIEPGI@BOTH_T2_TL_T_@ 4004d098     ui_main.obj
 0002:000060a8       ??_C@_0O@JABCOBBL@BOTH_T2_TL__L@ 4004d0a8     ui_main.obj
 0002:000060b8       ??_C@_0O@CCMBMBOG@BOTH_T2__L_TR@ 4004d0b8     ui_main.obj
 0002:000060c8       ??_C@_0O@JHGPLPKL@BOTH_T2__L_T_@ 4004d0c8     ui_main.obj
 0002:000060d8       ??_C@_0O@OOCLCBPL@BOTH_T2__L_BL@ 4004d0d8     ui_main.obj
 0002:000060e8       ??_C@_0O@CICHKOOO@BOTH_T2_BL_T_@ 4004d0e8     ui_main.obj
 0002:000060f8       ??_C@_0O@EJMIOPHM@BOTH_T2_BL_TL@ 4004d0f8     ui_main.obj
 0002:00006108       ??_C@_0O@IFIODGGH@BOTH_S2_S1_T_@ 4004d108     ui_main.obj
 0002:00006118       ??_C@_0O@OIDEJIBE@BOTH_S2_S1__L@ 4004d118     ui_main.obj
 0002:00006128       ??_C@_0O@DMHFKHML@BOTH_S2_S1__R@ 4004d128     ui_main.obj
 0002:00006138       ??_C@_0O@OEGBHHPF@BOTH_S2_S1_TL@ 4004d138     ui_main.obj
 0002:00006148       ??_C@_0O@CIILJHOI@BOTH_S2_S1_BR@ 4004d148     ui_main.obj
 0002:00006158       ??_C@_0O@PMMKKIDH@BOTH_S2_S1_BL@ 4004d158     ui_main.obj
 0002:00006168       ??_C@_0O@DACAEICK@BOTH_S2_S1_TR@ 4004d168     ui_main.obj
 0002:00006178       ??_C@_0O@ICEMGKJK@BOTH_R2_B__S1@ 4004d178     ui_main.obj
 0002:00006188       ??_C@_0O@BKEEJGIN@BOTH_R2__L_S1@ 4004d188     ui_main.obj
 0002:00006198       ??_C@_0O@MFJELPGO@BOTH_R2__R_S1@ 4004d198     ui_main.obj
 0002:000061a8       ??_C@_0O@HAIDGGEO@BOTH_R2_TL_S1@ 4004d1a8     ui_main.obj
 0002:000061b8       ??_C@_0O@HKNMKOCL@BOTH_R2_BR_S1@ 4004d1b8     ui_main.obj
 0002:000061c8       ??_C@_0O@KFAMIHMI@BOTH_R2_BL_S1@ 4004d1c8     ui_main.obj
 0002:000061d8       ??_C@_0O@KPFDEPKN@BOTH_R2_TR_S1@ 4004d1d8     ui_main.obj
 0002:000061e8       ??_C@_0O@CEHIFDBH@BOTH_B2_BR___@ 4004d1e8     ui_main.obj
 0002:000061f8       ??_C@_0O@JLDAECFC@BOTH_B2__R___@ 4004d1f8     ui_main.obj
 0002:00006208       ??_C@_0O@PBPHLCJB@BOTH_B2_TR___@ 4004d208     ui_main.obj
 0002:00006218       ??_C@_0O@JGHHGCA@BOTH_B2_T____@ 4004d218     ui_main.obj
 0002:00006228       ??_C@_0O@COCHJLHC@BOTH_B2_TL___@ 4004d228     ui_main.obj
 0002:00006238       ??_C@_0O@EEOAGLLB@BOTH_B2__L___@ 4004d238     ui_main.obj
 0002:00006248       ??_C@_0O@PLKIHKPE@BOTH_B2_BL___@ 4004d248     ui_main.obj
 0002:00006258       ??_C@_0O@FHGCCKJN@BOTH_D2_BR___@ 4004d258     ui_main.obj
 0002:00006268       ??_C@_0O@OICKDLNI@BOTH_D2__R___@ 4004d268     ui_main.obj
 0002:00006278       ??_C@_0O@ICONMLBL@BOTH_D2_TR___@ 4004d278     ui_main.obj
 0002:00006288       ??_C@_0O@FNDNOCPI@BOTH_D2_TL___@ 4004d288     ui_main.obj
 0002:00006298       ??_C@_0O@DHPKBCDL@BOTH_D2__L___@ 4004d298     ui_main.obj
 0002:000062a8       ??_C@_0O@IILCADHO@BOTH_D2_BL___@ 4004d2a8     ui_main.obj
 0002:000062b8       ??_C@_0O@KPPCOOCM@BOTH_D2_B____@ 4004d2b8     ui_main.obj
 0002:000062c8       ??_C@_0O@OILOHKFI@BOTH_A3_T__B_@ 4004d2c8     ui_main.obj
 0002:000062d8       ??_C@_0O@EGJCJKH@BOTH_A3__L__R@ 4004d2d8     ui_main.obj
 0002:000062e8       ??_C@_0O@PPIDPJL@BOTH_A3__R__L@ 4004d2e8     ui_main.obj
 0002:000062f8       ??_C@_0O@HKFAOJEH@BOTH_A3_TL_BR@ 4004d2f8     ui_main.obj
 0002:00006308       ??_C@_0O@LMOFMBDP@BOTH_A3_BR_TL@ 4004d308     ui_main.obj
 0002:00006318       ??_C@_0O@LHHENHAD@BOTH_A3_BL_TR@ 4004d318     ui_main.obj
 0002:00006328       ??_C@_0O@HBMBPPHL@BOTH_A3_TR_BL@ 4004d328     ui_main.obj
 0002:00006338       ??_C@_0O@ICKGBGDP@BOTH_T3_BR__R@ 4004d338     ui_main.obj
 0002:00006348       ??_C@_0O@FKLCMGAB@BOTH_T3_BR_TL@ 4004d348     ui_main.obj
 0002:00006358       ??_C@_0O@FGOHCJOA@BOTH_T3_BR__L@ 4004d358     ui_main.obj
 0002:00006368       ??_C@_0O@ECBJBJMD@BOTH_T3_BR_BL@ 4004d368     ui_main.obj
 0002:00006378       ??_C@_0O@DBLLOIJL@BOTH_T3__R_TR@ 4004d378     ui_main.obj
 0002:00006388       ??_C@_0O@OFPKNHEE@BOTH_T3__R_TL@ 4004d388     ui_main.obj
 0002:00006398       ??_C@_0O@OJKPDIKF@BOTH_T3__R__L@ 4004d398     ui_main.obj
 0002:000063a8       ??_C@_0O@PNFBAIIG@BOTH_T3__R_BL@ 4004d3a8     ui_main.obj
 0002:000063b8       ??_C@_0O@EDNHMHJK@BOTH_T3_TR_BR@ 4004d3b8     ui_main.obj
 0002:000063c8       ??_C@_0O@IPDNCHIH@BOTH_T3_TR_TL@ 4004d3c8     ui_main.obj
 0002:000063d8       ??_C@_0O@IDGIMIGG@BOTH_T3_TR__L@ 4004d3d8     ui_main.obj
 0002:000063e8       ??_C@_0O@JHJGPIEF@BOTH_T3_TR_BL@ 4004d3e8     ui_main.obj
 0002:000063f8       ??_C@_0O@LLEHADCL@BOTH_T3_T__BR@ 4004d3f8     ui_main.obj
 0002:00006408       ??_C@_0O@KPLJDDAI@BOTH_T3_T___R@ 4004d408     ui_main.obj
 0002:00006418       ??_C@_0O@KDOMNMOJ@BOTH_T3_T__TR@ 4004d418     ui_main.obj
 0002:00006428       ??_C@_0O@HHKNODDG@BOTH_T3_T__TL@ 4004d428     ui_main.obj
 0002:00006438       ??_C@_0O@HLPIAMNH@BOTH_T3_T___L@ 4004d438     ui_main.obj
 0002:00006448       ??_C@_0O@GPAGDMPE@BOTH_T3_T__BL@ 4004d448     ui_main.obj
 0002:00006458       ??_C@_0O@JMAHOOHJ@BOTH_T3_TL_BR@ 4004d458     ui_main.obj
 0002:00006468       ??_C@_0O@EIEGNBKG@BOTH_T3_TL_BL@ 4004d468     ui_main.obj
 0002:00006478       ??_C@_0O@PGMABOLK@BOTH_T3__L_BR@ 4004d478     ui_main.obj
 0002:00006488       ??_C@_0O@OCDOCOJJ@BOTH_T3__L__R@ 4004d488     ui_main.obj
 0002:00006498       ??_C@_0O@DKCKPOKH@BOTH_T3__L_TL@ 4004d498     ui_main.obj
 0002:000064a8       ??_C@_0O@EJIIAPPP@BOTH_T3_BL_BR@ 4004d4a8     ui_main.obj
 0002:000064b8       ??_C@_0O@FNHGDPNM@BOTH_T3_BL__R@ 4004d4b8     ui_main.obj
 0002:000064c8       ??_C@_0O@FBCDNADN@BOTH_T3_BL_TR@ 4004d4c8     ui_main.obj
 0002:000064d8       ??_C@_0O@IJDHAAAD@BOTH_T3_BL__L@ 4004d4d8     ui_main.obj
 0002:000064e8       ??_C@_0O@IOPDPJNO@BOTH_T3_BR_TR@ 4004d4e8     ui_main.obj
 0002:000064f8       ??_C@_0O@DLFNIHJD@BOTH_T3_BR_T_@ 4004d4f8     ui_main.obj
 0002:00006508       ??_C@_0O@CJBADHFJ@BOTH_T3__R_BR@ 4004d508     ui_main.obj
 0002:00006518       ??_C@_0O@IEBFJGNG@BOTH_T3__R_T_@ 4004d518     ui_main.obj
 0002:00006528       ??_C@_0O@FHCJPHLJ@BOTH_T3_TR__R@ 4004d528     ui_main.obj
 0002:00006538       ??_C@_0O@OONCGGBF@BOTH_T3_TR_T_@ 4004d538     ui_main.obj
 0002:00006548       ??_C@_0O@IIPJNOFK@BOTH_T3_TL__R@ 4004d548     ui_main.obj
 0002:00006558       ??_C@_0O@IEKMDBLL@BOTH_T3_TL_TR@ 4004d558     ui_main.obj
 0002:00006568       ??_C@_0O@DBACEPPG@BOTH_T3_TL_T_@ 4004d568     ui_main.obj
 0002:00006578       ??_C@_0O@FMLIOBIF@BOTH_T3_TL__L@ 4004d578     ui_main.obj
 0002:00006588       ??_C@_0O@OOGLMBHI@BOTH_T3__L_TR@ 4004d588     ui_main.obj
 0002:00006598       ??_C@_0O@FLMFLPDF@BOTH_T3__L_T_@ 4004d598     ui_main.obj
 0002:000065a8       ??_C@_0O@CCIBCBGF@BOTH_T3__L_BL@ 4004d5a8     ui_main.obj
 0002:000065b8       ??_C@_0O@OEINKOHA@BOTH_T3_BL_T_@ 4004d5b8     ui_main.obj
 0002:000065c8       ??_C@_0O@IFGCOPOC@BOTH_T3_BL_TL@ 4004d5c8     ui_main.obj
 0002:000065d8       ??_C@_0O@EJCEDGPJ@BOTH_S3_S1_T_@ 4004d5d8     ui_main.obj
 0002:000065e8       ??_C@_0O@CEJOJIIK@BOTH_S3_S1__L@ 4004d5e8     ui_main.obj
 0002:000065f8       ??_C@_0O@PANPKHFF@BOTH_S3_S1__R@ 4004d5f8     ui_main.obj
 0002:00006608       ??_C@_0O@CIMLHHGL@BOTH_S3_S1_TL@ 4004d608     ui_main.obj
 0002:00006618       ??_C@_0O@OECBJHHG@BOTH_S3_S1_BR@ 4004d618     ui_main.obj
 0002:00006628       ??_C@_0O@DAGAKIKJ@BOTH_S3_S1_BL@ 4004d628     ui_main.obj
 0002:00006638       ??_C@_0O@PMIKEILE@BOTH_S3_S1_TR@ 4004d638     ui_main.obj
 0002:00006648       ??_C@_0O@EOOGGKAE@BOTH_R3_B__S1@ 4004d648     ui_main.obj
 0002:00006658       ??_C@_0O@NGOOJGBD@BOTH_R3__L_S1@ 4004d658     ui_main.obj
 0002:00006668       ??_C@_0O@JDOLPPA@BOTH_R3__R_S1@ 4004d668     ui_main.obj
 0002:00006678       ??_C@_0O@LMCJGGNA@BOTH_R3_TL_S1@ 4004d678     ui_main.obj
 0002:00006688       ??_C@_0O@LGHGKOLF@BOTH_R3_BR_S1@ 4004d688     ui_main.obj
 0002:00006698       ??_C@_0O@GJKGIHFG@BOTH_R3_BL_S1@ 4004d698     ui_main.obj
 0002:000066a8       ??_C@_0O@GDPJEPDD@BOTH_R3_TR_S1@ 4004d6a8     ui_main.obj
 0002:000066b8       ??_C@_0O@OINCFDIJ@BOTH_B3_BR___@ 4004d6b8     ui_main.obj
 0002:000066c8       ??_C@_0O@FHJKECMM@BOTH_B3__R___@ 4004d6c8     ui_main.obj
 0002:000066d8       ??_C@_0O@DNFNLCAP@BOTH_B3_TR___@ 4004d6d8     ui_main.obj
 0002:000066e8       ??_C@_0O@MFMNHGLO@BOTH_B3_T____@ 4004d6e8     ui_main.obj
 0002:000066f8       ??_C@_0O@OCINJLOM@BOTH_B3_TL___@ 4004d6f8     ui_main.obj
 0002:00006708       ??_C@_0O@IIEKGLCP@BOTH_B3__L___@ 4004d708     ui_main.obj
 0002:00006718       ??_C@_0O@DHACHKGK@BOTH_B3_BL___@ 4004d718     ui_main.obj
 0002:00006728       ??_C@_0O@JLMICKAD@BOTH_D3_BR___@ 4004d728     ui_main.obj
 0002:00006738       ??_C@_0O@CEIADLEG@BOTH_D3__R___@ 4004d738     ui_main.obj
 0002:00006748       ??_C@_0O@EOEHMLIF@BOTH_D3_TR___@ 4004d748     ui_main.obj
 0002:00006758       ??_C@_0O@JBJHOCGG@BOTH_D3_TL___@ 4004d758     ui_main.obj
 0002:00006768       ??_C@_0O@PLFABCKF@BOTH_D3__L___@ 4004d768     ui_main.obj
 0002:00006778       ??_C@_0O@EEBIADOA@BOTH_D3_BL___@ 4004d778     ui_main.obj
 0002:00006788       ??_C@_0O@GDFIOOLC@BOTH_D3_B____@ 4004d788     ui_main.obj
 0002:00006798       ??_C@_0O@OCHLHDEB@BOTH_A4_T__B_@ 4004d798     ui_main.obj
 0002:000067a8       ??_C@_0O@OKMCALO@BOTH_A4__L__R@ 4004d7a8     ui_main.obj
 0002:000067b8       ??_C@_0O@FDNDGIC@BOTH_A4__R__L@ 4004d7b8     ui_main.obj
 0002:000067c8       ??_C@_0O@HAJFOAFO@BOTH_A4_TL_BR@ 4004d7c8     ui_main.obj
 0002:000067d8       ??_C@_0O@LGCAMICG@BOTH_A4_BR_TL@ 4004d7d8     ui_main.obj
 0002:000067e8       ??_C@_0O@LNLBNOBK@BOTH_A4_BL_TR@ 4004d7e8     ui_main.obj
 0002:000067f8       ??_C@_0O@HLAEPGGC@BOTH_A4_TR_BL@ 4004d7f8     ui_main.obj
 0002:00006808       ??_C@_0O@IIGDBPCG@BOTH_T4_BR__R@ 4004d808     ui_main.obj
 0002:00006818       ??_C@_0O@FAHHMPBI@BOTH_T4_BR_TL@ 4004d818     ui_main.obj
 0002:00006828       ??_C@_0O@FMCCCAPJ@BOTH_T4_BR__L@ 4004d828     ui_main.obj
 0002:00006838       ??_C@_0O@EINMBANK@BOTH_T4_BR_BL@ 4004d838     ui_main.obj
 0002:00006848       ??_C@_0O@DLHOOBIC@BOTH_T4__R_TR@ 4004d848     ui_main.obj
 0002:00006858       ??_C@_0O@OPDPNOFN@BOTH_T4__R_TL@ 4004d858     ui_main.obj
 0002:00006868       ??_C@_0O@ODGKDBLM@BOTH_T4__R__L@ 4004d868     ui_main.obj
 0002:00006878       ??_C@_0O@PHJEABJP@BOTH_T4__R_BL@ 4004d878     ui_main.obj
 0002:00006888       ??_C@_0O@EJBCMOID@BOTH_T4_TR_BR@ 4004d888     ui_main.obj
 0002:00006898       ??_C@_0O@IFPICOJO@BOTH_T4_TR_TL@ 4004d898     ui_main.obj
 0002:000068a8       ??_C@_0O@IJKNMBHP@BOTH_T4_TR__L@ 4004d8a8     ui_main.obj
 0002:000068b8       ??_C@_0O@JNFDPBFM@BOTH_T4_TR_BL@ 4004d8b8     ui_main.obj
 0002:000068c8       ??_C@_0O@LBICAKDC@BOTH_T4_T__BR@ 4004d8c8     ui_main.obj
 0002:000068d8       ??_C@_0O@KFHMDKBB@BOTH_T4_T___R@ 4004d8d8     ui_main.obj
 0002:000068e8       ??_C@_0O@KJCJNFPA@BOTH_T4_T__TR@ 4004d8e8     ui_main.obj
 0002:000068f8       ??_C@_0O@HNGIOKCP@BOTH_T4_T__TL@ 4004d8f8     ui_main.obj
 0002:00006908       ??_C@_0O@HBDNAFMO@BOTH_T4_T___L@ 4004d908     ui_main.obj
 0002:00006918       ??_C@_0O@GFMDDFON@BOTH_T4_T__BL@ 4004d918     ui_main.obj
 0002:00006928       ??_C@_0O@JGMCOHGA@BOTH_T4_TL_BR@ 4004d928     ui_main.obj
 0002:00006938       ??_C@_0O@ECIDNILP@BOTH_T4_TL_BL@ 4004d938     ui_main.obj
 0002:00006948       ??_C@_0O@PMAFBHKD@BOTH_T4__L_BR@ 4004d948     ui_main.obj
 0002:00006958       ??_C@_0O@OIPLCHIA@BOTH_T4__L__R@ 4004d958     ui_main.obj
 0002:00006968       ??_C@_0O@DAOPPHLO@BOTH_T4__L_TL@ 4004d968     ui_main.obj
 0002:00006978       ??_C@_0O@EDENAGOG@BOTH_T4_BL_BR@ 4004d978     ui_main.obj
 0002:00006988       ??_C@_0O@FHLDDGMF@BOTH_T4_BL__R@ 4004d988     ui_main.obj
 0002:00006998       ??_C@_0O@FLOGNJCE@BOTH_T4_BL_TR@ 4004d998     ui_main.obj
 0002:000069a8       ??_C@_0O@IDPCAJBK@BOTH_T4_BL__L@ 4004d9a8     ui_main.obj
 0002:000069b8       ??_C@_0O@IEDGPAMH@BOTH_T4_BR_TR@ 4004d9b8     ui_main.obj
 0002:000069c8       ??_C@_0O@DBJIIOIK@BOTH_T4_BR_T_@ 4004d9c8     ui_main.obj
 0002:000069d8       ??_C@_0O@CDNFDOEA@BOTH_T4__R_BR@ 4004d9d8     ui_main.obj
 0002:000069e8       ??_C@_0O@IONAJPMP@BOTH_T4__R_T_@ 4004d9e8     ui_main.obj
 0002:000069f8       ??_C@_0O@FNOMPOKA@BOTH_T4_TR__R@ 4004d9f8     ui_main.obj
 0002:00006a08       ??_C@_0O@OEBHGPAM@BOTH_T4_TR_T_@ 4004da08     ui_main.obj
 0002:00006a18       ??_C@_0O@ICDMNHED@BOTH_T4_TL__R@ 4004da18     ui_main.obj
 0002:00006a28       ??_C@_0O@IOGJDIKC@BOTH_T4_TL_TR@ 4004da28     ui_main.obj
 0002:00006a38       ??_C@_0O@DLMHEGOP@BOTH_T4_TL_T_@ 4004da38     ui_main.obj
 0002:00006a48       ??_C@_0O@FGHNOIJM@BOTH_T4_TL__L@ 4004da48     ui_main.obj
 0002:00006a58       ??_C@_0O@OEKOMIGB@BOTH_T4__L_TR@ 4004da58     ui_main.obj
 0002:00006a68       ??_C@_0O@FBAALGCM@BOTH_T4__L_T_@ 4004da68     ui_main.obj
 0002:00006a78       ??_C@_0O@CIEECIHM@BOTH_T4__L_BL@ 4004da78     ui_main.obj
 0002:00006a88       ??_C@_0O@OOEIKHGJ@BOTH_T4_BL_T_@ 4004da88     ui_main.obj
 0002:00006a98       ??_C@_0O@IPKHOGPL@BOTH_T4_BL_TL@ 4004da98     ui_main.obj
 0002:00006aa8       ??_C@_0O@EDOBDPOA@BOTH_S4_S1_T_@ 4004daa8     ui_main.obj
 0002:00006ab8       ??_C@_0O@COFLJBJD@BOTH_S4_S1__L@ 4004dab8     ui_main.obj
 0002:00006ac8       ??_C@_0O@PKBKKOEM@BOTH_S4_S1__R@ 4004dac8     ui_main.obj
 0002:00006ad8       ??_C@_0O@CCAOHOHC@BOTH_S4_S1_TL@ 4004dad8     ui_main.obj
 0002:00006ae8       ??_C@_0O@OOOEJOGP@BOTH_S4_S1_BR@ 4004dae8     ui_main.obj
 0002:00006af8       ??_C@_0O@DKKFKBLA@BOTH_S4_S1_BL@ 4004daf8     ui_main.obj
 0002:00006b08       ??_C@_0O@PGEPEBKN@BOTH_S4_S1_TR@ 4004db08     ui_main.obj
 0002:00006b18       ??_C@_0O@EECDGDBN@BOTH_R4_B__S1@ 4004db18     ui_main.obj
 0002:00006b28       ??_C@_0O@NMCLJPAK@BOTH_R4__L_S1@ 4004db28     ui_main.obj
 0002:00006b38       ??_C@_0O@DPLLGOJ@BOTH_R4__R_S1@ 4004db38     ui_main.obj
 0002:00006b48       ??_C@_0O@LGOMGPMJ@BOTH_R4_TL_S1@ 4004db48     ui_main.obj
 0002:00006b58       ??_C@_0O@LMLDKHKM@BOTH_R4_BR_S1@ 4004db58     ui_main.obj
 0002:00006b68       ??_C@_0O@GDGDIOEP@BOTH_R4_BL_S1@ 4004db68     ui_main.obj
 0002:00006b78       ??_C@_0O@GJDMEGCK@BOTH_R4_TR_S1@ 4004db78     ui_main.obj
 0002:00006b88       ??_C@_0O@OCBHFKJA@BOTH_B4_BR___@ 4004db88     ui_main.obj
 0002:00006b98       ??_C@_0O@FNFPELNF@BOTH_B4__R___@ 4004db98     ui_main.obj
 0002:00006ba8       ??_C@_0O@DHJILLBG@BOTH_B4_TR___@ 4004dba8     ui_main.obj
 0002:00006bb8       ??_C@_0O@MPAIHPKH@BOTH_B4_T____@ 4004dbb8     ui_main.obj
 0002:00006bc8       ??_C@_0O@OIEIJCPF@BOTH_B4_TL___@ 4004dbc8     ui_main.obj
 0002:00006bd8       ??_C@_0O@ICIPGCDG@BOTH_B4__L___@ 4004dbd8     ui_main.obj
 0002:00006be8       ??_C@_0O@DNMHHDHD@BOTH_B4_BL___@ 4004dbe8     ui_main.obj
 0002:00006bf8       ??_C@_0O@JBANCDBK@BOTH_D4_BR___@ 4004dbf8     ui_main.obj
 0002:00006c08       ??_C@_0O@COEFDCFP@BOTH_D4__R___@ 4004dc08     ui_main.obj
 0002:00006c18       ??_C@_0O@EEICMCJM@BOTH_D4_TR___@ 4004dc18     ui_main.obj
 0002:00006c28       ??_C@_0O@JLFCOLHP@BOTH_D4_TL___@ 4004dc28     ui_main.obj
 0002:00006c38       ??_C@_0O@PBJFBLLM@BOTH_D4__L___@ 4004dc38     ui_main.obj
 0002:00006c48       ??_C@_0O@EONNAKPJ@BOTH_D4_BL___@ 4004dc48     ui_main.obj
 0002:00006c58       ??_C@_0O@GJJNOHKL@BOTH_D4_B____@ 4004dc58     ui_main.obj
 0002:00006c68       ??_C@_0O@CONBHDNP@BOTH_A5_T__B_@ 4004dc68     ui_main.obj
 0002:00006c78       ??_C@_0O@MCAGCACA@BOTH_A5__L__R@ 4004dc78     ui_main.obj
 0002:00006c88       ??_C@_0O@MJJHDGBM@BOTH_A5__R__L@ 4004dc88     ui_main.obj
 0002:00006c98       ??_C@_0O@LMDPOAMA@BOTH_A5_TL_BR@ 4004dc98     ui_main.obj
 0002:00006ca8       ??_C@_0O@HKIKMILI@BOTH_A5_BR_TL@ 4004dca8     ui_main.obj
 0002:00006cb8       ??_C@_0O@HBBLNOIE@BOTH_A5_BL_TR@ 4004dcb8     ui_main.obj
 0002:00006cc8       ??_C@_0O@LHKOPGPM@BOTH_A5_TR_BL@ 4004dcc8     ui_main.obj
 0002:00006cd8       ??_C@_0O@EEMJBPLI@BOTH_T5_BR__R@ 4004dcd8     ui_main.obj
 0002:00006ce8       ??_C@_0O@JMNNMPIG@BOTH_T5_BR_TL@ 4004dce8     ui_main.obj
 0002:00006cf8       ??_C@_0O@JAIICAGH@BOTH_T5_BR__L@ 4004dcf8     ui_main.obj
 0002:00006d08       ??_C@_0O@IEHGBAEE@BOTH_T5_BR_BL@ 4004dd08     ui_main.obj
 0002:00006d18       ??_C@_0O@PHNEOBBM@BOTH_T5__R_TR@ 4004dd18     ui_main.obj
 0002:00006d28       ??_C@_0O@CDJFNOMD@BOTH_T5__R_TL@ 4004dd28     ui_main.obj
 0002:00006d38       ??_C@_0O@CPMADBCC@BOTH_T5__R__L@ 4004dd38     ui_main.obj
 0002:00006d48       ??_C@_0O@DLDOABAB@BOTH_T5__R_BL@ 4004dd48     ui_main.obj
 0002:00006d58       ??_C@_0O@IFLIMOBN@BOTH_T5_TR_BR@ 4004dd58     ui_main.obj
 0002:00006d68       ??_C@_0O@EJFCCOAA@BOTH_T5_TR_TL@ 4004dd68     ui_main.obj
 0002:00006d78       ??_C@_0O@EFAHMBOB@BOTH_T5_TR__L@ 4004dd78     ui_main.obj
 0002:00006d88       ??_C@_0O@FBPJPBMC@BOTH_T5_TR_BL@ 4004dd88     ui_main.obj
 0002:00006d98       ??_C@_0O@HNCIAKKM@BOTH_T5_T__BR@ 4004dd98     ui_main.obj
 0002:00006da8       ??_C@_0O@GJNGDKIP@BOTH_T5_T___R@ 4004dda8     ui_main.obj
 0002:00006db8       ??_C@_0O@GFIDNFGO@BOTH_T5_T__TR@ 4004ddb8     ui_main.obj
 0002:00006dc8       ??_C@_0O@LBMCOKLB@BOTH_T5_T__TL@ 4004ddc8     ui_main.obj
 0002:00006dd8       ??_C@_0O@LNJHAFFA@BOTH_T5_T___L@ 4004ddd8     ui_main.obj
 0002:00006de8       ??_C@_0O@KJGJDFHD@BOTH_T5_T__BL@ 4004dde8     ui_main.obj
 0002:00006df8       ??_C@_0O@FKGIOHPO@BOTH_T5_TL_BR@ 4004ddf8     ui_main.obj
 0002:00006e08       ??_C@_0O@IOCJNICB@BOTH_T5_TL_BL@ 4004de08     ui_main.obj
 0002:00006e18       ??_C@_0O@DAKPBHDN@BOTH_T5__L_BR@ 4004de18     ui_main.obj
 0002:00006e28       ??_C@_0O@CEFBCHBO@BOTH_T5__L__R@ 4004de28     ui_main.obj
 0002:00006e38       ??_C@_0O@PMEFPHCA@BOTH_T5__L_TL@ 4004de38     ui_main.obj
 0002:00006e48       ??_C@_0O@IPOHAGHI@BOTH_T5_BL_BR@ 4004de48     ui_main.obj
 0002:00006e58       ??_C@_0O@JLBJDGFL@BOTH_T5_BL__R@ 4004de58     ui_main.obj
 0002:00006e68       ??_C@_0O@JHEMNJLK@BOTH_T5_BL_TR@ 4004de68     ui_main.obj
 0002:00006e78       ??_C@_0O@EPFIAJIE@BOTH_T5_BL__L@ 4004de78     ui_main.obj
 0002:00006e88       ??_C@_0O@EIJMPAFJ@BOTH_T5_BR_TR@ 4004de88     ui_main.obj
 0002:00006e98       ??_C@_0O@PNDCIOBE@BOTH_T5_BR_T_@ 4004de98     ui_main.obj
 0002:00006ea8       ??_C@_0O@OPHPDONO@BOTH_T5__R_BR@ 4004dea8     ui_main.obj
 0002:00006eb8       ??_C@_0O@ECHKJPFB@BOTH_T5__R_T_@ 4004deb8     ui_main.obj
 0002:00006ec8       ??_C@_0O@JBEGPODO@BOTH_T5_TR__R@ 4004dec8     ui_main.obj
 0002:00006ed8       ??_C@_0O@CILNGPJC@BOTH_T5_TR_T_@ 4004ded8     ui_main.obj
 0002:00006ee8       ??_C@_0O@EOJGNHNN@BOTH_T5_TL__R@ 4004dee8     ui_main.obj
 0002:00006ef8       ??_C@_0O@ECMDDIDM@BOTH_T5_TL_TR@ 4004def8     ui_main.obj
 0002:00006f08       ??_C@_0O@PHGNEGHB@BOTH_T5_TL_T_@ 4004df08     ui_main.obj
 0002:00006f18       ??_C@_0O@JKNHOIAC@BOTH_T5_TL__L@ 4004df18     ui_main.obj
 0002:00006f28       ??_C@_0O@CIAEMIPP@BOTH_T5__L_TR@ 4004df28     ui_main.obj
 0002:00006f38       ??_C@_0O@JNKKLGLC@BOTH_T5__L_T_@ 4004df38     ui_main.obj
 0002:00006f48       ??_C@_0O@OEOOCIOC@BOTH_T5__L_BL@ 4004df48     ui_main.obj
 0002:00006f58       ??_C@_0O@CCOCKHPH@BOTH_T5_BL_T_@ 4004df58     ui_main.obj
 0002:00006f68       ??_C@_0O@EDANOGGF@BOTH_T5_BL_TL@ 4004df68     ui_main.obj
 0002:00006f78       ??_C@_0O@IPELDPHO@BOTH_S5_S1_T_@ 4004df78     ui_main.obj
 0002:00006f88       ??_C@_0O@OCPBJBAN@BOTH_S5_S1__L@ 4004df88     ui_main.obj
 0002:00006f98       ??_C@_0O@DGLAKONC@BOTH_S5_S1__R@ 4004df98     ui_main.obj
 0002:00006fa8       ??_C@_0O@OOKEHOOM@BOTH_S5_S1_TL@ 4004dfa8     ui_main.obj
 0002:00006fb8       ??_C@_0O@CCEOJOPB@BOTH_S5_S1_BR@ 4004dfb8     ui_main.obj
 0002:00006fc8       ??_C@_0O@PGAPKBCO@BOTH_S5_S1_BL@ 4004dfc8     ui_main.obj
 0002:00006fd8       ??_C@_0O@DKOFEBDD@BOTH_S5_S1_TR@ 4004dfd8     ui_main.obj
 0002:00006fe8       ??_C@_0O@IIIJGDID@BOTH_R5_B__S1@ 4004dfe8     ui_main.obj
 0002:00006ff8       ??_C@_0O@BAIBJPJE@BOTH_R5__L_S1@ 4004dff8     ui_main.obj
 0002:00007008       ??_C@_0O@MPFBLGHH@BOTH_R5__R_S1@ 4004e008     ui_main.obj
 0002:00007018       ??_C@_0O@HKEGGPFH@BOTH_R5_TL_S1@ 4004e018     ui_main.obj
 0002:00007028       ??_C@_0O@HABJKHDC@BOTH_R5_BR_S1@ 4004e028     ui_main.obj
 0002:00007038       ??_C@_0O@KPMJIONB@BOTH_R5_BL_S1@ 4004e038     ui_main.obj
 0002:00007048       ??_C@_0O@KFJGEGLE@BOTH_R5_TR_S1@ 4004e048     ui_main.obj
 0002:00007058       ??_C@_0O@COLNFKAO@BOTH_B5_BR___@ 4004e058     ui_main.obj
 0002:00007068       ??_C@_0O@JBPFELEL@BOTH_B5__R___@ 4004e068     ui_main.obj
 0002:00007078       ??_C@_0O@PLDCLLII@BOTH_B5_TR___@ 4004e078     ui_main.obj
 0002:00007088       ??_C@_0O@DKCHPDJ@BOTH_B5_T____@ 4004e088     ui_main.obj
 0002:00007098       ??_C@_0O@CEOCJCGL@BOTH_B5_TL___@ 4004e098     ui_main.obj
 0002:000070a8       ??_C@_0O@EOCFGCKI@BOTH_B5__L___@ 4004e0a8     ui_main.obj
 0002:000070b8       ??_C@_0O@PBGNHDON@BOTH_B5_BL___@ 4004e0b8     ui_main.obj
 0002:000070c8       ??_C@_0O@FNKHCDIE@BOTH_D5_BR___@ 4004e0c8     ui_main.obj
 0002:000070d8       ??_C@_0O@OCOPDCMB@BOTH_D5__R___@ 4004e0d8     ui_main.obj
 0002:000070e8       ??_C@_0O@IICIMCAC@BOTH_D5_TR___@ 4004e0e8     ui_main.obj
 0002:000070f8       ??_C@_0O@FHPIOLOB@BOTH_D5_TL___@ 4004e0f8     ui_main.obj
 0002:00007108       ??_C@_0O@DNDPBLCC@BOTH_D5__L___@ 4004e108     ui_main.obj
 0002:00007118       ??_C@_0O@ICHHAKGH@BOTH_D5_BL___@ 4004e118     ui_main.obj
 0002:00007128       ??_C@_0O@KFDHOHDF@BOTH_D5_B____@ 4004e128     ui_main.obj
 0002:00007138       ??_C@_0O@KAFOHEDM@BOTH_A6_T__B_@ 4004e138     ui_main.obj
 0002:00007148       ??_C@_0O@EMIJCHMD@BOTH_A6__L__R@ 4004e148     ui_main.obj
 0002:00007158       ??_C@_0O@EHBIDBPP@BOTH_A6__R__L@ 4004e158     ui_main.obj
 0002:00007168       ??_C@_0O@DCLAOHCD@BOTH_A6_TL_BR@ 4004e168     ui_main.obj
 0002:00007178       ??_C@_0O@PEAFMPFL@BOTH_A6_BR_TL@ 4004e178     ui_main.obj
 0002:00007188       ??_C@_0O@PPJENJGH@BOTH_A6_BL_TR@ 4004e188     ui_main.obj
 0002:00007198       ??_C@_0O@DJCBPBBP@BOTH_A6_TR_BL@ 4004e198     ui_main.obj
 0002:000071a8       ??_C@_0O@MKEGBIFL@BOTH_T6_BR__R@ 4004e1a8     ui_main.obj
 0002:000071b8       ??_C@_0O@BCFCMIGF@BOTH_T6_BR_TL@ 4004e1b8     ui_main.obj
 0002:000071c8       ??_C@_0O@BOAHCHIE@BOTH_T6_BR__L@ 4004e1c8     ui_main.obj
 0002:000071d8       ??_C@_0O@KPJBHKH@BOTH_T6_BR_BL@ 4004e1d8     ui_main.obj
 0002:000071e8       ??_C@_0O@HJFLOGPP@BOTH_T6__R_TR@ 4004e1e8     ui_main.obj
 0002:000071f8       ??_C@_0O@KNBKNJCA@BOTH_T6__R_TL@ 4004e1f8     ui_main.obj
 0002:00007208       ??_C@_0O@KBEPDGMB@BOTH_T6__R__L@ 4004e208     ui_main.obj
 0002:00007218       ??_C@_0O@LFLBAGOC@BOTH_T6__R_BL@ 4004e218     ui_main.obj
 0002:00007228       ??_C@_0O@LDHMJPO@BOTH_T6_TR_BR@ 4004e228     ui_main.obj
 0002:00007238       ??_C@_0O@MHNNCJOD@BOTH_T6_TR_TL@ 4004e238     ui_main.obj
 0002:00007248       ??_C@_0O@MLIIMGAC@BOTH_T6_TR__L@ 4004e248     ui_main.obj
 0002:00007258       ??_C@_0O@NPHGPGCB@BOTH_T6_TR_BL@ 4004e258     ui_main.obj
 0002:00007268       ??_C@_0O@PDKHANEP@BOTH_T6_T__BR@ 4004e268     ui_main.obj
 0002:00007278       ??_C@_0O@OHFJDNGM@BOTH_T6_T___R@ 4004e278     ui_main.obj
 0002:00007288       ??_C@_0O@OLAMNCIN@BOTH_T6_T__TR@ 4004e288     ui_main.obj
 0002:00007298       ??_C@_0O@DPENONFC@BOTH_T6_T__TL@ 4004e298     ui_main.obj
 0002:000072a8       ??_C@_0O@DDBIACLD@BOTH_T6_T___L@ 4004e2a8     ui_main.obj
 0002:000072b8       ??_C@_0O@CHOGDCJA@BOTH_T6_T__BL@ 4004e2b8     ui_main.obj
 0002:000072c8       ??_C@_0O@NEOHOABN@BOTH_T6_TL_BR@ 4004e2c8     ui_main.obj
 0002:000072d8       ??_C@_0O@KGNPMC@BOTH_T6_TL_BL@ 4004e2d8     ui_main.obj
 0002:000072e8       ??_C@_0O@LOCABANO@BOTH_T6__L_BR@ 4004e2e8     ui_main.obj
 0002:000072f8       ??_C@_0O@KKNOCAPN@BOTH_T6__L__R@ 4004e2f8     ui_main.obj
 0002:00007308       ??_C@_0O@HCMKPAMD@BOTH_T6__L_TL@ 4004e308     ui_main.obj
 0002:00007318       ??_C@_0O@BGIABJL@BOTH_T6_BL_BR@ 4004e318     ui_main.obj
 0002:00007328       ??_C@_0O@BFJGDBLI@BOTH_T6_BL__R@ 4004e328     ui_main.obj
 0002:00007338       ??_C@_0O@BJMDNOFJ@BOTH_T6_BL_TR@ 4004e338     ui_main.obj
 0002:00007348       ??_C@_0O@MBNHAOGH@BOTH_T6_BL__L@ 4004e348     ui_main.obj
 0002:00007358       ??_C@_0O@MGBDPHLK@BOTH_T6_BR_TR@ 4004e358     ui_main.obj
 0002:00007368       ??_C@_0O@HDLNIJPH@BOTH_T6_BR_T_@ 4004e368     ui_main.obj
 0002:00007378       ??_C@_0O@GBPADJDN@BOTH_T6__R_BR@ 4004e378     ui_main.obj
 0002:00007388       ??_C@_0O@MMPFJILC@BOTH_T6__R_T_@ 4004e388     ui_main.obj
 0002:00007398       ??_C@_0O@BPMJPJNN@BOTH_T6_TR__R@ 4004e398     ui_main.obj
 0002:000073a8       ??_C@_0O@KGDCGIHB@BOTH_T6_TR_T_@ 4004e3a8     ui_main.obj
 0002:000073b8       ??_C@_0O@MABJNADO@BOTH_T6_TL__R@ 4004e3b8     ui_main.obj
 0002:000073c8       ??_C@_0O@MMEMDPNP@BOTH_T6_TL_TR@ 4004e3c8     ui_main.obj
 0002:000073d8       ??_C@_0O@HJOCEBJC@BOTH_T6_TL_T_@ 4004e3d8     ui_main.obj
 0002:000073e8       ??_C@_0O@BEFIOPOB@BOTH_T6_TL__L@ 4004e3e8     ui_main.obj
 0002:000073f8       ??_C@_0O@KGILMPBM@BOTH_T6__L_TR@ 4004e3f8     ui_main.obj
 0002:00007408       ??_C@_0O@BDCFLBFB@BOTH_T6__L_T_@ 4004e408     ui_main.obj
 0002:00007418       ??_C@_0O@GKGBCPAB@BOTH_T6__L_BL@ 4004e418     ui_main.obj
 0002:00007428       ??_C@_0O@KMGNKABE@BOTH_T6_BL_T_@ 4004e428     ui_main.obj
 0002:00007438       ??_C@_0O@MNICOBIG@BOTH_T6_BL_TL@ 4004e438     ui_main.obj
 0002:00007448       ??_C@_0O@LDOEOEIN@BOTH_S6_S6_T_@ 4004e448     ui_main.obj
 0002:00007458       ??_C@_0O@NOFOEKPO@BOTH_S6_S6__L@ 4004e458     ui_main.obj
 0002:00007468       ??_C@_0O@KBPHFCB@BOTH_S6_S6__R@ 4004e468     ui_main.obj
 0002:00007478       ??_C@_0O@NCALKFBP@BOTH_S6_S6_TL@ 4004e478     ui_main.obj
 0002:00007488       ??_C@_0O@BOOBEFAC@BOTH_S6_S6_BR@ 4004e488     ui_main.obj
 0002:00007498       ??_C@_0O@MKKAHKNN@BOTH_S6_S6_BL@ 4004e498     ui_main.obj
 0002:000074a8       ??_C@_0O@GEKJKMA@BOTH_S6_S6_TR@ 4004e4a8     ui_main.obj
 0002:000074b8       ??_C@_0O@EJEHPCKH@BOTH_R6_B__S6@ 4004e4b8     ui_main.obj
 0002:000074c8       ??_C@_0O@NBEPAOLA@BOTH_R6__L_S6@ 4004e4c8     ui_main.obj
 0002:000074d8       ??_C@_0O@OJPCHFD@BOTH_R6__R_S6@ 4004e4d8     ui_main.obj
 0002:000074e8       ??_C@_0O@LLIIPOHD@BOTH_R6_TL_S6@ 4004e4e8     ui_main.obj
 0002:000074f8       ??_C@_0O@LBNHDGBG@BOTH_R6_BR_S6@ 4004e4f8     ui_main.obj
 0002:00007508       ??_C@_0O@GOAHBPPF@BOTH_R6_BL_S6@ 4004e508     ui_main.obj
 0002:00007518       ??_C@_0O@GEFINHJA@BOTH_R6_TR_S6@ 4004e518     ui_main.obj
 0002:00007528       ??_C@_0O@KADCFNON@BOTH_B6_BR___@ 4004e528     ui_main.obj
 0002:00007538       ??_C@_0O@BPHKEMKI@BOTH_B6__R___@ 4004e538     ui_main.obj
 0002:00007548       ??_C@_0O@HFLNLMGL@BOTH_B6_TR___@ 4004e548     ui_main.obj
 0002:00007558       ??_C@_0O@INCNHINK@BOTH_B6_T____@ 4004e558     ui_main.obj
 0002:00007568       ??_C@_0O@KKGNJFII@BOTH_B6_TL___@ 4004e568     ui_main.obj
 0002:00007578       ??_C@_0O@MAKKGFEL@BOTH_B6__L___@ 4004e578     ui_main.obj
 0002:00007588       ??_C@_0O@HPOCHEAO@BOTH_B6_BL___@ 4004e588     ui_main.obj
 0002:00007598       ??_C@_0O@NDCICEGH@BOTH_D6_BR___@ 4004e598     ui_main.obj
 0002:000075a8       ??_C@_0O@GMGADFCC@BOTH_D6__R___@ 4004e5a8     ui_main.obj
 0002:000075b8       ??_C@_0O@GKHMFOB@BOTH_D6_TR___@ 4004e5b8     ui_main.obj
 0002:000075c8       ??_C@_0O@NJHHOMAC@BOTH_D6_TL___@ 4004e5c8     ui_main.obj
 0002:000075d8       ??_C@_0O@LDLABMMB@BOTH_D6__L___@ 4004e5d8     ui_main.obj
 0002:000075e8       ??_C@_0O@MPIANIE@BOTH_D6_BL___@ 4004e5e8     ui_main.obj
 0002:000075f8       ??_C@_0O@CLLIOANG@BOTH_D6_B____@ 4004e5f8     ui_main.obj
 0002:00007608       ??_C@_0O@GMPEHEKC@BOTH_A7_T__B_@ 4004e608     ui_main.obj
 0002:00007618       ??_C@_0O@IACDCHFN@BOTH_A7__L__R@ 4004e618     ui_main.obj
 0002:00007628       ??_C@_0O@ILLCDBGB@BOTH_A7__R__L@ 4004e628     ui_main.obj
 0002:00007638       ??_C@_0O@POBKOHLN@BOTH_A7_TL_BR@ 4004e638     ui_main.obj
 0002:00007648       ??_C@_0O@DIKPMPMF@BOTH_A7_BR_TL@ 4004e648     ui_main.obj
 0002:00007658       ??_C@_0O@DDDONJPJ@BOTH_A7_BL_TR@ 4004e658     ui_main.obj
 0002:00007668       ??_C@_0O@PFILPBIB@BOTH_A7_TR_BL@ 4004e668     ui_main.obj
 0002:00007678       ??_C@_0O@GOMBIMF@BOTH_T7_BR__R@ 4004e678     ui_main.obj
 0002:00007688       ??_C@_0O@NOPIMIPL@BOTH_T7_BR_TL@ 4004e688     ui_main.obj
 0002:00007698       ??_C@_0O@NCKNCHBK@BOTH_T7_BR__L@ 4004e698     ui_main.obj
 0002:000076a8       ??_C@_0O@MGFDBHDJ@BOTH_T7_BR_BL@ 4004e6a8     ui_main.obj
 0002:000076b8       ??_C@_0O@LFPBOGGB@BOTH_T7__R_TR@ 4004e6b8     ui_main.obj
 0002:000076c8       ??_C@_0O@GBLANJLO@BOTH_T7__R_TL@ 4004e6c8     ui_main.obj
 0002:000076d8       ??_C@_0O@GNOFDGFP@BOTH_T7__R__L@ 4004e6d8     ui_main.obj
 0002:000076e8       ??_C@_0O@HJBLAGHM@BOTH_T7__R_BL@ 4004e6e8     ui_main.obj
 0002:000076f8       ??_C@_0O@MHJNMJGA@BOTH_T7_TR_BR@ 4004e6f8     ui_main.obj
 0002:00007708       ??_C@_0O@LHHCJHN@BOTH_T7_TR_TL@ 4004e708     ui_main.obj
 0002:00007718       ??_C@_0O@HCCMGJM@BOTH_T7_TR__L@ 4004e718     ui_main.obj
 0002:00007728       ??_C@_0O@BDNMPGLP@BOTH_T7_TR_BL@ 4004e728     ui_main.obj
 0002:00007738       ??_C@_0O@DPANANNB@BOTH_T7_T__BR@ 4004e738     ui_main.obj
 0002:00007748       ??_C@_0O@CLPDDNPC@BOTH_T7_T___R@ 4004e748     ui_main.obj
 0002:00007758       ??_C@_0O@CHKGNCBD@BOTH_T7_T__TR@ 4004e758     ui_main.obj
 0002:00007768       ??_C@_0O@PDOHONMM@BOTH_T7_T__TL@ 4004e768     ui_main.obj
 0002:00007778       ??_C@_0O@PPLCACCN@BOTH_T7_T___L@ 4004e778     ui_main.obj
 0002:00007788       ??_C@_0O@OLEMDCAO@BOTH_T7_T__BL@ 4004e788     ui_main.obj
 0002:00007798       ??_C@_0O@BIENOAID@BOTH_T7_TL_BR@ 4004e798     ui_main.obj
 0002:000077a8       ??_C@_0O@MMAMNPFM@BOTH_T7_TL_BL@ 4004e7a8     ui_main.obj
 0002:000077b8       ??_C@_0O@HCIKBAEA@BOTH_T7__L_BR@ 4004e7b8     ui_main.obj
 0002:000077c8       ??_C@_0O@GGHECAGD@BOTH_T7__L__R@ 4004e7c8     ui_main.obj
 0002:000077d8       ??_C@_0O@LOGAPAFN@BOTH_T7__L_TL@ 4004e7d8     ui_main.obj
 0002:000077e8       ??_C@_0O@MNMCABAF@BOTH_T7_BL_BR@ 4004e7e8     ui_main.obj
 0002:000077f8       ??_C@_0O@NJDMDBCG@BOTH_T7_BL__R@ 4004e7f8     ui_main.obj
 0002:00007808       ??_C@_0O@NFGJNOMH@BOTH_T7_BL_TR@ 4004e808     ui_main.obj
 0002:00007818       ??_C@_0O@NHNAOPJ@BOTH_T7_BL__L@ 4004e818     ui_main.obj
 0002:00007828       ??_C@_0O@KLJPHCE@BOTH_T7_BR_TR@ 4004e828     ui_main.obj
 0002:00007838       ??_C@_0O@LPBHIJGJ@BOTH_T7_BR_T_@ 4004e838     ui_main.obj
 0002:00007848       ??_C@_0O@KNFKDJKD@BOTH_T7__R_BR@ 4004e848     ui_main.obj
 0002:00007858       ??_C@_0O@FPJICM@BOTH_T7__R_T_@ 4004e858     ui_main.obj
 0002:00007868       ??_C@_0O@NDGDPJED@BOTH_T7_TR__R@ 4004e868     ui_main.obj
 0002:00007878       ??_C@_0O@GKJIGIOP@BOTH_T7_TR_T_@ 4004e878     ui_main.obj
 0002:00007888       ??_C@_0O@MLDNAKA@BOTH_T7_TL__R@ 4004e888     ui_main.obj
 0002:00007898       ??_C@_0O@OGDPEB@BOTH_T7_TL_TR@ 4004e898     ui_main.obj
 0002:000078a8       ??_C@_0O@LFEIEBAM@BOTH_T7_TL_T_@ 4004e8a8     ui_main.obj
 0002:000078b8       ??_C@_0O@NIPCOPHP@BOTH_T7_TL__L@ 4004e8b8     ui_main.obj
 0002:000078c8       ??_C@_0O@GKCBMPIC@BOTH_T7__L_TR@ 4004e8c8     ui_main.obj
 0002:000078d8       ??_C@_0O@NPIPLBMP@BOTH_T7__L_T_@ 4004e8d8     ui_main.obj
 0002:000078e8       ??_C@_0O@KGMLCPJP@BOTH_T7__L_BL@ 4004e8e8     ui_main.obj
 0002:000078f8       ??_C@_0O@GAMHKAIK@BOTH_T7_BL_T_@ 4004e8f8     ui_main.obj
 0002:00007908       ??_C@_0O@BCIOBBI@BOTH_T7_BL_TL@ 4004e908     ui_main.obj
 0002:00007918       ??_C@_0O@ECCOMNKD@BOTH_S7_S7_T_@ 4004e918     ui_main.obj
 0002:00007928       ??_C@_0O@CPJEGDNA@BOTH_S7_S7__L@ 4004e928     ui_main.obj
 0002:00007938       ??_C@_0O@PLNFFMAP@BOTH_S7_S7__R@ 4004e938     ui_main.obj
 0002:00007948       ??_C@_0O@CDMBIMDB@BOTH_S7_S7_TL@ 4004e948     ui_main.obj
 0002:00007958       ??_C@_0O@OPCLGMCM@BOTH_S7_S7_BR@ 4004e958     ui_main.obj
 0002:00007968       ??_C@_0O@DLGKFDPD@BOTH_S7_S7_BL@ 4004e968     ui_main.obj
 0002:00007978       ??_C@_0O@PHIALDOO@BOTH_S7_S7_TR@ 4004e978     ui_main.obj
 0002:00007988       ??_C@_0O@JMPGMDHI@BOTH_R7_B__S7@ 4004e988     ui_main.obj
 0002:00007998       ??_C@_0O@EPODPGP@BOTH_R7__L_S7@ 4004e998     ui_main.obj
 0002:000079a8       ??_C@_0O@NLCOBGIM@BOTH_R7__R_S7@ 4004e9a8     ui_main.obj
 0002:000079b8       ??_C@_0O@GODJMPKM@BOTH_R7_TL_S7@ 4004e9b8     ui_main.obj
 0002:000079c8       ??_C@_0O@GEGGAHMJ@BOTH_R7_BR_S7@ 4004e9c8     ui_main.obj
 0002:000079d8       ??_C@_0O@LLLGCOCK@BOTH_R7_BL_S7@ 4004e9d8     ui_main.obj
 0002:000079e8       ??_C@_0O@LBOJOGEP@BOTH_R7_TR_S7@ 4004e9e8     ui_main.obj
 0002:000079f8       ??_C@_0O@GMJIFNHD@BOTH_B7_BR___@ 4004e9f8     ui_main.obj
 0002:00007a08       ??_C@_0O@NDNAEMDG@BOTH_B7__R___@ 4004ea08     ui_main.obj
 0002:00007a18       ??_C@_0O@LJBHLMPF@BOTH_B7_TR___@ 4004ea18     ui_main.obj
 0002:00007a28       ??_C@_0O@EBIHHIEE@BOTH_B7_T____@ 4004ea28     ui_main.obj
 0002:00007a38       ??_C@_0O@GGMHJFBG@BOTH_B7_TL___@ 4004ea38     ui_main.obj
 0002:00007a48       ??_C@_0O@MAAGFNF@BOTH_B7__L___@ 4004ea48     ui_main.obj
 0002:00007a58       ??_C@_0O@LDEIHEJA@BOTH_B7_BL___@ 4004ea58     ui_main.obj
 0002:00007a68       ??_C@_0O@BPICCEPJ@BOTH_D7_BR___@ 4004ea68     ui_main.obj
 0002:00007a78       ??_C@_0O@KAMKDFLM@BOTH_D7__R___@ 4004ea78     ui_main.obj
 0002:00007a88       ??_C@_0O@MKANMFHP@BOTH_D7_TR___@ 4004ea88     ui_main.obj
 0002:00007a98       ??_C@_0O@BFNNOMJM@BOTH_D7_TL___@ 4004ea98     ui_main.obj
 0002:00007aa8       ??_C@_0O@HPBKBMFP@BOTH_D7__L___@ 4004eaa8     ui_main.obj
 0002:00007ab8       ??_C@_0O@MAFCANBK@BOTH_D7_BL___@ 4004eab8     ui_main.obj
 0002:00007ac8       ??_C@_0O@OHBCOAEI@BOTH_D7_B____@ 4004eac8     ui_main.obj
 0002:00007ad8       ??_C@_0O@DCIMANEB@BOTH_P1_S1_T_@ 4004ead8     ui_main.obj
 0002:00007ae8       ??_C@_0O@IHCCHDAM@BOTH_P1_S1_TR@ 4004eae8     ui_main.obj
 0002:00007af8       ??_C@_0O@FDGDEMND@BOTH_P1_S1_TL@ 4004eaf8     ui_main.obj
 0002:00007b08       ??_C@_0O@ELMIJDBB@BOTH_P1_S1_BL@ 4004eb08     ui_main.obj
 0002:00007b18       ??_C@_0O@JPIJKMMO@BOTH_P1_S1_BR@ 4004eb18     ui_main.obj
 0002:00007b28       ??_C@_0O@BMBJNBON@BOTH_K1_S1_T_@ 4004eb28     ui_main.obj
 0002:00007b38       ??_C@_0O@KJLHKPKA@BOTH_K1_S1_TR@ 4004eb38     ui_main.obj
 0002:00007b48       ??_C@_0O@HNPGJAHP@BOTH_K1_S1_TL@ 4004eb48     ui_main.obj
 0002:00007b58       ??_C@_0O@GFFNEPLN@BOTH_K1_S1_BL@ 4004eb58     ui_main.obj
 0002:00007b68       ??_C@_0O@ELCAOCP@BOTH_K1_S1_B_@ 4004eb68     ui_main.obj
 0002:00007b78       ??_C@_0O@LBBMHAGC@BOTH_K1_S1_BR@ 4004eb78     ui_main.obj
 0002:00007b88       ??_C@_0O@KJLPPIME@BOTH_V1_BR_S1@ 4004eb88     ui_main.obj
 0002:00007b98       ??_C@_0O@BGPHOJIB@BOTH_V1__R_S1@ 4004eb98     ui_main.obj
 0002:00007ba8       ??_C@_0O@HMDABJEC@BOTH_V1_TR_S1@ 4004eba8     ui_main.obj
 0002:00007bb8       ??_C@_0O@IEKANNPD@BOTH_V1_T__S1@ 4004ebb8     ui_main.obj
 0002:00007bc8       ??_C@_0O@KDOADAKB@BOTH_V1_TL_S1@ 4004ebc8     ui_main.obj
 0002:00007bd8       ??_C@_0O@MJCHMAGC@BOTH_V1__L_S1@ 4004ebd8     ui_main.obj
 0002:00007be8       ??_C@_0O@HGGPNBCH@BOTH_V1_BL_S1@ 4004ebe8     ui_main.obj
 0002:00007bf8       ??_C@_0O@FBCPDMHF@BOTH_V1_B__S1@ 4004ebf8     ui_main.obj
 0002:00007c08       ??_C@_0O@CFJEONCI@BOTH_H1_S1_T_@ 4004ec08     ui_main.obj
 0002:00007c18       ??_C@_0O@JADKJDGF@BOTH_H1_S1_TR@ 4004ec18     ui_main.obj
 0002:00007c28       ??_C@_0O@EEHLKMLK@BOTH_H1_S1_TL@ 4004ec28     ui_main.obj
 0002:00007c38       ??_C@_0O@FMNAHDHI@BOTH_H1_S1_BL@ 4004ec38     ui_main.obj
 0002:00007c48       ??_C@_0O@DNDPDCOK@BOTH_H1_S1_B_@ 4004ec48     ui_main.obj
 0002:00007c58       ??_C@_0O@IIJBEMKH@BOTH_H1_S1_BR@ 4004ec58     ui_main.obj
 0002:00007c68       ??_C@_0O@IKGJNIEI@BOTH_P6_S6_T_@ 4004ec68     ui_main.obj
 0002:00007c78       ??_C@_0O@DPMHKGAF@BOTH_P6_S6_TR@ 4004ec78     ui_main.obj
 0002:00007c88       ??_C@_0O@OLIGJJNK@BOTH_P6_S6_TL@ 4004ec88     ui_main.obj
 0002:00007c98       ??_C@_0O@PDCNEGBI@BOTH_P6_S6_BL@ 4004ec98     ui_main.obj
 0002:00007ca8       ??_C@_0O@CHGMHJMH@BOTH_P6_S6_BR@ 4004eca8     ui_main.obj
 0002:00007cb8       ??_C@_0O@KEPMAEOE@BOTH_K6_S6_T_@ 4004ecb8     ui_main.obj
 0002:00007cc8       ??_C@_0O@BBFCHKKJ@BOTH_K6_S6_TR@ 4004ecc8     ui_main.obj
 0002:00007cd8       ??_C@_0O@MFBDEFHG@BOTH_K6_S6_TL@ 4004ecd8     ui_main.obj
 0002:00007ce8       ??_C@_0O@NNLIJKLE@BOTH_K6_S6_BL@ 4004ece8     ui_main.obj
 0002:00007cf8       ??_C@_0O@LMFHNLCG@BOTH_K6_S6_B_@ 4004ecf8     ui_main.obj
 0002:00007d08       ??_C@_0O@JPJKFGL@BOTH_K6_S6_BR@ 4004ed08     ui_main.obj
 0002:00007d18       ??_C@_0O@OMDLGHBK@BOTH_V6_BR_S6@ 4004ed18     ui_main.obj
 0002:00007d28       ??_C@_0O@FDHDHGFP@BOTH_V6__R_S6@ 4004ed28     ui_main.obj
 0002:00007d38       ??_C@_0O@DJLEIGJM@BOTH_V6_TR_S6@ 4004ed38     ui_main.obj
 0002:00007d48       ??_C@_0O@MBCEECCN@BOTH_V6_T__S6@ 4004ed48     ui_main.obj
 0002:00007d58       ??_C@_0O@OGGEKPHP@BOTH_V6_TL_S6@ 4004ed58     ui_main.obj
 0002:00007d68       ??_C@_0O@IMKDFPLM@BOTH_V6__L_S6@ 4004ed68     ui_main.obj
 0002:00007d78       ??_C@_0O@DDOLEOPJ@BOTH_V6_BL_S6@ 4004ed78     ui_main.obj
 0002:00007d88       ??_C@_0O@BEKLKDKL@BOTH_V6_B__S6@ 4004ed88     ui_main.obj
 0002:00007d98       ??_C@_0O@JNHBDICB@BOTH_H6_S6_T_@ 4004ed98     ui_main.obj
 0002:00007da8       ??_C@_0O@CINPEGGM@BOTH_H6_S6_TR@ 4004eda8     ui_main.obj
 0002:00007db8       ??_C@_0O@PMJOHJLD@BOTH_H6_S6_TL@ 4004edb8     ui_main.obj
 0002:00007dc8       ??_C@_0O@OEDFKGHB@BOTH_H6_S6_BL@ 4004edc8     ui_main.obj
 0002:00007dd8       ??_C@_0O@IFNKOHOD@BOTH_H6_S6_B_@ 4004edd8     ui_main.obj
 0002:00007de8       ??_C@_0O@DAHEJJKO@BOTH_H6_S6_BR@ 4004ede8     ui_main.obj
 0002:00007df8       ??_C@_0O@HLKDPBGG@BOTH_P7_S7_T_@ 4004edf8     ui_main.obj
 0002:00007e08       ??_C@_0O@MOANIPCL@BOTH_P7_S7_TR@ 4004ee08     ui_main.obj
 0002:00007e18       ??_C@_0O@BKEMLAPE@BOTH_P7_S7_TL@ 4004ee18     ui_main.obj
 0002:00007e28       ??_C@_0O@COHGPDG@BOTH_P7_S7_BL@ 4004ee28     ui_main.obj
 0002:00007e38       ??_C@_0O@NGKGFAOJ@BOTH_P7_S7_BR@ 4004ee38     ui_main.obj
 0002:00007e48       ??_C@_0O@FFDGCNMK@BOTH_K7_S7_T_@ 4004ee48     ui_main.obj
 0002:00007e58       ??_C@_0O@OAJIFDIH@BOTH_K7_S7_TR@ 4004ee58     ui_main.obj
 0002:00007e68       ??_C@_0O@DENJGMFI@BOTH_K7_S7_TL@ 4004ee68     ui_main.obj
 0002:00007e78       ??_C@_0O@CMHCLDJK@BOTH_K7_S7_BL@ 4004ee78     ui_main.obj
 0002:00007e88       ??_C@_0O@ENJNPCAI@BOTH_K7_S7_B_@ 4004ee88     ui_main.obj
 0002:00007e98       ??_C@_0O@PIDDIMEF@BOTH_K7_S7_BR@ 4004ee98     ui_main.obj
 0002:00007ea8       ??_C@_0O@DJIKFGMF@BOTH_V7_BR_S7@ 4004eea8     ui_main.obj
 0002:00007eb8       ??_C@_0O@IGMCEHIA@BOTH_V7__R_S7@ 4004eeb8     ui_main.obj
 0002:00007ec8       ??_C@_0O@OMAFLHED@BOTH_V7_TR_S7@ 4004eec8     ui_main.obj
 0002:00007ed8       ??_C@_0O@BEJFHDPC@BOTH_V7_T__S7@ 4004eed8     ui_main.obj
 0002:00007ee8       ??_C@_0O@DDNFJOKA@BOTH_V7_TL_S7@ 4004eee8     ui_main.obj
 0002:00007ef8       ??_C@_0O@FJBCGOGD@BOTH_V7__L_S7@ 4004eef8     ui_main.obj
 0002:00007f08       ??_C@_0O@OGFKHPCG@BOTH_V7_BL_S7@ 4004ef08     ui_main.obj
 0002:00007f18       ??_C@_0O@MBBKJCHE@BOTH_V7_B__S7@ 4004ef18     ui_main.obj
 0002:00007f28       ??_C@_0O@GMLLBBAP@BOTH_H7_S7_T_@ 4004ef28     ui_main.obj
 0002:00007f38       ??_C@_0O@NJBFGPEC@BOTH_H7_S7_TR@ 4004ef38     ui_main.obj
 0002:00007f48       ??_C@_0O@NFEFAJN@BOTH_H7_S7_TL@ 4004ef48     ui_main.obj
 0002:00007f58       ??_C@_0O@BFPPIPFP@BOTH_H7_S7_BL@ 4004ef58     ui_main.obj
 0002:00007f68       ??_C@_0O@HEBAMOMN@BOTH_H7_S7_B_@ 4004ef68     ui_main.obj
 0002:00007f78       ??_C@_0O@MBLOLAIA@BOTH_H7_S7_BR@ 4004ef78     ui_main.obj
 0002:00007f88       ??_C@_0BF@KNBBBPIF@BOTH_LK_S_DL_S_B_1_L@ 4004ef88     ui_main.obj
 0002:00007fa0       ??_C@_0BF@ECHNEBP@BOTH_LK_S_DL_S_B_1_W@ 4004efa0     ui_main.obj
 0002:00007fb8       ??_C@_0BD@FAIJMBFK@BOTH_LK_S_DL_S_L_1@ 4004efb8     ui_main.obj
 0002:00007fcc       ??_C@_0BG@FMMJLELD@BOTH_LK_S_DL_S_SB_1_L@ 4004efcc     ui_main.obj
 0002:00007fe4       ??_C@_0BG@PFPPHPCJ@BOTH_LK_S_DL_S_SB_1_W@ 4004efe4     ui_main.obj
 0002:00007ffc       ??_C@_0BF@KHNEBGJM@BOTH_LK_S_DL_T_B_1_L@ 4004effc     ui_main.obj
 0002:00008014       ??_C@_0BF@OOCNNAG@BOTH_LK_S_DL_T_B_1_W@ 4004f014     ui_main.obj
 0002:0000802c       ??_C@_0BD@ENIMPBOC@BOTH_LK_S_DL_T_L_1@ 4004f02c     ui_main.obj
 0002:00008040       ??_C@_0BG@DIKINJHK@BOTH_LK_S_DL_T_SB_1_L@ 4004f040     ui_main.obj
 0002:00008058       ??_C@_0BG@JBJOBCOA@BOTH_LK_S_DL_T_SB_1_W@ 4004f058     ui_main.obj
 0002:00008070       ??_C@_0BF@BOKFAPNB@BOTH_LK_S_ST_S_B_1_L@ 4004f070     ui_main.obj
 0002:00008088       ??_C@_0BF@LHJDMEEL@BOTH_LK_S_ST_S_B_1_W@ 4004f088     ui_main.obj
 0002:000080a0       ??_C@_0BD@DHHGMEHM@BOTH_LK_S_ST_S_L_1@ 4004f0a0     ui_main.obj
 0002:000080b4       ??_C@_0BG@DAHMJFEO@BOTH_LK_S_ST_S_SB_1_L@ 4004f0b4     ui_main.obj
 0002:000080cc       ??_C@_0BG@JJEKFONE@BOTH_LK_S_ST_S_SB_1_W@ 4004f0cc     ui_main.obj
 0002:000080e4       ??_C@_0BF@BEGAAGMI@BOTH_LK_S_ST_T_B_1_L@ 4004f0e4     ui_main.obj
 0002:000080fc       ??_C@_0BF@LNFGMNFC@BOTH_LK_S_ST_T_B_1_W@ 4004f0fc     ui_main.obj
 0002:00008114       ??_C@_0BD@CKHDPEME@BOTH_LK_S_ST_T_L_1@ 4004f114     ui_main.obj
 0002:00008128       ??_C@_0BG@FEBNPIIH@BOTH_LK_S_ST_T_SB_1_L@ 4004f128     ui_main.obj
 0002:00008140       ??_C@_0BG@PNCLDDBN@BOTH_LK_S_ST_T_SB_1_W@ 4004f140     ui_main.obj
 0002:00008158       ??_C@_0BE@BGKKDADB@BOTH_LK_S_S_S_B_1_L@ 4004f158     ui_main.obj
 0002:0000816c       ??_C@_0BE@LPJMPLKL@BOTH_LK_S_S_S_B_1_W@ 4004f16c     ui_main.obj
 0002:00008180       ??_C@_0BC@OIKGFGCA@BOTH_LK_S_S_S_L_1@ 4004f180     ui_main.obj
 0002:00008194       ??_C@_0BF@JAHOHIAJ@BOTH_LK_S_S_S_SB_1_L@ 4004f194     ui_main.obj
 0002:000081ac       ??_C@_0BF@DJEILDJD@BOTH_LK_S_S_S_SB_1_W@ 4004f1ac     ui_main.obj
 0002:000081c4       ??_C@_0BE@BMGPDJCI@BOTH_LK_S_S_T_B_1_L@ 4004f1c4     ui_main.obj
 0002:000081d8       ??_C@_0BE@LFFJPCLC@BOTH_LK_S_S_T_B_1_W@ 4004f1d8     ui_main.obj
 0002:000081ec       ??_C@_0BC@PFKDGGJI@BOTH_LK_S_S_T_L_1@ 4004f1ec     ui_main.obj
 0002:00008200       ??_C@_0BF@PEBPBFMA@BOTH_LK_S_S_T_SB_1_L@ 4004f200     ui_main.obj
 0002:00008218       ??_C@_0BF@FNCJNOFK@BOTH_LK_S_S_T_SB_1_W@ 4004f218     ui_main.obj
 0002:00008230       ??_C@_0BG@CLJAPGHI@BOTH_LK_DL_DL_S_B_1_L@ 4004f230     ui_main.obj
 0002:00008248       ??_C@_0BG@ICKGDNOC@BOTH_LK_DL_DL_S_B_1_W@ 4004f248     ui_main.obj
 0002:00008260       ??_C@_0BE@DECCHOJ@BOTH_LK_DL_DL_S_L_1@ 4004f260     ui_main.obj
 0002:00008274       ??_C@_0BH@JPEDLLPL@BOTH_LK_DL_DL_S_SB_1_L@ 4004f274     ui_main.obj
 0002:0000828c       ??_C@_0BH@DGHFHAGB@BOTH_LK_DL_DL_S_SB_1_W@ 4004f28c     ui_main.obj
 0002:000082a4       ??_C@_0BG@CBFFPPGB@BOTH_LK_DL_DL_T_B_1_L@ 4004f2a4     ui_main.obj
 0002:000082bc       ??_C@_0BG@IIGDDEPL@BOTH_LK_DL_DL_T_B_1_W@ 4004f2bc     ui_main.obj
 0002:000082d4       ??_C@_0BE@BOEHBHFB@BOTH_LK_DL_DL_T_L_1@ 4004f2d4     ui_main.obj
 0002:000082e8       ??_C@_0BH@PLCCNGDC@BOTH_LK_DL_DL_T_SB_1_L@ 4004f2e8     ui_main.obj
 0002:00008300       ??_C@_0BH@FCBEBNKI@BOTH_LK_DL_DL_T_SB_1_W@ 4004f300     ui_main.obj
 0002:00008318       ??_C@_0BG@JICEOGCM@BOTH_LK_DL_ST_S_B_1_L@ 4004f318     ui_main.obj
 0002:00008330       ??_C@_0BG@DBBCCNLG@BOTH_LK_DL_ST_S_B_1_W@ 4004f330     ui_main.obj
 0002:00008348       ??_C@_0BE@GELNCCMP@BOTH_LK_DL_ST_S_L_1@ 4004f348     ui_main.obj
 0002:0000835c       ??_C@_0BH@PDPGJKAG@BOTH_LK_DL_ST_S_SB_1_L@ 4004f35c     ui_main.obj
 0002:00008374       ??_C@_0BH@FKMAFBJM@BOTH_LK_DL_ST_S_SB_1_W@ 4004f374     ui_main.obj
 0002:0000838c       ??_C@_0BG@JCOBOPDF@BOTH_LK_DL_ST_T_B_1_L@ 4004f38c     ui_main.obj
 0002:000083a4       ??_C@_0BG@DLNHCEKP@BOTH_LK_DL_ST_T_B_1_W@ 4004f3a4     ui_main.obj
 0002:000083bc       ??_C@_0BE@HJLIBCHH@BOTH_LK_DL_ST_T_L_1@ 4004f3bc     ui_main.obj
 0002:000083d0       ??_C@_0BH@JHJHPHMP@BOTH_LK_DL_ST_T_SB_1_L@ 4004f3d0     ui_main.obj
 0002:000083e8       ??_C@_0BH@DOKBDMFF@BOTH_LK_DL_ST_T_SB_1_W@ 4004f3e8     ui_main.obj
 0002:00008400       ??_C@_0BF@EEJBBJOB@BOTH_LK_DL_S_S_B_1_L@ 4004f400     ui_main.obj
 0002:00008418       ??_C@_0BF@ONKHNCHL@BOTH_LK_DL_S_S_B_1_W@ 4004f418     ui_main.obj
 0002:00008430       ??_C@_0BD@JANDNFNC@BOTH_LK_DL_S_S_L_1@ 4004f430     ui_main.obj
 0002:00008444       ??_C@_0BG@BGPPJBPE@BOTH_LK_DL_S_S_SB_1_L@ 4004f444     ui_main.obj
 0002:0000845c       ??_C@_0BG@LPMJFKGO@BOTH_LK_DL_S_S_SB_1_W@ 4004f45c     ui_main.obj
 0002:00008474       ??_C@_0BF@EOFEBAPI@BOTH_LK_DL_S_T_B_1_L@ 4004f474     ui_main.obj
 0002:0000848c       ??_C@_0BF@OHGCNLGC@BOTH_LK_DL_S_T_B_1_W@ 4004f48c     ui_main.obj
 0002:000084a4       ??_C@_0BD@INNGOFGK@BOTH_LK_DL_S_T_L_1@ 4004f4a4     ui_main.obj
 0002:000084b8       ??_C@_0BG@HCJOPMDN@BOTH_LK_DL_S_T_SB_1_L@ 4004f4b8     ui_main.obj
 0002:000084d0       ??_C@_0BG@NLKIDHKH@BOTH_LK_DL_S_T_SB_1_W@ 4004f4d0     ui_main.obj
 0002:000084e8       ??_C@_0BG@MGOLBFGD@BOTH_LK_ST_DL_S_B_1_L@ 4004f4e8     ui_main.obj
 0002:00008500       ??_C@_0BG@GPNNNOPJ@BOTH_LK_ST_DL_S_B_1_W@ 4004f500     ui_main.obj
 0002:00008518       ??_C@_0BE@GPPHAGBE@BOTH_LK_ST_DL_S_L_1@ 4004f518     ui_main.obj
 0002:0000852c       ??_C@_0BH@BFMLAJPE@BOTH_LK_ST_DL_S_SB_1_L@ 4004f52c     ui_main.obj
 0002:00008544       ??_C@_0BH@LMPNMCGO@BOTH_LK_ST_DL_S_SB_1_W@ 4004f544     ui_main.obj
 0002:0000855c       ??_C@_0BG@MMCOBMHK@BOTH_LK_ST_DL_T_B_1_L@ 4004f55c     ui_main.obj
 0002:00008574       ??_C@_0BG@GFBINHOA@BOTH_LK_ST_DL_T_B_1_W@ 4004f574     ui_main.obj
 0002:0000858c       ??_C@_0BE@HCPCDGKM@BOTH_LK_ST_DL_T_L_1@ 4004f58c     ui_main.obj
 0002:000085a0       ??_C@_0BH@HBKKGEDN@BOTH_LK_ST_DL_T_SB_1_L@ 4004f5a0     ui_main.obj
 0002:000085b8       ??_C@_0BH@NIJMKPKH@BOTH_LK_ST_DL_T_SB_1_W@ 4004f5b8     ui_main.obj
 0002:000085d0       ??_C@_0BG@HFFPAFDH@BOTH_LK_ST_ST_S_B_1_L@ 4004f5d0     ui_main.obj
 0002:000085e8       ??_C@_0BG@NMGJMOKN@BOTH_LK_ST_ST_S_B_1_W@ 4004f5e8     ui_main.obj
 0002:00008600       ??_C@_0BE@IAIADDC@BOTH_LK_ST_ST_S_L_1@ 4004f600     ui_main.obj
 0002:00008614       ??_C@_0BH@HJHOCIAJ@BOTH_LK_ST_ST_S_SB_1_L@ 4004f614     ui_main.obj
 0002:0000862c       ??_C@_0BH@NAEIODJD@BOTH_LK_ST_ST_S_SB_1_W@ 4004f62c     ui_main.obj
 0002:00008644       ??_C@_0BG@HPJKAMCO@BOTH_LK_ST_ST_T_B_1_L@ 4004f644     ui_main.obj
 0002:0000865c       ??_C@_0BG@NGKMMHLE@BOTH_LK_ST_ST_T_B_1_W@ 4004f65c     ui_main.obj
 0002:00008674       ??_C@_0BE@BFANDDIK@BOTH_LK_ST_ST_T_L_1@ 4004f674     ui_main.obj
 0002:00008688       ??_C@_0BH@BNBPEFMA@BOTH_LK_ST_ST_T_SB_1_L@ 4004f688     ui_main.obj
 0002:000086a0       ??_C@_0BH@LECJIOFK@BOTH_LK_ST_ST_T_SB_1_W@ 4004f6a0     ui_main.obj
 0002:000086b8       ??_C@_0BF@IHPBCCGB@BOTH_LK_ST_S_S_B_1_L@ 4004f6b8     ui_main.obj
 0002:000086d0       ??_C@_0BF@COMHOJPL@BOTH_LK_ST_S_S_B_1_W@ 4004f6d0     ui_main.obj
 0002:000086e8       ??_C@_0BD@CDGHMFIG@BOTH_LK_ST_S_S_L_1@ 4004f6e8     ui_main.obj
 0002:000086fc       ??_C@_0BG@PLIEHCOP@BOTH_LK_ST_S_S_SB_1_L@ 4004f6fc     ui_main.obj
 0002:00008714       ??_C@_0BG@FCLCLJHF@BOTH_LK_ST_S_S_SB_1_W@ 4004f714     ui_main.obj
 0002:0000872c       ??_C@_0BF@INDECLHI@BOTH_LK_ST_S_T_B_1_L@ 4004f72c     ui_main.obj
 0002:00008744       ??_C@_0BF@CEACOAOC@BOTH_LK_ST_S_T_B_1_W@ 4004f744     ui_main.obj
 0002:0000875c       ??_C@_0BD@DOGCPFDO@BOTH_LK_ST_S_T_L_1@ 4004f75c     ui_main.obj
 0002:00008770       ??_C@_0BG@JPOFBPCG@BOTH_LK_ST_S_T_SB_1_L@ 4004f770     ui_main.obj
 0002:00008788       ??_C@_0BG@DGNDNELM@BOTH_LK_ST_S_T_SB_1_W@ 4004f788     ui_main.obj
 0002:000087a0       ??_C@_0BC@MDILAFOD@BOTH_LK_S_S_S_L_2@ 4004f7a0     ui_main.obj
 0002:000087b4       ??_C@_0BC@NOIODFFL@BOTH_LK_S_S_T_L_2@ 4004f7b4     ui_main.obj
 0002:000087c8       ??_C@_0BE@CIGPHECK@BOTH_LK_DL_DL_S_L_2@ 4004f7c8     ui_main.obj
 0002:000087dc       ??_C@_0BE@DFGKEEJC@BOTH_LK_DL_DL_T_L_2@ 4004f7dc     ui_main.obj
 0002:000087f0       ??_C@_0BE@CDCFFAPB@BOTH_LK_ST_ST_S_L_2@ 4004f7f0     ui_main.obj
 0002:00008804       ??_C@_0BE@DOCAGAEJ@BOTH_LK_ST_ST_T_L_2@ 4004f804     ui_main.obj
 0002:00008818       ??_C@_0P@GCBEFEGH@BOTH_BF2RETURN@ 4004f818     ui_main.obj
 0002:00008828       ??_C@_0O@OBLBAPIM@BOTH_BF2BREAK@ 4004f828     ui_main.obj
 0002:00008838       ??_C@_0N@LNLIKJEI@BOTH_BF2LOCK@ 4004f838     ui_main.obj
 0002:00008848       ??_C@_0P@OMJLFDIE@BOTH_BF1RETURN@ 4004f848     ui_main.obj
 0002:00008858       ??_C@_0O@NAFJBFBB@BOTH_BF1BREAK@ 4004f858     ui_main.obj
 0002:00008868       ??_C@_0N@DLCMNLOG@BOTH_BF1LOCK@ 4004f868     ui_main.obj
 0002:00008878       ??_C@_0BH@DMDECPBF@BOTH_CWCIRCLE_R2__R_S1@ 4004f878     ui_main.obj
 0002:00008890       ??_C@_0BI@PBNOCOLC@BOTH_CCWCIRCLE_R2__L_S1@ 4004f890     ui_main.obj
 0002:000088a8       ??_C@_0BH@DBGDLJEC@BOTH_CWCIRCLE_A2__L__R@ 4004f8a8     ui_main.obj
 0002:000088c0       ??_C@_0BI@CIMIIHDK@BOTH_CCWCIRCLE_A2__R__L@ 4004f8c0     ui_main.obj
 0002:000088d8       ??_C@_0BD@LBKADGEF@BOTH_CWCIRCLEBREAK@ 4004f8d8     ui_main.obj
 0002:000088ec       ??_C@_0BE@OHBEAMBI@BOTH_CCWCIRCLEBREAK@ 4004f8ec     ui_main.obj
 0002:00008900       ??_C@_0BC@KJPAFMDI@BOTH_CWCIRCLELOCK@ 4004f900     ui_main.obj
 0002:00008914       ??_C@_0BD@KOAOCCAN@BOTH_CCWCIRCLELOCK@ 4004f914     ui_main.obj
 0002:00008928       ??_C@_0BG@LMJGJJPN@BOTH_SABERFAST_STANCE@ 4004f928     ui_main.obj
 0002:00008940       ??_C@_0BG@OHKGBDLF@BOTH_SABERSLOW_STANCE@ 4004f940     ui_main.obj
 0002:00008958       ??_C@_0BG@HKMBABJH@BOTH_SABERDUAL_STANCE@ 4004f958     ui_main.obj
 0002:00008970       ??_C@_0BH@BDCLHPPP@BOTH_SABERSTAFF_STANCE@ 4004f970     ui_main.obj
 0002:00008988       ??_C@_0BC@PILNDLJJ@BOTH_A2_STABBACK1@ 4004f988     ui_main.obj
 0002:0000899c       ??_C@_0BB@CBLKELKF@BOTH_ATTACK_BACK@ 4004f99c     ui_main.obj
 0002:000089b0       ??_C@_0BI@HBGICLGG@BOTH_JUMPFLIPSLASHDOWN1@ 4004f9b0     ui_main.obj
 0002:000089c8       ??_C@_0BG@BFMBDODP@BOTH_JUMPFLIPSTABDOWN@ 4004f9c8     ui_main.obj
 0002:000089e0       ??_C@_0BG@CELCKDAN@BOTH_FORCELEAP2_T__B_@ 4004f9e0     ui_main.obj
 0002:000089f8       ??_C@_0BC@BEBALKBG@BOTH_LUNGE2_B__T_@ 4004f9f8     ui_main.obj
 0002:00008a0c       ??_C@_0BH@INLIBEMO@BOTH_CROUCHATTACKBACK1@ 4004fa0c     ui_main.obj
 0002:00008a24       ??_C@_0BB@DBPJDDLK@BOTH_JUMPATTACK6@ 4004fa24     ui_main.obj
 0002:00008a38       ??_C@_0BB@CIOCACPL@BOTH_JUMPATTACK7@ 4004fa38     ui_main.obj
 0002:00008a4c       ??_C@_0BB@LMPGHBAM@BOTH_SPINATTACK6@ 4004fa4c     ui_main.obj
 0002:00008a60       ??_C@_0BB@KFONEAEN@BOTH_SPINATTACK7@ 4004fa60     ui_main.obj
 0002:00008a74       ??_C@_0L@BHGFBHGL@BOTH_S1_S6@ 4004fa74     ui_main.obj
 0002:00008a80       ??_C@_0L@OKAEFNLM@BOTH_S6_S1@ 4004fa80     ui_main.obj
 0002:00008a8c       ??_C@_0L@OHOCGCK@BOTH_S1_S7@ 4004fa8c     ui_main.obj
 0002:00008a98       ??_C@_0L@NHGEHEAM@BOTH_S7_S1@ 4004fa98     ui_main.obj
 0002:00008aa4       ??_C@_0BJ@KLOIGFJP@BOTH_FORCELONGLEAP_START@ 4004faa4     ui_main.obj
 0002:00008ac0       ??_C@_0BK@HABCCIOP@BOTH_FORCELONGLEAP_ATTACK@ 4004fac0     ui_main.obj
 0002:00008adc       ??_C@_0BI@MHONAGNG@BOTH_FORCELONGLEAP_LAND@ 4004fadc     ui_main.obj
 0002:00008af4       ??_C@_0BM@LJCOJFGC@BOTH_FORCEWALLRUNFLIP_START@ 4004faf4     ui_main.obj
 0002:00008b10       ??_C@_0BK@GPIMNHIL@BOTH_FORCEWALLRUNFLIP_END@ 4004fb10     ui_main.obj
 0002:00008b2c       ??_C@_0BK@KJKIIGOD@BOTH_FORCEWALLRUNFLIP_ALT@ 4004fb2c     ui_main.obj
 0002:00008b48       ??_C@_0BO@CIKJOPHK@BOTH_FORCEWALLREBOUND_FORWARD@ 4004fb48     ui_main.obj
 0002:00008b68       ??_C@_0BL@BOGHGOCO@BOTH_FORCEWALLREBOUND_LEFT@ 4004fb68     ui_main.obj
 0002:00008b84       ??_C@_0BL@OFKEILGN@BOTH_FORCEWALLREBOUND_BACK@ 4004fb84     ui_main.obj
 0002:00008ba0       ??_C@_0BM@FDLDEBGK@BOTH_FORCEWALLREBOUND_RIGHT@ 4004fba0     ui_main.obj
 0002:00008bbc       ??_C@_0BL@OBHDGIHE@BOTH_FORCEWALLHOLD_FORWARD@ 4004fbbc     ui_main.obj
 0002:00008bd8       ??_C@_0BI@IEHJEHGK@BOTH_FORCEWALLHOLD_LEFT@ 4004fbd8     ui_main.obj
 0002:00008bf0       ??_C@_0BI@HPLKKCCJ@BOTH_FORCEWALLHOLD_BACK@ 4004fbf0     ui_main.obj
 0002:00008c08       ??_C@_0BJ@CCJINKMK@BOTH_FORCEWALLHOLD_RIGHT@ 4004fc08     ui_main.obj
 0002:00008c24       ??_C@_0BO@FMNDOIKN@BOTH_FORCEWALLRELEASE_FORWARD@ 4004fc24     ui_main.obj
 0002:00008c44       ??_C@_0BL@OLNGOJNC@BOTH_FORCEWALLRELEASE_LEFT@ 4004fc44     ui_main.obj
 0002:00008c60       ??_C@_0BL@BABFAMJB@BOTH_FORCEWALLRELEASE_BACK@ 4004fc60     ui_main.obj
 0002:00008c7c       ??_C@_0BM@OHENEONK@BOTH_FORCEWALLRELEASE_RIGHT@ 4004fc7c     ui_main.obj
 0002:00008c98       ??_C@_0P@CJGOGJL@BOTH_A7_KICK_F@ 4004fc98     ui_main.obj
 0002:00008ca8       ??_C@_0P@GGPKCDJP@BOTH_A7_KICK_B@ 4004fca8     ui_main.obj
 0002:00008cb8       ??_C@_0P@CMDIDBMO@BOTH_A7_KICK_R@ 4004fcb8     ui_main.obj
 0002:00008cc8       ??_C@_0P@PIHJAOBB@BOTH_A7_KICK_L@ 4004fcc8     ui_main.obj
 0002:00008cd8       ??_C@_0P@DFCDAAIP@BOTH_A7_KICK_S@ 4004fcd8     ui_main.obj
 0002:00008ce8       ??_C@_0BA@MGPFJMHF@BOTH_A7_KICK_BF@ 4004fce8     ui_main.obj
 0002:00008cf8       ??_C@_0BF@OPHCPADF@BOTH_A7_KICK_BF_STOP@ 4004fcf8     ui_main.obj
 0002:00008d10       ??_C@_0BA@CADMNHIP@BOTH_A7_KICK_RL@ 4004fd10     ui_main.obj
 0002:00008d20       ??_C@_0BD@GABGGINM@BOTH_A7_KICK_F_AIR@ 4004fd20     ui_main.obj
 0002:00008d34       ??_C@_0BD@PLIHCKMK@BOTH_A7_KICK_B_AIR@ 4004fd34     ui_main.obj
 0002:00008d48       ??_C@_0BD@PIFBCIFB@BOTH_A7_KICK_R_AIR@ 4004fd48     ui_main.obj
 0002:00008d5c       ??_C@_0BD@MBINELLK@BOTH_A7_KICK_L_AIR@ 4004fd5c     ui_main.obj
 0002:00008d70       ??_C@_0BC@OAEPKLIJ@BOTH_FLIP_ATTACK7@ 4004fd70     ui_main.obj
 0002:00008d84       ??_C@_0BA@PECANCJM@BOTH_FLIP_HOLD7@ 4004fd84     ui_main.obj
 0002:00008d94       ??_C@_0P@FKABGNIE@BOTH_FLIP_LAND@ 4004fd94     ui_main.obj
 0002:00008da4       ??_C@_0BG@FJEBNIOP@BOTH_PULL_IMPALE_STAB@ 4004fda4     ui_main.obj
 0002:00008dbc       ??_C@_0BH@ENKMMKI@BOTH_PULL_IMPALE_SWING@ 4004fdbc     ui_main.obj
 0002:00008dd4       ??_C@_0BE@LGIIAOEH@BOTH_PULLED_INAIR_B@ 4004fdd4     ui_main.obj
 0002:00008de8       ??_C@_0BE@NCOEMLED@BOTH_PULLED_INAIR_F@ 4004fde8     ui_main.obj
 0002:00008dfc       ??_C@_0O@FMNFAMJP@BOTH_STABDOWN@ 4004fdfc     ui_main.obj
 0002:00008e0c       ??_C@_0BE@DOGEHLEN@BOTH_STABDOWN_STAFF@ 4004fe0c     ui_main.obj
 0002:00008e20       ??_C@_0BD@FCALGDP@BOTH_STABDOWN_DUAL@ 4004fe20     ui_main.obj
 0002:00008e34       ??_C@_0BF@JKDHMCK@BOTH_A6_SABERPROTECT@ 4004fe34     ui_main.obj
 0002:00008e4c       ??_C@_0BA@IPLCAALD@BOTH_A7_SOULCAL@ 4004fe4c     ui_main.obj
 0002:00008e5c       ??_C@_0BA@PNABOJPN@BOTH_A1_SPECIAL@ 4004fe5c     ui_main.obj
 0002:00008e6c       ??_C@_0BA@BGDGFCPO@BOTH_A2_SPECIAL@ 4004fe6c     ui_main.obj
 0002:00008e7c       ??_C@_0BA@PJPEDJMA@BOTH_A3_SPECIAL@ 4004fe7c     ui_main.obj
 0002:00008e8c       ??_C@_0P@HNCGMPEI@BOTH_ROLL_STAB@ 4004fe8c     ui_main.obj
 0002:00008e9c       ??_C@_0M@GOMFFOAD@BOTH_STAND1@ 4004fe9c     ui_main.obj
 0002:00008ea8       ??_C@_0BB@OEICBKPC@BOTH_STAND1IDLE1@ 4004fea8     ui_main.obj
 0002:00008ebc       ??_C@_0M@EFOIANMA@BOTH_STAND2@ 4004febc     ui_main.obj
 0002:00008ec8       ??_C@_0BB@NFGKAAGP@BOTH_STAND2IDLE1@ 4004fec8     ui_main.obj
 0002:00008edc       ??_C@_0BB@POEHFDKM@BOTH_STAND2IDLE2@ 4004fedc     ui_main.obj
 0002:00008ef0       ??_C@_0M@FMPDDMIB@BOTH_STAND3@ 4004fef0     ui_main.obj
 0002:00008efc       ??_C@_0BB@HDBNALNL@BOTH_STAND3IDLE1@ 4004fefc     ui_main.obj
 0002:00008f10       ??_C@_0M@BDLCKKEG@BOTH_STAND4@ 4004ff10     ui_main.obj
 0002:00008f1c       ??_C@_0M@KKJJLAH@BOTH_STAND5@ 4004ff1c     ui_main.obj
 0002:00008f28       ??_C@_0BB@BAMNDOOB@BOTH_STAND5IDLE1@ 4004ff28     ui_main.obj
 0002:00008f3c       ??_C@_0M@CBIEMIME@BOTH_STAND6@ 4004ff3c     ui_main.obj
 0002:00008f48       ??_C@_0M@LPAHOFEK@BOTH_STAND8@ 4004ff48     ui_main.obj
 0002:00008f54       ??_C@_0P@BPKJPOKL@BOTH_STAND1TO2@ 4004ff54     ui_main.obj
 0002:00008f64       ??_C@_0P@HDCENHLI@BOTH_STAND2TO1@ 4004ff64     ui_main.obj
 0002:00008f74       ??_C@_0P@OFDCDPN@BOTH_STAND2TO4@ 4004ff74     ui_main.obj
 0002:00008f84       ??_C@_0P@NHEJHBNL@BOTH_STAND4TO2@ 4004ff84     ui_main.obj
 0002:00008f94       ??_C@_0BF@MNEGLANN@BOTH_STAND4TOATTACK2@ 4004ff94     ui_main.obj
 0002:00008fac       ??_C@_0O@JCHGFLGA@BOTH_STANDUP2@ 4004ffac     ui_main.obj
 0002:00008fbc       ??_C@_0BC@KJMCMBAN@BOTH_STAND5TOSIT3@ 4004ffbc     ui_main.obj
 0002:00008fd0       ??_C@_0BE@LJJBDIP@BOTH_STAND1TOSTAND5@ 4004ffd0     ui_main.obj
 0002:00008fe4       ??_C@_0BE@GGBOHGPB@BOTH_STAND5TOSTAND1@ 4004ffe4     ui_main.obj
 0002:00008ff8       ??_C@_0BB@KAKPAJPG@BOTH_STAND5TOAIM@ 4004fff8     ui_main.obj
 0002:0000900c       ??_C@_0BM@LKMKNIB@BOTH_STAND5STARTLEDLOOKLEFT@ 4005000c     ui_main.obj
 0002:00009028       ??_C@_0BO@JCPBABCF@BOTH_STARTLEDLOOKLEFTTOSTAND5@ 40050028     ui_main.obj
 0002:00009048       ??_C@_0BE@LHNMMNLI@BOTH_STAND5TOSTAND8@ 40050048     ui_main.obj
 0002:0000905c       ??_C@_0BE@LDCJBNIF@BOTH_STAND7TOSTAND8@ 4005005c     ui_main.obj
 0002:00009070       ??_C@_0BE@PHIMDIEF@BOTH_STAND8TOSTAND5@ 40050070     ui_main.obj
 0002:00009084       ??_C@_0M@KGBMNEAL@BOTH_STAND9@ 40050084     ui_main.obj
 0002:00009090       ??_C@_0BB@NHGNFEJF@BOTH_STAND9IDLE1@ 40050090     ui_main.obj
 0002:000090a4       ??_C@_0BH@LKALMHBN@BOTH_STAND5SHIFTWEIGHT@ 400500a4     ui_main.obj
 0002:000090bc       ??_C@_0BM@LEFLGCNL@BOTH_STAND5SHIFTWEIGHTSTART@ 400500bc     ui_main.obj
 0002:000090d8       ??_C@_0BL@EHCDGJJ@BOTH_STAND5SHIFTWEIGHTSTOP@ 400500d8     ui_main.obj
 0002:000090f4       ??_C@_0BJ@HOHFOLPM@BOTH_STAND5TURNLEFTSTART@ 400500f4     ui_main.obj
 0002:00009110       ??_C@_0BI@JADJJLGI@BOTH_STAND5TURNLEFTSTOP@ 40050110     ui_main.obj
 0002:00009128       ??_C@_0BK@IGPCPOOP@BOTH_STAND5TURNRIGHTSTART@ 40050128     ui_main.obj
 0002:00009144       ??_C@_0BJ@HFICOBLF@BOTH_STAND5TURNRIGHTSTOP@ 40050144     ui_main.obj
 0002:00009160       ??_C@_0BM@BGELABNK@BOTH_STAND5LOOK180LEFTSTART@ 40050160     ui_main.obj
 0002:0000917c       ??_C@_0BL@HDGAEFLK@BOTH_STAND5LOOK180LEFTSTOP@ 4005017c     ui_main.obj
 0002:00009198       ??_C@_0BD@JMEBFELH@BOTH_CONSOLE1START@ 40050198     ui_main.obj
 0002:000091ac       ??_C@_0O@DNGGEOJM@BOTH_CONSOLE1@ 400501ac     ui_main.obj
 0002:000091bc       ??_C@_0BC@BMPMMEKB@BOTH_CONSOLE1STOP@ 400501bc     ui_main.obj
 0002:000091d0       ??_C@_0BD@KNKJEOCK@BOTH_CONSOLE2START@ 400501d0     ui_main.obj
 0002:000091e4       ??_C@_0O@BGELBNFP@BOTH_CONSOLE2@ 400501e4     ui_main.obj
 0002:000091f4       ??_C@_0BC@JKGILGAP@BOTH_CONSOLE2STOP@ 400501f4     ui_main.obj
 0002:00009208       ??_C@_0BK@JLMHHIBG@BOTH_CONSOLE2HOLDCOMSTART@ 40050208     ui_main.obj
 0002:00009224       ??_C@_0BJ@PHBEHMKF@BOTH_CONSOLE2HOLDCOMSTOP@ 40050224     ui_main.obj
 0002:00009240       ??_C@_0BH@IIALJNIM@BOTH_GUARD_LOOKAROUND1@ 40050240     ui_main.obj
 0002:00009258       ??_C@_0BB@LLGPJFGM@BOTH_GUARD_IDLE1@ 40050258     ui_main.obj
 0002:0000926c       ??_C@_0O@HANAGBGB@BOTH_GESTURE1@ 4005026c     ui_main.obj
 0002:0000927c       ??_C@_0O@FLPNDCKC@BOTH_GESTURE2@ 4005027c     ui_main.obj
 0002:0000928c       ??_C@_0BE@OAMCANFF@BOTH_WALK1TALKCOMM1@ 4005028c     ui_main.obj
 0002:000092a0       ??_C@_0L@OMGKFLGC@BOTH_TALK1@ 400502a0     ui_main.obj
 0002:000092ac       ??_C@_0L@MHEHAIKB@BOTH_TALK2@ 400502ac     ui_main.obj
 0002:000092b8       ??_C@_0BE@LLPJOKPB@BOTH_TALKCOMM1START@ 400502b8     ui_main.obj
 0002:000092cc       ??_C@_0P@IMEACJDE@BOTH_TALKCOMM1@ 400502cc     ui_main.obj
 0002:000092dc       ??_C@_0BD@KGADCINA@BOTH_TALKCOMM1STOP@ 400502dc     ui_main.obj
 0002:000092f0       ??_C@_0BC@HDFGDEIC@BOTH_TALKGESTURE1@ 400502f0     ui_main.obj
 0002:00009304       ??_C@_0BE@OFJJICOJ@BOTH_HEADTILTLSTART@ 40050304     ui_main.obj
 0002:00009318       ??_C@_0BD@BIJCDOKI@BOTH_HEADTILTLSTOP@ 40050318     ui_main.obj
 0002:0000932c       ??_C@_0BE@NCHIGFHK@BOTH_HEADTILTRSTART@ 4005032c     ui_main.obj
 0002:00009340       ??_C@_0BD@CBEOFNED@BOTH_HEADTILTRSTOP@ 40050340     ui_main.obj
 0002:00009354       ??_C@_0N@JGGIBJHN@BOTH_HEADNOD@ 40050354     ui_main.obj
 0002:00009364       ??_C@_0P@DFINNNBF@BOTH_HEADSHAKE@ 40050364     ui_main.obj
 0002:00009374       ??_C@_0BI@OBPNLCKD@BOTH_SIT2HEADTILTLSTART@ 40050374     ui_main.obj
 0002:0000938c       ??_C@_0BH@KHIEGBCO@BOTH_SIT2HEADTILTLSTOP@ 4005038c     ui_main.obj
 0002:000093a4       ??_C@_0BB@IHJLPLDL@BOTH_REACH1START@ 400503a4     ui_main.obj
 0002:000093b8       ??_C@_0BA@MHPGDDPE@BOTH_REACH1STOP@ 400503b8     ui_main.obj
 0002:000093c8       ??_C@_0O@KHABGCAK@BOTH_COME_ON1@ 400503c8     ui_main.obj
 0002:000093d8       ??_C@_0BB@BHOCMBMP@BOTH_STEADYSELF1@ 400503d8     ui_main.obj
 0002:000093ec       ??_C@_0BE@EEMNDGPF@BOTH_STEADYSELF1END@ 400503ec     ui_main.obj
 0002:00009400       ??_C@_0BF@HGBIDKLM@BOTH_SILENCEGESTURE1@ 40050400     ui_main.obj
 0002:00009418       ??_C@_0BE@LPKJJENM@BOTH_REACHFORSABER1@ 40050418     ui_main.obj
 0002:0000942c       ??_C@_0BC@CEDLFADF@BOTH_SABERKILLER1@ 4005042c     ui_main.obj
 0002:00009440       ??_C@_0BC@DNFCOFMA@BOTH_SABERKILLEE1@ 40050440     ui_main.obj
 0002:00009454       ??_C@_0N@PBPICGOP@BOTH_HUGGER1@ 40050454     ui_main.obj
 0002:00009464       ??_C@_0BB@EFDKGEDA@BOTH_HUGGERSTOP1@ 40050464     ui_main.obj
 0002:00009478       ??_C@_0N@OIJBJDBK@BOTH_HUGGEE1@ 40050478     ui_main.obj
 0002:00009488       ??_C@_0BB@OHEDMGHA@BOTH_HUGGEESTOP1@ 40050488     ui_main.obj
 0002:0000949c       ??_C@_0BG@IKDIPHLL@BOTH_SABERTHROW1START@ 4005049c     ui_main.obj
 0002:000094b4       ??_C@_0BF@JJAINHO@BOTH_SABERTHROW1STOP@ 400504b4     ui_main.obj
 0002:000094cc       ??_C@_0BG@LLNAONCG@BOTH_SABERTHROW2START@ 400504cc     ui_main.obj
 0002:000094e4       ??_C@_0BF@IPAEPPNA@BOTH_SABERTHROW2STOP@ 400504e4     ui_main.obj
 0002:000094fc       ??_C@_09OIAGNDLA@BOTH_SIT1@ 400504fc     ui_main.obj
 0002:00009508       ??_C@_09MDCLIAHD@BOTH_SIT2@ 40050508     ui_main.obj
 0002:00009514       ??_C@_09NKDALBDC@BOTH_SIT3@ 40050514     ui_main.obj
 0002:00009520       ??_C@_0BC@PIMMNLNC@BOTH_SIT2TOSTAND5@ 40050520     ui_main.obj
 0002:00009534       ??_C@_0BC@LANJPAEM@BOTH_STAND5TOSIT2@ 40050534     ui_main.obj
 0002:00009548       ??_C@_0BA@LICOGNPB@BOTH_SIT2TOSIT4@ 40050548     ui_main.obj
 0002:00009558       ??_C@_0BC@BHAOLAOM@BOTH_SIT3TOSTAND5@ 40050558     ui_main.obj
 0002:0000956c       ??_C@_0N@KLJMDLMC@BOTH_CROUCH1@ 4005056c     ui_main.obj
 0002:0000957c       ??_C@_0BB@NNJBKJDM@BOTH_CROUCH1IDLE@ 4005057c     ui_main.obj
 0002:00009590       ??_C@_0BB@KLBMFNGD@BOTH_CROUCH1WALK@ 40050590     ui_main.obj
 0002:000095a4       ??_C@_0BF@IKEOFDBF@BOTH_CROUCH1WALKBACK@ 400505a4     ui_main.obj
 0002:000095bc       ??_C@_0P@CMNLLMOK@BOTH_UNCROUCH1@ 400505bc     ui_main.obj
 0002:000095cc       ??_C@_0BF@OBDEHHPH@BOTH_CROUCH2TOSTAND1@ 400505cc     ui_main.obj
 0002:000095e4       ??_C@_0N@JJKKFJEA@BOTH_CROUCH3@ 400505e4     ui_main.obj
 0002:000095f4       ??_C@_0P@BOONNOGI@BOTH_UNCROUCH3@ 400505f4     ui_main.obj
 0002:00009604       ??_C@_0N@NGOLMPIH@BOTH_CROUCH4@ 40050604     ui_main.obj
 0002:00009614       ??_C@_0P@FBKMEIKP@BOTH_UNCROUCH4@ 40050614     ui_main.obj
 0002:00009624       ??_C@_0N@NEOMJHMD@BOTH_GUNSIT1@ 40050624     ui_main.obj
 0002:00009634       ??_C@_0BA@BIPEOENE@BOTH_VS_MOUNT_L@ 40050634     ui_main.obj
 0002:00009644       ??_C@_0BD@EAEFOEPB@BOTH_VS_DISMOUNT_L@ 40050644     ui_main.obj
 0002:00009658       ??_C@_0BA@MMLFNLAL@BOTH_VS_MOUNT_R@ 40050658     ui_main.obj
 0002:00009668       ??_C@_0BD@JEAENLCO@BOTH_VS_DISMOUNT_R@ 40050668     ui_main.obj
 0002:0000967c       ??_C@_0BE@CFBMPALJ@BOTH_VS_MOUNTJUMP_L@ 4005067c     ui_main.obj
 0002:00009690       ??_C@_0BD@HKDNANFN@BOTH_VS_MOUNTTHROW@ 40050690     ui_main.obj
 0002:000096a4       ??_C@_0BF@EKIIEMBN@BOTH_VS_MOUNTTHROW_L@ 400506a4     ui_main.obj
 0002:000096bc       ??_C@_0BF@JOMJHDMC@BOTH_VS_MOUNTTHROW_R@ 400506bc     ui_main.obj
 0002:000096d4       ??_C@_0BF@IKPLNBPC@BOTH_VS_MOUNTTHROWEE@ 400506d4     ui_main.obj
 0002:000096ec       ??_C@_0BB@LJMKNCGH@BOTH_VS_LOOKLEFT@ 400506ec     ui_main.obj
 0002:00009700       ??_C@_0BC@FMBEBFOC@BOTH_VS_LOOKRIGHT@ 40050700     ui_main.obj
 0002:00009714       ??_C@_0O@COMCHHG@BOTH_VS_TURBO@ 40050714     ui_main.obj
 0002:00009724       ??_C@_0M@MPJJBHIP@BOTH_VS_REV@ 40050724     ui_main.obj
 0002:00009730       ??_C@_0M@OAEDNDJO@BOTH_VS_AIR@ 40050730     ui_main.obj
 0002:0000973c       ??_C@_0O@CIMAHEPG@BOTH_VS_AIR_G@ 4005073c     ui_main.obj
 0002:0000974c       ??_C@_0P@BDBFJMPI@BOTH_VS_AIR_SL@ 4005074c     ui_main.obj
 0002:0000975c       ??_C@_0P@MHFEKDCH@BOTH_VS_AIR_SR@ 4005075c     ui_main.obj
 0002:0000976c       ??_C@_0N@KLFKMBNL@BOTH_VS_LAND@ 4005076c     ui_main.obj
 0002:0000977c       ??_C@_0P@FGHHPFOH@BOTH_VS_LAND_G@ 4005077c     ui_main.obj
 0002:0000978c       ??_C@_0BA@HJNLALIL@BOTH_VS_LAND_SL@ 4005078c     ui_main.obj
 0002:0000979c       ??_C@_0BA@KNJKDEFE@BOTH_VS_LAND_SR@ 4005079c     ui_main.obj
 0002:000097ac       ??_C@_0N@EOPLFLLG@BOTH_VS_IDLE@ 400507ac     ui_main.obj
 0002:000097bc       ??_C@_0P@JGPOHPPG@BOTH_VS_IDLE_G@ 400507bc     ui_main.obj
 0002:000097cc       ??_C@_0BA@BDKLKCPD@BOTH_VS_IDLE_SL@ 400507cc     ui_main.obj
 0002:000097dc       ??_C@_0BA@MHOKJNCM@BOTH_VS_IDLE_SR@ 400507dc     ui_main.obj
 0002:000097ec       ??_C@_0O@ONBCGCNE@BOTH_VS_LEANL@ 400507ec     ui_main.obj
 0002:000097fc       ??_C@_0BA@JODAFNDC@BOTH_VS_LEANL_G@ 400507fc     ui_main.obj
 0002:0000980c       ??_C@_0BB@IPKKGKHI@BOTH_VS_LEANL_SL@ 4005080c     ui_main.obj
 0002:00009820       ??_C@_0BB@FLOLFFKH@BOTH_VS_LEANL_SR@ 40050820     ui_main.obj
 0002:00009834       ??_C@_0O@DJFDFNAL@BOTH_VS_LEANR@ 40050834     ui_main.obj
 0002:00009844       ??_C@_0BA@COPGHNJO@BOTH_VS_LEANR_G@ 40050844     ui_main.obj
 0002:00009854       ??_C@_0BB@FAHKEDJL@BOTH_VS_LEANR_SL@ 40050854     ui_main.obj
 0002:00009868       ??_C@_0BB@IEDLHMEE@BOTH_VS_LEANR_SR@ 40050868     ui_main.obj
 0002:0000987c       ??_C@_0O@CONINADM@BOTH_VS_ATL_S@ 4005087c     ui_main.obj
 0002:0000988c       ??_C@_0O@JOBOPAJA@BOTH_VS_ATR_S@ 4005088c     ui_main.obj
 0002:0000989c       ??_C@_0BD@IEEEGOL@BOTH_VS_ATR_TO_L_S@ 4005089c     ui_main.obj
 0002:000098b0       ??_C@_0BD@NMIAPPKE@BOTH_VS_ATL_TO_R_S@ 400508b0     ui_main.obj
 0002:000098c4       ??_C@_0O@LALACHMF@BOTH_VS_ATR_G@ 400508c4     ui_main.obj
 0002:000098d4       ??_C@_0O@HGAHGJ@BOTH_VS_ATL_G@ 400508d4     ui_main.obj
 0002:000098e4       ??_C@_0O@GPMLOHAN@BOTH_VS_ATF_G@ 400508e4     ui_main.obj
 0002:000098f4       ??_C@_0O@DDKDCJKA@BOTH_VS_PAIN1@ 400508f4     ui_main.obj
 0002:00009904       ??_C@_0BA@PKCIPPKN@BOTH_VT_MOUNT_L@ 40050904     ui_main.obj
 0002:00009914       ??_C@_0BA@COGJMAHC@BOTH_VT_MOUNT_R@ 40050914     ui_main.obj
 0002:00009924       ??_C@_0BA@GEKLNCCD@BOTH_VT_MOUNT_B@ 40050924     ui_main.obj
 0002:00009934       ??_C@_0BB@ICMLAFCL@BOTH_VT_DISMOUNT@ 40050934     ui_main.obj
 0002:00009948       ??_C@_0BD@DNDGOCKJ@BOTH_VT_DISMOUNT_L@ 40050948     ui_main.obj
 0002:0000995c       ??_C@_0BD@OJHHNNHG@BOTH_VT_DISMOUNT_R@ 4005095c     ui_main.obj
 0002:00009970       ??_C@_0BB@PINFIKEN@BOTH_VT_WALK_FWD@ 40050970     ui_main.obj
 0002:00009984       ??_C@_0BB@EAPIENEI@BOTH_VT_WALK_REV@ 40050984     ui_main.obj
 0002:00009998       ??_C@_0BD@HDJGMKCH@BOTH_VT_WALK_FWD_L@ 40050998     ui_main.obj
 0002:000099ac       ??_C@_0BD@KHNHPFPI@BOTH_VT_WALK_FWD_R@ 400509ac     ui_main.obj
 0002:000099c0       ??_C@_0BA@JEFGBHGE@BOTH_VT_RUN_FWD@ 400509c0     ui_main.obj
 0002:000099d0       ??_C@_0BA@CMHLNAGB@BOTH_VT_RUN_REV@ 400509d0     ui_main.obj
 0002:000099e0       ??_C@_0BC@LJGONGLG@BOTH_VT_RUN_FWD_L@ 400509e0     ui_main.obj
 0002:000099f4       ??_C@_0BC@GNCPOJGJ@BOTH_VT_RUN_FWD_R@ 400509f4     ui_main.obj
 0002:00009a08       ??_C@_0P@KFJEKMCA@BOTH_VT_SLIDEF@ 40050a08     ui_main.obj
 0002:00009a18       ??_C@_0M@PNEGODCG@BOTH_VT_AIR@ 40050a18     ui_main.obj
 0002:00009a24       ??_C@_0M@KDHKMBFE@BOTH_VT_ATB@ 40050a24     ui_main.obj
 0002:00009a30       ??_C@_0O@DJGGCALJ@BOTH_VT_PAIN1@ 40050a30     ui_main.obj
 0002:00009a40       ??_C@_0P@CICNDPJE@BOTH_VT_DEATH1@ 40050a40     ui_main.obj
 0002:00009a50       ??_C@_0O@IAAOOPLJ@BOTH_VT_STAND@ 40050a50     ui_main.obj
 0002:00009a60       ??_C@_0N@IBPGAOGA@BOTH_VT_BUCK@ 40050a60     ui_main.obj
 0002:00009a70       ??_C@_0N@GOPNPPFF@BOTH_VT_LAND@ 40050a70     ui_main.obj
 0002:00009a80       ??_C@_0O@ICJCOGP@BOTH_VT_TURBO@ 40050a80     ui_main.obj
 0002:00009a90       ??_C@_0BA@PBHHLJIK@BOTH_VT_IDLE_SL@ 40050a90     ui_main.obj
 0002:00009aa0       ??_C@_0BA@CFDGIGFF@BOTH_VT_IDLE_SR@ 40050aa0     ui_main.obj
 0002:00009ab0       ??_C@_0N@ILFMGFDI@BOTH_VT_IDLE@ 40050ab0     ui_main.obj
 0002:00009ac0       ??_C@_0O@OONEODEJ@BOTH_VT_IDLE1@ 40050ac0     ui_main.obj
 0002:00009ad0       ??_C@_0P@NMDBMFGK@BOTH_VT_IDLE_S@ 40050ad0     ui_main.obj
 0002:00009ae0       ??_C@_0P@PCJPBCDP@BOTH_VT_IDLE_G@ 40050ae0     ui_main.obj
 0002:00009af0       ??_C@_0P@JDHAFDKN@BOTH_VT_IDLE_T@ 40050af0     ui_main.obj
 0002:00009b00       ??_C@_0O@CEBNNJCF@BOTH_VT_ATL_S@ 40050b00     ui_main.obj
 0002:00009b10       ??_C@_0O@JENLPJIJ@BOTH_VT_ATR_S@ 40050b10     ui_main.obj
 0002:00009b20       ??_C@_0BD@HFDHEALD@BOTH_VT_ATR_TO_L_S@ 40050b20     ui_main.obj
 0002:00009b34       ??_C@_0BD@KBPDPJPM@BOTH_VT_ATL_TO_R_S@ 40050b34     ui_main.obj
 0002:00009b48       ??_C@_0O@LKHFCONM@BOTH_VT_ATR_G@ 40050b48     ui_main.obj
 0002:00009b58       ??_C@_0O@KLDAOHA@BOTH_VT_ATL_G@ 40050b58     ui_main.obj
 0002:00009b68       ??_C@_0O@GFAOOOBE@BOTH_VT_ATF_G@ 40050b68     ui_main.obj
 0002:00009b78       ??_C@_0BA@MMFJLAL@BOTH_GEARS_OPEN@ 40050b78     ui_main.obj
 0002:00009b88       ??_C@_0BB@LDEBMNOM@BOTH_GEARS_CLOSE@ 40050b88     ui_main.obj
 0002:00009b9c       ??_C@_0BA@FDONEPNA@BOTH_WINGS_OPEN@ 40050b9c     ui_main.obj
 0002:00009bac       ??_C@_0BB@KCBPOOGE@BOTH_WINGS_CLOSE@ 40050bac     ui_main.obj
 0002:00009bc0       ??_C@_0BE@KHOKHMOE@BOTH_DEATH14_UNGRIP@ 40050bc0     ui_main.obj
 0002:00009bd4       ??_C@_0BD@FOKLKMPB@BOTH_DEATH14_SITUP@ 40050bd4     ui_main.obj
 0002:00009be8       ??_C@_0M@KDFBDJGD@BOTH_KNEES1@ 40050be8     ui_main.obj
 0002:00009bf4       ??_C@_0M@IIHMGKKA@BOTH_KNEES2@ 40050bf4     ui_main.obj
 0002:00009c00       ??_C@_0P@OGCNLGGI@BOTH_KNEES2TO1@ 40050c00     ui_main.obj
 0002:00009c10       ??_C@_0L@GKPOCJMM@BOTH_WALK1@ 40050c10     ui_main.obj
 0002:00009c1c       ??_C@_0L@EBNDHKAP@BOTH_WALK2@ 40050c1c     ui_main.obj
 0002:00009c28       ??_C@_0BA@LMALDKNK@BOTH_WALK_STAFF@ 40050c28     ui_main.obj
 0002:00009c38       ??_C@_0BE@MDDMPBCJ@BOTH_WALKBACK_STAFF@ 40050c38     ui_main.obj
 0002:00009c4c       ??_C@_0P@GCJFOAGJ@BOTH_WALK_DUAL@ 40050c4c     ui_main.obj
 0002:00009c5c       ??_C@_0BD@DPFDKICF@BOTH_WALKBACK_DUAL@ 40050c5c     ui_main.obj
 0002:00009c70       ??_C@_0L@OJCOMMI@BOTH_WALK5@ 40050c70     ui_main.obj
 0002:00009c7c       ??_C@_0L@CFLPLPAL@BOTH_WALK6@ 40050c7c     ui_main.obj
 0002:00009c88       ??_C@_0L@DMKEIOEK@BOTH_WALK7@ 40050c88     ui_main.obj
 0002:00009c94       ??_C@_09NOBIDEIB@BOTH_RUN1@ 40050c94     ui_main.obj
 0002:00009ca0       ??_C@_0P@CLIPKCAJ@BOTH_RUN1START@ 40050ca0     ui_main.obj
 0002:00009cb0       ??_C@_0O@GPFGEBNP@BOTH_RUN1STOP@ 40050cb0     ui_main.obj
 0002:00009cc0       ??_C@_09PFDFGHEC@BOTH_RUN2@ 40050cc0     ui_main.obj
 0002:00009ccc       ??_C@_0BA@JDBHFMOM@BOTH_RUN1TORUN2@ 40050ccc     ui_main.obj
 0002:00009cdc       ??_C@_0BA@DGLFAIMM@BOTH_RUN2TORUN1@ 40050cdc     ui_main.obj
 0002:00009cec       ??_C@_09KDGPMAME@BOTH_RUN4@ 40050cec     ui_main.obj
 0002:00009cf8       ??_C@_0P@JDNNOOMO@BOTH_RUN_STAFF@ 40050cf8     ui_main.obj
 0002:00009d08       ??_C@_0BD@OKHEPDMN@BOTH_RUNBACK_STAFF@ 40050d08     ui_main.obj
 0002:00009d1c       ??_C@_0O@NLDNHDFF@BOTH_RUN_DUAL@ 40050d1c     ui_main.obj
 0002:00009d2c       ??_C@_0BC@KOJINEFM@BOTH_RUNBACK_DUAL@ 40050d2c     ui_main.obj
 0002:00009d40       ??_C@_0BC@OMBNLHPO@BOTH_STRAFE_LEFT1@ 40050d40     ui_main.obj
 0002:00009d54       ??_C@_0BD@LFCECKKK@BOTH_STRAFE_RIGHT1@ 40050d54     ui_main.obj
 0002:00009d68       ??_C@_0BF@DBPGPOAM@BOTH_RUNSTRAFE_LEFT1@ 40050d68     ui_main.obj
 0002:00009d80       ??_C@_0BG@OGEKFCND@BOTH_RUNSTRAFE_RIGHT1@ 40050d80     ui_main.obj
 0002:00009d98       ??_C@_0BA@GKEFEECE@BOTH_TURN_LEFT1@ 40050d98     ui_main.obj
 0002:00009da8       ??_C@_0BB@NDKEEJJD@BOTH_TURN_RIGHT1@ 40050da8     ui_main.obj
 0002:00009dbc       ??_C@_0BA@GOHCIDPJ@BOTH_TURNSTAND1@ 40050dbc     ui_main.obj
 0002:00009dcc       ??_C@_0BA@EFFPNADK@BOTH_TURNSTAND2@ 40050dcc     ui_main.obj
 0002:00009ddc       ??_C@_0BA@FMEEOBHL@BOTH_TURNSTAND3@ 40050ddc     ui_main.obj
 0002:00009dec       ??_C@_0BA@BDAFHHLM@BOTH_TURNSTAND4@ 40050dec     ui_main.obj
 0002:00009dfc       ??_C@_0BA@KBOEGPN@BOTH_TURNSTAND5@ 40050dfc     ui_main.obj
 0002:00009e0c       ??_C@_0BB@PGPEJHBN@BOTH_TURNCROUCH1@ 40050e0c     ui_main.obj
 0002:00009e20       ??_C@_0P@PHEJPEHC@BOTH_WALKBACK1@ 40050e20     ui_main.obj
 0002:00009e30       ??_C@_0P@NMGEKHLB@BOTH_WALKBACK2@ 40050e30     ui_main.obj
 0002:00009e40       ??_C@_0O@EOOBGHEO@BOTH_RUNBACK1@ 40050e40     ui_main.obj
 0002:00009e50       ??_C@_0O@GFMMDEIN@BOTH_RUNBACK2@ 40050e50     ui_main.obj
 0002:00009e60       ??_C@_0L@OIBJCCDP@BOTH_JUMP1@ 40050e60     ui_main.obj
 0002:00009e6c       ??_C@_0M@IKFKFLAF@BOTH_INAIR1@ 40050e6c     ui_main.obj
 0002:00009e78       ??_C@_0L@KCLKFECC@BOTH_LAND1@ 40050e78     ui_main.obj
 0002:00009e84       ??_C@_0L@IJJHAHOB@BOTH_LAND2@ 40050e84     ui_main.obj
 0002:00009e90       ??_C@_0P@HNEGCFPN@BOTH_JUMPBACK1@ 40050e90     ui_main.obj
 0002:00009ea0       ??_C@_0BA@MBBIHCFF@BOTH_INAIRBACK1@ 40050ea0     ui_main.obj
 0002:00009eb0       ??_C@_0P@JMGKPJPJ@BOTH_LANDBACK1@ 40050eb0     ui_main.obj
 0002:00009ec0       ??_C@_0P@JCGIPGDC@BOTH_JUMPLEFT1@ 40050ec0     ui_main.obj
 0002:00009ed0       ??_C@_0BA@CODGKBJK@BOTH_INAIRLEFT1@ 40050ed0     ui_main.obj
 0002:00009ee0       ??_C@_0P@HDEECKDG@BOTH_LANDLEFT1@ 40050ee0     ui_main.obj
 0002:00009ef0       ??_C@_0BA@CHIINBHA@BOTH_JUMPRIGHT1@ 40050ef0     ui_main.obj
 0002:00009f00       ??_C@_0BB@PPDJKEPN@BOTH_INAIRRIGHT1@ 40050f00     ui_main.obj
 0002:00009f14       ??_C@_0BA@CAAEDJLF@BOTH_LANDRIGHT1@ 40050f14     ui_main.obj
 0002:00009f24       ??_C@_0BA@JCEJKFBM@BOTH_FORCEJUMP1@ 40050f24     ui_main.obj
 0002:00009f34       ??_C@_0BB@CIEHHKPA@BOTH_FORCEINAIR1@ 40050f34     ui_main.obj
 0002:00009f48       ??_C@_0BA@NIOKNDAB@BOTH_FORCELAND1@ 40050f48     ui_main.obj
 0002:00009f58       ??_C@_0BE@CBNAONFO@BOTH_FORCEJUMPBACK1@ 40050f58     ui_main.obj
 0002:00009f6c       ??_C@_0BF@IOJLBGMP@BOTH_FORCEINAIRBACK1@ 40050f6c     ui_main.obj
 0002:00009f84       ??_C@_0BE@MAPMDBFK@BOTH_FORCELANDBACK1@ 40050f84     ui_main.obj
 0002:00009f98       ??_C@_0BE@MOPODOJB@BOTH_FORCEJUMPLEFT1@ 40050f98     ui_main.obj
 0002:00009fac       ??_C@_0BF@GBLFMFAA@BOTH_FORCEINAIRLEFT1@ 40050fac     ui_main.obj
 0002:00009fc4       ??_C@_0BE@CPNCOCJF@BOTH_FORCELANDLEFT1@ 40050fc4     ui_main.obj
 0002:00009fd8       ??_C@_0BF@GIALLFOK@BOTH_FORCEJUMPRIGHT1@ 40050fd8     ui_main.obj
 0002:00009ff0       ??_C@_0BG@OPKMFNMD@BOTH_FORCEINAIRRIGHT1@ 40050ff0     ui_main.obj
 0002:0000a008       ??_C@_0BF@GPIHFNCP@BOTH_FORCELANDRIGHT1@ 40051008     ui_main.obj
 0002:0000a020       ??_C@_0M@EEBNKFFB@BOTH_FLIP_F@ 40051020     ui_main.obj
 0002:0000a02c       ??_C@_0M@CAHBGAFF@BOTH_FLIP_B@ 4005102c     ui_main.obj
 0002:0000a038       ??_C@_0M@LOPCENNL@BOTH_FLIP_L@ 40051038     ui_main.obj
 0002:0000a044       ??_C@_0M@GKLDHCAE@BOTH_FLIP_R@ 40051044     ui_main.obj
 0002:0000a050       ??_C@_0M@IDDHAIHF@BOTH_ROLL_F@ 40051050     ui_main.obj
 0002:0000a05c       ??_C@_0M@OHFLMNHB@BOTH_ROLL_B@ 4005105c     ui_main.obj
 0002:0000a068       ??_C@_0M@HJNIOAPP@BOTH_ROLL_L@ 40051068     ui_main.obj
 0002:0000a074       ??_C@_0M@KNJJNPCA@BOTH_ROLL_R@ 40051074     ui_main.obj
 0002:0000a080       ??_C@_0L@EGNACLFJ@BOTH_HOP_F@ 40051080     ui_main.obj
 0002:0000a08c       ??_C@_0L@CCLMOOFN@BOTH_HOP_B@ 4005108c     ui_main.obj
 0002:0000a098       ??_C@_0L@LMDPMDND@BOTH_HOP_L@ 40051098     ui_main.obj
 0002:0000a0a4       ??_C@_0L@GIHOPMAM@BOTH_HOP_R@ 400510a4     ui_main.obj
 0002:0000a0b0       ??_C@_0O@PFPLGFKE@BOTH_DODGE_FL@ 400510b0     ui_main.obj
 0002:0000a0c0       ??_C@_0O@CBLKFKHL@BOTH_DODGE_FR@ 400510c0     ui_main.obj
 0002:0000a0d0       ??_C@_0O@PCPCMNHI@BOTH_DODGE_BL@ 400510d0     ui_main.obj
 0002:0000a0e0       ??_C@_0O@CGLDPCKH@BOTH_DODGE_BR@ 400510e0     ui_main.obj
 0002:0000a0f0       ??_C@_0N@HBCEBGGG@BOTH_DODGE_L@ 400510f0     ui_main.obj
 0002:0000a100       ??_C@_0N@KFGFCJLJ@BOTH_DODGE_R@ 40051100     ui_main.obj
 0002:0000a110       ??_C@_0BD@BDDLGFBA@BOTH_DODGE_HOLD_FL@ 40051110     ui_main.obj
 0002:0000a124       ??_C@_0BD@MHHKFKMP@BOTH_DODGE_HOLD_FR@ 40051124     ui_main.obj
 0002:0000a138       ??_C@_0BD@BEDCMNMM@BOTH_DODGE_HOLD_BL@ 40051138     ui_main.obj
 0002:0000a14c       ??_C@_0BD@MAHDPCBD@BOTH_DODGE_HOLD_BR@ 4005114c     ui_main.obj
 0002:0000a160       ??_C@_0BC@NCHIKDCJ@BOTH_DODGE_HOLD_L@ 40051160     ui_main.obj
 0002:0000a174       ??_C@_0BC@GDJJMPG@BOTH_DODGE_HOLD_R@ 40051174     ui_main.obj
 0002:0000a188       ??_C@_0BB@EBJHHEMP@BOTH_ENGAGETAUNT@ 40051188     ui_main.obj
 0002:0000a19c       ??_C@_08CINMJMPG@BOTH_BOW@ 4005119c     ui_main.obj
 0002:0000a1a8       ??_C@_0O@NBLEPMIO@BOTH_MEDITATE@ 400511a8     ui_main.obj
 0002:0000a1b8       ??_C@_0BC@DILNBIJM@BOTH_MEDITATE_END@ 400511b8     ui_main.obj
 0002:0000a1cc       ??_C@_0BC@DIEHLMHO@BOTH_SHOWOFF_FAST@ 400511cc     ui_main.obj
 0002:0000a1e0       ??_C@_0BE@LFOOJMLH@BOTH_SHOWOFF_MEDIUM@ 400511e0     ui_main.obj
 0002:0000a1f4       ??_C@_0BE@GKNCDDPP@BOTH_SHOWOFF_STRONG@ 400511f4     ui_main.obj
 0002:0000a208       ??_C@_0BC@EFMAJB@BOTH_SHOWOFF_DUAL@ 40051208     ui_main.obj
 0002:0000a21c       ??_C@_0BD@PAPJANE@BOTH_SHOWOFF_STAFF@ 4005121c     ui_main.obj
 0002:0000a230       ??_C@_0BC@DGIHLJDA@BOTH_VICTORY_FAST@ 40051230     ui_main.obj
 0002:0000a244       ??_C@_0BE@KLHOAEHD@BOTH_VICTORY_MEDIUM@ 40051244     ui_main.obj
 0002:0000a258       ??_C@_0BE@HEECKLDL@BOTH_VICTORY_STRONG@ 40051258     ui_main.obj
 0002:0000a26c       ??_C@_0BC@OIFMFNP@BOTH_VICTORY_DUAL@ 4005126c     ui_main.obj
 0002:0000a280       ??_C@_0BD@JOGFDMEG@BOTH_VICTORY_STAFF@ 40051280     ui_main.obj
 0002:0000a294       ??_C@_0BA@GLHECKNB@BOTH_ARIAL_LEFT@ 40051294     ui_main.obj
 0002:0000a2a4       ??_C@_0BB@HOMELNKD@BOTH_ARIAL_RIGHT@ 400512a4     ui_main.obj
 0002:0000a2b8       ??_C@_0BE@POJJIGPG@BOTH_CARTWHEEL_LEFT@ 400512b8     ui_main.obj
 0002:0000a2cc       ??_C@_0BF@NLFLOFGE@BOTH_CARTWHEEL_RIGHT@ 400512cc     ui_main.obj
 0002:0000a2e4       ??_C@_0P@JBLCLJDK@BOTH_FLIP_LEFT@ 400512e4     ui_main.obj
 0002:0000a2f4       ??_C@_0BA@OPOOLPHG@BOTH_FLIP_BACK1@ 400512f4     ui_main.obj
 0002:0000a304       ??_C@_0BA@MEMDOMLF@BOTH_FLIP_BACK2@ 40051304     ui_main.obj
 0002:0000a314       ??_C@_0BA@NNNINNPE@BOTH_FLIP_BACK3@ 40051314     ui_main.obj
 0002:0000a324       ??_C@_0BE@ENKLMJBI@BOTH_BUTTERFLY_LEFT@ 40051324     ui_main.obj
 0002:0000a338       ??_C@_0BF@JMFKBIFE@BOTH_BUTTERFLY_RIGHT@ 40051338     ui_main.obj
 0002:0000a350       ??_C@_0BE@INEIBMIN@BOTH_WALL_RUN_RIGHT@ 40051350     ui_main.obj
 0002:0000a364       ??_C@_0BJ@JNEELNCP@BOTH_WALL_RUN_RIGHT_FLIP@ 40051364     ui_main.obj
 0002:0000a380       ??_C@_0BJ@KEGEKGBP@BOTH_WALL_RUN_RIGHT_STOP@ 40051380     ui_main.obj
 0002:0000a39c       ??_C@_0BD@FOKEEMMD@BOTH_WALL_RUN_LEFT@ 4005139c     ui_main.obj
 0002:0000a3b0       ??_C@_0BI@LLGHOLLN@BOTH_WALL_RUN_LEFT_FLIP@ 400513b0     ui_main.obj
 0002:0000a3c8       ??_C@_0BI@ICEHPAIN@BOTH_WALL_RUN_LEFT_STOP@ 400513c8     ui_main.obj
 0002:0000a3e0       ??_C@_0BF@MPCPCKGE@BOTH_WALL_FLIP_RIGHT@ 400513e0     ui_main.obj
 0002:0000a3f8       ??_C@_0BE@ILAKMJOK@BOTH_WALL_FLIP_LEFT@ 400513f8     ui_main.obj
 0002:0000a40c       ??_C@_0BA@ICOJIKIM@BOTH_KNOCKDOWN1@ 4005140c     ui_main.obj
 0002:0000a41c       ??_C@_0BA@KJMENJEP@BOTH_KNOCKDOWN2@ 4005141c     ui_main.obj
 0002:0000a42c       ??_C@_0BA@LANPOIAO@BOTH_KNOCKDOWN3@ 4005142c     ui_main.obj
 0002:0000a43c       ??_C@_0BA@PPJOHOMJ@BOTH_KNOCKDOWN4@ 4005143c     ui_main.obj
 0002:0000a44c       ??_C@_0BA@OGIFEPII@BOTH_KNOCKDOWN5@ 4005144c     ui_main.obj
 0002:0000a45c       ??_C@_0M@BOJPECA@BOTH_GETUP1@ 4005145c     ui_main.obj
 0002:0000a468       ??_C@_0M@CKMEKHOD@BOTH_GETUP2@ 40051468     ui_main.obj
 0002:0000a474       ??_C@_0M@DDNPJGKC@BOTH_GETUP3@ 40051474     ui_main.obj
 0002:0000a480       ??_C@_0M@HMJOAAGF@BOTH_GETUP4@ 40051480     ui_main.obj
 0002:0000a48c       ??_C@_0M@GFIFDBCE@BOTH_GETUP5@ 4005148c     ui_main.obj
 0002:0000a498       ??_C@_0BF@MOAEFEDA@BOTH_GETUP_CROUCH_F1@ 40051498     ui_main.obj
 0002:0000a4b0       ??_C@_0BF@MJANPMOM@BOTH_GETUP_CROUCH_B1@ 400514b0     ui_main.obj
 0002:0000a4c8       ??_C@_0BE@BEIPAFMG@BOTH_FORCE_GETUP_F1@ 400514c8     ui_main.obj
 0002:0000a4dc       ??_C@_0BE@DPKCFGAF@BOTH_FORCE_GETUP_F2@ 400514dc     ui_main.obj
 0002:0000a4f0       ??_C@_0BE@BDIGKNBK@BOTH_FORCE_GETUP_B1@ 400514f0     ui_main.obj
 0002:0000a504       ??_C@_0BE@DIKLPONJ@BOTH_FORCE_GETUP_B2@ 40051504     ui_main.obj
 0002:0000a518       ??_C@_0BE@CBLAMPJI@BOTH_FORCE_GETUP_B3@ 40051518     ui_main.obj
 0002:0000a52c       ??_C@_0BE@GOPBFJFP@BOTH_FORCE_GETUP_B4@ 4005152c     ui_main.obj
 0002:0000a540       ??_C@_0BE@HHOKGIBO@BOTH_FORCE_GETUP_B5@ 40051540     ui_main.obj
 0002:0000a554       ??_C@_0BE@FMMHDLNN@BOTH_FORCE_GETUP_B6@ 40051554     ui_main.obj
 0002:0000a568       ??_C@_0BD@IAPFGJBO@BOTH_GETUP_BROLL_B@ 40051568     ui_main.obj
 0002:0000a57c       ??_C@_0BD@OEJJKMBK@BOTH_GETUP_BROLL_F@ 4005157c     ui_main.obj
 0002:0000a590       ??_C@_0BD@BOHGEEJA@BOTH_GETUP_BROLL_L@ 40051590     ui_main.obj
 0002:0000a5a4       ??_C@_0BD@MKDHHLEP@BOTH_GETUP_BROLL_R@ 400515a4     ui_main.obj
 0002:0000a5b8       ??_C@_0BD@ELPGHOE@BOTH_GETUP_FROLL_B@ 400515b8     ui_main.obj
 0002:0000a5cc       ??_C@_0BD@GANDKCOA@BOTH_GETUP_FROLL_F@ 400515cc     ui_main.obj
 0002:0000a5e0       ??_C@_0BD@JKDMEKGK@BOTH_GETUP_FROLL_L@ 400515e0     ui_main.obj
 0002:0000a5f4       ??_C@_0BD@EOHNHFLF@BOTH_GETUP_FROLL_R@ 400515f4     ui_main.obj
 0002:0000a608       ??_C@_0BF@GJCHNFNC@BOTH_WALL_FLIP_BACK1@ 40051608     ui_main.obj
 0002:0000a620       ??_C@_0BF@ECAKIGBB@BOTH_WALL_FLIP_BACK2@ 40051620     ui_main.obj
 0002:0000a638       ??_C@_0L@JNPKOHDB@BOTH_SPIN1@ 40051638     ui_main.obj
 0002:0000a644       ??_C@_0BD@LHONGOKG@BOTH_CEILING_CLING@ 40051644     ui_main.obj
 0002:0000a658       ??_C@_0BC@GKKAPGJM@BOTH_CEILING_DROP@ 40051658     ui_main.obj
 0002:0000a66c       ??_C@_0BA@CINBNIPK@BOTH_FJSS_TR_BL@ 4005166c     ui_main.obj
 0002:0000a67c       ??_C@_0BA@CDEAMOMG@BOTH_FJSS_TL_BR@ 4005167c     ui_main.obj
 0002:0000a68c       ??_C@_0BJ@PHBNOEEM@BOTH_RIGHTHANDCHOPPEDOFF@ 4005168c     ui_main.obj
 0002:0000a6a8       ??_C@_0BM@ELFFAKLF@BOTH_DEFLECTSLASH__R__L_FIN@ 400516a8     ui_main.obj
 0002:0000a6c4       ??_C@_0N@PBBFIKGE@BOTH_BASHED1@ 400516c4     ui_main.obj
 0002:0000a6d4       ??_C@_0O@HINNODAG@BOTH_ARIAL_F1@ 400516d4     ui_main.obj
 0002:0000a6e4       ??_C@_0BD@GDAEGPCN@BOTH_BUTTERFLY_FR1@ 400516e4     ui_main.obj
 0002:0000a6f8       ??_C@_0BD@HFLMOBFH@BOTH_BUTTERFLY_FL1@ 400516f8     ui_main.obj
 0002:0000a70c       ??_C@_0BC@BJEPANJA@BOTH_BACK_FLIP_UP@ 4005170c     ui_main.obj
 0002:0000a720       ??_C@_0BA@NPLLAIGE@BOTH_LOSE_SABER@ 40051720     ui_main.obj
 0002:0000a730       ??_C@_0BB@IIJAHOAM@BOTH_STAFF_TAUNT@ 40051730     ui_main.obj
 0002:0000a744       ??_C@_0BA@ECEJJOCF@BOTH_DUAL_TAUNT@ 40051744     ui_main.obj
 0002:0000a754       ??_C@_0L@LKOFLFIC@BOTH_A6_FB@ 40051754     ui_main.obj
 0002:0000a760       ??_C@_0L@PNLACCAF@BOTH_A6_LR@ 40051760     ui_main.obj
 0002:0000a76c       ??_C@_0N@NLKPNJAP@BOTH_A7_HILT@ 4005176c     ui_main.obj
 0002:0000a77c       ??_C@_0BA@IMOMKPBA@BOTH_ALORA_SPIN@ 4005177c     ui_main.obj
 0002:0000a78c       ??_C@_0BC@FMCCBPNO@BOTH_ALORA_FLIP_1@ 4005178c     ui_main.obj
 0002:0000a7a0       ??_C@_0BC@HHAPEMBN@BOTH_ALORA_FLIP_2@ 400517a0     ui_main.obj
 0002:0000a7b4       ??_C@_0BC@GOBEHNFM@BOTH_ALORA_FLIP_3@ 400517b4     ui_main.obj
 0002:0000a7c8       ??_C@_0BC@FIDADFOL@BOTH_ALORA_FLIP_B@ 400517c8     ui_main.obj
 0002:0000a7dc       ??_C@_0BG@EABOBAMI@BOTH_ALORA_SPIN_THROW@ 400517dc     ui_main.obj
 0002:0000a7f4       ??_C@_0BG@DCFBCKEL@BOTH_ALORA_SPIN_SLASH@ 400517f4     ui_main.obj
 0002:0000a80c       ??_C@_0BB@JJKGACDG@BOTH_ALORA_TAUNT@ 4005180c     ui_main.obj
 0002:0000a820       ??_C@_0P@KODDALBF@BOTH_ROSH_PAIN@ 40051820     ui_main.obj
 0002:0000a830       ??_C@_0P@ENOEHDDL@BOTH_ROSH_HEAL@ 40051830     ui_main.obj
 0002:0000a840       ??_C@_0BK@NBGHMOBL@BOTH_TAVION_SCEPTERGROUND@ 40051840     ui_main.obj
 0002:0000a85c       ??_C@_0BH@HFIAAKKL@BOTH_TAVION_SWORDPOWER@ 4005185c     ui_main.obj
 0002:0000a874       ??_C@_0BD@FGCDNAOB@BOTH_SCEPTER_START@ 40051874     ui_main.obj
 0002:0000a888       ??_C@_0BC@HIHKAHFB@BOTH_SCEPTER_HOLD@ 40051888     ui_main.obj
 0002:0000a89c       ??_C@_0BC@MELKBIFA@BOTH_SCEPTER_STOP@ 4005189c     ui_main.obj
 0002:0000a8b0       ??_C@_0P@FMNEHFNM@BOTH_KYLE_GRAB@ 400518b0     ui_main.obj
 0002:0000a8c0       ??_C@_0P@NNAHOJON@BOTH_KYLE_MISS@ 400518c0     ui_main.obj
 0002:0000a8d0       ??_C@_0P@NOBCGCHA@BOTH_KYLE_PA_1@ 400518d0     ui_main.obj
 0002:0000a8e0       ??_C@_0BB@JKEILKGN@BOTH_PLAYER_PA_1@ 400518e0     ui_main.obj
 0002:0000a8f4       ??_C@_0P@PFDPDBLD@BOTH_KYLE_PA_2@ 400518f4     ui_main.obj
 0002:0000a904       ??_C@_0BB@LBGFOJKO@BOTH_PLAYER_PA_2@ 40051904     ui_main.obj
 0002:0000a918       ??_C@_0BD@BPPGNPKM@BOTH_PLAYER_PA_FLY@ 40051918     ui_main.obj
 0002:0000a92c       ??_C@_0P@OMCEAAPC@BOTH_KYLE_PA_3@ 4005192c     ui_main.obj
 0002:0000a93c       ??_C@_0BB@KIHONIOP@BOTH_PLAYER_PA_3@ 4005193c     ui_main.obj
 0002:0000a950       ??_C@_0BF@HCPCIHAG@BOTH_PLAYER_PA_3_FLY@ 40051950     ui_main.obj
 0002:0000a968       ??_C@_0BA@NKEMKFLI@BOTH_BUCK_RIDER@ 40051968     ui_main.obj
 0002:0000a978       ??_C@_0BA@CFDHFDLH@BOTH_HOLD_START@ 40051978     ui_main.obj
 0002:0000a988       ??_C@_0P@EPJNGCKB@BOTH_HOLD_MISS@ 40051988     ui_main.obj
 0002:0000a998       ??_C@_0P@EDJFENCG@BOTH_HOLD_IDLE@ 40051998     ui_main.obj
 0002:0000a9a8       ??_C@_0O@HFIKEJBB@BOTH_HOLD_END@ 400519a8     ui_main.obj
 0002:0000a9b8       ??_C@_0BB@EFCJFPCD@BOTH_HOLD_ATTACK@ 400519b8     ui_main.obj
 0002:0000a9cc       ??_C@_0BA@KJAIIPAE@BOTH_HOLD_SNIFF@ 400519cc     ui_main.obj
 0002:0000a9dc       ??_C@_0P@PLIENJJJ@BOTH_HOLD_DROP@ 400519dc     ui_main.obj
 0002:0000a9ec       ??_C@_0N@CFDAGGFP@BOTH_GRABBED@ 400519ec     ui_main.obj
 0002:0000a9fc       ??_C@_0O@LAAPIANC@BOTH_RELEASED@ 400519fc     ui_main.obj
 0002:0000aa0c       ??_C@_0P@PIJKILFE@BOTH_HANG_IDLE@ 40051a0c     ui_main.obj
 0002:0000aa1c       ??_C@_0BB@CKCHJINN@BOTH_HANG_ATTACK@ 40051a1c     ui_main.obj
 0002:0000aa30       ??_C@_0P@EHILJFLF@BOTH_HANG_PAIN@ 40051a30     ui_main.obj
 0002:0000aa40       ??_C@_09PPDGHFCD@BOTH_HIT1@ 40051a40     ui_main.obj
 0002:0000aa4c       ??_C@_0BA@ILKIBIOO@BOTH_LADDER_UP1@ 40051a4c     ui_main.obj
 0002:0000aa5c       ??_C@_0BB@BOJOMJDD@BOTH_LADDER_DWN1@ 40051a5c     ui_main.obj
 0002:0000aa70       ??_C@_0BB@OMHFJNGP@BOTH_LADDER_IDLE@ 40051a70     ui_main.obj
 0002:0000aa84       ??_C@_0BC@ODIBALPH@BOTH_FLY_SHIELDED@ 40051a84     ui_main.obj
 0002:0000aa98       ??_C@_0BA@PIGFMLPF@BOTH_SWIM_IDLE1@ 40051a98     ui_main.obj
 0002:0000aaa8       ??_C@_0BB@FOFCFDFI@BOTH_SWIMFORWARD@ 40051aa8     ui_main.obj
 0002:0000aabc       ??_C@_0BC@LJIHFCKB@BOTH_SWIMBACKWARD@ 40051abc     ui_main.obj
 0002:0000aad0       ??_C@_0M@LIOOPEJI@BOTH_SLEEP1@ 40051ad0     ui_main.obj
 0002:0000aadc       ??_C@_0BB@HHHLEEDB@BOTH_SLEEP6START@ 40051adc     ui_main.obj
 0002:0000aaf0       ??_C@_0BA@CINKHNGE@BOTH_SLEEP6STOP@ 40051af0     ui_main.obj
 0002:0000ab00       ??_C@_0BB@HBPPPACM@BOTH_SLEEP1GETUP@ 40051b00     ui_main.obj
 0002:0000ab14       ??_C@_0BC@NPNJMHGC@BOTH_SLEEP1GETUP2@ 40051b14     ui_main.obj
 0002:0000ab28       ??_C@_0BB@OFKGJANF@BOTH_CHOKE1START@ 40051b28     ui_main.obj
 0002:0000ab3c       ??_C@_0BF@ICMFFJIF@BOTH_CHOKE1STARTHOLD@ 40051b3c     ui_main.obj
 0002:0000ab54       ??_C@_0M@PECDCEEJ@BOTH_CHOKE1@ 40051b54     ui_main.obj
 0002:0000ab60       ??_C@_0M@NPAOHHIK@BOTH_CHOKE2@ 40051b60     ui_main.obj
 0002:0000ab6c       ??_C@_0M@MGBFEGML@BOTH_CHOKE3@ 40051b6c     ui_main.obj
 0002:0000ab78       ??_C@_0O@CAGOCCAO@BOTH_POWERUP1@ 40051b78     ui_main.obj
 0002:0000ab88       ??_C@_0M@ODIMNEKC@BOTH_TURNON@ 40051b88     ui_main.obj
 0002:0000ab94       ??_C@_0N@JAALPHCL@BOTH_TURNOFF@ 40051b94     ui_main.obj
 0002:0000aba4       ??_C@_0N@LILLBNDA@BOTH_BUTTON1@ 40051ba4     ui_main.obj
 0002:0000abb4       ??_C@_0N@JDJGEOPD@BOTH_BUTTON2@ 40051bb4     ui_main.obj
 0002:0000abc4       ??_C@_0BB@FCMBEPCD@BOTH_BUTTON_HOLD@ 40051bc4     ui_main.obj
 0002:0000abd8       ??_C@_0BE@BFLOBGOL@BOTH_BUTTON_RELEASE@ 40051bd8     ui_main.obj
 0002:0000abec       ??_C@_0BA@IBNLMMOO@BOTH_RESISTPUSH@ 40051bec     ui_main.obj
 0002:0000abfc       ??_C@_0P@HEAGBOPG@BOTH_FORCEPUSH@ 40051bfc     ui_main.obj
 0002:0000ac0c       ??_C@_0P@HBADPLP@BOTH_FORCEPULL@ 40051c0c     ui_main.obj
 0002:0000ac1c       ??_C@_0BA@IHNHLMMO@BOTH_MINDTRICK1@ 40051c1c     ui_main.obj
 0002:0000ac2c       ??_C@_0BA@KMPKOPAN@BOTH_MINDTRICK2@ 40051c2c     ui_main.obj
 0002:0000ac3c       ??_C@_0BE@OEAHGILF@BOTH_FORCELIGHTNING@ 40051c3c     ui_main.obj
 0002:0000ac50       ??_C@_0BK@NACKCJFF@BOTH_FORCELIGHTNING_START@ 40051c50     ui_main.obj
 0002:0000ac6c       ??_C@_0BJ@KCFBGHIB@BOTH_FORCELIGHTNING_HOLD@ 40051c6c     ui_main.obj
 0002:0000ac88       ??_C@_0BM@GCBAKCPL@BOTH_FORCELIGHTNING_RELEASE@ 40051c88     ui_main.obj
 0002:0000aca4       ??_C@_0BF@FPDMFLAG@BOTH_FORCEHEAL_START@ 40051ca4     ui_main.obj
 0002:0000acbc       ??_C@_0BE@GNHNNEFM@BOTH_FORCEHEAL_STOP@ 40051cbc     ui_main.obj
 0002:0000acd0       ??_C@_0BF@DKJODMIL@BOTH_FORCEHEAL_QUICK@ 40051cd0     ui_main.obj
 0002:0000ace8       ??_C@_0P@PONJILD@BOTH_SABERPULL@ 40051ce8     ui_main.obj
 0002:0000acf8       ??_C@_0BA@BDJFPNIF@BOTH_FORCEGRIP1@ 40051cf8     ui_main.obj
 0002:0000ad08       ??_C@_0BA@CBKDJPAH@BOTH_FORCEGRIP3@ 40051d08     ui_main.obj
 0002:0000ad18       ??_C@_0BF@BAAGEEBG@BOTH_FORCEGRIP3THROW@ 40051d18     ui_main.obj
 0002:0000ad30       ??_C@_0BE@JLIMFCGH@BOTH_FORCEGRIP_HOLD@ 40051d30     ui_main.obj
 0002:0000ad44       ??_C@_0BH@JFCMGCAP@BOTH_FORCEGRIP_RELEASE@ 40051d44     ui_main.obj
 0002:0000ad5c       ??_C@_0L@EJBFFAAC@BOTH_TOSS1@ 40051d5c     ui_main.obj
 0002:0000ad68       ??_C@_0L@GCDIADMB@BOTH_TOSS2@ 40051d68     ui_main.obj
 0002:0000ad74       ??_C@_0BA@GLJOFMJL@BOTH_FORCE_RAGE@ 40051d74     ui_main.obj
 0002:0000ad84       ??_C@_0BM@OPHDEJED@BOTH_FORCE_2HANDEDLIGHTNING@ 40051d84     ui_main.obj
 0002:0000ada0       ??_C@_0CC@HEIANMP@BOTH_FORCE_2HANDEDLIGHTNING_STA@ 40051da0     ui_main.obj
 0002:0000adc4       ??_C@_0CB@MNKHBDGA@BOTH_FORCE_2HANDEDLIGHTNING_HOL@ 40051dc4     ui_main.obj
 0002:0000ade8       ??_C@_0CE@NFLNPDNI@BOTH_FORCE_2HANDEDLIGHTNING_REL@ 40051de8     ui_main.obj
 0002:0000ae0c       ??_C@_0BB@NHPCBMHH@BOTH_FORCE_DRAIN@ 40051e0c     ui_main.obj
 0002:0000ae20       ??_C@_0BH@BHMNGNLJ@BOTH_FORCE_DRAIN_START@ 40051e20     ui_main.obj
 0002:0000ae38       ??_C@_0BG@JCLNDPPK@BOTH_FORCE_DRAIN_HOLD@ 40051e38     ui_main.obj
 0002:0000ae50       ??_C@_0BJ@OBGKFMHF@BOTH_FORCE_DRAIN_RELEASE@ 40051e50     ui_main.obj
 0002:0000ae6c       ??_C@_0BM@PACMCIGF@BOTH_FORCE_DRAIN_GRAB_START@ 40051e6c     ui_main.obj
 0002:0000ae88       ??_C@_0BL@MLNFOEPE@BOTH_FORCE_DRAIN_GRAB_HOLD@ 40051e88     ui_main.obj
 0002:0000aea4       ??_C@_0BK@POJHMFNL@BOTH_FORCE_DRAIN_GRAB_END@ 40051ea4     ui_main.obj
 0002:0000aec0       ??_C@_0BJ@GKPDEPNJ@BOTH_FORCE_DRAIN_GRABBED@ 40051ec0     ui_main.obj
 0002:0000aedc       ??_C@_0BC@HHGANHBC@BOTH_FORCE_ABSORB@ 40051edc     ui_main.obj
 0002:0000aef0       ??_C@_0BI@BPAAFONF@BOTH_FORCE_ABSORB_START@ 40051ef0     ui_main.obj
 0002:0000af08       ??_C@_0BG@CBNCOJEH@BOTH_FORCE_ABSORB_END@ 40051f08     ui_main.obj
 0002:0000af20       ??_C@_0BD@FFPOEFNG@BOTH_FORCE_PROTECT@ 40051f20     ui_main.obj
 0002:0000af34       ??_C@_0BI@GLAHPFBH@BOTH_FORCE_PROTECT_FAST@ 40051f34     ui_main.obj
 0002:0000af4c       ??_C@_09FOHPNOGF@BOTH_WIND@ 40051f4c     ui_main.obj
 0002:0000af58       ??_C@_0BE@FLPJEFCO@BOTH_STAND_TO_KNEEL@ 40051f58     ui_main.obj
 0002:0000af6c       ??_C@_0BE@OBEECCKH@BOTH_KNEEL_TO_STAND@ 40051f6c     ui_main.obj
 0002:0000af80       ??_C@_0BD@OHIFPJFA@BOTH_TUSKENATTACK1@ 40051f80     ui_main.obj
 0002:0000af94       ??_C@_0BD@MMKIKKJD@BOTH_TUSKENATTACK2@ 40051f94     ui_main.obj
 0002:0000afa8       ??_C@_0BD@NFLDJLNC@BOTH_TUSKENATTACK3@ 40051fa8     ui_main.obj
 0002:0000afbc       ??_C@_0BC@BIOHNIGA@BOTH_TUSKENLUNGE1@ 40051fbc     ui_main.obj
 0002:0000afd0       ??_C@_0BC@KDENGKBK@BOTH_TUSKENTAUNT1@ 40051fd0     ui_main.obj
 0002:0000afe4       ??_C@_0BC@KKMKANGM@BOTH_COWER1_START@ 40051fe4     ui_main.obj
 0002:0000aff8       ??_C@_0M@EAAAAKHE@BOTH_COWER1@ 40051ff8     ui_main.obj
 0002:0000b004       ??_C@_0BB@JEOPOJAL@BOTH_COWER1_STOP@ 40052004     ui_main.obj
 0002:0000b018       ??_C@_0BF@LOEEPGJI@BOTH_SONICPAIN_START@ 40052018     ui_main.obj
 0002:0000b030       ??_C@_0BE@KHIIENBG@BOTH_SONICPAIN_HOLD@ 40052030     ui_main.obj
 0002:0000b044       ??_C@_0BD@KFKLMKIP@BOTH_SONICPAIN_END@ 40052044     ui_main.obj
 0002:0000b058       ??_C@_0N@EGCBKCBH@BOTH_STAND10@ 40052058     ui_main.obj
 0002:0000b068       ??_C@_0BD@DEOMOHKM@BOTH_STAND10_TALK1@ 40052068     ui_main.obj
 0002:0000b07c       ??_C@_0BD@BPMBLEGP@BOTH_STAND10_TALK2@ 4005207c     ui_main.obj
 0002:0000b090       ??_C@_0BF@EILOIEKG@BOTH_STAND10TOSTAND1@ 40052090     ui_main.obj
 0002:0000b0a8       ??_C@_0BC@EOCMNLEK@BOTH_STAND1_TALK1@ 400520a8     ui_main.obj
 0002:0000b0bc       ??_C@_0BC@GFABIIIJ@BOTH_STAND1_TALK2@ 400520bc     ui_main.obj
 0002:0000b0d0       ??_C@_0BC@HMBKLJMI@BOTH_STAND1_TALK3@ 400520d0     ui_main.obj
 0002:0000b0e4       ??_C@_09JFHBCHPF@BOTH_SIT4@ 400520e4     ui_main.obj
 0002:0000b0f0       ??_C@_09IMGKBGLE@BOTH_SIT5@ 400520f0     ui_main.obj
 0002:0000b0fc       ??_C@_0BA@JOAOOGJC@BOTH_SIT5_TALK1@ 400520fc     ui_main.obj
 0002:0000b10c       ??_C@_0BA@LFCDLFFB@BOTH_SIT5_TALK2@ 4005210c     ui_main.obj
 0002:0000b11c       ??_C@_0BA@KMDIIEBA@BOTH_SIT5_TALK3@ 4005211c     ui_main.obj
 0002:0000b12c       ??_C@_09KHEHEFHH@BOTH_SIT6@ 4005212c     ui_main.obj
 0002:0000b138       ??_C@_09LOFMHEDG@BOTH_SIT7@ 40052138     ui_main.obj
 0002:0000b144       ??_C@_0BA@FKIHNDLF@TORSO_DROPWEAP1@ 40052144     ui_main.obj
 0002:0000b154       ??_C@_0BA@CHPACHPA@TORSO_DROPWEAP4@ 40052154     ui_main.obj
 0002:0000b164       ??_C@_0BB@OACMJEDC@TORSO_RAISEWEAP1@ 40052164     ui_main.obj
 0002:0000b178       ??_C@_0BB@JNFLGAHH@TORSO_RAISEWEAP4@ 40052178     ui_main.obj
 0002:0000b18c       ??_C@_0BD@DOKMINPD@TORSO_WEAPONREADY1@ 4005218c     ui_main.obj
 0002:0000b1a0       ??_C@_0BD@BFIBNODA@TORSO_WEAPONREADY2@ 400521a0     ui_main.obj
 0002:0000b1b4       ??_C@_0BD@MJKOPHB@TORSO_WEAPONREADY3@ 400521b4     ui_main.obj
 0002:0000b1c8       ??_C@_0BD@EDNLHJLG@TORSO_WEAPONREADY4@ 400521c8     ui_main.obj
 0002:0000b1dc       ??_C@_0BE@PLMMDJNI@TORSO_WEAPONREADY10@ 400521dc     ui_main.obj
 0002:0000b1f0       ??_C@_0BC@LCPEPDLD@TORSO_WEAPONIDLE2@ 400521f0     ui_main.obj
 0002:0000b204       ??_C@_0BC@KLOPMCPC@TORSO_WEAPONIDLE3@ 40052204     ui_main.obj
 0002:0000b218       ??_C@_0BC@OEKOFEDF@TORSO_WEAPONIDLE4@ 40052218     ui_main.obj
 0002:0000b22c       ??_C@_0BD@IPNKJOGP@TORSO_WEAPONIDLE10@ 4005222c     ui_main.obj
 0002:0000b240       ??_C@_0BG@DJHHNKPJ@TORSO_SURRENDER_START@ 40052240     ui_main.obj
 0002:0000b258       ??_C@_0BF@CAMHOBIG@TORSO_SURRENDER_STOP@ 40052258     ui_main.obj
 0002:0000b270       ??_C@_0P@EDGDJEAA@TORSO_CHOKING1@ 40052270     ui_main.obj
 0002:0000b280       ??_C@_0BC@DEBJGJOG@TORSO_HANDSIGNAL1@ 40052280     ui_main.obj
 0002:0000b294       ??_C@_0BC@BPDEDKCF@TORSO_HANDSIGNAL2@ 40052294     ui_main.obj
 0002:0000b2a8       ??_C@_0BC@GCPALGE@TORSO_HANDSIGNAL3@ 400522a8     ui_main.obj
 0002:0000b2bc       ??_C@_0BC@EJGOJNKD@TORSO_HANDSIGNAL4@ 400522bc     ui_main.obj
 0002:0000b2d0       ??_C@_0BC@FAHFKMOC@TORSO_HANDSIGNAL5@ 400522d0     ui_main.obj
 0002:0000b2e4       ??_C@_0L@DOMPGAGB@LEGS_TURN1@ 400522e4     ui_main.obj
 0002:0000b2f0       ??_C@_0L@BFOCDDKC@LEGS_TURN2@ 400522f0     ui_main.obj
 0002:0000b2fc       ??_C@_0BA@MCADBFIF@LEGS_LEAN_LEFT1@ 400522fc     ui_main.obj
 0002:0000b30c       ??_C@_0BB@HCNNJMLM@LEGS_LEAN_RIGHT1@ 4005230c     ui_main.obj
 0002:0000b320       ??_C@_0O@FPAJGKKH@LEGS_CHOKING1@ 40052320     ui_main.obj
 0002:0000b330       ??_C@_0N@FFGGDFNJ@LEGS_LEFTUP1@ 40052330     ui_main.obj
 0002:0000b340       ??_C@_0N@HOELGGBK@LEGS_LEFTUP2@ 40052340     ui_main.obj
 0002:0000b350       ??_C@_0N@GHFAFHFL@LEGS_LEFTUP3@ 40052350     ui_main.obj
 0002:0000b360       ??_C@_0N@CIBBMBJM@LEGS_LEFTUP4@ 40052360     ui_main.obj
 0002:0000b370       ??_C@_0N@DBAKPANN@LEGS_LEFTUP5@ 40052370     ui_main.obj
 0002:0000b380       ??_C@_0O@JLGCDGJK@LEGS_RIGHTUP1@ 40052380     ui_main.obj
 0002:0000b390       ??_C@_0O@LAEPGFFJ@LEGS_RIGHTUP2@ 40052390     ui_main.obj
 0002:0000b3a0       ??_C@_0O@KJFEFEBI@LEGS_RIGHTUP3@ 400523a0     ui_main.obj
 0002:0000b3b0       ??_C@_0O@OGBFMCNP@LEGS_RIGHTUP4@ 400523b0     ui_main.obj
 0002:0000b3c0       ??_C@_0O@PPAOPDJO@LEGS_RIGHTUP5@ 400523c0     ui_main.obj
 0002:0000b3d0       ??_C@_0N@JMJDGNHG@LEGS_S1_LUP1@ 400523d0     ui_main.obj
 0002:0000b3e0       ??_C@_0N@LHLODOLF@LEGS_S1_LUP2@ 400523e0     ui_main.obj
 0002:0000b3f0       ??_C@_0N@KOKFAPPE@LEGS_S1_LUP3@ 400523f0     ui_main.obj
 0002:0000b400       ??_C@_0N@OBOEJJDD@LEGS_S1_LUP4@ 40052400     ui_main.obj
 0002:0000b410       ??_C@_0N@PIPPKIHC@LEGS_S1_LUP5@ 40052410     ui_main.obj
 0002:0000b420       ??_C@_0N@EDEDEEJF@LEGS_S1_RUP1@ 40052420     ui_main.obj
 0002:0000b430       ??_C@_0N@GIGOBHFG@LEGS_S1_RUP2@ 40052430     ui_main.obj
 0002:0000b440       ??_C@_0N@HBHFCGBH@LEGS_S1_RUP3@ 40052440     ui_main.obj
 0002:0000b450       ??_C@_0N@DODELANA@LEGS_S1_RUP4@ 40052450     ui_main.obj
 0002:0000b460       ??_C@_0N@CHCPIBJB@LEGS_S1_RUP5@ 40052460     ui_main.obj
 0002:0000b470       ??_C@_0N@LAMHMFP@LEGS_S3_LUP1@ 40052470     ui_main.obj
 0002:0000b480       ??_C@_0N@CACBCPJM@LEGS_S3_LUP2@ 40052480     ui_main.obj
 0002:0000b490       ??_C@_0N@DJDKBONN@LEGS_S3_LUP3@ 40052490     ui_main.obj
 0002:0000b4a0       ??_C@_0N@HGHLIIBK@LEGS_S3_LUP4@ 400524a0     ui_main.obj
 0002:0000b4b0       ??_C@_0N@GPGALJFL@LEGS_S3_LUP5@ 400524b0     ui_main.obj
 0002:0000b4c0       ??_C@_0N@NENMFFLM@LEGS_S3_RUP1@ 400524c0     ui_main.obj
 0002:0000b4d0       ??_C@_0N@PPPBAGHP@LEGS_S3_RUP2@ 400524d0     ui_main.obj
 0002:0000b4e0       ??_C@_0N@OGOKDHDO@LEGS_S3_RUP3@ 400524e0     ui_main.obj
 0002:0000b4f0       ??_C@_0N@KJKLKBPJ@LEGS_S3_RUP4@ 400524f0     ui_main.obj
 0002:0000b500       ??_C@_0N@LALAJALI@LEGS_S3_RUP5@ 40052500     ui_main.obj
 0002:0000b510       ??_C@_0N@MOKLECNB@LEGS_S4_LUP1@ 40052510     ui_main.obj
 0002:0000b520       ??_C@_0N@OFIGBBBC@LEGS_S4_LUP2@ 40052520     ui_main.obj
 0002:0000b530       ??_C@_0N@PMJNCAFD@LEGS_S4_LUP3@ 40052530     ui_main.obj
 0002:0000b540       ??_C@_0N@LDNMLGJE@LEGS_S4_LUP4@ 40052540     ui_main.obj
 0002:0000b550       ??_C@_0N@KKMHIHNF@LEGS_S4_LUP5@ 40052550     ui_main.obj
 0002:0000b560       ??_C@_0N@BBHLGLDC@LEGS_S4_RUP1@ 40052560     ui_main.obj
 0002:0000b570       ??_C@_0N@DKFGDIPB@LEGS_S4_RUP2@ 40052570     ui_main.obj
 0002:0000b580       ??_C@_0N@CDENAJLA@LEGS_S4_RUP3@ 40052580     ui_main.obj
 0002:0000b590       ??_C@_0N@GMAMJPHH@LEGS_S4_RUP4@ 40052590     ui_main.obj
 0002:0000b5a0       ??_C@_0N@HFBHKODG@LEGS_S4_RUP5@ 400525a0     ui_main.obj
 0002:0000b5b0       ??_C@_0N@GINMEJGF@LEGS_S5_LUP1@ 400525b0     ui_main.obj
 0002:0000b5c0       ??_C@_0N@EDPBBKKG@LEGS_S5_LUP2@ 400525c0     ui_main.obj
 0002:0000b5d0       ??_C@_0N@FKOKCLOH@LEGS_S5_LUP3@ 400525d0     ui_main.obj
 0002:0000b5e0       ??_C@_0N@BFKLLNCA@LEGS_S5_LUP4@ 400525e0     ui_main.obj
 0002:0000b5f0       ??_C@_0N@MLAIMGB@LEGS_S5_LUP5@ 400525f0     ui_main.obj
 0002:0000b600       ??_C@_0N@LHAMGAIG@LEGS_S5_RUP1@ 40052600     ui_main.obj
 0002:0000b610       ??_C@_0N@JMCBDDEF@LEGS_S5_RUP2@ 40052610     ui_main.obj
 0002:0000b620       ??_C@_0N@IFDKACAE@LEGS_S5_RUP3@ 40052620     ui_main.obj
 0002:0000b630       ??_C@_0N@MKHLJEMD@LEGS_S5_RUP4@ 40052630     ui_main.obj
 0002:0000b640       ??_C@_0N@NDGAKFIC@LEGS_S5_RUP5@ 40052640     ui_main.obj
 0002:0000b650       ??_C@_0N@FJDEFDPI@LEGS_S6_LUP1@ 40052650     ui_main.obj
 0002:0000b660       ??_C@_0N@HCBJAADL@LEGS_S6_LUP2@ 40052660     ui_main.obj
 0002:0000b670       ??_C@_0N@GLACDBHK@LEGS_S6_LUP3@ 40052670     ui_main.obj
 0002:0000b680       ??_C@_0N@CEEDKHLN@LEGS_S6_LUP4@ 40052680     ui_main.obj
 0002:0000b690       ??_C@_0N@DNFIJGPM@LEGS_S6_LUP5@ 40052690     ui_main.obj
 0002:0000b6a0       ??_C@_0N@IGOEHKBL@LEGS_S6_RUP1@ 400526a0     ui_main.obj
 0002:0000b6b0       ??_C@_0N@KNMJCJNI@LEGS_S6_RUP2@ 400526b0     ui_main.obj
 0002:0000b6c0       ??_C@_0N@LENCBIJJ@LEGS_S6_RUP3@ 400526c0     ui_main.obj
 0002:0000b6d0       ??_C@_0N@PLJDIOFO@LEGS_S6_RUP4@ 400526d0     ui_main.obj
 0002:0000b6e0       ??_C@_0N@OCIILPBP@LEGS_S6_RUP5@ 400526e0     ui_main.obj
 0002:0000b6f0       ??_C@_0N@PPEDFIEM@LEGS_S7_LUP1@ 400526f0     ui_main.obj
 0002:0000b700       ??_C@_0N@NEGOALIP@LEGS_S7_LUP2@ 40052700     ui_main.obj
 0002:0000b710       ??_C@_0N@MNHFDKMO@LEGS_S7_LUP3@ 40052710     ui_main.obj
 0002:0000b720       ??_C@_0N@ICDEKMAJ@LEGS_S7_LUP4@ 40052720     ui_main.obj
 0002:0000b730       ??_C@_0N@JLCPJNEI@LEGS_S7_LUP5@ 40052730     ui_main.obj
 0002:0000b740       ??_C@_0N@CAJDHBKP@LEGS_S7_RUP1@ 40052740     ui_main.obj
 0002:0000b750       ??_C@_0N@LLOCCGM@LEGS_S7_RUP2@ 40052750     ui_main.obj
 0002:0000b760       ??_C@_0N@BCKFBDCN@LEGS_S7_RUP3@ 40052760     ui_main.obj
 0002:0000b770       ??_C@_0N@FNOEIFOK@LEGS_S7_RUP4@ 40052770     ui_main.obj
 0002:0000b780       ??_C@_0N@EEPPLEKL@LEGS_S7_RUP5@ 40052780     ui_main.obj
 0002:0000b790       ??_C@_0N@MEGKIHKK@LEGS_TURN180@ 40052790     ui_main.obj
 0002:0000b7a0       ??_C@_0BA@GEODKLCB@BOTH_LEDGE_GRAB@ 400527a0     ui_main.obj
 0002:0000b7b0       ??_C@_0BA@BKECIHGH@BOTH_LEDGE_HOLD@ 400527b0     ui_main.obj
 0002:0000b7c0       ??_C@_0BA@MHCKFGEE@BOTH_LEDGE_LEFT@ 400527c0     ui_main.obj
 0002:0000b7d0       ??_C@_0BB@POANIEBE@BOTH_LEDGE_RIGHT@ 400527d0     ui_main.obj
 0002:0000b7e4       ??_C@_0BE@GNJJNMBI@BOTH_LEDGE_MERCPULL@ 400527e4     ui_main.obj
 0002:0000b7f8       ??_C@_0BI@HFIIMGKB@BOTH_SABERTAVION_STANCE@ 400527f8     ui_main.obj
 0002:0000b810       ??_C@_0BI@BOCBGNDA@BOTH_SABERDESANN_STANCE@ 40052810     ui_main.obj
 0002:0000b828       ??_C@_0L@HDOPOBKH@BOTH_CIN_1@ 40052828     ui_main.obj
 0002:0000b834       ??_C@_0L@FIMCLCGE@BOTH_CIN_2@ 40052834     ui_main.obj
 0002:0000b840       ??_C@_0L@EBNJIDCF@BOTH_CIN_3@ 40052840     ui_main.obj
 0002:0000b84c       ??_C@_0L@OJIBFOC@BOTH_CIN_4@ 4005284c     ui_main.obj
 0002:0000b858       ??_C@_0L@BHIDCEKD@BOTH_CIN_5@ 40052858     ui_main.obj
 0002:0000b864       ??_C@_0L@DMKOHHGA@BOTH_CIN_6@ 40052864     ui_main.obj
 0002:0000b870       ??_C@_0L@CFLFEGCB@BOTH_CIN_7@ 40052870     ui_main.obj
 0002:0000b87c       ??_C@_0L@KCCNFKOO@BOTH_CIN_8@ 4005287c     ui_main.obj
 0002:0000b888       ??_C@_0L@LLDGGLKP@BOTH_CIN_9@ 40052888     ui_main.obj
 0002:0000b894       ??_C@_0M@JHIHOPFJ@BOTH_CIN_10@ 40052894     ui_main.obj
 0002:0000b8a0       ??_C@_0M@IOJMNOBI@BOTH_CIN_11@ 400528a0     ui_main.obj
 0002:0000b8ac       ??_C@_0M@KFLBINNL@BOTH_CIN_12@ 400528ac     ui_main.obj
 0002:0000b8b8       ??_C@_0M@LMKKLMJK@BOTH_CIN_13@ 400528b8     ui_main.obj
 0002:0000b8c4       ??_C@_0M@PDOLCKFN@BOTH_CIN_14@ 400528c4     ui_main.obj
 0002:0000b8d0       ??_C@_0M@OKPABLBM@BOTH_CIN_15@ 400528d0     ui_main.obj
 0002:0000b8dc       ??_C@_0M@MBNNEINP@BOTH_CIN_16@ 400528dc     ui_main.obj
 0002:0000b8e8       ??_C@_0M@NIMGHJJO@BOTH_CIN_17@ 400528e8     ui_main.obj
 0002:0000b8f4       ??_C@_0M@FPFOGFFB@BOTH_CIN_18@ 400528f4     ui_main.obj
 0002:0000b900       ??_C@_0M@EGEFFEBA@BOTH_CIN_19@ 40052900     ui_main.obj
 0002:0000b90c       ??_C@_0M@JFMBFBAA@BOTH_CIN_20@ 4005290c     ui_main.obj
 0002:0000b918       ??_C@_0M@IMNKGAEB@BOTH_CIN_21@ 40052918     ui_main.obj
 0002:0000b924       ??_C@_0M@KHPHDDIC@BOTH_CIN_22@ 40052924     ui_main.obj
 0002:0000b930       ??_C@_0M@LOOMACMD@BOTH_CIN_23@ 40052930     ui_main.obj
 0002:0000b93c       ??_C@_0M@PBKNJEAE@BOTH_CIN_24@ 4005293c     ui_main.obj
 0002:0000b948       ??_C@_0M@OILGKFEF@BOTH_CIN_25@ 40052948     ui_main.obj
 0002:0000b954       ??_C@_0M@MDJLPGIG@BOTH_CIN_26@ 40052954     ui_main.obj
 0002:0000b960       ??_C@_0M@NKIAMHMH@BOTH_CIN_27@ 40052960     ui_main.obj
 0002:0000b96c       ??_C@_0M@FNBINLAI@BOTH_CIN_28@ 4005296c     ui_main.obj
 0002:0000b978       ??_C@_0M@EEADOKEJ@BOTH_CIN_29@ 40052978     ui_main.obj
 0002:0000b984       ??_C@_0M@JEADDLDH@BOTH_CIN_30@ 40052984     ui_main.obj
 0002:0000b990       ??_C@_0M@INBIAKHG@BOTH_CIN_31@ 40052990     ui_main.obj
 0002:0000b99c       ??_C@_0M@KGDFFJLF@BOTH_CIN_32@ 4005299c     ui_main.obj
 0002:0000b9a8       ??_C@_0M@LPCOGIPE@BOTH_CIN_33@ 400529a8     ui_main.obj
 0002:0000b9b4       ??_C@_0M@PAGPPODD@BOTH_CIN_34@ 400529b4     ui_main.obj
 0002:0000b9c0       ??_C@_0M@OJHEMPHC@BOTH_CIN_35@ 400529c0     ui_main.obj
 0002:0000b9cc       ??_C@_0M@MCFJJMLB@BOTH_CIN_36@ 400529cc     ui_main.obj
 0002:0000b9d8       ??_C@_0M@NLECKNPA@BOTH_CIN_37@ 400529d8     ui_main.obj
 0002:0000b9e4       ??_C@_0M@FMNKLBDP@BOTH_CIN_38@ 400529e4     ui_main.obj
 0002:0000b9f0       ??_C@_0M@EFMBIAHO@BOTH_CIN_39@ 400529f0     ui_main.obj
 0002:0000b9fc       ??_C@_0M@JBEMCNLC@BOTH_CIN_40@ 400529fc     ui_main.obj
 0002:0000ba08       ??_C@_0M@IIFHBMPD@BOTH_CIN_41@ 40052a08     ui_main.obj
 0002:0000ba14       ??_C@_0M@KDHKEPDA@BOTH_CIN_42@ 40052a14     ui_main.obj
 0002:0000ba20       ??_C@_0M@LKGBHOHB@BOTH_CIN_43@ 40052a20     ui_main.obj
 0002:0000ba2c       ??_C@_0M@PFCAOILG@BOTH_CIN_44@ 40052a2c     ui_main.obj
 0002:0000ba38       ??_C@_0M@OMDLNJPH@BOTH_CIN_45@ 40052a38     ui_main.obj
 0002:0000ba44       ??_C@_0M@MHBGIKDE@BOTH_CIN_46@ 40052a44     ui_main.obj
 0002:0000ba50       ??_C@_0M@NOANLLHF@BOTH_CIN_47@ 40052a50     ui_main.obj
 0002:0000ba5c       ??_C@_0M@FJJFKHLK@BOTH_CIN_48@ 40052a5c     ui_main.obj
 0002:0000ba68       ??_C@_0M@EAIOJGPL@BOTH_CIN_49@ 40052a68     ui_main.obj
 0002:0000ba74       ??_C@_0M@JAIOEHIF@BOTH_CIN_50@ 40052a74     ui_main.obj
 0002:0000ba80       ??_C@_0O@CKCHNCID@BOTH_P1_S1_B_@ 40052a80     ui_main.obj
 0002:0000ba90       ??_C@_0O@CAOCNLJK@BOTH_P6_S1_B_@ 40052a90     ui_main.obj
 0002:0000baa0       ??_C@_0O@OMEINLAE@BOTH_P7_S1_B_@ 40052aa0     ui_main.obj
 0002:0000bab0       ??_C@_0BG@BKINAJCK@gfx?1mp?1f_icon_lt_heal@ 40052ab0     ui_main.obj
 0002:0000bac8       ??_C@_0BJ@DCGHGAMM@gfx?1mp?1f_icon_levitation@ 40052ac8     ui_main.obj
 0002:0000bae4       ??_C@_0BE@GACMMIP@gfx?1mp?1f_icon_speed@ 40052ae4     ui_main.obj
 0002:0000baf8       ??_C@_0BD@CDNNBOGJ@gfx?1mp?1f_icon_push@ 40052af8     ui_main.obj
 0002:0000bb0c       ??_C@_0BD@FAMLDPCA@gfx?1mp?1f_icon_pull@ 40052b0c     ui_main.obj
 0002:0000bb20       ??_C@_0BL@GPKCAHJD@gfx?1mp?1f_icon_lt_telepathy@ 40052b20     ui_main.obj
 0002:0000bb3c       ??_C@_0BG@PPAEAKKK@gfx?1mp?1f_icon_dk_grip@ 40052b3c     ui_main.obj
 0002:0000bb54       ??_C@_0BE@FIGKNCGE@gfx?1mp?1f_icon_dk_l1@ 40052b54     ui_main.obj
 0002:0000bb68       ??_C@_0BG@CIIDCBDH@gfx?1mp?1f_icon_dk_rage@ 40052b68     ui_main.obj
 0002:0000bb80       ??_C@_0BJ@BNJGHMKP@gfx?1mp?1f_icon_lt_protect@ 40052b80     ui_main.obj
 0002:0000bb9c       ??_C@_0BI@JGABMFHN@gfx?1mp?1f_icon_lt_absorb@ 40052b9c     ui_main.obj
 0002:0000bbb4       ??_C@_0BL@PHMODMPE@gfx?1mp?1f_icon_lt_healother@ 40052bb4     ui_main.obj
 0002:0000bbd0       ??_C@_0BM@INELODPO@gfx?1mp?1f_icon_dk_forceother@ 40052bd0     ui_main.obj
 0002:0000bbec       ??_C@_0BH@JNFFMKGL@gfx?1mp?1f_icon_dk_drain@ 40052bec     ui_main.obj
 0002:0000bc04       ??_C@_0BE@IDOBHAPF@gfx?1mp?1f_icon_sight@ 40052c04     ui_main.obj
 0002:0000bc18       ??_C@_0BL@FEKHDPBD@gfx?1mp?1f_icon_saber_attack@ 40052c18     ui_main.obj
 0002:0000bc34       ??_C@_0BL@NEBHBNKD@gfx?1mp?1f_icon_saber_defend@ 40052c34     ui_main.obj
 0002:0000bc50       ??_C@_0BK@FEFIMOAO@gfx?1mp?1f_icon_saber_throw@ 40052c50     ui_main.obj
 0002:0000bc6c       ??_C@_0BG@FIPOPOLI@gfx?1mp?1f_icon_dk_heal@ 40052c6c     ui_main.obj
 0002:0000bc84       ??_C@_0BL@ELCNKGHD@gfx?1mp?1f_icon_dk_telepathy@ 40052c84     ui_main.obj
 0002:0000bca0       ??_C@_0BG@LNHHPNDI@gfx?1mp?1f_icon_lt_grip@ 40052ca0     ui_main.obj
 0002:0000bcb8       ??_C@_0BE@FGIJFAFK@gfx?1mp?1f_icon_lt_l1@ 40052cb8     ui_main.obj
 0002:0000bccc       ??_C@_0BG@GKPANGKF@gfx?1mp?1f_icon_lt_rage@ 40052ccc     ui_main.obj
 0002:0000bce4       ??_C@_0BJ@HBPAEHIP@gfx?1mp?1f_icon_dk_protect@ 40052ce4     ui_main.obj
 0002:0000bd00       ??_C@_0BI@PGKPAICJ@gfx?1mp?1f_icon_dk_absorb@ 40052d00     ui_main.obj
 0002:0000bd18       ??_C@_0BL@NDEBJNBE@gfx?1mp?1f_icon_dk_healother@ 40052d18     ui_main.obj
 0002:0000bd34       ??_C@_0BM@CNGFIOCH@gfx?1mp?1f_icon_lt_forceother@ 40052d34     ui_main.obj
 0002:0000bd50       ??_C@_0BH@IDBGELPE@gfx?1mp?1f_icon_lt_drain@ 40052d50     ui_main.obj
 0002:0000bd68       ??_C@_0CD@JFEKEMDM@?$EAMENUS_OF_EFFECT_JEDI_ONLY_NEFF@ 40052d68     ui_main.obj
 0002:0000bd8c       ??_C@_0CA@FCHFBBFK@?$EAMENUS_DURATION_IMMEDIATE_NAREA@ 40052d8c     ui_main.obj
 0002:0000bdac       ??_C@_0CA@BAMODECF@?$EAMENUS_DURATION_5_SECONDS_NAREA@ 40052dac     ui_main.obj
 0002:0000bdcc       ??_C@_0BO@MLLCDKK@?$EAMENUS_DURATION_INSTANTANEOUS@ 40052dcc     ui_main.obj
 0002:0000bdec       ??_C@_0CC@EMMJLAJE@?$EAMENUS_INSTANTANEOUS_EFFECT_NAR@ 40052dec     ui_main.obj
 0002:0000be10       ??_C@_0BM@NNNJHPKF@?$EAMENUS_DURATION_VARIABLE_20@ 40052e10     ui_main.obj
 0002:0000be2c       ??_C@_0CE@IGOECCFO@?$EAMENUS_DURATION_INSTANTANEOUS_N@ 40052e2c     ui_main.obj
 0002:0000be50       ??_C@_0CA@CILKADCI@?$EAMENUS_OF_EFFECT_LIVING_PERSONS@ 40052e50     ui_main.obj
 0002:0000be70       ??_C@_0BM@NPJPMBPM@?$EAMENUS_DURATION_VARIABLE_10@ 40052e70     ui_main.obj
 0002:0000be8c       ??_C@_0BP@MOHOGCJM@?$EAMENUS_DURATION_VARIABLE_NAREA@ 40052e8c     ui_main.obj
 0002:0000beac       ??_C@_0CB@OJAAOCHI@?$EAMENUS_DURATION_CONTINUOUS_NARE@ 40052eac     ui_main.obj
 0002:0000bed0       ??_C@_0CF@EDKMOJBH@?$EAMENUS_OF_EFFECT_JEDI_ALLIES_NE@ 40052ed0     ui_main.obj
 0002:0000bef8       ??_C@_0CC@JPECEAOP@?$EAMENUS_EFFECT_JEDI_ALLIES_NEFFE@ 40052ef8     ui_main.obj
 0002:0000bf1c       ??_C@_0CA@NLHLJDDE@?$EAMENUS_VARIABLE_NAREA_OF_EFFECT@ 40052f1c     ui_main.obj
 0002:0000bf3c       ??_C@_0BO@LIFCFJLD@?$EAMENUS_EFFECT_NAREA_OF_EFFECT@ 40052f3c     ui_main.obj
 0002:0000bf5c       ??_C@_0CE@BFOJMIJM@?$EASP_INGAME_FORCE_SABER_OFFENSE_@ 40052f5c     ui_main.obj
 0002:0000bf80       ??_C@_0CE@IFLOKFMP@?$EASP_INGAME_FORCE_SABER_DEFENSE_@ 40052f80     ui_main.obj
 0002:0000bfa4       ??_C@_0CC@CPCLFBLH@?$EASP_INGAME_FORCE_SABER_THROW_DE@ 40052fa4     ui_main.obj
 0002:0000bfc8       ??_C@_0BC@FGDOMIPE@?$EAMENUS_ACROBATICS@ 40052fc8     ui_main.obj
 0002:0000bfdc       ??_C@_0BD@EDMMOBLM@?$EAMENUS_SINGLE_FAST@ 40052fdc     ui_main.obj
 0002:0000bff0       ??_C@_0BF@FJPIHPLJ@?$EAMENUS_SINGLE_MEDIUM@ 40052ff0     ui_main.obj
 0002:0000c008       ??_C@_0BF@IGMENAPB@?$EAMENUS_SINGLE_STRONG@ 40053008     ui_main.obj
 0002:0000c020       ??_C@_0BD@BHHJEHCD@?$EAMENUS_DUAL_SABERS@ 40053020     ui_main.obj
 0002:0000c034       ??_C@_0BD@GIKBDNLJ@?$EAMENUS_SABER_STAFF@ 40053034     ui_main.obj
 0002:0000c048       ??_C@_0BD@KHBMLJKL@?$EAMENUS_FORCE_JUMP1@ 40053048     ui_main.obj
 0002:0000c05c       ??_C@_0BI@NKDILPCG@?$EAMENUS_FORCE_JUMP1_DESC@ 4005305c     ui_main.obj
 0002:0000c074       ??_C@_0BC@MFKJJHBG@?$EAMENUS_FORCE_FLIP@ 40053074     ui_main.obj
 0002:0000c088       ??_C@_0BH@OGNMJOFA@?$EAMENUS_FORCE_FLIP_DESC@ 40053088     ui_main.obj
 0002:0000c0a0       ??_C@_0M@JBJNNKDO@?$EAMENUS_ROLL@ 400530a0     ui_main.obj
 0002:0000c0ac       ??_C@_0BB@IDKGKPGJ@?$EAMENUS_ROLL_DESC@ 400530ac     ui_main.obj
 0002:0000c0c0       ??_C@_0BJ@LGLIBDFM@?$EAMENUS_BACKFLIP_OFF_WALL@ 400530c0     ui_main.obj
 0002:0000c0dc       ??_C@_0BO@IPFCBMKG@?$EAMENUS_BACKFLIP_OFF_WALL_DESC@ 400530dc     ui_main.obj
 0002:0000c0fc       ??_C@_0BJ@IBNDFGDL@?$EAMENUS_SIDEFLIP_OFF_WALL@ 400530fc     ui_main.obj
 0002:0000c118       ??_C@_0BO@NMAPJLAB@?$EAMENUS_SIDEFLIP_OFF_WALL_DESC@ 40053118     ui_main.obj
 0002:0000c138       ??_C@_0BA@FDNKCOGP@?$EAMENUS_WALL_RUN@ 40053138     ui_main.obj
 0002:0000c148       ??_C@_0BF@DMIOGGL@?$EAMENUS_WALL_RUN_DESC@ 40053148     ui_main.obj
 0002:0000c160       ??_C@_0BG@NOKDPCPK@?$EAMENUS_WALL_GRAB_JUMP@ 40053160     ui_main.obj
 0002:0000c178       ??_C@_0BL@KDKBPNPD@?$EAMENUS_WALL_GRAB_JUMP_DESC@ 40053178     ui_main.obj
 0002:0000c194       ??_C@_0BM@DKPAIDF@?$EAMENUS_RUN_UP_WALL_BACKFLIP@ 40053194     ui_main.obj
 0002:0000c1b0       ??_C@_0CB@BMLDDGAM@?$EAMENUS_RUN_UP_WALL_BACKFLIP_DES@ 400531b0     ui_main.obj
 0002:0000c1d4       ??_C@_0BN@OOMLGNCB@?$EAMENUS_JUMPUP_FROM_KNOCKDOWN@ 400531d4     ui_main.obj
 0002:0000c1f4       ??_C@_0CC@CBCFOOCC@?$EAMENUS_JUMPUP_FROM_KNOCKDOWN_DE@ 400531f4     ui_main.obj
 0002:0000c218       ??_C@_0BP@GKDGAGAD@?$EAMENUS_JUMPKICK_FROM_KNOCKDOWN@ 40053218     ui_main.obj
 0002:0000c238       ??_C@_0CE@JEPAFPII@?$EAMENUS_JUMPKICK_FROM_KNOCKDOWN_@ 40053238     ui_main.obj
 0002:0000c25c       ??_C@_0BL@LNMGDDJH@?$EAMENUS_ROLL_FROM_KNOCKDOWN@ 4005325c     ui_main.obj
 0002:0000c278       ??_C@_0CA@MDOPGMD@?$EAMENUS_ROLL_FROM_KNOCKDOWN_DESC@ 40053278     ui_main.obj
 0002:0000c298       ??_C@_0BB@FNBGDNPI@?$EAMENUS_STAB_BACK@ 40053298     ui_main.obj
 0002:0000c2ac       ??_C@_0BG@CEHEKHLA@?$EAMENUS_STAB_BACK_DESC@ 400532ac     ui_main.obj
 0002:0000c2c4       ??_C@_0BE@DICCJLLC@?$EAMENUS_LUNGE_ATTACK@ 400532c4     ui_main.obj
 0002:0000c2d8       ??_C@_0BJ@GFNPHDCP@?$EAMENUS_LUNGE_ATTACK_DESC@ 400532d8     ui_main.obj
 0002:0000c2f4       ??_C@_0BI@FOFOEABM@?$EAMENUS_FAST_ATTACK_KATA@ 400532f4     ui_main.obj
 0002:0000c30c       ??_C@_0BN@DFNBDBFF@?$EAMENUS_FAST_ATTACK_KATA_DESC@ 4005330c     ui_main.obj
 0002:0000c32c       ??_C@_0BM@BPOHHCI@?$EAMENUS_ATTACK_ENEMYONGROUND@ 4005332c     ui_main.obj
 0002:0000c348       ??_C@_0CB@OINHPDPA@?$EAMENUS_ATTACK_ENEMYONGROUND_DES@ 40053348     ui_main.obj
 0002:0000c36c       ??_C@_0BB@IJIMDPM@?$EAMENUS_CARTWHEEL@ 4005336c     ui_main.obj
 0002:0000c380       ??_C@_0BG@JLCKPPHP@?$EAMENUS_CARTWHEEL_DESC@ 40053380     ui_main.obj
 0002:0000c398       ??_C@_0BG@HMEPFCFB@?$EAMENUS_BOTH_ROLL_STAB@ 40053398     ui_main.obj
 0002:0000c3b0       ??_C@_0BM@GNKOEKFG@?$EAMENUS_BOTH_ROLL_STAB2_DESC@ 400533b0     ui_main.obj
 0002:0000c3cc       ??_C@_0BC@NKFFFKJC@?$EAMENUS_SLASH_BACK@ 400533cc     ui_main.obj
 0002:0000c3e0       ??_C@_0BH@FHBJDKPD@?$EAMENUS_SLASH_BACK_DESC@ 400533e0     ui_main.obj
 0002:0000c3f8       ??_C@_0BD@CLLNGIMH@?$EAMENUS_FLIP_ATTACK@ 400533f8     ui_main.obj
 0002:0000c40c       ??_C@_0BI@FHJOBLIG@?$EAMENUS_FLIP_ATTACK_DESC@ 4005340c     ui_main.obj
 0002:0000c424       ??_C@_0BK@CKIAJJEO@?$EAMENUS_MEDIUM_ATTACK_KATA@ 40053424     ui_main.obj
 0002:0000c440       ??_C@_0BP@OABKPPCF@?$EAMENUS_MEDIUM_ATTACK_KATA_DESC@ 40053440     ui_main.obj
 0002:0000c460       ??_C@_0BD@PCOHHPHC@?$EAMENUS_JUMP_ATTACK@ 40053460     ui_main.obj
 0002:0000c474       ??_C@_0BI@HDKGCGPE@?$EAMENUS_JUMP_ATTACK_DESC@ 40053474     ui_main.obj
 0002:0000c48c       ??_C@_0BK@MHBLPKJA@?$EAMENUS_STRONG_ATTACK_KATA@ 4005348c     ui_main.obj
 0002:0000c4a8       ??_C@_0BP@OFNKLMEA@?$EAMENUS_STRONG_ATTACK_KATA_DESC@ 400534a8     ui_main.obj
 0002:0000c4c8       ??_C@_0BL@FPJCKKOC@?$EAMENUS_FLIP_FORWARD_ATTACK@ 400534c8     ui_main.obj
 0002:0000c4e4       ??_C@_0CA@PKLJCAFA@?$EAMENUS_FLIP_FORWARD_ATTACK_DESC@ 400534e4     ui_main.obj
 0002:0000c504       ??_C@_0BJ@HJOMIECG@?$EAMENUS_DUAL_SABERS_TWIRL@ 40053504     ui_main.obj
 0002:0000c520       ??_C@_0BO@DLHAHADI@?$EAMENUS_DUAL_SABERS_TWIRL_DESC@ 40053520     ui_main.obj
 0002:0000c540       ??_C@_0BK@KBKBOOBJ@?$EAMENUS_DUAL_SABER_BARRIER@ 40053540     ui_main.obj
 0002:0000c55c       ??_C@_0BP@HNDJBJIM@?$EAMENUS_DUAL_SABER_BARRIER_DESC@ 4005355c     ui_main.obj
 0002:0000c57c       ??_C@_0BM@CKLBFLF@?$EAMENUS_DUAL_STAB_FRONT_BACK@ 4005357c     ui_main.obj
 0002:0000c598       ??_C@_0CB@BBDEJAEB@?$EAMENUS_DUAL_STAB_FRONT_BACK_DES@ 40053598     ui_main.obj
 0002:0000c5bc       ??_C@_0BM@EJIDIEIO@?$EAMENUS_DUAL_STAB_LEFT_RIGHT@ 400535bc     ui_main.obj
 0002:0000c5d8       ??_C@_0CB@OHOKBOIB@?$EAMENUS_DUAL_STAB_LEFT_RIGHT_DES@ 400535d8     ui_main.obj
 0002:0000c5fc       ??_C@_0BL@NFPELNNO@?$EAMENUS_BOTH_ROLL_STAB_DESC@ 400535fc     ui_main.obj
 0002:0000c618       ??_C@_0BI@LEMBDGKI@?$EAMENUS_BACK_FLIP_ATTACK@ 40053618     ui_main.obj
 0002:0000c630       ??_C@_0BN@MMBMIEGK@?$EAMENUS_BACK_FLIP_ATTACK_DESC@ 40053630     ui_main.obj
 0002:0000c650       ??_C@_0BJ@MKDOPHHG@?$EAMENUS_SABER_STAFF_TWIRL@ 40053650     ui_main.obj
 0002:0000c66c       ??_C@_0BO@DLAMKMKE@?$EAMENUS_SABER_STAFF_TWIRL_DESC@ 4005366c     ui_main.obj
 0002:0000c68c       ??_C@_0BF@NLMBPCKL@?$EAMENUS_SPINNING_KATA@ 4005368c     ui_main.obj
 0002:0000c6a4       ??_C@_0BK@JAPGPAID@?$EAMENUS_SPINNING_KATA_DESC@ 400536a4     ui_main.obj
 0002:0000c6c0       ??_C@_0N@PBBICHOD@?$EAMENUS_KICK1@ 400536c0     ui_main.obj
 0002:0000c6d0       ??_C@_0BC@EMMGIDH@?$EAMENUS_KICK1_DESC@ 400536d0     ui_main.obj
 0002:0000c6e4       ??_C@_0BB@POJMFBKP@?$EAMENUS_JUMP_KICK@ 400536e4     ui_main.obj
 0002:0000c6f8       ??_C@_0BG@LGDPINKM@?$EAMENUS_JUMP_KICK_DESC@ 400536f8     ui_main.obj
 0002:0000c710       ??_C@_0BI@EAPBGPJK@?$EAMENUS_BUTTERFLY_ATTACK@ 40053710     ui_main.obj
 0002:0000c728       ??_C@_0BN@PFEDOOIN@?$EAMENUS_BUTTERFLY_ATTACK_DESC@ 40053728     ui_main.obj
 0002:0000c758       ??_C@_09JIHDCCKI@MENUS_ALL@ 40053758     ui_main.obj
 0002:0000c764       ??_C@_0BH@DGPNFOJE@OJP_MENUS_OJP_ENHANCED@ 40053764     ui_main.obj
 0002:0000c77c       ??_C@_0M@HCKGBPHL@ojpenhanced@ 4005377c     ui_main.obj
 0002:0000c788       ??_C@_06COMNIHKP@SKILL1@   40053788     ui_main.obj
 0002:0000c790       ??_C@_06FOANEGM@SKILL2@    40053790     ui_main.obj
 0002:0000c798       ??_C@_06BMPLOFCN@SKILL3@   40053798     ui_main.obj
 0002:0000c7a0       ??_C@_06FDLKHDOK@SKILL4@   400537a0     ui_main.obj
 0002:0000c7a8       ??_C@_06EKKBECKL@SKILL5@   400537a8     ui_main.obj
 0002:0000c7b0       ??_C@_03PNLBKIDE@FFA@      400537b0     ui_main.obj
 0002:0000c7b4       ??_C@_08GHJCMMPJ@Holocron@ 400537b4     ui_main.obj
 0002:0000c7c0       ??_C@_0L@LGDENMFJ@JediMaster@ 400537c0     ui_main.obj
 0002:0000c7cc       ??_C@_04EPBLILKF@Duel@     400537cc     ui_main.obj
 0002:0000c7d4       ??_C@_09GJIMILPC@PowerDuel@ 400537d4     ui_main.obj
 0002:0000c7e0       ??_C@_02NEPPOLFA@SP@       400537e0     ui_main.obj
 0002:0000c7e4       ??_C@_08NFCDKJPC@Team?5FFA@ 400537e4     ui_main.obj
 0002:0000c7f0       ??_C@_05JOPHEEP@Siege@     400537f0     ui_main.obj
 0002:0000c7f8       ??_C@_03JKIMLJNP@CTF@      400537f8     ui_main.obj
 0002:0000c7fc       ??_C@_03FHNGLHEB@CTY@      400537fc     ui_main.obj
 0002:0000c800       ??_C@_0P@IBIEBGEO@TeamTournament@ 40053800     ui_main.obj
 0002:0000c810       ??_C@_03BBKEAIF@?$DP?$DP?$DP@ 40053810     ui_main.obj
 0002:0000c814       ??_C@_03OPEAKHDL@UDP@      40053814     ui_main.obj
 0002:0000c818       ??_C@_03CGHJMOLI@IPX@      40053818     ui_main.obj
 0002:0000c81c       ??_C@_01GBGANLPD@0@        4005381c     ui_main.obj
 0002:0000c820       ??_C@_01HIHLOKLC@1@        40053820     ui_main.obj
 0002:0000c824       ??_C@_0BB@BEFKGBGO@ui?1jampmenus?4txt@ 40053824     ui_main.obj
 0002:0000c838       ??_C@_0P@JHKJFGCC@ui_menuFilesMP@ 40053838     ui_main.obj
 0002:0000c848       ??_C@_04OHJIHAFH@None@     40053848     ui_main.obj
 0002:0000c850       ??_C@_02IJDFDKEE@95@       40053850     ui_main.obj
 0002:0000c854       ??_C@_02PEECMOAB@90@       40053854     ui_main.obj
 0002:0000c858       ??_C@_02IIPHFAHD@85@       40053858     ui_main.obj
 0002:0000c85c       ??_C@_02PFIAKEDG@80@       4005385c     ui_main.obj
 0002:0000c860       ??_C@_02IDKLBHEO@75@       40053860     ui_main.obj
 0002:0000c864       ??_C@_02PONMODAL@70@       40053864     ui_main.obj
 0002:0000c868       ??_C@_02ICGJHNHJ@65@       40053868     ui_main.obj
 0002:0000c86c       ??_C@_02PPBOIJDM@60@       4005386c     ui_main.obj
 0002:0000c870       ??_C@_02IACPMDCA@55@       40053870     ui_main.obj
 0002:0000c874       ??_C@_02PNFIDHGF@50@       40053874     ui_main.obj
 0002:0000c878       ??_C@_02IBONKJBH@45@       40053878     ui_main.obj
 0002:0000c87c       ??_C@_02PMJKFNFC@40@       4005387c     ui_main.obj
 0002:0000c880       ??_C@_02IEKCLPJC@35@       40053880     ui_main.obj
 0002:0000c884       ??_C@_02PJNFELNH@30@       40053884     ui_main.obj
 0002:0000c888       ??_C@_02IFGANFKF@25@       40053888     ui_main.obj
 0002:0000c88c       ??_C@_02PIBHCBOA@20@       4005388c     ui_main.obj
 0002:0000c890       ??_C@_02IHCGGLPM@15@       40053890     ui_main.obj
 0002:0000c894       ??_C@_02PKFBJPLJ@10@       40053894     ui_main.obj
 0002:0000c898       ??_C@_01BMBHCPLG@5@        40053898     ui_main.obj
 0002:0000c89c       ??_C@_0BA@FGIINJDJ@ui_captureLimit@ 4005389c     ui_main.obj
 0002:0000c8ac       ??_C@_0N@HALAPIBD@ui_fragLimit@ 400538ac     ui_main.obj
 0002:0000c8bc       ??_C@_0BB@GFAHJNNM@ui_currentNetMap@ 400538bc     ui_main.obj
 0002:0000c8d0       ??_C@_0O@IGABJOOG@ui_currentMap@ 400538d0     ui_main.obj
 0002:0000c8e0       ??_C@_0BA@FLODEJIK@ui_opponentName@ 400538e0     ui_main.obj
 0002:0000c8f0       ??_C@_0BC@HCNILCAE@cg_selectedPlayer@ 400538f0     ui_main.obj
 0002:0000c904       ??_C@_0BG@ICIOFDPB@cg_selectedPlayerName@ 40053904     ui_main.obj
 0002:0000c91c       ??_C@_0N@EKFFDIFK@ui_siegeInfo@ 4005391c     ui_main.obj
 0002:0000c92c       ??_C@_02BBAHNLBA@?$CFp@    4005392c     ui_main.obj
 0002:0000c930       ??_C@_0BD@IAGLKLFM@players?1_humanoid?1@ 40053930     ui_main.obj
 0002:0000c944       ??_C@_0DB@PNFBPLKE@?$CFs?5exceeds?5the?5allowed?5ui?9side?5@ 40053944     ui_main.obj
 0002:0000c978       ??_C@_03FNPLCCOA@RED@      40053978     ui_main.obj
 0002:0000c97c       ??_C@_04CNFFLDFF@BLUE@     4005397c     ui_main.obj
 0002:0000c984       ??_C@_09GNDCBOBP@SPECTATOR@ 40053984     ui_main.obj
 0002:0000c990       ??_C@_04HEDFJGEJ@FREE@     40053990     ui_main.obj
 0002:0000c998       ??_C@_06PFPCCALD@MONTHS@   40053998     ui_main.obj
 0002:0000c9a0       ??_C@_09FBJDPOOB@MP_INGAME@ 400539a0     ui_main.obj
 0002:0000c9ac       ??_C@_03JIHJHPIE@Jan@      400539ac     ui_main.obj
 0002:0000c9b0       ??_C@_0M@POGPACHD@NET_SOURCES@ 400539b0     ui_main.obj
 0002:0000c9bc       ??_C@_02HHFHKOHM@?$DP?$DP@ 400539bc     ui_main.obj
 0002:0000c9c0       ??_C@_0BL@LDKEDAHM@ui?1assets?1gradientbar2?4tga@ 400539c0     ui_main.obj
 0002:0000c9dc       ??_C@_0BB@OMABGHIG@menu?1art?1fx_base@ 400539dc     ui_main.obj
 0002:0000c9f0       ??_C@_0BA@NNOEOMD@menu?1art?1fx_red@ 400539f0     ui_main.obj
 0002:0000ca00       ??_C@_0BD@MCKJDHGG@menu?1art?1fx_orange@ 40053a00     ui_main.obj
 0002:0000ca14       ??_C@_0BA@BCAGEDMK@menu?1art?1fx_yel@ 40053a14     ui_main.obj
 0002:0000ca24       ??_C@_0BA@IJJPLEBB@menu?1art?1fx_grn@ 40053a24     ui_main.obj
 0002:0000ca34       ??_C@_0BB@BKOGMDOJ@menu?1art?1fx_blue@ 40053a34     ui_main.obj
 0002:0000ca48       ??_C@_0BD@NFOJMJOG@menu?1art?1fx_purple@ 40053a48     ui_main.obj
 0002:0000ca5c       ??_C@_0BC@GAPGDHHF@menu?1art?1fx_white@ 40053a5c     ui_main.obj
 0002:0000ca70       ??_C@_0BI@FDOMFDJL@gfx?1menus?1scrollbar?4tga@ 40053a70     ui_main.obj
 0002:0000ca88       ??_C@_0CE@COBFEBJB@gfx?1menus?1scrollbar_arrow_dwn_a@ 40053a88     ui_main.obj
 0002:0000caac       ??_C@_0CD@CMMKEMFC@gfx?1menus?1scrollbar_arrow_up_a?4@ 40053aac     ui_main.obj
 0002:0000cad0       ??_C@_0CD@HGBCPEJO@gfx?1menus?1scrollbar_arrow_left?4@ 40053ad0     ui_main.obj
 0002:0000caf4       ??_C@_0CE@EBDHDKAC@gfx?1menus?1scrollbar_arrow_right@ 40053af4     ui_main.obj
 0002:0000cb18       ??_C@_0BO@OGCKOCFI@gfx?1menus?1scrollbar_thumb?4tga@ 40053b18     ui_main.obj
 0002:0000cb38       ??_C@_0BA@IIPDBPAH@menu?1new?1slider@ 40053b38     ui_main.obj
 0002:0000cb48       ??_C@_0BF@IMFGDGLA@menu?1new?1sliderthumb@ 40053b48     ui_main.obj
 0002:0000cb60       ??_C@_0BD@LPALACOE@gfx?1menus?1needpass@ 40053b60     ui_main.obj
 0002:0000cb74       ??_C@_0BC@PCEOGHHG@gfx?1menus?1noforce@ 40053b74     ui_main.obj
 0002:0000cb88       ??_C@_0BI@PKLLBMCM@gfx?1menus?1forcerestrict@ 40053b88     ui_main.obj
 0002:0000cba0       ??_C@_0BE@DNNKMCEA@gfx?1menus?1saberonly@ 40053ba0     ui_main.obj
 0002:0000cbb4       ??_C@_0BD@FAGPOKAI@gfx?1menus?1truejedi@ 40053bb4     ui_main.obj
 0002:0000cbc8       ??_C@_0BD@PPPBDMEH@gfx?12d?1crosshair?$CFc@ 40053bc8     ui_main.obj
 0002:0000cbdc       ??_C@_02HAOIJKIC@?$CFc@    40053bdc     ui_main.obj
 0002:0000cbe0       ??_C@_0P@GDCMABHL@cg_cameraOrbit@ 40053be0     ui_main.obj
 0002:0000cbf0       ??_C@_0P@OPFJLCMG@cg_thirdPerson@ 40053bf0     ui_main.obj
 0002:0000cc00       ??_C@_0O@JEEKIFAP@sv_killserver@ 40053c00     ui_main.obj
 0002:0000cc10       ??_C@_05ONEOBAM@?$CFs_?$CFs@ 40053c10     ui_main.obj
 0002:0000cc18       ??_C@_0CK@ECPONHFG@?$FO1menu?5file?5not?5found?3?5?$CFs?0?5usin@ 40053c18     ui_main.obj
 0002:0000cc44       ??_C@_0DD@JILOANNP@?$FO1menu?5file?5too?5large?3?5?$CFs?5is?5?$CFi@ 40053c44     ui_main.obj
 0002:0000cc78       ??_C@_04EFPADHIC@font@     40053c78     ui_main.obj
 0002:0000cc80       ??_C@_09DOKKJGBA@smallFont@ 40053c80     ui_main.obj
 0002:0000cc8c       ??_C@_0L@KDLFEFGB@small2Font@ 40053c8c     ui_main.obj
 0002:0000cc98       ??_C@_07LOCAKBOA@bigFont@  40053c98     ui_main.obj
 0002:0000cca0       ??_C@_06CHDIMBDP@cursor@   40053ca0     ui_main.obj
 0002:0000cca8       ??_C@_0CH@MFNDJLKG@Bad?51st?5parameter?5for?5keyword?5?8@ 40053ca8     ui_main.obj
 0002:0000ccd0       ??_C@_02JCPHEAGH@?$FO3@    40053cd0     ui_main.obj
 0002:0000ccd4       ??_C@_0M@KMLBJNNP@gradientbar@ 40053cd4     ui_main.obj
 0002:0000cce0       ??_C@_0P@HOFNPEDB@menuEnterSound@ 40053ce0     ui_main.obj
 0002:0000ccf0       ??_C@_0O@CCIDDBMD@menuExitSound@ 40053cf0     ui_main.obj
 0002:0000cd00       ??_C@_0P@IGAMHAPB@itemFocusSound@ 40053d00     ui_main.obj
 0002:0000cd10       ??_C@_0O@JDBLIAHI@menuBuzzSound@ 40053d10     ui_main.obj
 0002:0000cd20       ??_C@_09DPBPOIDH@fadeClamp@ 40053d20     ui_main.obj
 0002:0000cd2c       ??_C@_09LGBLEGN@fadeCycle@ 40053d2c     ui_main.obj
 0002:0000cd38       ??_C@_0L@JDDHILPC@fadeAmount@ 40053d38     ui_main.obj
 0002:0000cd44       ??_C@_07OPNIPHMJ@shadowX@  40053d44     ui_main.obj
 0002:0000cd4c       ??_C@_07PGMDMGII@shadowY@  40053d4c     ui_main.obj
 0002:0000cd54       ??_C@_0M@JPJLLJDB@shadowColor@ 40053d54     ui_main.obj
 0002:0000cd60       ??_C@_0O@KNDMGBMI@moveRollSound@ 40053d60     ui_main.obj
 0002:0000cd70       ??_C@_0O@MMHPJOBP@moveJumpSound@ 40053d70     ui_main.obj
 0002:0000cd80       ??_C@_0BH@IHAPPKBC@datapadmoveSaberSound1@ 40053d80     ui_main.obj
 0002:0000cd98       ??_C@_0BH@KMCCKJNB@datapadmoveSaberSound2@ 40053d98     ui_main.obj
 0002:0000cdb0       ??_C@_0BH@LFDJJIJA@datapadmoveSaberSound3@ 40053db0     ui_main.obj
 0002:0000cdc8       ??_C@_0BH@PKHIAOFH@datapadmoveSaberSound4@ 40053dc8     ui_main.obj
 0002:0000cde0       ??_C@_0BH@ODGDDPBG@datapadmoveSaberSound5@ 40053de0     ui_main.obj
 0002:0000cdf8       ??_C@_0BH@MIEOGMNF@datapadmoveSaberSound6@ 40053df8     ui_main.obj
 0002:0000ce10       ??_C@_0O@GIEOJPBC@precacheSound@ 40053e10     ui_main.obj
 0002:0000ce20       ??_C@_0P@JJKHBDCP@assetGlobalDef@ 40053e20     ui_main.obj
 0002:0000ce30       ??_C@_07MCIOFCJF@menudef@  40053e30     ui_main.obj
 0002:0000ce38       ??_C@_0BC@HIDDINCD@ui?1jamp?1menudef?4h@ 40053e38     ui_main.obj
 0002:0000ce4c       ??_C@_0CK@EJKAPAFF@?$FO3menu?5file?5not?5found?3?5?$CFs?0?5usin@ 40053e4c     ui_main.obj
 0002:0000ce78       ??_C@_0EC@MBKMCDAN@?$FO1default?5menu?5file?5not?5found?3?5@ 40053e78     ui_main.obj
 0002:0000cebc       ??_C@_08GJJFPOLP@loadmenu@ 40053ebc     ui_main.obj
 0002:0000cec8       ??_C@_0BC@JODHCHLJ@ui?1jampingame?4txt@ 40053ec8     ui_main.obj
 0002:0000cedc       ??_C@_0BF@MGJNPIJB@ui?1jamp?1gameinfo?4txt@ 40053edc     ui_main.obj
 0002:0000cef4       ??_C@_08HBHLIHAM@handicap@ 40053ef4     ui_main.obj
 0002:0000cf00       ??_C@_0M@MLHGGMAA@ui_teamName@ 40053f00     ui_main.obj
 0002:0000cf0c       ??_C@_0N@OPJELAJP@FREE_FOR_ALL@ 40053f0c     ui_main.obj
 0002:0000cf1c       ??_C@_05ONMCFNBF@MENUS@    40053f1c     ui_main.obj
 0002:0000cf24       ??_C@_0N@IFFHBAH@HOLOCRON_FFA@ 40053f24     ui_main.obj
 0002:0000cf34       ??_C@_0L@EJHINIDC@JEDIMASTER@ 40053f34     ui_main.obj
 0002:0000cf40       ??_C@_09BLDMCLOM@OJP_MENUS@ 40053f40     ui_main.obj
 0002:0000cf4c       ??_C@_04CEIEPFLJ@COOP@     40053f4c     ui_main.obj
 0002:0000cf54       ??_C@_04ECOAEGNJ@DUEL@     40053f54     ui_main.obj
 0002:0000cf5c       ??_C@_09NHOBJKNB@POWERDUEL@ 40053f5c     ui_main.obj
 0002:0000cf68       ??_C@_08JPMGIABA@TEAM_FFA@ 40053f68     ui_main.obj
 0002:0000cf74       ??_C@_05MFNFJGDH@SIEGE@    40053f74     ui_main.obj
 0002:0000cf7c       ??_C@_0BB@NFDNICPD@CAPTURE_THE_FLAG@ 40053f7c     ui_main.obj
 0002:0000cf90       ??_C@_0BG@NKPMOGAN@CAPTURE_THE_YSALIMARI@ 40053f90     ui_main.obj
 0002:0000cfa8       ??_C@_04PJHBGHKA@SAGA@     40053fa8     ui_main.obj
 0002:0000cfb0       ??_C@_0P@INPBKGBE@ui_netGameType@ 40053fb0     ui_main.obj
 0002:0000cfc0       ??_C@_0BF@MGMPAIBH@ui_actualNetGameType@ 40053fc0     ui_main.obj
 0002:0000cfd8       ??_C@_0O@JKEEFDLF@cg_autoswitch@ 40053fd8     ui_main.obj
 0002:0000cfe8       ??_C@_0M@HOLLGECH@AUTOSWITCH1@ 40053fe8     ui_main.obj
 0002:0000cff4       ??_C@_0M@FFJGDHOE@AUTOSWITCH2@ 40053ff4     ui_main.obj
 0002:0000d000       ??_C@_0M@EMINAGKF@AUTOSWITCH3@ 40054000     ui_main.obj
 0002:0000d00c       ??_C@_0M@GHKAFFGG@AUTOSWITCH0@ 4005400c     ui_main.obj
 0002:0000d018       ??_C@_0BA@PKEACILF@ui_joinGameType@ 40054018     ui_main.obj
 0002:0000d028       ??_C@_08KHGKHFFO@?$CFs_metal@ 40054028     ui_main.obj
 0002:0000d034       ??_C@_07PGAOKCOL@?$CFs_name@ 40054034     ui_main.obj
 0002:0000d03c       ??_C@_06LIMIHEAN@?$CFs?4roq@ 4005403c     ui_main.obj
 0002:0000d044       ??_C@_0P@LHEJFLIH@MENUS_TEAM_RED@ 40054044     ui_main.obj
 0002:0000d054       ??_C@_0BA@POGJPFNH@MENUS_TEAM_BLUE@ 40054054     ui_main.obj
 0002:0000d064       ??_C@_0O@LCEJIGL@MENUS_DEFAULT@ 40054064     ui_main.obj
 0002:0000d074       ??_C@_0BG@IJKFLPMB@MENUS_FORCEDESC_LIGHT@ 40054074     ui_main.obj
 0002:0000d08c       ??_C@_0L@LGILNIKN@forcealloc@ 4005408c     ui_main.obj
 0002:0000d098       ??_C@_0BA@FFAMFDAO@darkpowers_team@ 40054098     ui_main.obj
 0002:0000d0a8       ??_C@_0BB@JKOHNFAK@lightpowers_team@ 400540a8     ui_main.obj
 0002:0000d0bc       ??_C@_0BF@NOJGOFAC@MENUS_FORCEDESC_DARK@ 400540bc     ui_main.obj
 0002:0000d0d4       ??_C@_0M@HDALJKN@g_jediVmerc@ 400540d4     ui_main.obj
 0002:0000d0e0       ??_C@_08POBJANAH@MENUS_NO@ 400540e0     ui_main.obj
 0002:0000d0ec       ??_C@_09MPFFGIMJ@MENUS_YES@ 400540ec     ui_main.obj
 0002:0000d0f8       ??_C@_0M@BANABNHI@ui_blueTeam@ 400540f8     ui_main.obj
 0002:0000d104       ??_C@_0L@GHKHHDJL@ui_redTeam@ 40054104     ui_main.obj
 0002:0000d110       ??_C@_04CAKOHOCJ@Blue@     40054110     ui_main.obj
 0002:0000d118       ??_C@_03PADCEAKC@Red@      40054118     ui_main.obj
 0002:0000d11c       ??_C@_06DJHOIPC@?$CFs?3?5?$CFs@ 4005411c     ui_main.obj
 0002:0000d124       ??_C@_0O@MBOEOCIO@ui_blueteam?$CFi@ 40054124     ui_main.obj
 0002:0000d134       ??_C@_0N@BOLNHJIJ@ui_redteam?$CFi@ 40054134     ui_main.obj
 0002:0000d144       ??_C@_0O@BLJEIMIH@sv_maxClients@ 40054144     ui_main.obj
 0002:0000d154       ??_C@_06IOLFCPIM@CLOSED@   40054154     ui_main.obj
 0002:0000d15c       ??_C@_05CLBJJDHK@HUMAN@    4005415c     ui_main.obj
 0002:0000d164       ??_C@_0BH@NKLBLPLI@menu?1art?1unknownmap_mp@ 40054164     ui_main.obj
 0002:0000d17c       ??_C@_0O@LLMAEFMN@humanbotfield@ 4005417c     ui_main.obj
 0002:0000d18c       ??_C@_0BB@OFACPPDM@humanbotnonfield@ 4005418c     ui_main.obj
 0002:0000d1a0       ??_C@_0O@PJIPPKNP@ingame_player@ 400541a0     ui_main.obj
 0002:0000d1b0       ??_C@_0M@OBPKCPBG@jedinonjedi@ 400541b0     ui_main.obj
 0002:0000d1bc       ??_C@_07HEKACAEE@noforce@  400541bc     ui_main.obj
 0002:0000d1c4       ??_C@_08FGJPHEOB@yesforce@ 400541c4     ui_main.obj
 0002:0000d1d0       ??_C@_0BC@BDPIFPLC@sabernoneconfigme@ 400541d0     ui_main.obj
 0002:0000d1e4       ??_C@_08OLKDPGBD@yessaber@ 400541e4     ui_main.obj
 0002:0000d1f0       ??_C@_0M@JFACKFNB@playerapply@ 400541f0     ui_main.obj
 0002:0000d1fc       ??_C@_0BA@KOGLFJKM@playerforcejoin@ 400541fc     ui_main.obj
 0002:0000d20c       ??_C@_0P@DNKNCOFM@playerforcered@ 4005420c     ui_main.obj
 0002:0000d21c       ??_C@_0BA@HKGGDOFM@playerforceblue@ 4005421c     ui_main.obj
 0002:0000d22c       ??_C@_0BE@MJMLKIAB@playerforcespectate@ 4005422c     ui_main.obj
 0002:0000d240       ??_C@_0N@DMCGCPKM@MENUS_SOURCE@ 40054240     ui_main.obj
 0002:0000d250       ??_C@_05DNIIFBMG@?$CFs?5?$CFs@ 40054250     ui_main.obj
 0002:0000d258       ??_C@_0L@CJHDKEPC@MENUS_GAME@ 40054258     ui_main.obj
 0002:0000d264       ??_C@_0P@OGEPOBCA@ui_currentTier@ 40054264     ui_main.obj
 0002:0000d274       ??_C@_08BHLPCOBE@Tier?3?5?$CFs@ 40054274     ui_main.obj
 0002:0000d280       ??_C@_08DPIMAKME@TEAM_RED@ 40054280     ui_main.obj
 0002:0000d28c       ??_C@_09BBDECAKM@TEAM_BLUE@ 4005428c     ui_main.obj
 0002:0000d298       ??_C@_07MGCPDNLD@DEFAULT@  40054298     ui_main.obj
 0002:0000d2a0       ??_C@_0BA@DCIMPCAI@FORCEDESC_LIGHT@ 400542a0     ui_main.obj
 0002:0000d2b0       ??_C@_0P@PMJMCPLH@FORCEDESC_DARK@ 400542b0     ui_main.obj
 0002:0000d2c0       ??_C@_02NFLNFON@NO@        400542c0     ui_main.obj
 0002:0000d2c4       ??_C@_03IPHJCBHH@YES@      400542c4     ui_main.obj
 0002:0000d2c8       ??_C@_05OHCDHBAC@Human@    400542c8     ui_main.obj
 0002:0000d2d0       ??_C@_06DELKPIEN@?$CFi?4?5?$CFs@ 400542d0     ui_main.obj
 0002:0000d2d8       ??_C@_0BE@KBBNIJIF@WAITING_FOR_NEW_KEY@ 400542d8     ui_main.obj
 0002:0000d2ec       ??_C@_0BI@DIFBAOHB@ui_lastServerRefresh_?$CFi@ 400542ec     ui_main.obj
 0002:0000d304       ??_C@_09EIEABFEM@ENEMYTEAM@ 40054304     ui_main.obj
 0002:0000d310       ??_C@_0L@OJGDGPCJ@PLAYERTEAM@ 40054310     ui_main.obj
 0002:0000d31c       ??_C@_02JKAOMCMK@tl@       4005431c     ui_main.obj
 0002:0000d320       ??_C@_01PFHFFBPC@t@        40054320     ui_main.obj
 0002:0000d324       ??_C@_0O@OCOCOONB@sv_maxclients@ 40054324     ui_main.obj
 0002:0000d334       ??_C@_01EFFIKLCJ@n@        40054334     ui_main.obj
 0002:0000d338       ??_C@_08LFOMOGKF@Everyone@ 40054338     ui_main.obj
 0002:0000d344       ??_C@_03HPADHAHE@N?1A@     40054344     ui_main.obj
 0002:0000d348       ??_C@_0CA@HGNDPDMG@MP_INGAME_GETTINGINFOFORSERVERS@ 40054348     ui_main.obj
 0002:0000d368       ??_C@_0BN@CIDKCPCG@MP_INGAME_SERVER_REFRESHTIME@ 40054368     ui_main.obj
 0002:0000d388       ??_C@_0O@LCMFPEGO@GL_VENDOR?3?5?$CFs@ 40054388     ui_main.obj
 0002:0000d398       ??_C@_0BD@FDNFBAAO@GL_VERSION?3?5?$CFs?3?5?$CFs@ 40054398     ui_main.obj
 0002:0000d3ac       ??_C@_0DL@LAIIPCFN@GL_PIXELFORMAT?3?5color?$CI?$CFd?9bits?$CJ?5@ 400543ac     ui_main.obj
 0002:0000d3e8       ??_C@_0CA@MCCKBEHF@OJP?5Enhanced?5Universe?3?5v1?40?41?40@ 400543e8     ui_main.obj
 0002:0000d408       ??_C@_06IPMAANOD@color1@   40054408     ui_main.obj
 0002:0000d410       ??_C@_06JMLBDJHL@attack@   40054410     ui_main.obj
 0002:0000d418       ??_C@_06BMABBLML@defend@   40054418     ui_main.obj
 0002:0000d420       ??_C@_07ENHGAJCI@request@  40054420     ui_main.obj
 0002:0000d428       ??_C@_05INAKFKMM@reply@    40054428     ui_main.obj
 0002:0000d430       ??_C@_04OEEIACIO@spot@     40054430     ui_main.obj
 0002:0000d438       ??_C@_07BFJJCEJD@tactics@  40054438     ui_main.obj
 0002:0000d440       ??_C@_06KCOLJDNO@att_01@   40054440     ui_main.obj
 0002:0000d448       ??_C@_06IJMGMABN@att_02@   40054448     ui_main.obj
 0002:0000d450       ??_C@_06JANNPBFM@att_03@   40054450     ui_main.obj
 0002:0000d458       ??_C@_06CCHJKJKF@def_01@   40054458     ui_main.obj
 0002:0000d460       ??_C@_06JFEPKGG@def_02@    40054460     ui_main.obj
 0002:0000d468       ??_C@_06BAEPMLCH@def_03@   40054468     ui_main.obj
 0002:0000d470       ??_C@_06FPAOFNOA@def_04@   40054470     ui_main.obj
 0002:0000d478       ??_C@_06PELHELMD@req_01@   40054478     ui_main.obj
 0002:0000d480       ??_C@_06NPJKBIAA@req_02@   40054480     ui_main.obj
 0002:0000d488       ??_C@_06MGIBCJEB@req_03@   40054488     ui_main.obj
 0002:0000d490       ??_C@_06IJMALPIG@req_04@   40054490     ui_main.obj
 0002:0000d498       ??_C@_06JANLIOMH@req_05@   40054498     ui_main.obj
 0002:0000d4a0       ??_C@_06LLPGNNAE@req_06@   400544a0     ui_main.obj
 0002:0000d4a8       ??_C@_06MJNHGCHD@rep_01@   400544a8     ui_main.obj
 0002:0000d4b0       ??_C@_06OCPKDBLA@rep_02@   400544b0     ui_main.obj
 0002:0000d4b8       ??_C@_06PLOBAAPB@rep_03@   400544b8     ui_main.obj
 0002:0000d4c0       ??_C@_06LEKAJGDG@rep_04@   400544c0     ui_main.obj
 0002:0000d4c8       ??_C@_06KNLLKHHH@rep_05@   400544c8     ui_main.obj
 0002:0000d4d0       ??_C@_07NAMCGAJI@spot_01@  400544d0     ui_main.obj
 0002:0000d4d8       ??_C@_07PLOPDDFL@spot_02@  400544d8     ui_main.obj
 0002:0000d4e0       ??_C@_07OCPEACBK@spot_03@  400544e0     ui_main.obj
 0002:0000d4e8       ??_C@_07KNLFJENN@spot_04@  400544e8     ui_main.obj
 0002:0000d4f0       ??_C@_06BGNGPIAN@tac_01@   400544f0     ui_main.obj
 0002:0000d4f8       ??_C@_06DNPLKLMO@tac_02@   400544f8     ui_main.obj
 0002:0000d500       ??_C@_06CEOAJKIP@tac_03@   40054500     ui_main.obj
 0002:0000d508       ??_C@_06GLKBAMEI@tac_04@   40054508     ui_main.obj
 0002:0000d510       ??_C@_06HCLKDNAJ@tac_05@   40054510     ui_main.obj
 0002:0000d518       ??_C@_06FJJHGOMK@tac_06@   40054518     ui_main.obj
 0002:0000d520       ??_C@_0M@FKIBDECH@ui_gameType@ 40054520     ui_main.obj
 0002:0000d52c       ??_C@_0BF@NOPONDOP@ui_actualnetGameType@ 4005452c     ui_main.obj
 0002:0000d544       ??_C@_08GEJGLEOK@$modlist@ 40054544     ui_main.obj
 0002:0000d550       ??_C@_03GKCCIMFO@roq@      40054550     ui_main.obj
 0002:0000d554       ??_C@_05BPFJLLEL@video@    40054554     ui_main.obj
 0002:0000d55c       ??_C@_04PDLFDFDK@?4roq@    4005455c     ui_main.obj
 0002:0000d564       ??_C@_05BAIDJFLA@dm_?$CFd@ 40054564     ui_main.obj
 0002:0000d56c       ??_C@_05CFPGCNL@demos@     4005456c     ui_main.obj
 0002:0000d574       ??_C@_06KDKPKJKM@?4dm_?$CFd@ 40054574     ui_main.obj
 0002:0000d57c       ??_C@_08NJICDBID@skirmish@ 4005457c     ui_main.obj
 0002:0000d588       ??_C@_0BG@IEGGLJFO@wait?5?$DL?5wait?5?$DL?5map?5?$CFs?6@ 40054588     ui_main.obj
 0002:0000d5a0       ??_C@_0M@KJJNNCLO@ui_scoreMap@ 400545a0     ui_main.obj
 0002:0000d5ac       ??_C@_0O@HACBLENO@ui_maxClients@ 400545ac     ui_main.obj
 0002:0000d5bc       ??_C@_05LOPJBLNH@?$CFs_?$CFi@ 400545bc     ui_main.obj
 0002:0000d5c4       ??_C@_0BE@CELIAELA@ui_recordSPDemoName@ 400545c4     ui_main.obj
 0002:0000d5d8       ??_C@_0BL@FAEKLKLG@wait?5?$DL?5addbot?5?$CFs?5?$CFf?5?0?5?$CFi?5?6@ 400545d8     ui_main.obj
 0002:0000d5f4       ??_C@_0BJ@ENECNDNG@addbot?5?$CC?$CFs?$CC?5?$CFf?5?$CFs?5?$CFi?5?$CFs?6@ 400545f4     ui_main.obj
 0002:0000d610       ??_C@_0BC@PLCOEMKP@wait?55?$DL?5team?5Red?6@ 40054610     ui_main.obj
 0002:0000d624       ??_C@_05GPLACMP@s_khz@     40054624     ui_main.obj
 0002:0000d62c       ??_C@_0N@FJNKPAFP@snd_restart?6@ 4005462c     ui_main.obj
 0002:0000d63c       ??_C@_0L@DFFMHINA@ui_SetName@ 4005463c     ui_main.obj
 0002:0000d648       ??_C@_07KBEHLNKJ@ui_Name@  40054648     ui_main.obj
 0002:0000d650       ??_C@_0L@HKMNPIPK@ui_setRate@ 40054650     ui_main.obj
 0002:0000d65c       ??_C@_04HCCHHEEF@rate@     4005465c     ui_main.obj
 0002:0000d664       ??_C@_0O@FAEBFPEP@cl_maxpackets@ 40054664     ui_main.obj
 0002:0000d674       ??_C@_0N@HCACMDEB@cl_packetdup@ 40054674     ui_main.obj
 0002:0000d684       ??_C@_0L@MNKNEHAB@ui_GetName@ 40054684     ui_main.obj
 0002:0000d690       ??_C@_0P@MFNNJOLC@ui_r_colorbits@ 40054690     ui_main.obj
 0002:0000d6a0       ??_C@_0P@FOKPMCPI@ui_r_depthbits@ 400546a0     ui_main.obj
 0002:0000d6b0       ??_C@_0N@NHLOABKB@ui_r_lodbias@ 400546b0     ui_main.obj
 0002:0000d6c0       ??_C@_0BC@ONOLCHFM@ui_r_subdivisions@ 400546c0     ui_main.obj
 0002:0000d6d4       ??_C@_0O@DBONOGAA@ui_r_glCustom@ 400546d4     ui_main.obj
 0002:0000d6e4       ??_C@_0BA@FECIFLLB@ui_r_fullScreen@ 400546e4     ui_main.obj
 0002:0000d6f4       ??_C@_0M@LFGCJFJG@ui_r_picmip@ 400546f4     ui_main.obj
 0002:0000d700       ??_C@_09KDEPNMFH@ui_r_mode@ 40054700     ui_main.obj
 0002:0000d70c       ??_C@_0BB@MGIMHMKB@ui_r_texturebits@ 4005470c     ui_main.obj
 0002:0000d720       ??_C@_0N@IPNMEDKM@ui_r_fastSky@ 40054720     ui_main.obj
 0002:0000d730       ??_C@_0BB@PJFFEJHH@ui_r_inGameVideo@ 40054730     ui_main.obj
 0002:0000d744       ??_C@_0BI@EMKCPMIG@GL_LINEAR_MIPMAP_LINEAR@ 40054744     ui_main.obj
 0002:0000d75c       ??_C@_0BB@GBAJKCAL@ui_r_texturemode@ 4005475c     ui_main.obj
 0002:0000d770       ??_C@_0BJ@PCPDHFJH@GL_LINEAR_MIPMAP_NEAREST@ 40054770     ui_main.obj
 0002:0000d78c       ??_C@_0O@OGIMAHGE@ui_mousePitch@ 4005478c     ui_main.obj
 0002:0000d79c       ??_C@_07JIEGLHEC@m_pitch@  4005479c     ui_main.obj
 0002:0000d7a4       ??_C@_0BB@OJMPICMM@ui_mousePitchVeh@ 400547a4     ui_main.obj
 0002:0000d7b8       ??_C@_0L@EKHLDNPG@m_pitchVeh@ 400547b8     ui_main.obj
 0002:0000d7c4       ??_C@_0L@IPGLFCFH@VideoSetup@ 400547c4     ui_main.obj
 0002:0000d7d0       ??_C@_0O@ICGEAHKA@ui_r_modified@ 400547d0     ui_main.obj
 0002:0000d7e0       ??_C@_0N@NNENLBAN@RulesBackout@ 400547e0     ui_main.obj
 0002:0000d7f0       ??_C@_0BB@CNBELBNI@ui_rules_backout@ 400547f0     ui_main.obj
 0002:0000d804       ??_C@_06LBAPPDBG@r_mode@   40054804     ui_main.obj
 0002:0000d80c       ??_C@_0BA@JLJFGCCN@ui_r_fullscreen@ 4005480c     ui_main.obj
 0002:0000d81c       ??_C@_0N@JILGCMBC@r_fullscreen@ 4005481c     ui_main.obj
 0002:0000d82c       ??_C@_0M@FAHBKNDA@r_colorbits@ 4005482c     ui_main.obj
 0002:0000d838       ??_C@_09MCCGJPLJ@r_lodbias@ 40054838     ui_main.obj
 0002:0000d844       ??_C@_08PHNBMEML@r_picmip@ 40054844     ui_main.obj
 0002:0000d850       ??_C@_0O@HAOJHCNC@r_texturebits@ 40054850     ui_main.obj
 0002:0000d860       ??_C@_0O@NHGMKMHI@r_texturemode@ 40054860     ui_main.obj
 0002:0000d870       ??_C@_0BE@BMHJODHH@ui_r_detailtextures@ 40054870     ui_main.obj
 0002:0000d884       ??_C@_0BB@OJJFINJB@r_detailtextures@ 40054884     ui_main.obj
 0002:0000d898       ??_C@_0BL@OMICDKKG@ui_r_ext_compress_textures@ 40054898     ui_main.obj
 0002:0000d8b4       ??_C@_0BI@OCJAALOK@r_ext_compress_textures@ 400548b4     ui_main.obj
 0002:0000d8cc       ??_C@_0M@MLADPBHK@r_depthbits@ 400548cc     ui_main.obj
 0002:0000d8d8       ??_C@_0P@CEFBGCNE@r_subdivisions@ 400548d8     ui_main.obj
 0002:0000d8e8       ??_C@_09JKEENNLE@r_fastSky@ 400548e8     ui_main.obj
 0002:0000d8f4       ??_C@_0O@EPDAEHAE@r_inGameVideo@ 400548f4     ui_main.obj
 0002:0000d904       ??_C@_0BF@EOAMBIGF@ui_r_allowExtensions@ 40054904     ui_main.obj
 0002:0000d91c       ??_C@_0BC@HJALDEG@r_allowExtensions@ 4005491c     ui_main.obj
 0002:0000d930       ??_C@_0O@NDJCAFHK@ui_cg_shadows@ 40054930     ui_main.obj
 0002:0000d940       ??_C@_0L@MAOLAFLC@cg_shadows@ 40054940     ui_main.obj
 0002:0000d94c       ??_C@_0N@PGDAKNHB@vid_restart?$DL@ 4005494c     ui_main.obj
 0002:0000d95c       ??_C@_06IJEAFLEI@addBot@   4005495c     ui_main.obj
 0002:0000d964       ??_C@_0L@MPAGGMDN@sv_running@ 40054964     ui_main.obj
 0002:0000d970       ??_C@_0M@OODBKNJH@?$CFs?1?$CFs?$HM?$CFs?$HM?$CFs@ 40054970     ui_main.obj
 0002:0000d97c       ??_C@_0P@FBLDEJO@char_color_red@ 4005497c     ui_main.obj
 0002:0000d98c       ??_C@_0BB@ECHDKGAH@char_color_green@ 4005498c     ui_main.obj
 0002:0000d9a0       ??_C@_0BA@PDECLNK@char_color_blue@ 400549a0     ui_main.obj
 0002:0000d9b0       ??_C@_02PGHGPEOM@?91@      400549b0     ui_main.obj
 0002:0000d9b4       ??_C@_07IMDGNNHE@onteam1@  400549b4     ui_main.obj
 0002:0000d9bc       ??_C@_07KHBLIOLH@onteam2@  400549bc     ui_main.obj
 0002:0000d9c4       ??_C@_0P@CIAMGOJB@ui_siege_class@ 400549c4     ui_main.obj
 0002:0000d9d4       ??_C@_0O@CBIICKNE@class1_button@ 400549d4     ui_main.obj
 0002:0000d9e4       ??_C@_0O@BIAFBGBB@class2_button@ 400549e4     ui_main.obj
 0002:0000d9f4       ??_C@_0O@PHOACFC@class3_button@ 400549f4     ui_main.obj
 0002:0000da04       ??_C@_0O@GLBPGPJL@class4_button@ 40054a04     ui_main.obj
 0002:0000da14       ??_C@_0O@HMGEHLNI@class5_button@ 40054a14     ui_main.obj
 0002:0000da24       ??_C@_0O@EFOJEHBN@class6_button@ 40054a24     ui_main.obj
 0002:0000da34       ??_C@_0N@LANKDNDD@class_button@ 40054a34     ui_main.obj
 0002:0000da44       ??_C@_0M@EBJIILPK@class_count@ 40054a44     ui_main.obj
 0002:0000da50       ??_C@_07DOMDDELG@feeders@  40054a50     ui_main.obj
 0002:0000da58       ??_C@_0BB@JJEOAMAH@classdescription@ 40054a58     ui_main.obj
 0002:0000da6c       ??_C@_08PHCBGHMJ@minidesc@ 40054a6c     ui_main.obj
 0002:0000da78       ??_C@_0N@OCMMKHNE@obj_longdesc@ 40054a78     ui_main.obj
 0002:0000da88       ??_C@_0O@COFELBGO@objective_pic@ 40054a88     ui_main.obj
 0002:0000da98       ??_C@_05BLKJBNOD@stats@    40054a98     ui_main.obj
 0002:0000daa0       ??_C@_0BA@CJPPCFCE@forcepowerlevel@ 40054aa0     ui_main.obj
 0002:0000dab0       ??_C@_0BM@BPDOBPLD@?$CKteam?$CFi_objective?$CFi_mapicon@ 40054ab0     ui_main.obj
 0002:0000dacc       ??_C@_0M@DHPIAGKO@tm?$CFi_icon?$CFi@ 40054acc     ui_main.obj
 0002:0000dad8       ??_C@_0O@JLHBAKIH@tm?$CFi_l_icon?$CFi@ 40054ad8     ui_main.obj
 0002:0000dae8       ??_C@_0BK@JKAPHHID@team?$CFi_objective?$CFi_mappos@ 40054ae8     ui_main.obj
 0002:0000db04       ??_C@_0O@GJFOAGMG@g_saber_color@ 40054b04     ui_main.obj
 0002:0000db14       ??_C@_06KEONFOCA@color2@   40054b14     ui_main.obj
 0002:0000db1c       ??_C@_0P@HNGDHNNN@g_saber2_color@ 40054b1c     ui_main.obj
 0002:0000db2c       ??_C@_04IJNDAMHN@dual@     40054b2c     ui_main.obj
 0002:0000db34       ??_C@_05DDLOIMOJ@staff@    40054b34     ui_main.obj
 0002:0000db3c       ??_C@_0L@HEJEGEBC@box2middle@ 40054b3c     ui_main.obj
 0002:0000db48       ??_C@_0L@KOODADKK@box2bottom@ 40054b48     ui_main.obj
 0002:0000db54       ??_C@_0L@LIDOGEIM@box3middle@ 40054b54     ui_main.obj
 0002:0000db60       ??_C@_0L@GCEJADDE@box3bottom@ 40054b60     ui_main.obj
 0002:0000db6c       ??_C@_05KFODFCPJ@saber@    40054b6c     ui_main.obj
 0002:0000db74       ??_C@_0DK@GJFFNJJM@UI_UpdateSaberHilt?3?5Could?5not?5f@ 40054b74     ui_main.obj
 0002:0000dbb0       ??_C@_08LFDHABBP@?$CFi?0?$CFi?0?$CFi@ 40054bb0     ui_main.obj
 0002:0000dbbc       ??_C@_0L@JPJEHMLJ@rgb_saber1@ 40054bbc     ui_main.obj
 0002:0000dbc8       ??_C@_0L@LELJCPHK@rgb_saber2@ 40054bc8     ui_main.obj
 0002:0000dbd4       ??_C@_02NJPGOMH@?$CFf@     40054bd4     ui_main.obj
 0002:0000dbd8       ??_C@_0M@PJJOOBPF@rgb_script1@ 40054bd8     ui_main.obj
 0002:0000dbe4       ??_C@_0M@NCLDLCDG@rgb_script2@ 40054be4     ui_main.obj
 0002:0000dbf0       ??_C@_0BM@HBFPEHDG@?3255?00?0255?3500?30?00?0255?3500?3@ 40054bf0     ui_main.obj
 0002:0000dc0c       ??_C@_0BN@MPMLMKNO@?3255?00?0255?3500?30?00?0255?3500?3?$AA@ 40054c0c     ui_main.obj
 0002:0000dc2c       ??_C@_0BM@MNBNDAKM@?30?0255?0255?3500?30?00?0255?3500?3@ 40054c2c     ui_main.obj
 0002:0000dc48       ??_C@_0BN@NPKNPCPD@?30?0255?0255?3500?30?00?0255?3500?3?$AA@ 40054c48     ui_main.obj
 0002:0000dc68       ??_C@_09MNKJOHH@character@ 40054c68     ui_main.obj
 0002:0000dc78       ??_C@_0EF@PLGNBLOL@UI_UpdateCharacterSkin?3?5Could?5n@ 40054c78     ui_main.obj
 0002:0000dcc0       ??_C@_0BM@GOKALJHI@models?1players?1?$CFs?1?$HM?$CFs?$HM?$CFs?$HM?$CFs@ 40054cc0     ui_main.obj
 0002:0000dcdc       ??_C@_0M@JJJBGDDD@headlistbox@ 40054cdc     ui_main.obj
 0002:0000dce8       ??_C@_0N@MFCGACAD@torsolistbox@ 40054ce8     ui_main.obj
 0002:0000dcf8       ??_C@_0N@CNEKIPHP@lowerlistbox@ 40054cf8     ui_main.obj
 0002:0000dd08       ??_C@_08HGDHIMPN@colorbox@ 40054d08     ui_main.obj
 0002:0000dd18       ??_C@_0EB@FIFAIGEN@UI_UpdateCharacter?3?5Could?5not?5f@ 40054d18     ui_main.obj
 0002:0000dd5c       ??_C@_0BM@KNIODCMI@models?1players?1?$CFs?1model?4glm@ 40054d5c     ui_main.obj
 0002:0000dd78       ??_C@_0M@JNAJLIPJ@StartServer@ 40054d78     ui_main.obj
 0002:0000dd84       ??_C@_09BJOAODLF@dedicated@ 40054d84     ui_main.obj
 0002:0000dd90       ??_C@_03GOIFLICK@120@      40054d90     ui_main.obj
 0002:0000dd94       ??_C@_0BD@GPGODOLP@addbot?5?$CC?$CFs?$CC?5?$CFf?5?$CFs?6@ 40054d94     ui_main.obj
 0002:0000dda8       ??_C@_0BB@CJNAALAM@addbot?5?$CC?$CFs?$CC?5?$CFf?5?6@ 40054da8     ui_main.obj
 0002:0000ddbc       ??_C@_0N@DKFPEKGB@updateSPMenu@ 40054dbc     ui_main.obj
 0002:0000ddcc       ??_C@_0O@JMPPEAEI@resetDefaults@ 40054dcc     ui_main.obj
 0002:0000dddc       ??_C@_0O@FOFBEHAC@cvar_restart?6@ 40054ddc     ui_main.obj
 0002:0000ddec       ??_C@_0BE@HCEDAJLB@exec?5mpdefault?4cfg?6@ 40054dec     ui_main.obj
 0002:0000de00       ??_C@_0N@DAGNKKMD@vid_restart?6@ 40054e00     ui_main.obj
 0002:0000de10       ??_C@_0BA@DOMILBID@com_introPlayed@ 40054e10     ui_main.obj
 0002:0000de20       ??_C@_0L@JCFJAPJP@loadArenas@ 40054e20     ui_main.obj
 0002:0000de2c       ??_C@_0N@LKMLHDLL@createserver@ 40054e2c     ui_main.obj
 0002:0000de3c       ??_C@_0N@GFHNGHOF@saveControls@ 40054e3c     ui_main.obj
 0002:0000de4c       ??_C@_0N@HHDEHNGC@loadControls@ 40054e4c     ui_main.obj
 0002:0000de5c       ??_C@_0L@KEOECIBG@clearError@ 40054e5c     ui_main.obj
 0002:0000de68       ??_C@_0BB@GDGLAKGE@com_errorMessage@ 40054e68     ui_main.obj
 0002:0000de7c       ??_C@_0N@EDJNMDIG@loadGameInfo@ 40054e7c     ui_main.obj
 0002:0000de8c       ??_C@_0M@ECEPFMDA@resetScores@ 40054e8c     ui_main.obj
 0002:0000de98       ??_C@_0P@NGKMMKLC@RefreshServers@ 40054e98     ui_main.obj
 0002:0000dea8       ??_C@_0O@IEJIOIFM@RefreshFilter@ 40054ea8     ui_main.obj
 0002:0000deb8       ??_C@_09MDJDNIJB@RunSPDemo@ 40054eb8     ui_main.obj
 0002:0000dec4       ??_C@_0M@FADNIBBJ@demo?5?$CFs_?$CFi?6@ 40054ec4     ui_main.obj
 0002:0000ded0       ??_C@_09DDFPMPLA@LoadDemos@ 40054ed0     ui_main.obj
 0002:0000dedc       ??_C@_0L@NBLDIGEO@LoadMovies@ 40054edc     ui_main.obj
 0002:0000dee8       ??_C@_08BONFJBCM@LoadMods@ 40054ee8     ui_main.obj
 0002:0000def4       ??_C@_09IMKGDMFP@playMovie@ 40054ef4     ui_main.obj
 0002:0000df00       ??_C@_0BE@GDKNLHFF@cinematic?5?$CFs?4roq?52?6@ 40054f00     ui_main.obj
 0002:0000df14       ??_C@_06IAFACPBP@RunMod@   40054f14     ui_main.obj
 0002:0000df1c       ??_C@_07FMAMAFJE@fs_game@  40054f1c     ui_main.obj
 0002:0000df24       ??_C@_07CJBJDCI@RunDemo@   40054f24     ui_main.obj
 0002:0000df2c       ??_C@_0L@NDAIPINK@demo?5?$CC?$CFs?$CC?6@ 40054f2c     ui_main.obj
 0002:0000df38       ??_C@_06EONMBMPE@Quake3@   40054f38     ui_main.obj
 0002:0000df40       ??_C@_09NNPOKNDJ@closeJoin@ 40054f40     ui_main.obj
 0002:0000df4c       ??_C@_0L@CIKEFACL@joinserver@ 40054f4c     ui_main.obj
 0002:0000df58       ??_C@_04GHJNJNPO@main@     40054f58     ui_main.obj
 0002:0000df60       ??_C@_0M@DFCCPELD@StopRefresh@ 40054f60     ui_main.obj
 0002:0000df6c       ??_C@_0N@MIKCKLPA@UpdateFilter@ 40054f6c     ui_main.obj
 0002:0000df7c       ??_C@_0N@MFALOAHE@ServerStatus@ 40054f7c     ui_main.obj
 0002:0000df8c       ??_C@_0BI@NGEOLCDJ@FoundPlayerServerStatus@ 40054f8c     ui_main.obj
 0002:0000dfa4       ??_C@_0L@PKOEMDLA@FindPlayer@ 40054fa4     ui_main.obj
 0002:0000dfb0       ??_C@_0BA@OKOAECLI@checkservername@ 40054fb0     ui_main.obj
 0002:0000dfc0       ??_C@_0O@BIEPCOGB@checkpassword@ 40054fc0     ui_main.obj
 0002:0000dfd0       ??_C@_0L@GBIFOGGA@JoinServer@ 40054fd0     ui_main.obj
 0002:0000dfdc       ??_C@_0BG@HCFHGGBJ@FoundPlayerJoinServer@ 40054fdc     ui_main.obj
 0002:0000dff4       ??_C@_0M@LNGHCJI@connect?5?$CFs?6@ 40054ff4     ui_main.obj
 0002:0000e000       ??_C@_04GMBKPCGK@Quit@     40055000     ui_main.obj
 0002:0000e008       ??_C@_04KNNLNNGO@quit@     40055008     ui_main.obj
 0002:0000e010       ??_C@_08BJJAFCGA@Controls@ 40055010     ui_main.obj
 0002:0000e01c       ??_C@_09DIABHAFB@cl_paused@ 4005501c     ui_main.obj
 0002:0000e028       ??_C@_0M@ELCNGBBL@setup_menu2@ 40055028     ui_main.obj
 0002:0000e034       ??_C@_05KMBJHHBA@Leave@    40055034     ui_main.obj
 0002:0000e03c       ??_C@_0M@MNJNCGPD@disconnect?6@ 4005503c     ui_main.obj
 0002:0000e048       ??_C@_0O@GJOHOGLC@getvideosetup@ 40055048     ui_main.obj
 0002:0000e058       ??_C@_0BB@ONDMGGMI@getsaberhiltinfo@ 40055058     ui_main.obj
 0002:0000e06c       ??_C@_0O@MHPDJFEB@checkforsiege@ 4005506c     ui_main.obj
 0002:0000e07c       ??_C@_0BB@PAGDEKNE@updatevideosetup@ 4005507c     ui_main.obj
 0002:0000e090       ??_C@_0L@GJDENEEM@ServerSort@ 40055090     ui_main.obj
 0002:0000e09c       ??_C@_0N@ENKJLKKO@nextSkirmish@ 4005509c     ui_main.obj
 0002:0000e0ac       ??_C@_0O@NIAKDABK@SkirmishStart@ 400550ac     ui_main.obj
 0002:0000e0bc       ??_C@_0M@CMDMBGBD@closeingame@ 400550bc     ui_main.obj
 0002:0000e0c8       ??_C@_07EDCJGLGG@voteMap@  400550c8     ui_main.obj
 0002:0000e0d0       ??_C@_0BB@MMOGBGK@callvote?5map?5?$CFs?6@ 400550d0     ui_main.obj
 0002:0000e0e4       ??_C@_08HGAPJPAM@voteKick@ 400550e4     ui_main.obj
 0002:0000e0f0       ??_C@_0BK@PAGDHLNA@callvote?5clientkick?5?$CC?$CFi?$CC?6@ 400550f0     ui_main.obj
 0002:0000e10c       ??_C@_08OCFGFKGG@voteGame@ 4005510c     ui_main.obj
 0002:0000e118       ??_C@_0BI@HLNKMHP@callvote?5g_gametype?5?$CFi?6@ 40055118     ui_main.obj
 0002:0000e130       ??_C@_0L@PNGBIKK@voteLeader@ 40055130     ui_main.obj
 0002:0000e13c       ??_C@_0BK@IIDJGHM@callteamvote?5leader?5?$CC?$CFs?$CC?6@ 4005513c     ui_main.obj
 0002:0000e158       ??_C@_0N@ECOCPEKM@voteTeamKick@ 40055158     ui_main.obj
 0002:0000e168       ??_C@_0BI@OONPIOGP@callteamvote?5kick?5?$CC?$CFs?$CC?6@ 40055168     ui_main.obj
 0002:0000e180       ??_C@_0BN@FLPLJJKP@addbot?5?$CC?$CFs?$CC?5?$CFi?5?$CFs?50?5?$CC?$CFs?$CC?5?$CFi?6@ 40055180     ui_main.obj
 0002:0000e1a0       ??_C@_0M@EGEBIODJ@addFavorite@ 400551a0     ui_main.obj
 0002:0000e1ac       ??_C@_08EHKIGBEA@hostname@ 400551ac     ui_main.obj
 0002:0000e1b8       ??_C@_04HLBMEOMD@addr@     400551b8     ui_main.obj
 0002:0000e1c0       ??_C@_0BK@MJOGKENH@Favorite?5already?5in?5list?6@ 400551c0     ui_main.obj
 0002:0000e1dc       ??_C@_0BE@GHLACGPA@Favorite?5list?5full?6@ 400551dc     ui_main.obj
 0002:0000e1f0       ??_C@_0BK@FHDFKECC@Added?5favorite?5server?5?$CFs?6@ 400551f0     ui_main.obj
 0002:0000e20c       ??_C@_0P@PMAAHNFK@deleteFavorite@ 4005520c     ui_main.obj
 0002:0000e21c       ??_C@_0P@OAONNFHL@createFavorite@ 4005521c     ui_main.obj
 0002:0000e22c       ??_C@_0BA@LFABJOCG@ui_favoriteName@ 4005522c     ui_main.obj
 0002:0000e23c       ??_C@_0BD@IEIPHBLJ@ui_favoriteAddress@ 4005523c     ui_main.obj
 0002:0000e250       ??_C@_06GKKKPAPA@orders@   40055250     ui_main.obj
 0002:0000e258       ??_C@_01EEMJAFIK@?6@       40055258     ui_main.obj
 0002:0000e25c       ??_C@_0BA@CIKCJHJJ@voiceOrdersTeam@ 4005525c     ui_main.obj
 0002:0000e26c       ??_C@_0M@JLOCKKJD@voiceOrders@ 4005526c     ui_main.obj
 0002:0000e278       ??_C@_08BLKMFMH@setForce@  40055278     ui_main.obj
 0002:0000e284       ??_C@_04FMLAMFAK@same@     40055284     ui_main.obj
 0002:0000e28c       ??_C@_0BF@MNMOBPCJ@setsiegeclassandteam@ 4005528c     ui_main.obj
 0002:0000e2a4       ??_C@_0M@PDKKLFLJ@ui_holdteam@ 400552a4     ui_main.obj
 0002:0000e2b0       ??_C@_0BC@KKOKLGCA@ui_startsiegeteam@ 400552b0     ui_main.obj
 0002:0000e2c4       ??_C@_0BA@NOFPOCEH@ui_mySiegeClass@ 400552c4     ui_main.obj
 0002:0000e2d4       ??_C@_0BD@DKKNDOGD@ui_startsiegeclass@ 400552d4     ui_main.obj
 0002:0000e2e8       ??_C@_07EHHPJLF@ui_team@   400552e8     ui_main.obj
 0002:0000e2f0       ??_C@_0BB@IKPDFLKJ@siegeclass?5?$CC?$CFs?$CC?6@ 400552f0     ui_main.obj
 0002:0000e304       ??_C@_0N@OALBNGAO@setBotButton@ 40055304     ui_main.obj
 0002:0000e314       ??_C@_0N@KHMHBFNB@saveTemplate@ 40055314     ui_main.obj
 0002:0000e324       ??_C@_0N@NDDLJAP@refreshForce@ 40055324     ui_main.obj
 0002:0000e334       ??_C@_08EBELHFHN@glCustom@ 40055334     ui_main.obj
 0002:0000e340       ??_C@_0BE@CCCKMIDK@setMovesListDefault@ 40055340     ui_main.obj
 0002:0000e354       ??_C@_0P@GHOMHNCH@resetMovesList@ 40055354     ui_main.obj
 0002:0000e364       ??_C@_0BA@LMLFIFFM@rulesMenu_moves@ 40055364     ui_main.obj
 0002:0000e374       ??_C@_01CLKCMJKC@?5@       40055374     ui_main.obj
 0002:0000e378       ??_C@_0N@JIGKLBIC@ui_move_desc@ 40055378     ui_main.obj
 0002:0000e388       ??_C@_0BI@ELGJCDJA@resetcharacterlistboxes@ 40055388     ui_main.obj
 0002:0000e3a0       ??_C@_0BB@KEMAOIGK@setMoveCharacter@ 400553a0     ui_main.obj
 0002:0000e3b4       ??_C@_0BB@GNNLJJAN@characterchanged@ 400553b4     ui_main.obj
 0002:0000e3c8       ??_C@_0BA@GCCOBAAP@updatecharcvars@ 400553c8     ui_main.obj
 0002:0000e3d8       ??_C@_0BA@NGDJMPNF@updatecharmodel@ 400553d8     ui_main.obj
 0002:0000e3e8       ??_C@_0N@OPNDMMAM@getcharcvars@ 400553e8     ui_main.obj
 0002:0000e3f8       ??_C@_09LFFNIMNI@char_skin@ 400553f8     ui_main.obj
 0002:0000e404       ??_C@_0P@EBIPKDDC@setSiegeNoBots@ 40055404     ui_main.obj
 0002:0000e414       ??_C@_0P@IGNPDGBD@bot_minplayers@ 40055414     ui_main.obj
 0002:0000e424       ??_C@_0P@BLMLGIOD@clearmouseover@ 40055424     ui_main.obj
 0002:0000e434       ??_C@_0BC@KAOKGCMG@updateForceStatus@ 40055434     ui_main.obj
 0002:0000e448       ??_C@_06HDLLMMEJ@update@   40055448     ui_main.obj
 0002:0000e450       ??_C@_0O@ODEKLGOE@setBotButtons@ 40055450     ui_main.obj
 0002:0000e460       ??_C@_0O@BDEHIDKC@getsabercvars@ 40055460     ui_main.obj
 0002:0000e470       ??_C@_0BG@IOCDCAKJ@setsaberboxesandhilts@ 40055470     ui_main.obj
 0002:0000e488       ??_C@_0L@PHDCDHNJ@saber_type@ 40055488     ui_main.obj
 0002:0000e494       ??_C@_0L@EENOGDMB@saber_hilt@ 40055494     ui_main.obj
 0002:0000e4a0       ??_C@_0M@ENKHOMD@saber_color@ 400554a0     ui_main.obj
 0002:0000e4ac       ??_C@_0BD@FLLPAIHH@setscreensaberhilt@ 400554ac     ui_main.obj
 0002:0000e4c0       ??_C@_07HMNPDCEB@hiltbut@  400554c0     ui_main.obj
 0002:0000e4c8       ??_C@_0BE@IGHFMCF@setscreensaberhilt1@ 400554c8     ui_main.obj
 0002:0000e4dc       ??_C@_08MHPKKJIG@hiltbut1@ 400554dc     ui_main.obj
 0002:0000e4e8       ??_C@_0BE@CDEKAPOG@setscreensaberhilt2@ 400554e8     ui_main.obj
 0002:0000e4fc       ??_C@_08OMNHPKEF@hiltbut2@ 400554fc     ui_main.obj
 0002:0000e508       ??_C@_0BE@OBDEJJBO@setscreensaberstaff@ 40055508     ui_main.obj
 0002:0000e51c       ??_C@_0P@OALPMJIP@hiltbut_staves@ 4005551c     ui_main.obj
 0002:0000e52c       ??_C@_0M@EMOBKBMN@saber2_hilt@ 4005552c     ui_main.obj
 0002:0000e538       ??_C@_0N@NGEANCK@saber2_color@ 40055538     ui_main.obj
 0002:0000e548       ??_C@_0BB@IKMDCPME@updatesabercvars@ 40055548     ui_main.obj
 0002:0000e55c       ??_C@_0BH@MPIOFIPF@updatesiegeobjgraphics@ 4005555c     ui_main.obj
 0002:0000e574       ??_C@_0BD@KJBNOFGI@setsiegeobjbuttons@ 40055574     ui_main.obj
 0002:0000e588       ??_C@_0BG@PIFHLIOL@currentObjMapIconItem@ 40055588     ui_main.obj
 0002:0000e5a0       ??_C@_0BM@OKEKCGBI@currentObjMapIconBackground@ 400555a0     ui_main.obj
 0002:0000e5bc       ??_C@_0BE@DDPMHALA@updatesiegeclasscnt@ 400555bc     ui_main.obj
 0002:0000e5d0       ??_C@_0BB@BNCJKHME@updatesiegecvars@ 400555d0     ui_main.obj
 0002:0000e5e4       ??_C@_0BC@LEANKIJC@setteamclassicons@ 400555e4     ui_main.obj
 0002:0000e5f8       ??_C@_0BG@HOOHFEEK@updatesiegeweapondesc@ 400555f8     ui_main.obj
 0002:0000e610       ??_C@_0BI@CAJMDKNH@base_class_weapons_feed@ 40055610     ui_main.obj
 0002:0000e628       ??_C@_0BG@LMCEBDMO@ui_class_weapondesc?$CFi@ 40055628     ui_main.obj
 0002:0000e640       ??_C@_0BE@FPKHHEIG@ui_itemforceinvdesc@ 40055640     ui_main.obj
 0002:0000e654       ??_C@_0BJ@FOGOFGLL@updatesiegeinventorydesc@ 40055654     ui_main.obj
 0002:0000e670       ??_C@_0BK@OOPAFGHN@base_class_inventory_feed@ 40055670     ui_main.obj
 0002:0000e68c       ??_C@_0BE@OKEDHDBF@ui_class_itemdesc?$CFi@ 4005568c     ui_main.obj
 0002:0000e6a0       ??_C@_0BF@HKCNIGAN@updatesiegeforcedesc@ 400556a0     ui_main.obj
 0002:0000e6b8       ??_C@_0BG@GDHDGPHG@base_class_force_feed@ 400556b8     ui_main.obj
 0002:0000e6d0       ??_C@_0BB@EFKCLBJP@ui_class_power?$CFi@ 400556d0     ui_main.obj
 0002:0000e6e4       ??_C@_0BF@OLGFCJPH@resetitemdescription@ 400556e4     ui_main.obj
 0002:0000e6fc       ??_C@_0BA@EBEIJLAH@itemdescription@ 400556fc     ui_main.obj
 0002:0000e70c       ??_C@_0BE@OPNFBBHA@resetsiegelistboxes@ 4005570c     ui_main.obj
 0002:0000e720       ??_C@_0BH@GJEMFJHA@updatesiegestatusicons@ 40055720     ui_main.obj
 0002:0000e738       ??_C@_0BB@DDCAGBHM@setcurrentNetMap@ 40055738     ui_main.obj
 0002:0000e74c       ??_C@_07PANIJHFC@maplist@  4005574c     ui_main.obj
 0002:0000e754       ??_C@_0N@NJGLFHB@resetmaplist@ 40055754     ui_main.obj
 0002:0000e764       ??_C@_0O@JFOFDMJO@getmousepitch@ 40055764     ui_main.obj
 0002:0000e774       ??_C@_0BA@BOOMJJJF@clampmaxplayers@ 40055774     ui_main.obj
 0002:0000e784       ??_C@_0BG@BPGNLDIJ@loadmissionselectmenu@ 40055784     ui_main.obj
 0002:0000e79c       ??_C@_0BG@CKECLFAA@unknown?5UI?5script?5?$CFs?6@ 4005579c     ui_main.obj
 0002:0000e7b4       ??_C@_0BA@EMECKJKP@ui_infantry_cnt@ 400557b4     ui_main.obj
 0002:0000e7c4       ??_C@_0BA@LPPKCGJF@ui_vanguard_cnt@ 400557c4     ui_main.obj
 0002:0000e7d4       ??_C@_0P@LDIIIHAH@ui_support_cnt@ 400557d4     ui_main.obj
 0002:0000e7e4       ??_C@_0M@MAMLHDKC@ui_jedi_cnt@ 400557e4     ui_main.obj
 0002:0000e7f0       ??_C@_0M@ELMIAOPO@ui_demo_cnt@ 400557f0     ui_main.obj
 0002:0000e7fc       ??_C@_0N@PIDHMKOM@ui_heavy_cnt@ 400557fc     ui_main.obj
 0002:0000e80c       ??_C@_0BD@IILHFKPD@?$CKui_class_weapon?$CFd@ 4005580c     ui_main.obj
 0002:0000e820       ??_C@_0L@EEOPJNIP@wpnicon0?$CFd@ 40055820     ui_main.obj
 0002:0000e82c       ??_C@_0BB@LEAKOFKD@?$CKui_class_item?$CFd@ 4005582c     ui_main.obj
 0002:0000e840       ??_C@_0M@IAKOKMPN@itemicon0?$CFd@ 40055840     ui_main.obj
 0002:0000e84c       ??_C@_0BC@BBDLIMJN@?$CKui_class_power?$CFd@ 4005584c     ui_main.obj
 0002:0000e860       ??_C@_0N@OLFHJEGP@forceicon0?$CFd@ 40055860     ui_main.obj
 0002:0000e870       ??_C@_0M@OAPCOKFL@forceicon?$CFd@ 40055870     ui_main.obj
 0002:0000e87c       ??_C@_05GAHFLAHA@?1blue@   4005587c     ui_main.obj
 0002:0000e884       ??_C@_04PEPHHPEI@?1red@    40055884     ui_main.obj
 0002:0000e88c       ??_C@_08OFBBAHIC@?1default@ 4005588c     ui_main.obj
 0002:0000e898       ??_C@_0O@GJFLJONJ@cl_motdString@ 40055898     ui_main.obj
 0002:0000e8a8       ??_C@_0BM@OFHFBELM@Welcome?5to?5Jedi?5Academy?5MP?$CB@ 400558a8     ui_main.obj
 0002:0000e8c4       ??_C@_07HKJFGNHJ@clients@  400558c4     ui_main.obj
 0002:0000e8cc       ??_C@_08NJPDEKHO@gametype@ 400558cc     ui_main.obj
 0002:0000e8d8       ??_C@_08HHFKLNCD@needpass@ 400558d8     ui_main.obj
 0002:0000e8e4       ??_C@_0BB@NNOBJLOI@password_request@ 400558e4     ui_main.obj
 0002:0000e8f8       ??_C@_03IHCLBPIC@num@      400558f8     ui_main.obj
 0002:0000e8fc       ??_C@_05DBKDOICH@score@    400558fc     ui_main.obj
 0002:0000e904       ??_C@_04OONEELOO@ping@     40055904     ui_main.obj
 0002:0000e90c       ??_C@_0BK@NLNALACG@cl_serverStatusResendTime@ 4005590c     ui_main.obj
 0002:0000e928       ??_C@_0BA@KGBMAGOJ@MENUS_SEARCHING@ 40055928     ui_main.obj
 0002:0000e938       ??_C@_0BG@CJDALBBP@ui_playerServersFound@ 40055938     ui_main.obj
 0002:0000e950       ??_C@_0BB@LOIEJCIF@no?5servers?5found@ 40055950     ui_main.obj
 0002:0000e964       ??_C@_0BI@ICIKICGM@MENUS_SERVERS_FOUNDWITH@ 40055964     ui_main.obj
 0002:0000e97c       ??_C@_01LKDEMHDF@s@        4005597c     ui_main.obj
 0002:0000e980       ??_C@_0O@OJPKLLB@maps?1?$CFs?4siege@ 40055980     ui_main.obj
 0002:0000e990       ??_C@_05EPHHAOKA@Teams@    40055990     ui_main.obj
 0002:0000e998       ??_C@_0O@HPPEFNIJ@cg_siegeTeam1@ 40055998     ui_main.obj
 0002:0000e9a8       ??_C@_05IKJECGBB@team1@    400559a8     ui_main.obj
 0002:0000e9b0       ??_C@_0O@FENJAOEK@cg_siegeTeam2@ 400559b0     ui_main.obj
 0002:0000e9c0       ??_C@_05KBLJHFNC@team2@    400559c0     ui_main.obj
 0002:0000e9c8       ??_C@_07FKIPFDKM@UseTeam@  400559c8     ui_main.obj
 0002:0000e9d0       ??_C@_0BK@JABGNFOC@Error?5loading?5teams?5in?5UI@ 400559d0     ui_main.obj
 0002:0000e9ec       ??_C@_0BC@NLJLEPPM@ui_class_weapon?$CFi@ 400559ec     ui_main.obj
 0002:0000ea00       ??_C@_0O@MHPONILH@gfx?12d?1select@ 40055a00     ui_main.obj
 0002:0000ea10       ??_C@_0BA@DIHPMMKF@ui_class_item?$CFi@ 40055a10     ui_main.obj
 0002:0000ea20       ??_C@_0BK@CIGOJBM@gfx?1hud?1i_icon_healthdisp@ 40055a20     ui_main.obj
 0002:0000ea3c       ??_C@_0BI@NJGLIFAN@gfx?1hud?1i_icon_ammodisp@ 40055a3c     ui_main.obj
 0002:0000ea54       ??_C@_08JNIMAHLE@fdisable@ 40055a54     ui_main.obj
 0002:0000ea60       ??_C@_08CGDHFBIG@wdisable@ 40055a60     ui_main.obj
 0002:0000ea6c       ??_C@_08JIDOFFMP@truejedi@ 40055a6c     ui_main.obj
 0002:0000ea78       ??_C@_07EAJPOACB@nettype@  40055a78     ui_main.obj
 0002:0000ea80       ??_C@_07HAOKNHOC@?$CFs?5?$FL?$CFs?$FN@ 40055a80     ui_main.obj
 0002:0000ea88       ??_C@_0BC@DFDLMDDH@sv_allowAnonymous@ 40055a88     ui_main.obj
 0002:0000ea9c       ??_C@_06MLCMCMG@?$CIA?$CJ?5?$CFs@ 40055a9c     ui_main.obj
 0002:0000eaa4       ??_C@_07IFMLPBAP@?$CFs?5?$CI?$CFs?$CJ@ 40055aa4     ui_main.obj
 0002:0000eaac       ??_C@_08PINKDKH@Inactive@  40055aac     ui_main.obj
 0002:0000eab8       ??_C@_03KHICJKCI@?4?4?4@   40055ab8     ui_main.obj
 0002:0000eabc       ??_C@_0BK@DLHLILP@models?1players?1?$CFs?1icon_?$CFs@ 40055abc     ui_main.obj
 0002:0000ead8       ??_C@_0BC@EALEMOON@models?1players?1?$CFs@ 40055ad8     ui_main.obj
 0002:0000eaec       ??_C@_05KDHLENLH@icon_@    40055aec     ui_main.obj
 0002:0000eaf4       ??_C@_0BG@CHPIBCHN@ui_class_powerlevel?$CFi@ 40055af4     ui_main.obj
 0002:0000eb0c       ??_C@_0BK@JKNGBPAN@ui_class_powerlevelslot?$CFi@ 40055b0c     ui_main.obj
 0002:0000eb28       ??_C@_0BB@ONDFICAG@ui_class_force?$CFi@ 40055b28     ui_main.obj
 0002:0000eb3c       ??_C@_0BA@GPNLKCEM@ui_class_health@ 40055b3c     ui_main.obj
 0002:0000eb4c       ??_C@_0P@MDLJPIIB@ui_class_armor@ 40055b4c     ui_main.obj
 0002:0000eb5c       ??_C@_0O@MJDHKOPJ@ui_class_icon@ 40055b5c     ui_main.obj
 0002:0000eb6c       ??_C@_0BO@FFKCLDKB@gfx?1hud?1w_icon_duallightsaber@ 40055b6c     ui_main.obj
 0002:0000eb8c       ??_C@_0M@KCMILOII@SABER_STAFF@ 40055b8c     ui_main.obj
 0002:0000eb98       ??_C@_0BK@DOBGMPNF@gfx?1hud?1w_icon_saberstaff@ 40055b98     ui_main.obj
 0002:0000ebb4       ??_C@_05KLHICNFN@?$CF3?42f@ 40055bb4     ui_main.obj
 0002:0000ebbc       ??_C@_0P@CDNMBAJP@ui_class_speed@ 40055bbc     ui_main.obj
 0002:0000ebcc       ??_C@_0N@HMPBMGHL@ui_classDesc@ 40055bcc     ui_main.obj
 0002:0000ebdc       ??_C@_0BB@KJJNHJDC@ui_classPortrait@ 40055bdc     ui_main.obj
 0002:0000ebf0       ??_C@_0CM@LGCBCNPC@Too?5many?5net?5game?5types?0?5last?5o@ 40055bf0     ui_main.obj
 0002:0000ec1c       ??_C@_0CI@IFAKKCDN@Too?5many?5game?5types?0?5last?5one?5r@ 40055c1c     ui_main.obj
 0002:0000ec44       ??_C@_0BE@CAPBAJFM@levelshots?1?$CFs_small@ 40055c44     ui_main.obj
 0002:0000ec58       ??_C@_0CD@INHJOHKK@Too?5many?5maps?0?5last?5one?5replace@ 40055c58     ui_main.obj
 0002:0000ec7c       ??_C@_09LDHGIFEE@gametypes@ 40055c7c     ui_main.obj
 0002:0000ec88       ??_C@_0O@EBHHCFIL@joingametypes@ 40055c88     ui_main.obj
 0002:0000ec98       ??_C@_04ILAGGJBN@maps@     40055c98     ui_main.obj
 0002:0000eca0       ??_C@_06IFGIOHDE@Custom@   40055ca0     ui_main.obj
 0002:0000eca8       ??_C@_03LJMADBGE@fcf@      40055ca8     ui_main.obj
 0002:0000ecac       ??_C@_0P@IAEGIPNM@forcecfg?1light@ 40055cac     ui_main.obj
 0002:0000ecbc       ??_C@_0O@LAIEPDMG@forcecfg?1dark@ 40055cbc     ui_main.obj
 0002:0000eccc       ??_C@_0BO@OIPGILJD@models?1players?1?$CFs?1icon_?$CFs?4jpg@ 40055ccc     ui_main.obj
 0002:0000ecec       ??_C@_01KMDKNFGN@?1@       40055cec     ui_main.obj
 0002:0000ecf0       ??_C@_0P@KAKFFEJE@models?1players@ 40055cf0     ui_main.obj
 0002:0000ed00       ??_C@_01LFCBOECM@?4@       40055d00     ui_main.obj
 0002:0000ed04       ??_C@_02DJGKEECL@?4?4@     40055d04     ui_main.obj
 0002:0000ed08       ??_C@_0CL@BBGLILIJ@Couldn?8t?5find?5any?5player?5classe@ 40055d08     ui_main.obj
 0002:0000ed34       ??_C@_0CJ@KLKCMJCL@Couldn?8t?5find?5any?5player?5teams?5@ 40055d34     ui_main.obj
 0002:0000ed60       ??_C@_0DE@IMBIBKHB@UI_BuildPlayerModel_List?3?5mallo@ 40055d60     ui_main.obj
 0002:0000ed94       ??_C@_0CI@MKEMKIFN@UI_BuildPlayerModel_List?3?5mallo@ 40055d94     ui_main.obj
 0002:0000edbc       ??_C@_0CD@HDLBCOLF@models?1players?1?$CFs?1PlayerChoice?4@ 40055dbc     ui_main.obj
 0002:0000ede0       ??_C@_0DB@DGPOGINK@?$FO1UI_BuildPlayerModel_List?3?5Err@ 40055de0     ui_main.obj
 0002:0000ee14       ??_C@_05JNLGGGIB@?4skin@   40055e14     ui_main.obj
 0002:0000ee1c       ??_C@_0N@PLNEKBEI@fs_copyfiles@ 40055e1c     ui_main.obj
 0002:0000ee2c       ??_C@_0BF@PKIKNPLA@models?1players?1?$CFs?1?$CFs@ 40055e2c     ui_main.obj
 0002:0000ee44       ??_C@_05KCPJJFH@head_@     40055e44     ui_main.obj
 0002:0000ee4c       ??_C@_06HCGBIGN@torso_@    40055e4c     ui_main.obj
 0002:0000ee54       ??_C@_06PKHLHNNE@lower_@   40055e54     ui_main.obj
 0002:0000ee5c       ??_C@_0BC@HHPGHHIK@g_siegeTeamSwitch@ 40055e5c     ui_main.obj
 0002:0000ee70       ??_C@_0BD@CHEDBJDN@menu?1art?13_cursor2@ 40055e70     ui_main.obj
 0002:0000ee84       ??_C@_05PMAELIEO@white@    40055e84     ui_main.obj
 0002:0000ee8c       ??_C@_0BA@BEBIMAO@ui?1menutest?4txt@ 40055e8c     ui_main.obj
 0002:0000ee9c       ??_C@_07GAIGJCKN@ui_name@  40055e9c     ui_main.obj
 0002:0000eea4       ??_C@_0P@EAAPMMHH@debug_protocol@ 40055ea4     ui_main.obj
 0002:0000eeb4       ??_C@_0O@PEPHHCN@error_popmenu@ 40055eb4     ui_main.obj
 0002:0000eec4       ??_C@_09LIOFIACL@endofgame@ 40055ec4     ui_main.obj
 0002:0000eed0       ??_C@_06LOEOLLDH@ingame@   40055ed0     ui_main.obj
 0002:0000eed8       ??_C@_0O@MFMAGGCJ@siege_popmenu@ 40055ed8     ui_main.obj
 0002:0000eee8       ??_C@_0BH@PPHHFDOB@ingame_siegeobjectives@ 40055ee8     ui_main.obj
 0002:0000ef00       ??_C@_0BB@JAANANPO@ingame_voicechat@ 40055f00     ui_main.obj
 0002:0000ef14       ??_C@_0BC@LAHPGJIN@ingame_siegeclass@ 40055f14     ui_main.obj
 0002:0000ef28       ??_C@_0N@LNIKGPCC@ui_menubrief@ 40055f28     ui_main.obj
 0002:0000ef38       ??_C@_0L@EHFMMPPM@ui?1?$CFs?4menu@ 40055f38     ui_main.obj
 0002:0000ef44       ??_C@_08HIJIBFNH@?4?$CF02d?5GB@ 40055f44     ui_main.obj
 0002:0000ef50       ??_C@_08HFAPJAAB@?4?$CF02d?5MB@ 40055f50     ui_main.obj
 0002:0000ef5c       ??_C@_05GLFMPLMM@?$CFd?5KB@ 40055f5c     ui_main.obj
 0002:0000ef64       ??_C@_08FFCBIDLK@?$CFd?5bytes@ 40055f64     ui_main.obj
 0002:0000ef70       ??_C@_0O@ICFIHIJP@?$CFd?5hr?5?$CF2d?5min@ 40055f70     ui_main.obj
 0002:0000ef80       ??_C@_0BA@EJDPLOKB@?$CF2d?5min?5?$CF2d?5sec@ 40055f80     ui_main.obj
 0002:0000ef90       ??_C@_07DPFFKEEK@?$CF2d?5sec@ 40055f90     ui_main.obj
 0002:0000ef98       ??_C@_0P@LJADJEPN@DOWNLOAD_STUFF@ 40055f98     ui_main.obj
 0002:0000efa8       ??_C@_0BA@IMGLJLPN@cl_downloadSize@ 40055fa8     ui_main.obj
 0002:0000efb8       ??_C@_0BB@FAHDFBEE@cl_downloadCount@ 40055fb8     ui_main.obj
 0002:0000efcc       ??_C@_0BA@CHCCPCBI@cl_downloadTime@ 40055fcc     ui_main.obj
 0002:0000efdc       ??_C@_09KPPELEEE@?$CFs?5?$CI?$CFd?$CF?$CF?$CJ@ 40055fdc     ui_main.obj
 0002:0000efe8       ??_C@_0L@MBCOHHKN@estimating@ 40055fe8     ui_main.obj
 0002:0000eff4       ??_C@_0O@GGKDMBIP@?$CI?$CFs?5?$CFs?5?$CFs?5?$CFs?$CJ@ 40055ff4     ui_main.obj
 0002:0000f004       ??_C@_07OEKBAJML@?$CI?$CFs?5?$CFs?$CJ@ 40056004     ui_main.obj
 0002:0000f00c       ??_C@_05GFOLEBJA@?$CFs?1?$CFs@ 4005600c     ui_main.obj
 0002:0000f014       ??_C@_07FJPHLACI@Connect@  40056014     ui_main.obj
 0002:0000f01c       ??_C@_0BG@ILPEHJFI@MENUS_LOADING_MAPNAME@ 4005601c     ui_main.obj
 0002:0000f034       ??_C@_09IPAEKDAI@localhost@ 40056034     ui_main.obj
 0002:0000f040       ??_C@_0BC@IMNKPPLH@MENUS_STARTING_UP@ 40056040     ui_main.obj
 0002:0000f054       ??_C@_0BE@BDBJFBJK@MENUS_CONNECTING_TO@ 40056054     ui_main.obj
 0002:0000f068       ??_C@_04GJFDDCGE@motd@     40056068     ui_main.obj
 0002:0000f070       ??_C@_0BK@LJNOAJEC@MENUS_AWAITING_CONNECTION@ 40056070     ui_main.obj
 0002:0000f08c       ??_C@_0BJ@GEPNJPLO@MENUS_AWAITING_CHALLENGE@ 4005608c     ui_main.obj
 0002:0000f0a8       ??_C@_0BA@MIMGFFNE@cl_downloadName@ 400560a8     ui_main.obj
 0002:0000f0b8       ??_C@_0BJ@OKIBNKAA@MENUS_AWAITING_GAMESTATE@ 400560b8     ui_main.obj
 0002:0000f0d4       ??_C@_0CP@JCONBAAO@?$CFd?5servers?5listed?5in?5browser?5wi@ 400560d4     ui_main.obj
 0002:0000f104       ??_C@_0L@KMOIMFOM@cl_maxPing@ 40056104     ui_main.obj
 0002:0000f110       ??_C@_0EM@DEPKLKAJ@?$CFd?5servers?5not?5listed?5due?5to?5fi@ 40056110     ui_main.obj
 0002:0000f15c       ??_C@_0BD@LBKOHDFN@?$CFs?9?$CFi?0?5?$CFi?5?$EA?5?$CFi?3?$CF2i@ 4005615c     ui_main.obj
 0002:0000f170       ??_C@_0O@GPLHFEBB@localservers?6@ 40056170     ui_main.obj
 0002:0000f180       ??_C@_0BF@PBFJCPPP@globalservers?5?$CFd?5?$CFs?6@ 40056180     ui_main.obj
 0002:0000f198       ??_C@_0BF@OIDAJKAK@globalservers?5?$CFd?5?$CFd?6@ 40056198     ui_main.obj
 0002:0000f1b0       __real@3cb43958            400561b0     ui_main.obj
 0002:0000f1b8       __real@3f5999999999999a    400561b8     ui_main.obj
 0002:0000f1c0       __real@3f61111111111111    400561c0     ui_main.obj
 0002:0000f1c8       __real@3ff5555555555555    400561c8     ui_main.obj
 0002:0000f1d0       __real@40000000            400561d0     ui_main.obj
 0002:0000f1d4       __real@40400000            400561d4     ui_main.obj
 0002:0000f1d8       __real@40800000            400561d8     ui_main.obj
 0002:0000f1dc       __real@40a00000            400561dc     ui_main.obj
 0002:0000f1e0       __real@41000000            400561e0     ui_main.obj
 0002:0000f1e4       __real@41100000            400561e4     ui_main.obj
 0002:0000f1e8       __real@41200000            400561e8     ui_main.obj
 0002:0000f1ec       __real@41300000            400561ec     ui_main.obj
 0002:0000f1f0       __real@41400000            400561f0     ui_main.obj
 0002:0000f1f4       __real@41500000            400561f4     ui_main.obj
 0002:0000f1f8       __real@41600000            400561f8     ui_main.obj
 0002:0000f1fc       __real@41700000            400561fc     ui_main.obj
 0002:0000f200       __real@41800000            40056200     ui_main.obj
 0002:0000f204       __real@41880000            40056204     ui_main.obj
 0002:0000f208       __real@41900000            40056208     ui_main.obj
 0002:0000f20c       __real@41980000            4005620c     ui_main.obj
 0002:0000f210       __real@41a00000            40056210     ui_main.obj
 0002:0000f214       __real@41a80000            40056214     ui_main.obj
 0002:0000f218       __real@41b00000            40056218     ui_main.obj
 0002:0000f21c       __real@41b80000            4005621c     ui_main.obj
 0002:0000f220       __real@41f00000            40056220     ui_main.obj
 0002:0000f224       __real@42000000            40056224     ui_main.obj
 0002:0000f228       __real@42140000            40056228     ui_main.obj
 0002:0000f22c       __real@42180000            4005622c     ui_main.obj
 0002:0000f230       __real@421c0000            40056230     ui_main.obj
 0002:0000f234       __real@42200000            40056234     ui_main.obj
 0002:0000f238       __real@42240000            40056238     ui_main.obj
 0002:0000f23c       __real@42280000            4005623c     ui_main.obj
 0002:0000f240       __real@422c0000            40056240     ui_main.obj
 0002:0000f244       __real@42340000            40056244     ui_main.obj
 0002:0000f248       __real@42e00000            40056248     ui_main.obj
 0002:0000f24c       __real@43080000            4005624c     ui_main.obj
 0002:0000f250       __real@43200000            40056250     ui_main.obj
 0002:0000f254       __real@43400000            40056254     ui_main.obj
 0002:0000f258       __real@43580000            40056258     ui_main.obj
 0002:0000f25c       __real@43780000            4005625c     ui_main.obj
 0002:0000f260       __real@43880000            40056260     ui_main.obj
 0002:0000f264       __real@43a00000            40056264     ui_main.obj
 0002:0000f268       __real@457a0000            40056268     ui_main.obj
 0002:0000f26c       __real@459c4000            4005626c     ui_main.obj
 0002:0000f270       __real@bcb43958            40056270     ui_main.obj
 0002:0000f280       __xmm@3f000000000000000000000000000000 40056280     ui_main.obj
 0002:0000f290       __xmm@3fe999999999999a3fe999999999999a 40056290     ui_main.obj
 0002:0000f2a0       ??_C@_0BM@GFPNKFNM@gfx?1effects?1sabers?1red_glow@ 400562a0     ui_saber.obj
 0002:0000f2bc       ??_C@_0BM@FMMFHOBL@gfx?1effects?1sabers?1red_line@ 400562bc     ui_saber.obj
 0002:0000f2d8       ??_C@_0BP@PNPBNGNI@gfx?1effects?1sabers?1orange_glow@ 400562d8     ui_saber.obj
 0002:0000f2f8       ??_C@_0BP@MEMJANBP@gfx?1effects?1sabers?1orange_line@ 400562f8     ui_saber.obj
 0002:0000f318       ??_C@_0BP@GBLFHKOI@gfx?1effects?1sabers?1yellow_glow@ 40056318     ui_saber.obj
 0002:0000f338       ??_C@_0BP@FIINKBCP@gfx?1effects?1sabers?1yellow_line@ 40056338     ui_saber.obj
 0002:0000f358       ??_C@_0BO@BBHPNJME@gfx?1effects?1sabers?1green_glow@ 40056358     ui_saber.obj
 0002:0000f378       ??_C@_0BO@CIEHACAD@gfx?1effects?1sabers?1green_line@ 40056378     ui_saber.obj
 0002:0000f398       ??_C@_0BN@EHAIJJIG@gfx?1effects?1sabers?1blue_glow@ 40056398     ui_saber.obj
 0002:0000f3b8       ??_C@_0BN@HODAECEB@gfx?1effects?1sabers?1blue_line@ 400563b8     ui_saber.obj
 0002:0000f3d8       ??_C@_0BP@FPLHAOII@gfx?1effects?1sabers?1purple_glow@ 400563d8     ui_saber.obj
 0002:0000f3f8       ??_C@_0BP@GGIPNFEP@gfx?1effects?1sabers?1purple_line@ 400563f8     ui_saber.obj
 0002:0000f418       ??_C@_0BN@LEGLJOKN@gfx?1effects?1sabers?1cyan_glow@ 40056418     ui_saber.obj
 0002:0000f438       ??_C@_0BN@INFDEFGK@gfx?1effects?1sabers?1cyan_line@ 40056438     ui_saber.obj
 0002:0000f458       ??_C@_0BM@EEAIJHJL@gfx?1effects?1sabers?1rgb_glow@ 40056458     ui_saber.obj
 0002:0000f474       ??_C@_0BM@HNDAEMFM@gfx?1effects?1sabers?1rgb_line@ 40056474     ui_saber.obj
 0002:0000f490       ??_C@_0BM@MPDHNOEF@gfx?1effects?1sabers?1rgb_core@ 40056490     ui_saber.obj
 0002:0000f4ac       ??_C@_0BO@JAPELDPB@gfx?1effects?1sabers?1black_glow@ 400564ac     ui_saber.obj
 0002:0000f4cc       ??_C@_0BO@NBJEGAHB@required?5string?5?8?$CFs?8?5missing?6@ 400564cc     ui_saber.obj
 0002:0000f4ec       ??_C@_09KGFNABEN@saberinfo@ 400564ec     ui_saber.obj
 0002:0000f4f8       ??_C@_0CM@LKMGCIC@?$FO1ERROR?3?5unexpected?5EOF?5while?5p@ 400564f8     ui_saber.obj
 0002:0000f524       ??_C@_0L@MHEAGHEK@saberModel@ 40056524     ui_saber.obj
 0002:0000f530       ??_C@_0L@EKGCMDJL@customSkin@ 40056530     ui_saber.obj
 0002:0000f53c       ??_C@_09NAGGCFBE@saberType@ 4005653c     ui_saber.obj
 0002:0000f548       ??_C@_09NEDLCGJM@numBlades@ 40056548     ui_saber.obj
 0002:0000f554       ??_C@_0BB@HJNEKDIH@bladeStyle2Start@ 40056554     ui_saber.obj
 0002:0000f568       ??_C@_08JLEEMLBC@noBlade2@ 40056568     ui_saber.obj
 0002:0000f574       ??_C@_07OINOPDEA@noBlade@  40056574     ui_saber.obj
 0002:0000f57c       ??_C@_09BHFJEHJB@twoHanded@ 4005657c     ui_saber.obj
 0002:0000f588       ??_C@_0M@MOIKADHG@saberLength@ 40056588     ui_saber.obj
 0002:0000f594       ??_C@_0O@NPHLGLOI@saberLength?$CFd@ 40056594     ui_saber.obj
 0002:0000f5a4       ??_C@_0M@GAGBGIMM@saberRadius@ 400565a4     ui_saber.obj
 0002:0000f5b0       ??_C@_0O@BLDBDLOB@saberRadius?$CFd@ 400565b0     ui_saber.obj
 0002:0000f5c0       ??_C@_07POBCBIAL@notInMP@  400565c0     ui_saber.obj
 0002:0000f5c8       ??_C@_0EC@MMCDENKK@UI_SaberLoadParms?3?5Out?5of?5memor@ 400565c8     ui_saber.obj
 0002:0000f60c       ??_C@_0DD@KPOALLFN@UI_SaberLoadParms?3?5Out?5of?5memor@ 4005660c     ui_saber.obj
 0002:0000f640       ??_C@_04CAHIDOMH@?4sab@    40056640     ui_saber.obj
 0002:0000f648       ??_C@_0BA@MIBHFBCE@ext_data?1sabers@ 40056648     ui_saber.obj
 0002:0000f658       ??_C@_0BD@NNPCBGHA@ext_data?1sabers?1?$CFs@ 40056658     ui_saber.obj
 0002:0000f66c       ??_C@_0BO@KGOHOFHD@Saber?5parsing?3?5Out?5of?5memory?$CB@ 4005666c     ui_saber.obj
 0002:0000f68c       ??_C@_0CG@CEDNDEIG@UI_SaberLoadParms?3?5SaberParms?5i@ 4005668c     ui_saber.obj
 0002:0000f6b4       ??_C@_0CF@MHFDKMHE@UI_SaberLoadParms?3?5error?5readin@ 400566b4     ui_saber.obj
 0002:0000f6dc       ??_C@_0DG@DBPDBKBJ@UI_SaberLoadParms?3?5file?5?$CFs?5too?5@ 400566dc     ui_saber.obj
 0002:0000f718       ??_C@_0FB@JFKDGLAD@UI_SaberLoadParms?3?5ran?5out?5of?5s@ 40056718     ui_saber.obj
 0002:0000f76c       ??_C@_03FAAAOPJM@red@      4005676c     ui_saber.obj
 0002:0000f770       ??_C@_06HDDOCMMN@orange@   40056770     ui_saber.obj
 0002:0000f778       ??_C@_05GBEEJKMC@green@    40056778     ui_saber.obj
 0002:0000f780       ??_C@_04OBGPFBCN@blue@     40056780     ui_saber.obj
 0002:0000f788       ??_C@_06GEHONCEN@purple@   40056788     ui_saber.obj
 0002:0000f790       ??_C@_04EDBDANFH@cyan@     40056790     ui_saber.obj
 0002:0000f798       ??_C@_05BIMBDNDC@black@    40056798     ui_saber.obj
 0002:0000f7a0       ??_C@_03FNOJMHE@rgb@       400567a0     ui_saber.obj
 0002:0000f7a4       ??_C@_04OJBBHBCB@pimp@     400567a4     ui_saber.obj
 0002:0000f7ac       ??_C@_08IILCFMOF@scripted@ 400567ac     ui_saber.obj
 0002:0000f7b8       ??_C@_06NLFCANPD@random@   400567b8     ui_saber.obj
 0002:0000f7c0       ??_C@_0N@OGPMBMML@SABER_SINGLE@ 400567c0     ui_saber.obj
 0002:0000f7d0       ??_C@_0M@DCKEJJCC@SABER_BROAD@ 400567d0     ui_saber.obj
 0002:0000f7dc       ??_C@_0M@FMMLCOEM@SABER_PRONG@ 400567dc     ui_saber.obj
 0002:0000f7e8       ??_C@_0N@KPJEOBIO@SABER_DAGGER@ 400567e8     ui_saber.obj
 0002:0000f7f8       ??_C@_09JGPFAKGO@SABER_ARC@ 400567f8     ui_saber.obj
 0002:0000f804       ??_C@_09IIGKGANJ@SABER_SAI@ 40056804     ui_saber.obj
 0002:0000f810       ??_C@_0L@JGOENFGE@SABER_CLAW@ 40056810     ui_saber.obj
 0002:0000f81c       ??_C@_0M@INMNJHEK@SABER_LANCE@ 4005681c     ui_saber.obj
 0002:0000f828       ??_C@_0L@BONOMJND@SABER_STAR@ 40056828     ui_saber.obj
 0002:0000f834       ??_C@_0O@JGGDFEFK@SABER_TRIDENT@ 40056834     ui_saber.obj
 0002:0000f844       ??_C@_0BB@JEAOEMBG@SABER_SITH_SWORD@ 40056844     ui_saber.obj
 0002:0000f858       ??_C@_08EMAEECNA@?$CKblade?$CFd@ 40056858     ui_saber.obj
 0002:0000f864       ??_C@_06PDDIJHJI@?$CKflash@ 40056864     ui_saber.obj
 0002:0000f86c       ??_C@_06DCJKKMHM@dual_1@   4005686c     ui_saber.obj
 0002:0000f874       ??_C@_07BNEEMBEL@?$CKr_hand@ 40056874     ui_saber.obj
 0002:0000f87c       ??_C@_07CKKFCGNI@?$CKl_hand@ 4005687c     ui_saber.obj
 0002:0000f884       ??_C@_09EALBBMIF@saberlist@ 40056884     ui_saber.obj
 0002:0000f890       __real@3d99999a            40056890     ui_saber.obj
 0002:0000f894       __real@3e800000            40056894     ui_saber.obj
 0002:0000f898       __real@3ea8f5c3            40056898     ui_saber.obj
 0002:0000f89c       __real@3f2b851f            4005689c     ui_saber.obj
 0002:0000f8a0       __real@3f400000            400568a0     ui_saber.obj
 0002:0000f8a8       __real@4000000000000000    400568a8     ui_saber.obj
 0002:0000f8b0       __real@41c00000            400568b0     ui_saber.obj
 0002:0000f8b4       __real@42f00000            400568b4     ui_saber.obj
 0002:0000f8b8       __real@46fffe00            400568b8     ui_saber.obj
 0002:0000f8bc       __real@be800000            400568bc     ui_saber.obj
 0002:0000f8c0       __real@bea8f5c3            400568c0     ui_saber.obj
 0002:0000f8c4       __real@bf2b851f            400568c4     ui_saber.obj
 0002:0000f8c8       __real@bf400000            400568c8     ui_saber.obj
 0002:0000f8cc       ??_C@_0BE@MBDLAKDH@appearanceIncrement@ 400568cc     ui_shared.obj
 0002:0000f8e0       ??_C@_0L@NBMNMLHL@borderSize@ 400568e0     ui_shared.obj
 0002:0000f8ec       ??_C@_0O@COCPBLJA@descAlignment@ 400568ec     ui_shared.obj
 0002:0000f8fc       ??_C@_09PAHMHFNJ@desccolor@ 400568fc     ui_shared.obj
 0002:0000f908       ??_C@_05MNPDEGHK@descX@    40056908     ui_shared.obj
 0002:0000f910       ??_C@_05NEOIHHDL@descY@    40056910     ui_shared.obj
 0002:0000f918       ??_C@_09MEFJHNGH@descScale@ 40056918     ui_shared.obj
 0002:0000f924       ??_C@_0N@EEPADJLO@disablecolor@ 40056924     ui_shared.obj
 0002:0000f934       ??_C@_0L@OKFLOHAM@focuscolor@ 40056934     ui_shared.obj
 0002:0000f940       ??_C@_0L@GIACNHMO@fullscreen@ 40056940     ui_shared.obj
 0002:0000f94c       ??_C@_07BNAIEIKL@itemDef@  4005694c     ui_shared.obj
 0002:0000f954       ??_C@_07LAOJOJAJ@onClose@  40056954     ui_shared.obj
 0002:0000f95c       ??_C@_08POJJMKJK@onAccept@ 4005695c     ui_shared.obj
 0002:0000f968       ??_C@_05IIPJAONP@onESC@    40056968     ui_shared.obj
 0002:0000f970       ??_C@_0BB@FOHPFLED@outOfBoundsClick@ 40056970     ui_shared.obj
 0002:0000f984       ??_C@_06CJGNFCEB@onOpen@   40056984     ui_shared.obj
 0002:0000f98c       ??_C@_05EIEHMANA@popup@    4005698c     ui_shared.obj
 0002:0000f994       ??_C@_09LMHPKFJB@soundLoop@ 40056994     ui_shared.obj
 0002:0000f9a0       ??_C@_0BA@NNDAHIHE@WINDOW_INACTIVE@ 400569a0     ui_shared.obj
 0002:0000f9b0       ??_C@_0BD@BJJNFIHK@WINDOW_STYLE_EMPTY@ 400569b0     ui_shared.obj
 0002:0000f9c4       ??_C@_0BE@KLCEIIBH@WINDOW_STYLE_FILLED@ 400569c4     ui_shared.obj
 0002:0000f9d8       ??_C@_0BG@IEFBEMMN@WINDOW_STYLE_GRADIENT@ 400569d8     ui_shared.obj
 0002:0000f9f0       ??_C@_0BE@HECCLBFC@WINDOW_STYLE_SHADER@ 400569f0     ui_shared.obj
 0002:0000fa04       ??_C@_0BH@KNCNDPMK@WINDOW_STYLE_TEAMCOLOR@ 40056a04     ui_shared.obj
 0002:0000fa1c       ??_C@_0BH@CDGHPFEH@WINDOW_STYLE_CINEMATIC@ 40056a1c     ui_shared.obj
 0002:0000fa34       ??_C@_0BA@CFDMPPCB@ITEM_ALIGN_LEFT@ 40056a34     ui_shared.obj
 0002:0000fa44       ??_C@_0BC@JJHJJEIH@ITEM_ALIGN_CENTER@ 40056a44     ui_shared.obj
 0002:0000fa58       ??_C@_0BB@MDDHAHGK@ITEM_ALIGN_RIGHT@ 40056a58     ui_shared.obj
 0002:0000fa6c       ??_C@_0P@ECMIINLB@ITEM_TYPE_TEXT@ 40056a6c     ui_shared.obj
 0002:0000fa7c       ??_C@_0BB@LJMDMMLE@ITEM_TYPE_BUTTON@ 40056a7c     ui_shared.obj
 0002:0000fa90       ??_C@_0BG@BAAHBGEB@ITEM_TYPE_RADIOBUTTON@ 40056a90     ui_shared.obj
 0002:0000faa8       ??_C@_0BD@ILDGMNNN@ITEM_TYPE_CHECKBOX@ 40056aa8     ui_shared.obj
 0002:0000fabc       ??_C@_0BE@MNNMOPPO@ITEM_TYPE_EDITFIELD@ 40056abc     ui_shared.obj
 0002:0000fad0       ??_C@_0BA@OAMKEKLA@ITEM_TYPE_COMBO@ 40056ad0     ui_shared.obj
 0002:0000fae0       ??_C@_0BC@OFIOAFNP@ITEM_TYPE_LISTBOX@ 40056ae0     ui_shared.obj
 0002:0000faf4       ??_C@_0BA@IJKKCBAM@ITEM_TYPE_MODEL@ 40056af4     ui_shared.obj
 0002:0000fb04       ??_C@_0BE@EAPBKGDL@ITEM_TYPE_OWNERDRAW@ 40056b04     ui_shared.obj
 0002:0000fb18       ??_C@_0BH@GLLADPJF@ITEM_TYPE_NUMERICFIELD@ 40056b18     ui_shared.obj
 0002:0000fb30       ??_C@_0BB@HPDKNELK@ITEM_TYPE_SLIDER@ 40056b30     ui_shared.obj
 0002:0000fb44       ??_C@_0BA@LBOLKKCE@ITEM_TYPE_YESNO@ 40056b44     ui_shared.obj
 0002:0000fb54       ??_C@_0BA@GNNLLMC@ITEM_TYPE_MULTI@ 40056b54     ui_shared.obj
 0002:0000fb64       ??_C@_0P@LFNHJNLI@ITEM_TYPE_BIND@ 40056b64     ui_shared.obj
 0002:0000fb74       ??_C@_0BF@GHBOAADB@ITEM_TYPE_TEXTSCROLL@ 40056b74     ui_shared.obj
 0002:0000fb8c       ??_C@_0BE@GKLJFFMB@ITEM_TYPE_INTSLIDER@ 40056b8c     ui_shared.obj
 0002:0000fba0       ??_C@_09OPNKCLNO@backcolor@ 40056ba0     ui_shared.obj
 0002:0000fbac       ??_C@_09MONNBKNO@forecolor@ 40056bac     ui_shared.obj
 0002:0000fbb8       ??_C@_0M@CJNAABJD@bordercolor@ 40056bb8     ui_shared.obj
 0002:0000fbc4       ??_C@_06JFGPOFJL@fadein@   40056bc4     ui_shared.obj
 0002:0000fbcc       ??_C@_07BJADIKJG@fadeout@  40056bcc     ui_shared.obj
 0002:0000fbd4       ??_C@_04FKMICODN@show@     40056bd4     ui_shared.obj
 0002:0000fbdc       ??_C@_04IBOFHAPJ@hide@     40056bdc     ui_shared.obj
 0002:0000fbe4       ??_C@_08OKIEAMBM@setcolor@ 40056be4     ui_shared.obj
 0002:0000fbf0       ??_C@_04PMOCAHAA@open@     40056bf0     ui_shared.obj
 0002:0000fbf8       ??_C@_05LBOHBHFK@close@    40056bf8     ui_shared.obj
 0002:0000fc00       ??_C@_08FBOLLCAN@setasset@ 40056c00     ui_shared.obj
 0002:0000fc0c       ??_C@_0O@FOIIKEEB@setbackground@ 40056c0c     ui_shared.obj
 0002:0000fc1c       ??_C@_0BA@GEEJLPGN@setitemrectcvar@ 40056c1c     ui_shared.obj
 0002:0000fc2c       ??_C@_0BC@IHOKDANM@setitembackground@ 40056c2c     ui_shared.obj
 0002:0000fc40       ??_C@_0M@KNPKGGHL@setitemtext@ 40056c40     ui_shared.obj
 0002:0000fc4c       ??_C@_0N@EBBIOPHN@setitemcolor@ 40056c4c     ui_shared.obj
 0002:0000fc5c       ??_C@_0BB@HMPBEODN@setitemcolorcvar@ 40056c5c     ui_shared.obj
 0002:0000fc70       ??_C@_0M@DCMJNPEK@setitemrect@ 40056c70     ui_shared.obj
 0002:0000fc7c       ??_C@_0N@KMLJLNON@setteamcolor@ 40056c7c     ui_shared.obj
 0002:0000fc8c       ??_C@_08OKIAJKBO@setfocus@ 40056c8c     ui_shared.obj
 0002:0000fc98       ??_C@_0P@COHLPKKB@setplayermodel@ 40056c98     ui_shared.obj
 0002:0000fca8       ??_C@_0L@KGLELNDP@transition@ 40056ca8     ui_shared.obj
 0002:0000fcb4       ??_C@_07DFOFNCMO@setcvar@  40056cb4     ui_shared.obj
 0002:0000fcbc       ??_C@_0O@DOIJMEIF@setcvartocvar@ 40056cbc     ui_shared.obj
 0002:0000fccc       ??_C@_04MGEIEJAD@exec@     40056ccc     ui_shared.obj
 0002:0000fcd4       ??_C@_04GBHMDDO@play@      40056cd4     ui_shared.obj
 0002:0000fcdc       ??_C@_0L@NDOCJLDE@playlooped@ 40056cdc     ui_shared.obj
 0002:0000fce8       ??_C@_05KJPHCDKJ@orbit@    40056ce8     ui_shared.obj
 0002:0000fcf0       ??_C@_05MHMEBBGO@scale@    40056cf0     ui_shared.obj
 0002:0000fcf8       ??_C@_07DBNODEFN@disable@  40056cf8     ui_shared.obj
 0002:0000fd00       ??_C@_05MBNCFBEN@defer@    40056d00     ui_shared.obj
 0002:0000fd08       ??_C@_0M@CIHCAJBI@rundeferred@ 40056d08     ui_shared.obj
 0002:0000fd14       ??_C@_0M@FLLAMNPB@transition2@ 40056d14     ui_shared.obj
 0002:0000fd20       ??_C@_09OHPGAJCO@playvoice@ 40056d20     ui_shared.obj
 0002:0000fd2c       ??_C@_07PNHLECKB@?$CLscores@ 40056d2c     ui_shared.obj
 0002:0000fd34       ??_C@_08GFFBPDLD@?$CLbutton2@ 40056d34     ui_shared.obj
 0002:0000fd40       ??_C@_06JIDIHCBO@?$CLspeed@ 40056d40     ui_shared.obj
 0002:0000fd48       ??_C@_08KKEOHAPB@?$CLforward@ 40056d48     ui_shared.obj
 0002:0000fd54       ??_C@_05IPKGNIPH@?$CLback@ 40056d54     ui_shared.obj
 0002:0000fd5c       ??_C@_09IPJNFGKP@?$CLmoveleft@ 40056d5c     ui_shared.obj
 0002:0000fd68       ??_C@_0L@FMBJCMEG@?$CLmoveright@ 40056d68     ui_shared.obj
 0002:0000fd74       ??_C@_07CKGNAPCP@?$CLmoveup@ 40056d74     ui_shared.obj
 0002:0000fd7c       ??_C@_09HNJJMOJG@?$CLmovedown@ 40056d7c     ui_shared.obj
 0002:0000fd88       ??_C@_05HEGFDNLE@?$CLleft@ 40056d88     ui_shared.obj
 0002:0000fd90       ??_C@_06NGIHBNMB@?$CLright@ 40056d90     ui_shared.obj
 0002:0000fd98       ??_C@_07CHKKNAEO@?$CLstrafe@ 40056d98     ui_shared.obj
 0002:0000fda0       ??_C@_07BDFIGFL@?$CLlookup@ 40056da0     ui_shared.obj
 0002:0000fda8       ??_C@_09KCKOGCLI@?$CLlookdown@ 40056da8     ui_shared.obj
 0002:0000fdb4       ??_C@_06OBEGBCAL@?$CLmlook@ 40056db4     ui_shared.obj
 0002:0000fdbc       ??_C@_0L@FHIBDANG@centerview@ 40056dbc     ui_shared.obj
 0002:0000fdc8       ??_C@_08NFHIAPM@weapon?51@ 40056dc8     ui_shared.obj
 0002:0000fdd4       ??_C@_08CGHKNDDP@weapon?52@ 40056dd4     ui_shared.obj
 0002:0000fde0       ??_C@_08DPGBOCHO@weapon?53@ 40056de0     ui_shared.obj
 0002:0000fdec       ??_C@_08HACAHELJ@weapon?54@ 40056dec     ui_shared.obj
 0002:0000fdf8       ??_C@_08GJDLEFPI@weapon?55@ 40056df8     ui_shared.obj
 0002:0000fe04       ??_C@_08ECBGBGDL@weapon?56@ 40056e04     ui_shared.obj
 0002:0000fe10       ??_C@_08FLANCHHK@weapon?57@ 40056e10     ui_shared.obj
 0002:0000fe1c       ??_C@_08NMJFDLLF@weapon?58@ 40056e1c     ui_shared.obj
 0002:0000fe28       ??_C@_08MFIOAKPE@weapon?59@ 40056e28     ui_shared.obj
 0002:0000fe34       ??_C@_09GLEANPEE@weapon?510@ 40056e34     ui_shared.obj
 0002:0000fe40       ??_C@_0BB@CFPBIBMB@saberAttackCycle@ 40056e40     ui_shared.obj
 0002:0000fe54       ??_C@_09HCFLOOAF@weapon?511@ 40056e54     ui_shared.obj
 0002:0000fe60       ??_C@_09FJHGLNMG@weapon?512@ 40056e60     ui_shared.obj
 0002:0000fe6c       ??_C@_09EAGNIMIH@weapon?513@ 40056e6c     ui_shared.obj
 0002:0000fe78       ??_C@_07MAODEHGM@?$CLattack@ 40056e78     ui_shared.obj
 0002:0000fe80       ??_C@_0L@GDIPNNOO@?$CLaltattack@ 40056e80     ui_shared.obj
 0002:0000fe8c       ??_C@_04JNBAAPLC@?$CLuse@  40056e8c     ui_shared.obj
 0002:0000fe94       ??_C@_0M@HCFMJNJ@engage_duel@ 40056e94     ui_shared.obj
 0002:0000fea0       ??_C@_05CPCHEFAA@taunt@    40056ea0     ui_shared.obj
 0002:0000fea8       ??_C@_03GMGBHMEH@bow@      40056ea8     ui_shared.obj
 0002:0000feac       ??_C@_08LIGJJMBO@meditate@ 40056eac     ui_shared.obj
 0002:0000feb8       ??_C@_08KJHFDKHF@flourish@ 40056eb8     ui_shared.obj
 0002:0000fec4       ??_C@_05GGANABEC@gloat@    40056ec4     ui_shared.obj
 0002:0000fecc       ??_C@_08DMEBPOGB@weapprev@ 40056ecc     ui_shared.obj
 0002:0000fed8       ??_C@_08IJHOKAF@weapnext@  40056ed8     ui_shared.obj
 0002:0000fee4       ??_C@_0P@NMPIEJIB@prevTeamMember@ 40056ee4     ui_shared.obj
 0002:0000fef4       ??_C@_0P@GJIGAACM@nextTeamMember@ 40056ef4     ui_shared.obj
 0002:0000ff04       ??_C@_09DIHAGAEB@nextOrder@ 40056f04     ui_shared.obj
 0002:0000ff10       ??_C@_0N@KJLGMAFH@confirmOrder@ 40056f10     ui_shared.obj
 0002:0000ff20       ??_C@_09PEFBKJOE@denyOrder@ 40056f20     ui_shared.obj
 0002:0000ff2c       ??_C@_0M@PDBEJPDO@taskOffense@ 40056f2c     ui_shared.obj
 0002:0000ff38       ??_C@_0M@JPJGJJPF@taskDefense@ 40056f38     ui_shared.obj
 0002:0000ff44       ??_C@_0L@HNDPADH@taskPatrol@ 40056f44     ui_shared.obj
 0002:0000ff50       ??_C@_08OELCHPPI@taskCamp@ 40056f50     ui_shared.obj
 0002:0000ff5c       ??_C@_0L@HALHAPMG@taskFollow@ 40056f5c     ui_shared.obj
 0002:0000ff68       ??_C@_0N@DNLIECKN@taskRetrieve@ 40056f68     ui_shared.obj
 0002:0000ff78       ??_C@_0L@JKHNIMGE@taskEscort@ 40056f78     ui_shared.obj
 0002:0000ff84       ??_C@_0M@NPBCACOK@taskOwnFlag@ 40056f84     ui_shared.obj
 0002:0000ff90       ??_C@_0M@HEJOPHDA@taskSuicide@ 40056f90     ui_shared.obj
 0002:0000ff9c       ??_C@_0BA@LAKLAIKA@tauntKillInsult@ 40056f9c     ui_shared.obj
 0002:0000ffac       ??_C@_0M@FHJJKLIB@tauntPraise@ 40056fac     ui_shared.obj
 0002:0000ffb8       ??_C@_0L@OFGCNOGN@tauntTaunt@ 40056fb8     ui_shared.obj
 0002:0000ffc4       ??_C@_0BB@DHLHLJJP@tauntDeathInsult@ 40056fc4     ui_shared.obj
 0002:0000ffd8       ??_C@_0O@BNPKDDEF@tauntGauntlet@ 40056fd8     ui_shared.obj
 0002:0000ffe8       ??_C@_08NILIEBDN@scoresUp@ 40056fe8     ui_shared.obj
 0002:0000fff4       ??_C@_0L@JEAJCAAH@scoresDown@ 40056ff4     ui_shared.obj
 0002:00010000       ??_C@_0M@JINOELJH@messagemode@ 40057000     ui_shared.obj
 0002:0001000c       ??_C@_0N@IDIDIMNN@messagemode2@ 4005700c     ui_shared.obj
 0002:0001001c       ??_C@_0N@JKJILNJM@messagemode3@ 4005701c     ui_shared.obj
 0002:0001002c       ??_C@_0N@NFNJCLFL@messagemode4@ 4005702c     ui_shared.obj
 0002:0001003c       ??_C@_0M@DBDAMOEM@?$CLforce_jump@ 4005703c     ui_shared.obj
 0002:00010048       ??_C@_0M@IBJPDFKD@force_throw@ 40057048     ui_shared.obj
 0002:00010054       ??_C@_0L@IFCEHOHA@force_pull@ 40057054     ui_shared.obj
 0002:00010060       ??_C@_0M@GNLMHCDK@force_speed@ 40057060     ui_shared.obj
 0002:0001006c       ??_C@_0P@PMALMCEF@force_distract@ 4005706c     ui_shared.obj
 0002:0001007c       ??_C@_0L@INHFGGPP@force_heal@ 4005707c     ui_shared.obj
 0002:00010088       ??_C@_0M@FDHOJKJI@?$CLforce_grip@ 40057088     ui_shared.obj
 0002:00010094       ??_C@_0BB@PDNGOECE@?$CLforce_lightning@ 40057094     ui_shared.obj
 0002:000100a8       ??_C@_0N@FFCOOBHL@?$CLforce_drain@ 400570a8     ui_shared.obj
 0002:000100b8       ??_C@_0L@PNAILJHA@force_rage@ 400570b8     ui_shared.obj
 0002:000100c4       ??_C@_0O@MHNHIGKF@force_protect@ 400570c4     ui_shared.obj
 0002:000100d4       ??_C@_0N@LHEDBPBG@force_absorb@ 400570d4     ui_shared.obj
 0002:000100e4       ??_C@_0BA@FAEJBFDN@force_healother@ 400570e4     ui_shared.obj
 0002:000100f4       ??_C@_0BG@IPJAFHDH@force_forcepowerother@ 400570f4     ui_shared.obj
 0002:0001010c       ??_C@_0N@PIIHDBOG@force_seeing@ 4005710c     ui_shared.obj
 0002:0001011c       ??_C@_09LMEPJCFC@?$CLuseforce@ 4005711c     ui_shared.obj
 0002:00010128       ??_C@_09HEAPLILA@forcenext@ 40057128     ui_shared.obj
 0002:00010134       ??_C@_09EANJKMNE@forceprev@ 40057134     ui_shared.obj
 0002:00010140       ??_C@_07GIMAAJGF@invnext@  40057140     ui_shared.obj
 0002:00010148       ??_C@_07FMBGBNAB@invprev@  40057148     ui_shared.obj
 0002:00010150       ??_C@_0L@PHNIGFGH@use_seeker@ 40057150     ui_shared.obj
 0002:0001015c       ??_C@_09IOIGHDGJ@use_field@ 4005715c     ui_shared.obj
 0002:00010168       ??_C@_09GPEOCDOP@use_bacta@ 40057168     ui_shared.obj
 0002:00010174       ??_C@_0BG@OOGFIKBA@use_electrobinoculars@ 40057174     ui_shared.obj
 0002:0001018c       ??_C@_0L@HCOPHPIB@use_sentry@ 4005718c     ui_shared.obj
 0002:00010198       ??_C@_0BB@IOOMJMJB@cg_thirdperson?5?$CB@ 40057198     ui_shared.obj
 0002:000101ac       ??_C@_0P@FDFCLGNA@automap_button@ 400571ac     ui_shared.obj
 0002:000101bc       ??_C@_0P@HBEPEMGI@automap_toggle@ 400571bc     ui_shared.obj
 0002:000101cc       ??_C@_09GLHNJALG@voicechat@ 400571cc     ui_shared.obj
 0002:000101d8       ??_C@_09LNDLFJON@?$CLbutton12@ 400571d8     ui_shared.obj
 0002:000101e4       ??_C@_09KECAGIKM@?$CLbutton13@ 400571e4     ui_shared.obj
 0002:000101f0       ??_C@_09OLGBPOGL@?$CLbutton14@ 400571f0     ui_shared.obj
 0002:000101fc       ??_C@_09PCHKMPCK@?$CLbutton15@ 400571fc     ui_shared.obj
 0002:00010228       ??_C@_06GEEPENGB@feeder@   40057228     ui_shared.obj
 0002:00010230       ??_C@_06DDLLCOJG@action@   40057230     ui_shared.obj
 0002:00010238       ??_C@_0O@BGFKBLBI@addColorRange@ 40057238     ui_shared.obj
 0002:00010248       ??_C@_05CBJPDLOK@align@    40057248     ui_shared.obj
 0002:00010250       ??_C@_0M@HHKOOJO@autowrapped@ 40057250     ui_shared.obj
 0002:0001025c       ??_C@_0BA@HJNHMKEG@appearance_slot@ 4005725c     ui_shared.obj
 0002:0001026c       ??_C@_0M@DKAIGAGN@asset_model@ 4005726c     ui_shared.obj
 0002:00010278       ??_C@_0N@HLFJAKEA@asset_shader@ 40057278     ui_shared.obj
 0002:00010288       ??_C@_0L@EGCKCJDC@background@ 40057288     ui_shared.obj
 0002:00010294       ??_C@_06ODFLABIG@border@   40057294     ui_shared.obj
 0002:0001029c       ??_C@_0L@BAAMOEHP@bordersize@ 4005729c     ui_shared.obj
 0002:000102a8       ??_C@_09DHDJHDLH@cinematic@ 400572a8     ui_shared.obj
 0002:000102b4       ??_C@_07HIFEPIJN@columns@  400572b4     ui_shared.obj
 0002:000102bc       ??_C@_04PNAHEAFM@cvar@     400572bc     ui_shared.obj
 0002:000102c4       ??_C@_07OELNEAOA@cvarInt@  400572c4     ui_shared.obj
 0002:000102cc       ??_C@_09CGGKHKAP@cvarFloat@ 400572cc     ui_shared.obj
 0002:000102d8       ??_C@_0O@IKNDJMDK@cvarFloatList@ 400572d8     ui_shared.obj
 0002:000102e8       ??_C@_0M@GOKMFACI@cvarStrList@ 400572e8     ui_shared.obj
 0002:000102f4       ??_C@_08KBIDCBHN@cvarTest@ 400572f4     ui_shared.obj
 0002:00010300       ??_C@_08MCIJOGEA@desctext@ 40057300     ui_shared.obj
 0002:0001030c       ??_C@_0L@GFEIECKE@decoration@ 4005730c     ui_shared.obj
 0002:00010318       ??_C@_0M@FBHLBFCC@disableCvar@ 40057318     ui_shared.obj
 0002:00010324       ??_C@_0M@IHJKFHF@doubleclick@ 40057324     ui_shared.obj
 0002:00010330       ??_C@_0O@MNJDKOBB@elementheight@ 40057330     ui_shared.obj
 0002:00010340       ??_C@_0M@HBNIAHKL@elementtype@ 40057340     ui_shared.obj
 0002:0001034c       ??_C@_0N@MILKKPGL@elementwidth@ 4005734c     ui_shared.obj
 0002:0001035c       ??_C@_0L@LCDHKNEJ@enableCvar@ 4005735c     ui_shared.obj
 0002:00010368       ??_C@_04DNPGJOMD@flag@     40057368     ui_shared.obj
 0002:00010370       ??_C@_0L@NOGKCHFE@focusSound@ 40057370     ui_shared.obj
 0002:0001037c       ??_C@_05MGJOOGAJ@group@    4005737c     ui_shared.obj
 0002:00010384       ??_C@_08BDDCOCNI@hideCvar@ 40057384     ui_shared.obj
 0002:00010390       ??_C@_0BB@EIBMEDHI@horizontalscroll@ 40057390     ui_shared.obj
 0002:000103a4       ??_C@_0M@JODFBNF@isCharacter@ 400573a4     ui_shared.obj
 0002:000103b0       ??_C@_07GEILFICD@isSaber@  400573b0     ui_shared.obj
 0002:000103b8       ??_C@_08EPHDKOFL@isSaber2@ 400573b8     ui_shared.obj
 0002:000103c4       ??_C@_0L@LMAJDKOE@leaveFocus@ 400573c4     ui_shared.obj
 0002:000103d0       ??_C@_08IHGPPBOI@maxChars@ 400573d0     ui_shared.obj
 0002:000103dc       ??_C@_0O@HPCOAMJM@maxPaintChars@ 400573dc     ui_shared.obj
 0002:000103ec       ??_C@_0M@HHMGANAM@model_angle@ 400573ec     ui_shared.obj
 0002:000103f8       ??_C@_0L@MFDDKKLB@model_fovx@ 400573f8     ui_shared.obj
 0002:00010404       ??_C@_0L@NMCIJLPA@model_fovy@ 40057404     ui_shared.obj
 0002:00010410       ??_C@_0N@LHLPLFLG@model_origin@ 40057410     ui_shared.obj
 0002:00010420       ??_C@_0P@NOKHMHPD@model_rotation@ 40057420     ui_shared.obj
 0002:00010430       ??_C@_0N@GEHEFKNH@model_g2mins@ 40057430     ui_shared.obj
 0002:00010440       ??_C@_0N@LJGLKNPK@model_g2maxs@ 40057440     ui_shared.obj
 0002:00010450       ??_C@_0O@DMCMCDJO@model_g2scale@ 40057450     ui_shared.obj
 0002:00010460       ??_C@_0N@OLIOMBCG@model_g2skin@ 40057460     ui_shared.obj
 0002:00010470       ??_C@_0N@ONFNKGDF@model_g2anim@ 40057470     ui_shared.obj
 0002:00010480       ??_C@_0L@KAGOMOPN@mouseEnter@ 40057480     ui_shared.obj
 0002:0001048c       ??_C@_0P@BCEPHLNB@mouseEnterText@ 4005748c     ui_shared.obj
 0002:0001049c       ??_C@_09OIHCIOIA@mouseExit@ 4005749c     ui_shared.obj
 0002:000104a8       ??_C@_0O@GFPABKKP@mouseExitText@ 400574a8     ui_shared.obj
 0002:000104b8       ??_C@_0O@FDEIBLKE@notselectable@ 400574b8     ui_shared.obj
 0002:000104c8       ??_C@_07PFEHHELH@onFocus@  400574c8     ui_shared.obj
 0002:000104d0       ??_C@_0N@LGJOCBPD@outlinecolor@ 400574d0     ui_shared.obj
 0002:000104e0       ??_C@_09HGLBOMNF@ownerdraw@ 400574e0     ui_shared.obj
 0002:000104ec       ??_C@_0O@DACAJCLK@ownerdrawFlag@ 400574ec     ui_shared.obj
 0002:000104fc       ??_C@_04LHPFHFPH@rect@     400574fc     ui_shared.obj
 0002:00010504       ??_C@_08LBJPPPMM@rectcvar@ 40057504     ui_shared.obj
 0002:00010510       ??_C@_08LNBEMJIA@showCvar@ 40057510     ui_shared.obj
 0002:0001051c       ??_C@_07BELCMIIP@special@  4005751c     ui_shared.obj
 0002:00010524       ??_C@_05IAKJCFIM@style@    40057524     ui_shared.obj
 0002:0001052c       ??_C@_04CIMGMMMG@text@     4005752c     ui_shared.obj
 0002:00010534       ??_C@_09PNBDGNCL@textalign@ 40057534     ui_shared.obj
 0002:00010540       ??_C@_0L@ELKHBJND@textalignx@ 40057540     ui_shared.obj
 0002:0001054c       ??_C@_0L@FCLMCIJC@textaligny@ 4005754c     ui_shared.obj
 0002:00010558       ??_C@_09BLEIEHKP@textscale@ 40057558     ui_shared.obj
 0002:00010564       ??_C@_09FMCFHDEN@textstyle@ 40057564     ui_shared.obj
 0002:00010570       ??_C@_05JPFPPFDI@text2@    40057570     ui_shared.obj
 0002:00010578       ??_C@_0M@MIFHPNPG@text2alignx@ 40057578     ui_shared.obj
 0002:00010584       ??_C@_0M@NBEMMMLH@text2aligny@ 40057584     ui_shared.obj
 0002:00010590       ??_C@_07DPDAEJMK@visible@  40057590     ui_shared.obj
 0002:00010598       ??_C@_07FJHHECNJ@wrapped@  40057598     ui_shared.obj
 0002:000105a0       ??_C@_0N@NGJINDLF@maxLineChars@ 400575a0     ui_shared.obj
 0002:000105b0       ??_C@_0L@PPHHMIKE@lineHeight@ 400575b0     ui_shared.obj
 0002:000105bc       ??_C@_0M@IMNLLLNC@invertyesno@ 400575bc     ui_shared.obj
 0002:000105c8       ??_C@_0N@OJPOMGGP@scrollhidden@ 400575c8     ui_shared.obj
 0002:000105d8       ??_C@_09GCPJPMCM@xoffset?7?7@ 400575d8     ui_shared.obj
 0002:000105e4       ??_C@_0O@IEMOPEEA@cvarSubString@ 400575e4     ui_shared.obj
 0002:000105f4       ??_C@_0CD@LBKPCJLM@UI_Alloc?3?5Failure?4?5Out?5of?5memor@ 400575f4     ui_shared.obj
 0002:00010618       ??_C@_0BJ@GAPDFKFM@Memory?1String?5Pool?5Info?6@ 40057618     ui_shared.obj
 0002:00010634       ??_C@_0BC@DKLFONDB@?9?9?9?9?9?9?9?9?9?9?9?9?9?9?9?9?6@ 40057634     ui_shared.obj
 0002:00010648       ??_C@_0DG@MABFDHIF@String?5Pool?5is?5?$CF?41f?$CF?$CF?5full?0?5?$CFi?5@ 40057648     ui_shared.obj
 0002:00010680       ??_C@_0DG@OMGKABNP@Memory?5Pool?5is?5?$CF?41f?$CF?$CF?5full?0?5?$CFi?5@ 40057680     ui_shared.obj
 0002:000106b8       ??_C@_0BK@OKFEFFGN@?$FO1ERROR?3?5?$CFs?0?5line?5?$CFd?3?5?$CFs?6@ 400576b8     ui_shared.obj
 0002:000106d4       ??_C@_0BN@CKJPOGNB@expected?5float?5but?5found?5?$CFs?6@ 400576d4     ui_shared.obj
 0002:000106f4       ??_C@_0BP@FLADEANJ@expected?5integer?5but?5found?5?$CFs?6@ 400576f4     ui_shared.obj
 0002:00010714       ??_C@_04OEDFLLKD@?$CC?$CFs?$CC@ 40057714     ui_shared.obj
 0002:0001071c       ??_C@_0CL@IDBGDCGN@?$FO3WARNING?3?5item?5has?5neither?5nam@ 4005771c     ui_shared.obj
 0002:00010748       ??_C@_03NFKEKGGK@all@      40057748     ui_shared.obj
 0002:0001074c       ??_C@_0DD@ICNKGIM@?$FO3WARNING?3?5Script_Transition2?3?5@ 4005774c     ui_shared.obj
 0002:00010780       ??_C@_04HIDEMJAH@vstr@     40057780     ui_shared.obj
 0002:00010788       ??_C@_0O@NAIAAIEJ@maptransition@ 40057788     ui_shared.obj
 0002:00010798       ??_C@_06CICODAJE@map?5?$CFs@ 40057798     ui_shared.obj
 0002:000107a0       ??_C@_05LKKGNBCL@?$CFs?5?$DL?5@ 400577a0     ui_shared.obj
 0002:000107a8       ??_C@_09DNECJBKD@developer@ 400577a8     ui_shared.obj
 0002:000107b4       ??_C@_0M@FHKEBODE@screenshot?6@ 400577b4     ui_shared.obj
 0002:000107c0       ??_C@_0BB@ECGEJEGA@MENUS_KEYBIND_OR@ 400577c0     ui_shared.obj
 0002:000107d4       ??_C@_04KMMDIKEB@?5?$CFs?5@ 400577d4     ui_shared.obj
 0002:000107dc       ??_C@_05DJCKAPIL@FIXME@    400577dc     ui_shared.obj
 0002:000107e4       ??_C@_04HAEDHBJD@?4glm@    400577e4     ui_shared.obj
 0002:000107ec       ??_C@_0P@BNFHKDFH@?1animation?4cfg@ 400577ec     ui_shared.obj
 0002:000107fc       ??_C@_0L@OPBBEMAA@model_root@ 400577fc     ui_shared.obj
 0002:00010808       ??_C@_0CH@JIJGKJHM@Could?5not?5find?5?8?$CFs?8?5in?5the?5anim@ 40057808     ui_shared.obj
 0002:00010830       ??_C@_0CA@MBEPFCBH@?$FO3Unknown?5item?5style?5value?5?8?$CFs?8@ 40057830     ui_shared.obj
 0002:00010850       ??_C@_0BL@LEGNDHIH@?$FO3Unknown?5item?5style?5value@ 40057850     ui_shared.obj
 0002:0001086c       ??_C@_0BP@JDCINHG@?$FO3Unknown?5text?5alignment?5value@ 4005786c     ui_shared.obj
 0002:0001088c       ??_C@_09FCFBCLEB@?$EAMENUS_?$CFs@ 4005788c     ui_shared.obj
 0002:00010898       ??_C@_0BO@GKGLOPGG@end?5of?5file?5inside?5menu?5item?6@ 40057898     ui_shared.obj
 0002:000108b8       ??_C@_0BN@JHFMAPJL@unknown?5menu?5item?5keyword?5?$CFs@ 400578b8     ui_shared.obj
 0002:000108d8       ??_C@_0CE@OIGKMGKE@couldn?8t?5parse?5menu?5item?5keywor@ 400578d8     ui_shared.obj
 0002:000108fc       ??_C@_04GJDJEMBE@?$CFc?$CFc@ 400578fc     ui_shared.obj
 0002:00010904       ??_C@_0BL@EDFDLOD@?$FO3Unknown?5menu?5style?5value@ 40057904     ui_shared.obj
 0002:00010920       ??_C@_0CA@IBHJGPHG@?$FO3Unknown?5desc?5alignment?5value?6@ 40057920     ui_shared.obj
 0002:00010940       ??_C@_0BJ@MPIMCBOA@end?5of?5file?5inside?5menu?6@ 40057940     ui_shared.obj
 0002:0001095c       ??_C@_0BI@PALCAEGK@unknown?5menu?5keyword?5?$CFs@ 4005795c     ui_shared.obj
 0002:00010974       ??_C@_0BP@HJCDHJDP@couldn?8t?5parse?5menu?5keyword?5?$CFs@ 40057974     ui_shared.obj
 0002:00010994       ??_C@_07KLAFGBNN@fps?3?5?$CFf@ 40057994     ui_shared.obj
 0002:0001099c       ??_C@_0M@CDGBDLAG@x?3?5?$CFd?5?5y?3?$CFd@ 4005799c     ui_shared.obj
 0002:000109a8       __real@33800000            400579a8     ui_shared.obj
 0002:000109ac       __real@3d4ccccd            400579ac     ui_shared.obj
 0002:000109b0       __real@3faaceea00000000    400579b0     ui_shared.obj
 0002:000109b8       __real@3fd126e978d4fdf4    400579b8     ui_shared.obj
 0002:000109c0       __real@3fe999999999999a    400579c0     ui_shared.obj
 0002:000109c8       __real@4010000000000000    400579c8     ui_shared.obj
 0002:000109d0       __real@4018000000000000    400579d0     ui_shared.obj
 0002:000109d8       __real@4020000000000000    400579d8     ui_shared.obj
 0002:000109e0       __real@4024000000000000    400579e0     ui_shared.obj
 0002:000109e8       __real@402e000000000000    400579e8     ui_shared.obj
 0002:000109f0       __real@4030000000000000    400579f0     ui_shared.obj
 0002:000109f8       __real@4040000000000000    400579f8     ui_shared.obj
 0002:00010a00       __real@4058000000000000    40057a00     ui_shared.obj
 0002:00010a08       __real@405ca5dc00000000    40057a08     ui_shared.obj
 0002:00010a10       __real@42480000            40057a10     ui_shared.obj
 0002:00010a14       __real@42c00000            40057a14     ui_shared.obj
 0002:00010a18       __real@42c80000            40057a18     ui_shared.obj
 0002:00010a1c       __real@42cc0000            40057a1c     ui_shared.obj
 0002:00010a20       __real@44200000            40057a20     ui_shared.obj
 0002:00010a24       __real@48c00000            40057a24     ui_shared.obj
 0002:00010a28       __real@bfe0000000000000    40057a28     ui_shared.obj
 0002:00010a30       __real@c1800000            40057a30     ui_shared.obj
 0002:00010a34       __real@c1c00000            40057a34     ui_shared.obj
 0002:00010a40       __xmm@00100004001000040010000400100004 40057a40     ui_shared.obj
 0002:00010a50       __xmm@3f4ccccd00000000000000003f4ccccd 40057a50     ui_shared.obj
 0002:00010a60       __xmm@3f4ccccd3f4ccccd3f4ccccd3f4ccccd 40057a60     ui_shared.obj
 0002:00010a70       __xmm@3f800000000000000000000000000000 40057a70     ui_shared.obj
 0002:00010a80       __xmm@3f8000003f8000003f8000003f800000 40057a80     ui_shared.obj
 0002:00010a9c       __pDefaultRawDllMain       40057a9c     LIBCMT:dll_dllmain.obj
 0002:00010a9c       __pRawDllMain              40057a9c     LIBCMT:dll_dllmain.obj
 0002:00010aa8       __pDestructExceptionObject 40057aa8     libvcruntime:ehhelpers.obj
 0002:00010e38       ??_C@_08EHJDFFNH@__based?$CI@ 40057e38     libvcruntime:undname.obj
 0002:00010e44       ??_C@_07KOLFKCDI@__cdecl@  40057e44     libvcruntime:undname.obj
 0002:00010e4c       ??_C@_09IFJBGAPI@__stdcall@ 40057e4c     libvcruntime:undname.obj
 0002:00010e58       ??_C@_0L@NPHFGOKO@__thiscall@ 40057e58     libvcruntime:undname.obj
 0002:00010e64       ??_C@_0L@JMKHOMEK@__fastcall@ 40057e64     libvcruntime:undname.obj
 0002:00010e70       ??_C@_0N@BCKKPABJ@__vectorcall@ 40057e70     libvcruntime:undname.obj
 0002:00010e80       ??_C@_0BA@NAGGFLJK@__preserve_none@ 40057e80     libvcruntime:undname.obj
 0002:00010e90       ??_C@_09HIJEGCPM@__clrcall@ 40057e90     libvcruntime:undname.obj
 0002:00010e9c       ??_C@_06GHPCKEAG@__eabi@   40057e9c     libvcruntime:undname.obj
 0002:00010ea4       ??_C@_09IOPIDJLG@__swift_1@ 40057ea4     libvcruntime:undname.obj
 0002:00010eb0       ??_C@_09KFNFGKHF@__swift_2@ 40057eb0     libvcruntime:undname.obj
 0002:00010ebc       ??_C@_09LMMOFLDE@__swift_3@ 40057ebc     libvcruntime:undname.obj
 0002:00010ec8       ??_C@_07JOMMBBKO@__ptr64@  40057ec8     libvcruntime:undname.obj
 0002:00010ed0       ??_C@_0L@PILCLIHE@__restrict@ 40057ed0     libvcruntime:undname.obj
 0002:00010edc       ??_C@_0M@GFIIJFMG@__unaligned@ 40057edc     libvcruntime:undname.obj
 0002:00010ee8       ??_C@_09DHDLOLLB@restrict?$CI@ 40057ee8     libvcruntime:undname.obj
 0002:00010ef4       ??_C@_04NIHEBCM@?5new@     40057ef4     libvcruntime:undname.obj
 0002:00010efc       ??_C@_07FPCDHGMM@?5delete@ 40057efc     libvcruntime:undname.obj
 0002:00010f04       ??_C@_01NEMOKFLO@?$DN@     40057f04     libvcruntime:undname.obj
 0002:00010f08       ??_C@_02GPIOPFAK@?$DO?$DO@ 40057f08     libvcruntime:undname.obj
 0002:00010f0c       ??_C@_02FODMEDOG@?$DM?$DM@ 40057f0c     libvcruntime:undname.obj
 0002:00010f10       ??_C@_01DCLJPIOD@?$CB@     40057f10     libvcruntime:undname.obj
 0002:00010f14       ??_C@_02EGOFBIJA@?$DN?$DN@ 40057f14     libvcruntime:undname.obj
 0002:00010f18       ??_C@_02FDNJECIE@?$CB?$DN@ 40057f18     libvcruntime:undname.obj
 0002:00010f1c       ??_C@_02GPECMEKF@?$FL?$FN@ 40057f1c     libvcruntime:undname.obj
 0002:00010f20       ??_C@_08LHJFAFGD@operator@ 40057f20     libvcruntime:undname.obj
 0002:00010f2c       ??_C@_02HBOOOICD@?9?$DO@   40057f2c     libvcruntime:undname.obj
 0002:00010f30       ??_C@_01NBENCBCI@?$CK@     40057f30     libvcruntime:undname.obj
 0002:00010f34       ??_C@_02ECNGHCIF@?$CL?$CL@ 40057f34     libvcruntime:undname.obj
 0002:00010f38       ??_C@_02BAABKJLB@?9?9@     40057f38     libvcruntime:undname.obj
 0002:00010f3c       ??_C@_01JOAMLHOP@?9@       40057f3c     libvcruntime:undname.obj
 0002:00010f40       ??_C@_01MIFGBAGJ@?$CL@     40057f40     libvcruntime:undname.obj
 0002:00010f44       ??_C@_01HNPIGOCE@?$CG@     40057f44     libvcruntime:undname.obj
 0002:00010f48       ??_C@_03MNHNFDLC@?9?$DO?$CK@ 40057f48     libvcruntime:undname.obj
 0002:00010f4c       ??_C@_01FGNFDNOH@?$CF@     40057f4c     libvcruntime:undname.obj
 0002:00010f50       ??_C@_01MNNFJEPP@?$DM@     40057f50     libvcruntime:undname.obj
 0002:00010f54       ??_C@_02EHCHHCKH@?$DM?$DN@ 40057f54     libvcruntime:undname.obj
 0002:00010f58       ??_C@_01PPODPGHN@?$DO@     40057f58     libvcruntime:undname.obj
 0002:00010f5c       ??_C@_02EEKDKGMJ@?$DO?$DN@ 40057f5c     libvcruntime:undname.obj
 0002:00010f60       ??_C@_01IHBHIGKO@?0@       40057f60     libvcruntime:undname.obj
 0002:00010f64       ??_C@_02HCKGKOFO@?$CI?$CJ@ 40057f64     libvcruntime:undname.obj
 0002:00010f68       ??_C@_01PJKLJHI@?$HO@      40057f68     libvcruntime:undname.obj
 0002:00010f6c       ??_C@_01JKBOJNNK@?$FO@     40057f6c     libvcruntime:undname.obj
 0002:00010f70       ??_C@_01DNKMNLPK@?$HM@     40057f70     libvcruntime:undname.obj
 0002:00010f74       ??_C@_02PPKAJPJL@?$CG?$CG@ 40057f74     libvcruntime:undname.obj
 0002:00010f78       ??_C@_02NONPIBCD@?$HM?$HM@ 40057f78     libvcruntime:undname.obj
 0002:00010f7c       ??_C@_02FPIMKNGF@?$CK?$DN@ 40057f7c     libvcruntime:undname.obj
 0002:00010f80       ??_C@_02FOEOMHFC@?$CL?$DN@ 40057f80     libvcruntime:undname.obj
 0002:00010f84       ??_C@_02FKMDLLOA@?9?$DN@   40057f84     libvcruntime:undname.obj
 0002:00010f88       ??_C@_02FJEHGPIO@?1?$DN@   40057f88     libvcruntime:undname.obj
 0002:00010f8c       ??_C@_02FENAOKFI@?$CF?$DN@ 40057f8c     libvcruntime:undname.obj
 0002:00010f90       ??_C@_03IKFCCPFF@?$DO?$DO?$DN@ 40057f90     libvcruntime:undname.obj
 0002:00010f94       ??_C@_03CDNPDDLA@?$DM?$DM?$DN@ 40057f94     libvcruntime:undname.obj
 0002:00010f98       ??_C@_02FGJGFEAB@?$CG?$DN@ 40057f98     libvcruntime:undname.obj
 0002:00010f9c       ??_C@_02DHLNPPGH@?$HM?$DN@ 40057f9c     libvcruntime:undname.obj
 0002:00010fa0       ??_C@_02MHEGNOJ@?$FO?$DN@  40057fa0     libvcruntime:undname.obj
 0002:00010fa4       ??_C@_09IFPLHPGF@?$GAvftable?8@ 40057fa4     libvcruntime:undname.obj
 0002:00010fb0       ??_C@_09BLBHBJP@?$GAvbtable?8@ 40057fb0     libvcruntime:undname.obj
 0002:00010fbc       ??_C@_07FEEIOKP@?$GAvcall?8@ 40057fbc     libvcruntime:undname.obj
 0002:00010fc4       ??_C@_08LLFFHHDJ@?$GAtypeof?8@ 40057fc4     libvcruntime:undname.obj
 0002:00010fd0       ??_C@_0BF@KDPPACIK@?$GAlocal?5static?5guard?8@ 40057fd0     libvcruntime:undname.obj
 0002:00010fe8       ??_C@_08OBABFOLI@?$GAstring?8@ 40057fe8     libvcruntime:undname.obj
 0002:00010ff4       ??_C@_0BD@JDLKDPAB@?$GAvbase?5destructor?8@ 40057ff4     libvcruntime:undname.obj
 0002:00011008       ??_C@_0BN@DEGPLNFK@?$GAvector?5deleting?5destructor?8@ 40058008     libvcruntime:undname.obj
 0002:00011028       ??_C@_0BO@OBMKPJIG@?$GAdefault?5constructor?5closure?8@ 40058028     libvcruntime:undname.obj
 0002:00011048       ??_C@_0BN@IMDCHIKM@?$GAscalar?5deleting?5destructor?8@ 40058048     libvcruntime:undname.obj
 0002:00011068       ??_C@_0BO@PFGOCPJJ@?$GAvector?5constructor?5iterator?8@ 40058068     libvcruntime:undname.obj
 0002:00011088       ??_C@_0BN@LFPFMEDL@?$GAvector?5destructor?5iterator?8@ 40058088     libvcruntime:undname.obj
 0002:000110a8       ??_C@_0CE@IKBNEHA@?$GAvector?5vbase?5constructor?5itera@ 400580a8     libvcruntime:undname.obj
 0002:000110cc       ??_C@_0BL@NILFHHPC@?$GAvirtual?5displacement?5map?8@ 400580cc     libvcruntime:undname.obj
 0002:000110e8       ??_C@_0CB@JONCMFFK@?$GAeh?5vector?5constructor?5iterator@ 400580e8     libvcruntime:undname.obj
 0002:0001110c       ??_C@_0CA@GCEOPDGL@?$GAeh?5vector?5destructor?5iterator?8@ 4005810c     libvcruntime:undname.obj
 0002:0001112c       ??_C@_0CH@OOJPLCPH@?$GAeh?5vector?5vbase?5constructor?5it@ 4005812c     libvcruntime:undname.obj
 0002:00011154       ??_C@_0BL@LLKPOHJI@?$GAcopy?5constructor?5closure?8@ 40058154     libvcruntime:undname.obj
 0002:00011170       ??_C@_0BA@KBCDOMBN@?$GAudt?5returning?8@ 40058170     libvcruntime:undname.obj
 0002:00011180       ??_C@_03KLGMFNMG@?$GAEH@   40058180     libvcruntime:undname.obj
 0002:00011184       ??_C@_05KHLCHHI@?$GARTTI@  40058184     libvcruntime:undname.obj
 0002:0001118c       ??_C@_0BA@KKLDJDLB@?$GAlocal?5vftable?8@ 4005818c     libvcruntime:undname.obj
 0002:0001119c       ??_C@_0CE@IIHCMGGL@?$GAlocal?5vftable?5constructor?5clos@ 4005819c     libvcruntime:undname.obj
 0002:000111c0       ??_C@_06FHBGPFGH@?5new?$FL?$FN@ 400581c0     libvcruntime:undname.obj
 0002:000111c8       ??_C@_09LBNFPBCA@?5delete?$FL?$FN@ 400581c8     libvcruntime:undname.obj
 0002:000111d4       ??_C@_0P@HJKNJFNN@?$GAomni?5callsig?8@ 400581d4     libvcruntime:undname.obj
 0002:000111e4       ??_C@_0BL@CNOONJFP@?$GAplacement?5delete?5closure?8@ 400581e4     libvcruntime:undname.obj
 0002:00011200       ??_C@_0BN@CKNJLHMB@?$GAplacement?5delete?$FL?$FN?5closure?8@ 40058200     libvcruntime:undname.obj
 0002:00011220       ??_C@_0CG@CFDHKGGD@?$GAmanaged?5vector?5constructor?5ite@ 40058220     libvcruntime:undname.obj
 0002:00011248       ??_C@_0CF@IMGKMJNO@?$GAmanaged?5vector?5destructor?5iter@ 40058248     libvcruntime:undname.obj
 0002:00011270       ??_C@_0CG@HLDDJMAG@?$GAeh?5vector?5copy?5constructor?5ite@ 40058270     libvcruntime:undname.obj
 0002:00011298       ??_C@_0CM@FCBBDIGB@?$GAeh?5vector?5vbase?5copy?5construct@ 40058298     libvcruntime:undname.obj
 0002:000112c4       ??_C@_0BL@CLIPGLGB@?$GAdynamic?5initializer?5for?5?8@ 400582c4     libvcruntime:undname.obj
 0002:000112e0       ??_C@_0CB@PDBIFEP@?$GAdynamic?5atexit?5destructor?5for?5@ 400582e0     libvcruntime:undname.obj
 0002:00011304       ??_C@_0CD@CGAJBKEJ@?$GAvector?5copy?5constructor?5iterat@ 40058304     libvcruntime:undname.obj
 0002:00011328       ??_C@_0CJ@GJELGAMM@?$GAvector?5vbase?5copy?5constructor?5@ 40058328     libvcruntime:undname.obj
 0002:00011354       ??_C@_0CL@FGIJHLCE@?$GAmanaged?5vector?5copy?5constructo@ 40058354     libvcruntime:undname.obj
 0002:00011380       ??_C@_0BM@PMGGMLDN@?$GAlocal?5static?5thread?5guard?8@ 40058380     libvcruntime:undname.obj
 0002:0001139c       ??_C@_0N@BDNMDMOL@operator?5?$CC?$CC?5@ 4005839c     libvcruntime:undname.obj
 0002:000113ac       ??_C@_0BC@GGEBGALA@operator?5co_await@ 400583ac     libvcruntime:undname.obj
 0002:000113c0       ??_C@_0M@GAAIMMOH@operator?$DM?$DN?$DO@ 400583c0     libvcruntime:undname.obj
 0002:000113cc       ??_C@_0BC@DAFEJGAK@?5Type?5Descriptor?8@ 400583cc     libvcruntime:undname.obj
 0002:000113e0       ??_C@_0BM@LDKODKLH@?5Base?5Class?5Descriptor?5at?5?$CI@ 400583e0     libvcruntime:undname.obj
 0002:000113fc       ??_C@_0BD@LGICGFMM@?5Base?5Class?5Array?8@ 400583fc     libvcruntime:undname.obj
 0002:00011410       ??_C@_0BN@MECKDCOJ@?5Class?5Hierarchy?5Descriptor?8@ 40058410     libvcruntime:undname.obj
 0002:00011430       ??_C@_0BK@CFCOFLF@?5Complete?5Object?5Locator?8@ 40058430     libvcruntime:undname.obj
 0002:0001144c       ??_C@_0BG@JNJLAMPM@?$GAanonymous?5namespace?8@ 4005844c     libvcruntime:undname.obj
 0002:00011470       ??_C@_1DM@KHCHBNEB@?$AAa?$AAp?$AAi?$AA?9?$AAm?$AAs?$AA?9?$AAw?$AAi?$AAn?$AA?9?$AAc?$AAo?$AAr?$AAe@ 40058470     libvcruntime:winapi_downlevel.obj
 0002:000114ac       ??_C@_1DK@LPPGFMPP@?$AAa?$AAp?$AAi?$AA?9?$AAm?$AAs?$AA?9?$AAw?$AAi?$AAn?$AA?9?$AAc?$AAo?$AAr?$AAe@ 400584ac     libvcruntime:winapi_downlevel.obj
 0002:000114e8       ??_C@_1BC@GDMECMAK@?$AAk?$AAe?$AAr?$AAn?$AAe?$AAl?$AA3?$AA2@ 400584e8     libvcruntime:winapi_downlevel.obj
 0002:000114fc       ??_C@_1BA@PFFKHIOG@?$AAa?$AAp?$AAi?$AA?9?$AAm?$AAs?$AA?9@ 400584fc     libvcruntime:winapi_downlevel.obj
 0002:00011514       ??_C@_08KNHFBNJ@FlsAlloc@  40058514     libvcruntime:winapi_downlevel.obj
 0002:00011528       ??_C@_07PEJMOBNF@FlsFree@  40058528     libvcruntime:winapi_downlevel.obj
 0002:00011538       ??_C@_0M@GDNOONDI@FlsGetValue@ 40058538     libvcruntime:winapi_downlevel.obj
 0002:0001154c       ??_C@_0M@JCPCPOEF@FlsSetValue@ 4005854c     libvcruntime:winapi_downlevel.obj
 0002:00011560       ??_C@_0BM@HCFOFFN@InitializeCriticalSectionEx@ 40058560     libvcruntime:winapi_downlevel.obj
 0002:00011580       ??_7exception@std@@6B@     40058580     libvcruntime:frame.obj
 0002:00011588       ??_C@_0BC@EOODALEL@Unknown?5exception@ 40058588     libvcruntime:frame.obj
 0002:000115a0       ??_7bad_exception@std@@6B@ 400585a0     libvcruntime:frame.obj
 0002:000115a8       ??_C@_0O@DPKOEFFH@bad?5exception@ 400585a8     libvcruntime:frame.obj
 0002:00011710       ?large_power_data@?1??multiply_by_power_of_ten@__crt_strtox@@YA_NAAUbig_integer@2@I@Z@4QBIB 40058710     libucrt:atof.obj
 0002:00012018       ?large_power_indices@?1??multiply_by_power_of_ten@__crt_strtox@@YA_NAAUbig_integer@2@I@Z@4QBUunpack_index@?1??12@YA_N0I@Z@B 40059018     libucrt:atof.obj
 0002:000120b0       ?small_powers_of_ten@?1??multiply_by_power_of_ten@__crt_strtox@@YA_NAAUbig_integer@2@I@Z@4QBIB 400590b0     libucrt:atof.obj
 0002:000120d8       ??_C@_1GE@DPGDJKLM@?$AAm?$AAi?$AAn?$AAk?$AAe?$AAr?$AAn?$AAe?$AAl?$AA?2?$AAc?$AAr?$AAt?$AAs?$AA?2@ 400590d8     libucrt:atof.obj
 0002:00012140       ??_C@_1FM@FELNCOBF@?$AA_?$AA_?$AAc?$AAr?$AAt?$AA_?$AAs?$AAt?$AAr?$AAt?$AAo?$AAx?$AA?3?$AA?3?$AAf@ 40059140     libucrt:atof.obj
 0002:0001219c       ??_C@_1BG@GEMHBGAF@?$AA_?$AAi?$AAs?$AA_?$AAd?$AAo?$AAu?$AAb?$AAl?$AAe@ 4005919c     libucrt:atof.obj
 0002:000121b8       ??_C@_1FK@JOJELFFO@?$AA_?$AA_?$AAc?$AAr?$AAt?$AA_?$AAs?$AAt?$AAr?$AAt?$AAo?$AAx?$AA?3?$AA?3?$AAf@ 400591b8     libucrt:atof.obj
 0002:00012214       ??_C@_1BI@BANMPGJI@?$AA?$CB?$AA_?$AAi?$AAs?$AA_?$AAd?$AAo?$AAu?$AAb?$AAl?$AAe@ 40059214     libucrt:atof.obj
 0002:0001222c       ?inf_uppercase@?1???$parse_floating_point_possible_infinity@DV?$c_string_character_source@D@__crt_strtox@@PBD@__crt_strtox@@YA?AW4floating_point_parse_result@1@AADAAV?$c_string_character_source@D@1@PBD@Z@4QBDB 4005922c     libucrt:atof.obj
 0002:00012230       ?inf_lowercase@?1???$parse_floating_point_possible_infinity@DV?$c_string_character_source@D@__crt_strtox@@PBD@__crt_strtox@@YA?AW4floating_point_parse_result@1@AADAAV?$c_string_character_source@D@1@PBD@Z@4QBDB 40059230     libucrt:atof.obj
 0002:00012234       ?inity_uppercase@?1???$parse_floating_point_possible_infinity@DV?$c_string_character_source@D@__crt_strtox@@PBD@__crt_strtox@@YA?AW4floating_point_parse_result@1@AADAAV?$c_string_character_source@D@1@PBD@Z@4QBDB 40059234     libucrt:atof.obj
 0002:0001223c       ?inity_lowercase@?1???$parse_floating_point_possible_infinity@DV?$c_string_character_source@D@__crt_strtox@@PBD@__crt_strtox@@YA?AW4floating_point_parse_result@1@AADAAV?$c_string_character_source@D@1@PBD@Z@4QBDB 4005923c     libucrt:atof.obj
 0002:00012244       ?uppercase@?1???$parse_floating_point_possible_nan@DV?$c_string_character_source@D@__crt_strtox@@PBD@__crt_strtox@@YA?AW4floating_point_parse_result@1@AADAAV?$c_string_character_source@D@1@PBD@Z@4QBDB 40059244     libucrt:atof.obj
 0002:00012248       ?lowercase@?1???$parse_floating_point_possible_nan@DV?$c_string_character_source@D@__crt_strtox@@PBD@__crt_strtox@@YA?AW4floating_point_parse_result@1@AADAAV?$c_string_character_source@D@1@PBD@Z@4QBDB 40059248     libucrt:atof.obj
 0002:0001224c       ?uppercase@?1???$parse_floating_point_possible_nan_is_snan@DV?$c_string_character_source@D@__crt_strtox@@@__crt_strtox@@YA_NAADAAV?$c_string_character_source@D@1@@Z@4QBDB 4005924c     libucrt:atof.obj
 0002:00012254       ?lowercase@?1???$parse_floating_point_possible_nan_is_snan@DV?$c_string_character_source@D@__crt_strtox@@@__crt_strtox@@YA_NAADAAV?$c_string_character_source@D@1@@Z@4QBDB 40059254     libucrt:atof.obj
 0002:0001225c       ?uppercase@?1???$parse_floating_point_possible_nan_is_ind@DV?$c_string_character_source@D@__crt_strtox@@@__crt_strtox@@YA_NAADAAV?$c_string_character_source@D@1@@Z@4QBDB 4005925c     libucrt:atof.obj
 0002:00012260       ?lowercase@?1???$parse_floating_point_possible_nan_is_ind@DV?$c_string_character_source@D@__crt_strtox@@@__crt_strtox@@YA_NAADAAV?$c_string_character_source@D@1@@Z@4QBDB 40059260     libucrt:atof.obj
 0002:00012268       __real@0000000000000000    40059268     libucrt:atof.obj
 0002:00012270       __OP_FMODjmptab            40059270     libucrt:87fmod_impl.obj
 0002:000123e0       ?standard_lookup_table_spectre@__crt_stdio_output@@3V?$spectre_mitigated_lookup_table@Ustate_transition_pair@__crt_stdio_output@@$0IA@@1@B 400593e0     libucrt:output.obj
 0002:000124e0       ??_C@_1O@CEDCILHN@?$AA?$CI?$AAn?$AAu?$AAl?$AAl?$AA?$CJ@ 400594e0     libucrt:output.obj
 0002:000124f0       ??_C@_06OJHGLDPL@?$CInull?$CJ@ 400594f0     libucrt:output.obj
 0002:000124f8       ?constraints@?1??is_length_valid@__crt_stdio_input@@YA_NW4conversion_mode@2@W4length_modifier@2@@Z@4QAY0M@$$CBEA 400594f8     libucrt:input.obj
 0002:00012570       ?inf_uppercase@?1???$parse_floating_point_possible_infinity@DV?$input_adapter_character_source@V?$string_input_adapter@D@__crt_stdio_input@@@__crt_strtox@@_K@__crt_strtox@@YA?AW4floating_point_parse_result@1@AADAAV?$input_adapter_character_source@V?$string_input_adapter@D@__crt_stdio_input@@@1@_K@Z@4QBDB 40059570     libucrt:input.obj
 0002:00012574       ?inf_lowercase@?1???$parse_floating_point_possible_infinity@DV?$input_adapter_character_source@V?$string_input_adapter@D@__crt_stdio_input@@@__crt_strtox@@_K@__crt_strtox@@YA?AW4floating_point_parse_result@1@AADAAV?$input_adapter_character_source@V?$string_input_adapter@D@__crt_stdio_input@@@1@_K@Z@4QBDB 40059574     libucrt:input.obj
 0002:00012578       ?inity_uppercase@?1???$parse_floating_point_possible_infinity@DV?$input_adapter_character_source@V?$string_input_adapter@D@__crt_stdio_input@@@__crt_strtox@@_K@__crt_strtox@@YA?AW4floating_point_parse_result@1@AADAAV?$input_adapter_character_source@V?$string_input_adapter@D@__crt_stdio_input@@@1@_K@Z@4QBDB 40059578     libucrt:input.obj
 0002:00012580       ?inity_lowercase@?1???$parse_floating_point_possible_infinity@DV?$input_adapter_character_source@V?$string_input_adapter@D@__crt_stdio_input@@@__crt_strtox@@_K@__crt_strtox@@YA?AW4floating_point_parse_result@1@AADAAV?$input_adapter_character_source@V?$string_input_adapter@D@__crt_stdio_input@@@1@_K@Z@4QBDB 40059580     libucrt:input.obj
 0002:00012588       ?uppercase@?1???$parse_floating_point_possible_nan@DV?$input_adapter_character_source@V?$string_input_adapter@D@__crt_stdio_input@@@__crt_strtox@@_K@__crt_strtox@@YA?AW4floating_point_parse_result@1@AADAAV?$input_adapter_character_source@V?$string_input_adapter@D@__crt_stdio_input@@@1@_K@Z@4QBDB 40059588     libucrt:input.obj
 0002:0001258c       ?lowercase@?1???$parse_floating_point_possible_nan@DV?$input_adapter_character_source@V?$string_input_adapter@D@__crt_stdio_input@@@__crt_strtox@@_K@__crt_strtox@@YA?AW4floating_point_parse_result@1@AADAAV?$input_adapter_character_source@V?$string_input_adapter@D@__crt_stdio_input@@@1@_K@Z@4QBDB 4005958c     libucrt:input.obj
 0002:00012590       ?uppercase@?1???$parse_floating_point_possible_nan_is_snan@DV?$input_adapter_character_source@V?$string_input_adapter@D@__crt_stdio_input@@@__crt_strtox@@@__crt_strtox@@YA_NAADAAV?$input_adapter_character_source@V?$string_input_adapter@D@__crt_stdio_input@@@1@@Z@4QBDB 40059590     libucrt:input.obj
 0002:00012598       ?lowercase@?1???$parse_floating_point_possible_nan_is_snan@DV?$input_adapter_character_source@V?$string_input_adapter@D@__crt_stdio_input@@@__crt_strtox@@@__crt_strtox@@YA_NAADAAV?$input_adapter_character_source@V?$string_input_adapter@D@__crt_stdio_input@@@1@@Z@4QBDB 40059598     libucrt:input.obj
 0002:000125a0       ?uppercase@?1???$parse_floating_point_possible_nan_is_ind@DV?$input_adapter_character_source@V?$string_input_adapter@D@__crt_stdio_input@@@__crt_strtox@@@__crt_strtox@@YA_NAADAAV?$input_adapter_character_source@V?$string_input_adapter@D@__crt_stdio_input@@@1@@Z@4QBDB 400595a0     libucrt:input.obj
 0002:000125a4       ?lowercase@?1???$parse_floating_point_possible_nan_is_ind@DV?$input_adapter_character_source@V?$string_input_adapter@D@__crt_stdio_input@@@__crt_strtox@@@__crt_strtox@@YA_NAADAAV?$input_adapter_character_source@V?$string_input_adapter@D@__crt_stdio_input@@@1@@Z@4QBDB 400595a4     libucrt:input.obj
 0002:000126f0       ___acrt_exception_action_table 400596f0     libucrt:exception_filter.obj
 0002:00012780       ___acrt_signal_action_table_count 40059780     libucrt:exception_filter.obj
 0002:00012784       ___acrt_signal_action_first_fpe_index 40059784     libucrt:exception_filter.obj
 0002:00012788       ___acrt_signal_action_fpe_count 40059788     libucrt:exception_filter.obj
 0002:0001278c       ??_C@_1BI@BGOHAHKC@?$AAm?$AAs?$AAc?$AAo?$AAr?$AAe?$AAe?$AA?4?$AAd?$AAl?$AAl@ 4005978c     libucrt:exit.obj
 0002:000127a4       ??_C@_0P@MIGLKIOC@CorExitProcess@ 400597a4     libucrt:exit.obj
 0002:00012838       ___newctype                40059838     libucrt:ctype.obj
 0002:00012b38       ___newclmap                40059b38     libucrt:ctype.obj
 0002:00012cb8       ___newcumap                40059cb8     libucrt:ctype.obj
 0002:00012fa0       ___lc_time_c               40059fa0     libucrt:nlsdata.obj
 0002:00013104       ??_C@_03KOEHGMDN@Sun@      4005a104     libucrt:nlsdata.obj
 0002:00013108       ??_C@_03PDAGKDH@Mon@       4005a108     libucrt:nlsdata.obj
 0002:0001310c       ??_C@_03NAGEINEP@Tue@      4005a10c     libucrt:nlsdata.obj
 0002:00013110       ??_C@_03MHOMLAJA@Wed@      4005a110     libucrt:nlsdata.obj
 0002:00013114       ??_C@_03IOFIKPDN@Thu@      4005a114     libucrt:nlsdata.obj
 0002:00013118       ??_C@_03IDIOELNC@Fri@      4005a118     libucrt:nlsdata.obj
 0002:0001311c       ??_C@_03FEFJNEK@Sat@       4005a11c     libucrt:nlsdata.obj
 0002:00013120       ??_C@_06OOPIFAJ@Sunday@    4005a120     libucrt:nlsdata.obj
 0002:00013128       ??_C@_06JLEDEDGH@Monday@   4005a128     libucrt:nlsdata.obj
 0002:00013130       ??_C@_07BAAGCFCM@Tuesday@  4005a130     libucrt:nlsdata.obj
 0002:00013138       ??_C@_09DLIGFAKA@Wednesday@ 4005a138     libucrt:nlsdata.obj
 0002:00013144       ??_C@_08HACCIKIA@Thursday@ 4005a144     libucrt:nlsdata.obj
 0002:00013150       ??_C@_06JECMNKMI@Friday@   4005a150     libucrt:nlsdata.obj
 0002:00013158       ??_C@_08INBOOONO@Saturday@ 4005a158     libucrt:nlsdata.obj
 0002:00013164       ??_C@_03HJBDCHOM@Feb@      4005a164     libucrt:nlsdata.obj
 0002:00013168       ??_C@_03ODNJBKGA@Mar@      4005a168     libucrt:nlsdata.obj
 0002:0001316c       ??_C@_03LEOLGMJP@Apr@      4005a16c     libucrt:nlsdata.obj
 0002:00013170       ??_C@_03CNMDKL@May@        4005a170     libucrt:nlsdata.obj
 0002:00013174       ??_C@_03IDFGHECI@Jun@      4005a174     libucrt:nlsdata.obj
 0002:00013178       ??_C@_03LBGABGKK@Jul@      4005a178     libucrt:nlsdata.obj
 0002:0001317c       ??_C@_03IFJFEIGA@Aug@      4005a17c     libucrt:nlsdata.obj
 0002:00013180       ??_C@_03GGCAPAJC@Sep@      4005a180     libucrt:nlsdata.obj
 0002:00013184       ??_C@_03BMAOKBAD@Oct@      4005a184     libucrt:nlsdata.obj
 0002:00013188       ??_C@_03JPJOFNIA@Nov@      4005a188     libucrt:nlsdata.obj
 0002:0001318c       ??_C@_03MKABNOCG@Dec@      4005a18c     libucrt:nlsdata.obj
 0002:00013190       ??_C@_07CGJPFGJA@January@  4005a190     libucrt:nlsdata.obj
 0002:00013198       ??_C@_08GNJGEPFN@February@ 4005a198     libucrt:nlsdata.obj
 0002:000131a4       ??_C@_05HPCKOFNC@March@    4005a1a4     libucrt:nlsdata.obj
 0002:000131ac       ??_C@_05DMJDNLEJ@April@    4005a1ac     libucrt:nlsdata.obj
 0002:000131b4       ??_C@_04CNLMGBGM@June@     4005a1b4     libucrt:nlsdata.obj
 0002:000131bc       ??_C@_04MIEPOIFP@July@     4005a1bc     libucrt:nlsdata.obj
 0002:000131c4       ??_C@_06LBBHFDDG@August@   4005a1c4     libucrt:nlsdata.obj
 0002:000131cc       ??_C@_09BHHEALKD@September@ 4005a1cc     libucrt:nlsdata.obj
 0002:000131d8       ??_C@_07JJNFCEND@October@  4005a1d8     libucrt:nlsdata.obj
 0002:000131e0       ??_C@_08HCHEGEOA@November@ 4005a1e0     libucrt:nlsdata.obj
 0002:000131ec       ??_C@_08EDHMEBNP@December@ 4005a1ec     libucrt:nlsdata.obj
 0002:000131f8       ??_C@_02DEDBPAFC@AM@       4005a1f8     libucrt:nlsdata.obj
 0002:000131fc       ??_C@_02CJNFDJBF@PM@       4005a1fc     libucrt:nlsdata.obj
 0002:00013200       ??_C@_08BPBNCDIB@MM?1dd?1yy@ 4005a200     libucrt:nlsdata.obj
 0002:0001320c       ??_C@_0BE@CKGJFCPC@dddd?0?5MMMM?5dd?0?5yyyy@ 4005a20c     libucrt:nlsdata.obj
 0002:00013220       ??_C@_08JCCMCCIL@HH?3mm?3ss@ 4005a220     libucrt:nlsdata.obj
 0002:0001322c       ??_C@_17MBGCMIPB@?$AAS?$AAu?$AAn@ 4005a22c     libucrt:nlsdata.obj
 0002:00013234       ??_C@_17KBOMKBF@?$AAM?$AAo?$AAn@ 4005a234     libucrt:nlsdata.obj
 0002:0001323c       ??_C@_17BMKGEGOJ@?$AAT?$AAu?$AAe@ 4005a23c     libucrt:nlsdata.obj
 0002:00013244       ??_C@_17CJEDCEPE@?$AAW?$AAe?$AAd@ 4005a244     libucrt:nlsdata.obj
 0002:0001324c       ??_C@_17PDPHAADD@?$AAT?$AAh?$AAu@ 4005a24c     libucrt:nlsdata.obj
 0002:00013254       ??_C@_17HFOLPPLP@?$AAF?$AAr?$AAi@ 4005a254     libucrt:nlsdata.obj
 0002:0001325c       ??_C@_17GGIBDPIH@?$AAS?$AAa?$AAt@ 4005a25c     libucrt:nlsdata.obj
 0002:00013264       ??_C@_1O@IHNHDHPB@?$AAS?$AAu?$AAn?$AAd?$AAa?$AAy@ 4005a264     libucrt:nlsdata.obj
 0002:00013274       ??_C@_1O@MMNBFLIA@?$AAM?$AAo?$AAn?$AAd?$AAa?$AAy@ 4005a274     libucrt:nlsdata.obj
 0002:00013284       ??_C@_1BA@ENFBFFEK@?$AAT?$AAu?$AAe?$AAs?$AAd?$AAa?$AAy@ 4005a284     libucrt:nlsdata.obj
 0002:00013294       ??_C@_1BE@EBOGMDOH@?$AAW?$AAe?$AAd?$AAn?$AAe?$AAs?$AAd?$AAa?$AAy@ 4005a294     libucrt:nlsdata.obj
 0002:000132a8       ??_C@_1BC@HHMNLIHE@?$AAT?$AAh?$AAu?$AAr?$AAs?$AAd?$AAa?$AAy@ 4005a2a8     libucrt:nlsdata.obj
 0002:000132bc       ??_C@_1O@PDICJHAG@?$AAF?$AAr?$AAi?$AAd?$AAa?$AAy@ 4005a2bc     libucrt:nlsdata.obj
 0002:000132cc       ??_C@_1BC@ENMNNPAJ@?$AAS?$AAa?$AAt?$AAu?$AAr?$AAd?$AAa?$AAy@ 4005a2cc     libucrt:nlsdata.obj
 0002:000132e0       ??_C@_17DKNBKCHM@?$AAJ?$AAa?$AAn@ 4005a2e0     libucrt:nlsdata.obj
 0002:000132e8       ??_C@_17LMDJEKJN@?$AAF?$AAe?$AAb@ 4005a2e8     libucrt:nlsdata.obj
 0002:000132f0       ??_C@_17CKNLEDEC@?$AAM?$AAa?$AAr@ 4005a2f0     libucrt:nlsdata.obj
 0002:000132f8       ??_C@_17LFPOIHDD@?$AAA?$AAp?$AAr@ 4005a2f8     libucrt:nlsdata.obj
 0002:00013300       ??_C@_17PNNKMEED@?$AAM?$AAa?$AAy@ 4005a300     libucrt:nlsdata.obj
 0002:00013308       ??_C@_17KCJGOCPB@?$AAJ?$AAu?$AAn@ 4005a308     libucrt:nlsdata.obj
 0002:00013310       ??_C@_17IJPCKHK@?$AAJ?$AAu?$AAl@ 4005a310     libucrt:nlsdata.obj
 0002:00013318       ??_C@_17ICPELBCN@?$AAA?$AAu?$AAg@ 4005a318     libucrt:nlsdata.obj
 0002:00013320       ??_C@_17HCHCOKMG@?$AAS?$AAe?$AAp@ 4005a320     libucrt:nlsdata.obj
 0002:00013328       ??_C@_17FNLKOI@?$AAO?$AAc?$AAt@ 4005a328     libucrt:nlsdata.obj
 0002:00013330       ??_C@_17BBDMLCIG@?$AAN?$AAo?$AAv@ 4005a330     libucrt:nlsdata.obj
 0002:00013338       ??_C@_17EGKACKIF@?$AAD?$AAe?$AAc@ 4005a338     libucrt:nlsdata.obj
 0002:00013340       ??_C@_1BA@EFMEIEBA@?$AAJ?$AAa?$AAn?$AAu?$AAa?$AAr?$AAy@ 4005a340     libucrt:nlsdata.obj
 0002:00013350       ??_C@_1BC@JGDDFFAM@?$AAF?$AAe?$AAb?$AAr?$AAu?$AAa?$AAr?$AAy@ 4005a350     libucrt:nlsdata.obj
 0002:00013364       ??_C@_1M@IKEENEDF@?$AAM?$AAa?$AAr?$AAc?$AAh@ 4005a364     libucrt:nlsdata.obj
 0002:00013370       ??_C@_1M@GJNLMHFD@?$AAA?$AAp?$AAr?$AAi?$AAl@ 4005a370     libucrt:nlsdata.obj
 0002:0001337c       ??_C@_19EPFLPGAP@?$AAJ?$AAu?$AAn?$AAe@ 4005a37c     libucrt:nlsdata.obj
 0002:00013388       ??_C@_19BIFMLPCD@?$AAJ?$AAu?$AAl?$AAy@ 4005a388     libucrt:nlsdata.obj
 0002:00013394       ??_C@_1O@PAHLKOAC@?$AAA?$AAu?$AAg?$AAu?$AAs?$AAt@ 4005a394     libucrt:nlsdata.obj
 0002:000133a4       ??_C@_1BE@DKAAMBJL@?$AAS?$AAe?$AAp?$AAt?$AAe?$AAm?$AAb?$AAe?$AAr@ 4005a3a4     libucrt:nlsdata.obj
 0002:000133b8       ??_C@_1BA@EPANDLNG@?$AAO?$AAc?$AAt?$AAo?$AAb?$AAe?$AAr@ 4005a3b8     libucrt:nlsdata.obj
 0002:000133c8       ??_C@_1BC@BGLIFPF@?$AAN?$AAo?$AAv?$AAe?$AAm?$AAb?$AAe?$AAr@ 4005a3c8     libucrt:nlsdata.obj
 0002:000133dc       ??_C@_1BC@FEMKIFH@?$AAD?$AAe?$AAc?$AAe?$AAm?$AAb?$AAe?$AAr@ 4005a3dc     libucrt:nlsdata.obj
 0002:000133f0       ??_C@_15ODEHAHHF@?$AAA?$AAM@ 4005a3f0     libucrt:nlsdata.obj
 0002:000133f8       ??_C@_15CLMNNGEL@?$AAP?$AAM@ 4005a3f8     libucrt:nlsdata.obj
 0002:00013400       ??_C@_1BC@IEBCMHCM@?$AAM?$AAM?$AA?1?$AAd?$AAd?$AA?1?$AAy?$AAy@ 4005a400     libucrt:nlsdata.obj
 0002:00013414       ??_C@_1CI@KNAKOEBC@?$AAd?$AAd?$AAd?$AAd?$AA?0?$AA?5?$AAM?$AAM?$AAM?$AAM?$AA?5?$AAd?$AAd?$AA?0?$AA?5@ 4005a414     libucrt:nlsdata.obj
 0002:0001343c       ??_C@_1BC@GDGBMEMK@?$AAH?$AAH?$AA?3?$AAm?$AAm?$AA?3?$AAs?$AAs@ 4005a43c     libucrt:nlsdata.obj
 0002:00013450       ??_C@_1M@BMHNFIME@?$AAe?$AAn?$AA?9?$AAU?$AAS@ 4005a450     libucrt:nlsdata.obj
 0002:00013460       __OP_ATAN2jmptab           4005a460     libucrt:87triga.obj
 0002:000134f0       ___acrt_cos_sin_ctable     4005a4f0     libucrt:cos_sin_ctable.obj
 0002:00013d00       __indefinite               4005ad00     libucrt:87disp.obj
 0002:00013d0a       __piby2                    4005ad0a     libucrt:87disp.obj
 0002:00013d14       __piby4                    4005ad14     libucrt:87disp.obj
 0002:00013d40       ??_C@_03MGHMBJCF@log@      4005ad40     libucrt:libm_error.obj
 0002:00013d44       ??_C@_05HGHHAHAP@log10@    4005ad44     libucrt:libm_error.obj
 0002:00013d4c       ??_C@_03KHJOGHMM@exp@      4005ad4c     libucrt:libm_error.obj
 0002:00013d50       ??_C@_03JGHBODFD@pow@      4005ad50     libucrt:libm_error.obj
 0002:00013d54       ??_C@_04FIHNOPOL@asin@     4005ad54     libucrt:libm_error.obj
 0002:00013d5c       ??_C@_04PDIFKINK@acos@     4005ad5c     libucrt:libm_error.obj
 0002:00013d64       ??_C@_04EIAKFFMI@sqrt@     4005ad64     libucrt:libm_error.obj
 0002:00013d80       ___acrt_acos_asin_tbl_addr 4005ad80     libucrt:acos_asin_tbl_addr.obj
 0002:00014c80       ___acrt_acos_asin_t_table  4005bc80     libucrt:acos_asin_t_table.obj
 0002:000154c0       ??_C@_03OEIAHPBN@INF@      4005c4c0     libucrt:cvt.obj
 0002:000154c4       ??_C@_03OJHLLCGB@inf@      4005c4c4     libucrt:cvt.obj
 0002:000154c8       ??_C@_03LKNCIKJB@NAN@      4005c4c8     libucrt:cvt.obj
 0002:000154cc       ??_C@_03LHCJEHON@nan@      4005c4cc     libucrt:cvt.obj
 0002:000154d0       ??_C@_09OFJJIMPC@NAN?$CISNAN?$CJ@ 4005c4d0     libucrt:cvt.obj
 0002:000154dc       ??_C@_09IPFBKMDL@nan?$CIsnan?$CJ@ 4005c4dc     libucrt:cvt.obj
 0002:000154e8       ??_C@_08IKHNHAJ@NAN?$CIIND?$CJ@ 4005c4e8     libucrt:cvt.obj
 0002:000154f4       ??_C@_08OFCDMILK@nan?$CIind?$CJ@ 4005c4f4     libucrt:cvt.obj
 0002:00015500       ??_C@_05KLBDPFGC@e?$CL000@ 4005c500     libucrt:cvt.obj
 0002:00015520       ___acrt_tan_ctable         4005c520     libucrt:tan_tables.obj
 0002:00016b30       ??_C@_1M@HPNHIDJI@?$AAj?$AAa?$AA?9?$AAJ?$AAP@ 4005db30     libucrt:mbctype.obj
 0002:00016b3c       ??_C@_1M@BIBDDEMK@?$AAz?$AAh?$AA?9?$AAC?$AAN@ 4005db3c     libucrt:mbctype.obj
 0002:00016b48       ??_C@_1M@JLOOOEGK@?$AAk?$AAo?$AA?9?$AAK?$AAR@ 4005db48     libucrt:mbctype.obj
 0002:00016b54       ??_C@_1M@CLNBBOPM@?$AAz?$AAh?$AA?9?$AAT?$AAW@ 4005db54     libucrt:mbctype.obj
 0002:00016bc0       ??_C@_1EA@JGEFHKEI@?$AAa?$AAp?$AAi?$AA?9?$AAm?$AAs?$AA?9?$AAw?$AAi?$AAn?$AA?9?$AAc?$AAo?$AAr?$AAe@ 4005dbc0     libucrt:winapi_thunks.obj
 0002:00016c00       ??_C@_1DM@LFJCLCKP@?$AAa?$AAp?$AAi?$AA?9?$AAm?$AAs?$AA?9?$AAw?$AAi?$AAn?$AA?9?$AAc?$AAo?$AAr?$AAe@ 4005dc00     libucrt:winapi_thunks.obj
 0002:00016c3c       ??_C@_1DI@KMEPCBPN@?$AAa?$AAp?$AAi?$AA?9?$AAm?$AAs?$AA?9?$AAw?$AAi?$AAn?$AA?9?$AAc?$AAo?$AAr?$AAe@ 4005dc3c     libucrt:winapi_thunks.obj
 0002:00016c74       ??_C@_1DI@IJCEHOCB@?$AAa?$AAp?$AAi?$AA?9?$AAm?$AAs?$AA?9?$AAw?$AAi?$AAn?$AA?9?$AAc?$AAo?$AAr?$AAe@ 4005dc74     libucrt:winapi_thunks.obj
 0002:00016cac       ??_C@_1DI@FFFOPEOO@?$AAa?$AAp?$AAi?$AA?9?$AAm?$AAs?$AA?9?$AAw?$AAi?$AAn?$AA?9?$AAc?$AAo?$AAr?$AAe@ 4005dcac     libucrt:winapi_thunks.obj
 0002:00016ce8       ??_C@_1EI@MPIAOHOC@?$AAa?$AAp?$AAi?$AA?9?$AAm?$AAs?$AA?9?$AAw?$AAi?$AAn?$AA?9?$AAc?$AAo?$AAr?$AAe@ 4005dce8     libucrt:winapi_thunks.obj
 0002:00016d30       ??_C@_1FK@FPHCKFIE@?$AAa?$AAp?$AAi?$AA?9?$AAm?$AAs?$AA?9?$AAw?$AAi?$AAn?$AA?9?$AAc?$AAo?$AAr?$AAe@ 4005dd30     libucrt:winapi_thunks.obj
 0002:00016d90       ??_C@_1EM@DILCGIIO@?$AAa?$AAp?$AAi?$AA?9?$AAm?$AAs?$AA?9?$AAw?$AAi?$AAn?$AA?9?$AAc?$AAo?$AAr?$AAe@ 4005dd90     libucrt:winapi_thunks.obj
 0002:00016ddc       ??_C@_1DM@LNCGDDPN@?$AAa?$AAp?$AAi?$AA?9?$AAm?$AAs?$AA?9?$AAw?$AAi?$AAn?$AA?9?$AAc?$AAo?$AAr?$AAe@ 4005dddc     libucrt:winapi_thunks.obj
 0002:00016e18       ??_C@_1DO@FPAPJEMD@?$AAa?$AAp?$AAi?$AA?9?$AAm?$AAs?$AA?9?$AAw?$AAi?$AAn?$AA?9?$AAc?$AAo?$AAr?$AAe@ 4005de18     libucrt:winapi_thunks.obj
 0002:00016e58       ??_C@_1DK@NDHNAHIO@?$AAa?$AAp?$AAi?$AA?9?$AAm?$AAs?$AA?9?$AAw?$AAi?$AAn?$AA?9?$AAc?$AAo?$AAr?$AAe@ 4005de58     libucrt:winapi_thunks.obj
 0002:00016e94       ??_C@_1DM@KGHDGBCM@?$AAa?$AAp?$AAi?$AA?9?$AAm?$AAs?$AA?9?$AAw?$AAi?$AAn?$AA?9?$AAc?$AAo?$AAr?$AAe@ 4005de94     libucrt:winapi_thunks.obj
 0002:00016ed0       ??_C@_1EO@IJIOEFOH@?$AAa?$AAp?$AAi?$AA?9?$AAm?$AAs?$AA?9?$AAw?$AAi?$AAn?$AA?9?$AAr?$AAt?$AAc?$AAo@ 4005ded0     libucrt:winapi_thunks.obj
 0002:00016f20       ??_C@_1FG@HHGEKANL@?$AAa?$AAp?$AAi?$AA?9?$AAm?$AAs?$AA?9?$AAw?$AAi?$AAn?$AA?9?$AAs?$AAe?$AAc?$AAu@ 4005df20     libucrt:winapi_thunks.obj
 0002:00016f78       ??_C@_1EG@DBIOJECG@?$AAe?$AAx?$AAt?$AA?9?$AAm?$AAs?$AA?9?$AAw?$AAi?$AAn?$AA?9?$AAn?$AAt?$AAu?$AAs@ 4005df78     libucrt:winapi_thunks.obj
 0002:00016fc0       ??_C@_1EO@FIHMJCLF@?$AAe?$AAx?$AAt?$AA?9?$AAm?$AAs?$AA?9?$AAw?$AAi?$AAn?$AA?9?$AAn?$AAt?$AAu?$AAs@ 4005dfc0     libucrt:winapi_thunks.obj
 0002:00017010       ??_C@_1BC@DNHGCMLG@?$AAa?$AAd?$AAv?$AAa?$AAp?$AAi?$AA3?$AA2@ 4005e010     libucrt:winapi_thunks.obj
 0002:00017024       ??_C@_1BG@CJPGBMEF@?$AAk?$AAe?$AAr?$AAn?$AAe?$AAl?$AAb?$AAa?$AAs?$AAe@ 4005e024     libucrt:winapi_thunks.obj
 0002:0001703c       ??_C@_1M@OAIMIKLP@?$AAn?$AAt?$AAd?$AAl?$AAl@ 4005e03c     libucrt:winapi_thunks.obj
 0002:00017048       ??_C@_1EG@DPGNFKGC@?$AAa?$AAp?$AAi?$AA?9?$AAm?$AAs?$AA?9?$AAw?$AAi?$AAn?$AA?9?$AAa?$AAp?$AAp?$AAm@ 4005e048     libucrt:winapi_thunks.obj
 0002:00017090       ??_C@_1O@BCCLBEOE@?$AAu?$AAs?$AAe?$AAr?$AA3?$AA2@ 4005e090     libucrt:winapi_thunks.obj
 0002:000170a0       ??_C@_1BA@IAIFMGEF@?$AAe?$AAx?$AAt?$AA?9?$AAm?$AAs?$AA?9@ 4005e0a0     libucrt:winapi_thunks.obj
 0002:000170b4       ??_C@_0BA@FHFNEAED@AreFileApisANSI@ 4005e0b4     libucrt:winapi_thunks.obj
 0002:000170cc       ??_C@_0N@MFBBDCAC@FlsGetValue2@ 4005e0cc     libucrt:winapi_thunks.obj
 0002:000170e4       ??_C@_0O@KKBNKAPF@LCMapStringEx@ 4005e0e4     libucrt:winapi_thunks.obj
 0002:000170fc       ??_C@_0BB@HBDEELFH@LocaleNameToLCID@ 4005e0fc     libucrt:winapi_thunks.obj
 0002:00017114       ??_C@_0CF@OJOFEIGO@AppPolicyGetProcessTerminationM@ 4005e114     libucrt:winapi_thunks.obj
 0002:0001713c       ??_C@_15PJPFLCCM@?$AAu?$AAk@ 4005e13c     libucrt:get_qualified_locale.obj
 0002:00017208       __DEFAULT_CW_in_mem        4005e208     libucrt:common.obj
 0002:0001720a       __pi_by_2_to_61            4005e20a     libucrt:common.obj
 0002:00017418       ??_C@_05DNEBIAHO@1?$CDINF@ 4005e418     libucrt:cfout.obj
 0002:00017420       ??_C@_06IMKFLFPG@1?$CDQNAN@ 4005e420     libucrt:cfout.obj
 0002:00017428       ??_C@_06PGGFOGJG@1?$CDSNAN@ 4005e428     libucrt:cfout.obj
 0002:00017430       ??_C@_05PHHOCPM@1?$CDIND@  4005e430     libucrt:cfout.obj
 0002:00017520       ??_C@_04COOMCNPB@sinh@     4005e520     libucrt:fpexcept.obj
 0002:00017528       ??_C@_04HPJJNFIM@cosh@     4005e528     libucrt:fpexcept.obj
 0002:00017530       ??_C@_04FJHINJAO@tanh@     4005e530     libucrt:fpexcept.obj
 0002:00017538       ??_C@_04MLLJIGOK@atan@     4005e538     libucrt:fpexcept.obj
 0002:00017540       ??_C@_05KNGEOGJB@atan2@    4005e540     libucrt:fpexcept.obj
 0002:00017548       ??_C@_03BLEJJJBH@sin@      4005e548     libucrt:fpexcept.obj
 0002:0001754c       ??_C@_03LALBNOCG@cos@      4005e54c     libucrt:fpexcept.obj
 0002:00017550       ??_C@_03IIINPABG@tan@      4005e550     libucrt:fpexcept.obj
 0002:00017554       ??_C@_04GFPJNGEK@ceil@     4005e554     libucrt:fpexcept.obj
 0002:0001755c       ??_C@_05PBJFFIGL@floor@    4005e55c     libucrt:fpexcept.obj
 0002:00017564       ??_C@_04ODHECPBC@fabs@     4005e564     libucrt:fpexcept.obj
 0002:0001756c       ??_C@_04EHEDPDJG@modf@     4005e56c     libucrt:fpexcept.obj
 0002:00017574       ??_C@_05CEJMAHNP@ldexp@    4005e574     libucrt:fpexcept.obj
 0002:0001757c       ??_C@_05KBKMEMPO@_cabs@    4005e57c     libucrt:fpexcept.obj
 0002:00017584       ??_C@_06MEIMCGCF@_hypot@   4005e584     libucrt:fpexcept.obj
 0002:0001758c       ??_C@_04KEPJIHGP@fmod@     4005e58c     libucrt:fpexcept.obj
 0002:00017594       ??_C@_05GKKHEGJL@frexp@    4005e594     libucrt:fpexcept.obj
 0002:0001759c       ??_C@_03MJLDFKDL@_y0@      4005e59c     libucrt:fpexcept.obj
 0002:000175a0       ??_C@_03NAKIGLHK@_y1@      4005e5a0     libucrt:fpexcept.obj
 0002:000175a4       ??_C@_03ONILCKOB@_yn@      4005e5a4     libucrt:fpexcept.obj
 0002:000175a8       ??_C@_05JGDBENOH@_logb@    4005e5a8     libucrt:fpexcept.obj
 0002:000175b0       ??_C@_0L@KDOEJCKC@_nextafter@ 4005e5b0     libucrt:fpexcept.obj
 0002:000175c0       __d_inf                    4005e5c0     libucrt:frexp.obj
 0002:000175c8       __d_max                    4005e5c8     libucrt:frexp.obj
 0002:000175d0       __d_mzero                  4005e5d0     libucrt:frexp.obj
 0002:00017db0       ??_C@_15EMKDOKLE@?$AAa?$AAr@ 4005edb0     libucrt:lcidtoname_downlevel.obj
 0002:00017db8       ??_C@_15KNPADPLH@?$AAb?$AAg@ 4005edb8     libucrt:lcidtoname_downlevel.obj
 0002:00017dc0       ??_C@_15EDMHLDMO@?$AAc?$AAa@ 4005edc0     libucrt:lcidtoname_downlevel.obj
 0002:00017dc8       ??_C@_1O@BPEAJADD@?$AAz?$AAh?$AA?9?$AAC?$AAH?$AAS@ 4005edc8     libucrt:lcidtoname_downlevel.obj
 0002:00017dd8       ??_C@_15LJNHCMNK@?$AAc?$AAs@ 4005edd8     libucrt:lcidtoname_downlevel.obj
 0002:00017de0       ??_C@_15FOMCIDHG@?$AAd?$AAa@ 4005ede0     libucrt:lcidtoname_downlevel.obj
 0002:00017de8       ??_C@_15NBKABECB@?$AAd?$AAe@ 4005ede8     libucrt:lcidtoname_downlevel.obj
 0002:00017df0       ??_C@_15GHPEIIAO@?$AAe?$AAl@ 4005edf0     libucrt:lcidtoname_downlevel.obj
 0002:00017df8       ??_C@_15MNPNEAIF@?$AAe?$AAn@ 4005edf8     libucrt:lcidtoname_downlevel.obj
 0002:00017e00       ??_C@_15GPIOMPMH@?$AAe?$AAs@ 4005ee00     libucrt:lcidtoname_downlevel.obj
 0002:00017e08       ??_C@_15NGLOAKJC@?$AAf?$AAi@ 4005ee08     libucrt:lcidtoname_downlevel.obj
 0002:00017e10       ??_C@_15FBKGNKAM@?$AAf?$AAr@ 4005ee10     libucrt:lcidtoname_downlevel.obj
 0002:00017e18       ??_C@_15KGGCNEFK@?$AAh?$AAe@ 4005ee18     libucrt:lcidtoname_downlevel.obj
 0002:00017e20       ??_C@_15PGHLIDMF@?$AAh?$AAu@ 4005ee20     libucrt:lcidtoname_downlevel.obj
 0002:00017e28       ??_C@_15BIEMAPLM@?$AAi?$AAs@ 4005ee28     libucrt:lcidtoname_downlevel.obj
 0002:00017e30       ??_C@_15IFJLDHAF@?$AAi?$AAt@ 4005ee30     libucrt:lcidtoname_downlevel.obj
 0002:00017e38       ??_C@_15GEMIOCAG@?$AAj?$AAa@ 4005ee38     libucrt:lcidtoname_downlevel.obj
 0002:00017e40       ??_C@_15EPELEGJA@?$AAk?$AAo@ 4005ee40     libucrt:lcidtoname_downlevel.obj
 0002:00017e48       ??_C@_15NDDHIMN@?$AAn?$AAl@ 4005ee48     libucrt:lcidtoname_downlevel.obj
 0002:00017e50       ??_C@_15BPIGNHCD@?$AAn?$AAo@ 4005ee50     libucrt:lcidtoname_downlevel.obj
 0002:00017e58       ??_C@_15DEOPBLCG@?$AAp?$AAl@ 4005ee58     libucrt:lcidtoname_downlevel.obj
 0002:00017e60       ??_C@_15KBECGEFG@?$AAp?$AAt@ 4005ee60     libucrt:lcidtoname_downlevel.obj
 0002:00017e68       ??_C@_15GLJCBFMD@?$AAr?$AAo@ 4005ee68     libucrt:lcidtoname_downlevel.obj
 0002:00017e70       ??_C@_15FEDGKCDI@?$AAr?$AAu@ 4005ee70     libucrt:lcidtoname_downlevel.obj
 0002:00017e78       ??_C@_15GLKMLLHM@?$AAh?$AAr@ 4005ee78     libucrt:lcidtoname_downlevel.obj
 0002:00017e80       ??_C@_15CPKMFBDB@?$AAs?$AAk@ 4005ee80     libucrt:lcidtoname_downlevel.obj
 0002:00017e88       ??_C@_15BAAIOGMK@?$AAs?$AAq@ 4005ee88     libucrt:lcidtoname_downlevel.obj
 0002:00017e90       ??_C@_15INNPNOHD@?$AAs?$AAv@ 4005ee90     libucrt:lcidtoname_downlevel.obj
 0002:00017e98       ??_C@_15CABMMOGH@?$AAt?$AAh@ 4005ee98     libucrt:lcidtoname_downlevel.obj
 0002:00017ea0       ??_C@_15BPLIHJJM@?$AAt?$AAr@ 4005eea0     libucrt:lcidtoname_downlevel.obj
 0002:00017ea8       ??_C@_15NEOEKKDJ@?$AAu?$AAr@ 4005eea8     libucrt:lcidtoname_downlevel.obj
 0002:00017eb0       ??_C@_15NFICGAJK@?$AAi?$AAd@ 4005eeb0     libucrt:lcidtoname_downlevel.obj
 0002:00017eb8       ??_C@_15HPJPHDM@?$AAb?$AAe@ 4005eeb8     libucrt:lcidtoname_downlevel.obj
 0002:00017ec0       ??_C@_15LCHLGJII@?$AAs?$AAl@ 4005eec0     libucrt:lcidtoname_downlevel.obj
 0002:00017ec8       ??_C@_15PCFJPHHO@?$AAe?$AAt@ 4005eec8     libucrt:lcidtoname_downlevel.obj
 0002:00017ed0       ??_C@_15HPFPGODN@?$AAl?$AAv@ 4005eed0     libucrt:lcidtoname_downlevel.obj
 0002:00017ed8       ??_C@_15NFFGKGLG@?$AAl?$AAt@ 4005eed8     libucrt:lcidtoname_downlevel.obj
 0002:00017ee0       ??_C@_15BDAKCCHN@?$AAf?$AAa@ 4005eee0     libucrt:lcidtoname_downlevel.obj
 0002:00017ee8       ??_C@_15NFGIAIAJ@?$AAv?$AAi@ 4005eee8     libucrt:lcidtoname_downlevel.obj
 0002:00017ef0       ??_C@_15LMKNDMHN@?$AAh?$AAy@ 4005eef0     libucrt:lcidtoname_downlevel.obj
 0002:00017ef8       ??_C@_15IJBHMCFL@?$AAa?$AAz@ 4005eef8     libucrt:lcidtoname_downlevel.obj
 0002:00017f00       ??_C@_15EKOFJABL@?$AAe?$AAu@ 4005ef00     libucrt:lcidtoname_downlevel.obj
 0002:00017f08       ??_C@_15BGHADCNK@?$AAm?$AAk@ 4005ef08     libucrt:lcidtoname_downlevel.obj
 0002:00017f10       ??_C@_15JDNICKHM@?$AAa?$AAf@ 4005ef10     libucrt:lcidtoname_downlevel.obj
 0002:00017f18       ??_C@_15KPJEDBKD@?$AAk?$AAa@ 4005ef18     libucrt:lcidtoname_downlevel.obj
 0002:00017f20       ??_C@_15PDNFFFEO@?$AAf?$AAo@ 4005ef20     libucrt:lcidtoname_downlevel.obj
 0002:00017f28       ??_C@_15OMLEGLOC@?$AAh?$AAi@ 4005ef28     libucrt:lcidtoname_downlevel.obj
 0002:00017f30       ??_C@_15IDNNENKK@?$AAm?$AAs@ 4005ef30     libucrt:lcidtoname_downlevel.obj
 0002:00017f38       ??_C@_15MACJNBMH@?$AAk?$AAk@ 4005ef38     libucrt:lcidtoname_downlevel.obj
 0002:00017f40       ??_C@_15DKDJEOND@?$AAk?$AAy@ 4005ef40     libucrt:lcidtoname_downlevel.obj
 0002:00017f48       ??_C@_15DFGDLJBG@?$AAs?$AAw@ 4005ef48     libucrt:lcidtoname_downlevel.obj
 0002:00017f50       ??_C@_15BBFAICNG@?$AAu?$AAz@ 4005ef50     libucrt:lcidtoname_downlevel.obj
 0002:00017f58       ??_C@_15DKNDCGEA@?$AAt?$AAt@ 4005ef58     libucrt:lcidtoname_downlevel.obj
 0002:00017f60       ??_C@_15MGIFMDPL@?$AAp?$AAa@ 4005ef60     libucrt:lcidtoname_downlevel.obj
 0002:00017f68       ??_C@_15HCNDBBA@?$AAg?$AAu@ 4005ef68     libucrt:lcidtoname_downlevel.obj
 0002:00017f70       ??_C@_15FNBEIBON@?$AAt?$AAa@ 4005ef70     libucrt:lcidtoname_downlevel.obj
 0002:00017f78       ??_C@_15NCHGBGLK@?$AAt?$AAe@ 4005ef78     libucrt:lcidtoname_downlevel.obj
 0002:00017f80       ??_C@_15PHPHCBPF@?$AAk?$AAn@ 4005ef80     libucrt:lcidtoname_downlevel.obj
 0002:00017f88       ??_C@_15DLGBCKMP@?$AAm?$AAr@ 4005ef88     libucrt:lcidtoname_downlevel.obj
 0002:00017f90       ??_C@_15EABBLBFF@?$AAs?$AAa@ 4005ef90     libucrt:lcidtoname_downlevel.obj
 0002:00017f98       ??_C@_15CBKOMCOI@?$AAm?$AAn@ 4005ef98     libucrt:lcidtoname_downlevel.obj
 0002:00017fa0       ??_C@_15CKDMCJAF@?$AAg?$AAl@ 4005efa0     libucrt:lcidtoname_downlevel.obj
 0002:00017fa8       ??_C@_17CNJFBPG@?$AAk?$AAo?$AAk@ 4005efa8     libucrt:lcidtoname_downlevel.obj
 0002:00017fb0       ??_C@_17FFBJICPL@?$AAs?$AAy?$AAr@ 4005efb0     libucrt:lcidtoname_downlevel.obj
 0002:00017fb8       ??_C@_17KPNDCPAF@?$AAd?$AAi?$AAv@ 4005efb8     libucrt:lcidtoname_downlevel.obj
 0002:00017fc0       ??_C@_11LOCGONAA@@         4005efc0     libucrt:lcidtoname_downlevel.obj
 0002:00017fc4       ??_C@_1M@OKAHONE@?$AAa?$AAr?$AA?9?$AAS?$AAA@ 4005efc4     libucrt:lcidtoname_downlevel.obj
 0002:00017fd0       ??_C@_1M@FFFIGIGK@?$AAb?$AAg?$AA?9?$AAB?$AAG@ 4005efd0     libucrt:lcidtoname_downlevel.obj
 0002:00017fdc       ??_C@_1M@BJNKEDC@?$AAc?$AAa?$AA?9?$AAE?$AAS@ 4005efdc     libucrt:lcidtoname_downlevel.obj
 0002:00017fe8       ??_C@_1M@IJJHFJHA@?$AAc?$AAs?$AA?9?$AAC?$AAZ@ 4005efe8     libucrt:lcidtoname_downlevel.obj
 0002:00017ff4       ??_C@_1M@CLPEOBGI@?$AAd?$AAa?$AA?9?$AAD?$AAK@ 4005eff4     libucrt:lcidtoname_downlevel.obj
 0002:00018000       ??_C@_1M@MCMADGCB@?$AAd?$AAe?$AA?9?$AAD?$AAE@ 4005f000     libucrt:lcidtoname_downlevel.obj
 0002:0001800c       ??_C@_1M@OOCKEMAM@?$AAe?$AAl?$AA?9?$AAG?$AAR@ 4005f00c     libucrt:lcidtoname_downlevel.obj
 0002:00018018       ??_C@_1M@DDNJFGID@?$AAf?$AAi?$AA?9?$AAF?$AAI@ 4005f018     libucrt:lcidtoname_downlevel.obj
 0002:00018024       ??_C@_1M@GLIPPMAC@?$AAf?$AAr?$AA?9?$AAF?$AAR@ 4005f024     libucrt:lcidtoname_downlevel.obj
 0002:00018030       ??_C@_1M@GFMCHPE@?$AAh?$AAe?$AA?9?$AAI?$AAL@ 4005f030     libucrt:lcidtoname_downlevel.obj
 0002:0001803c       ??_C@_1M@MHLPGNKM@?$AAh?$AAu?$AA?9?$AAH?$AAU@ 4005f03c     libucrt:lcidtoname_downlevel.obj
 0002:00018048       ??_C@_1M@LPDDNNPN@?$AAi?$AAs?$AA?9?$AAI?$AAS@ 4005f048     libucrt:lcidtoname_downlevel.obj
 0002:00018054       ??_C@_1M@MADIPODN@?$AAi?$AAt?$AA?9?$AAI?$AAT@ 4005f054     libucrt:lcidtoname_downlevel.obj
 0002:00018060       ??_C@_1M@IHBJJGG@?$AAn?$AAl?$AA?9?$AAN?$AAL@ 4005f060     libucrt:lcidtoname_downlevel.obj
 0002:0001806c       ??_C@_1M@EANAGDL@?$AAn?$AAb?$AA?9?$AAN?$AAO@ 4005f06c     libucrt:lcidtoname_downlevel.obj
 0002:00018078       ??_C@_1M@NEIEMEGP@?$AAp?$AAl?$AA?9?$AAP?$AAL@ 4005f078     libucrt:lcidtoname_downlevel.obj
 0002:00018084       ??_C@_1M@BOCFIGEP@?$AAp?$AAt?$AA?9?$AAB?$AAR@ 4005f084     libucrt:lcidtoname_downlevel.obj
 0002:00018090       ??_C@_1M@IMPFOPBG@?$AAr?$AAo?$AA?9?$AAR?$AAO@ 4005f090     libucrt:lcidtoname_downlevel.obj
 0002:0001809c       ??_C@_1M@IDNNEJMM@?$AAr?$AAu?$AA?9?$AAR?$AAU@ 4005f09c     libucrt:lcidtoname_downlevel.obj
 0002:000180a8       ??_C@_1M@LILEEOGM@?$AAh?$AAr?$AA?9?$AAH?$AAR@ 4005f0a8     libucrt:lcidtoname_downlevel.obj
 0002:000180b4       ??_C@_1M@FKIFEHPB@?$AAs?$AAk?$AA?9?$AAS?$AAK@ 4005f0b4     libucrt:lcidtoname_downlevel.obj
 0002:000180c0       ??_C@_1M@LJMAMNPJ@?$AAs?$AAq?$AA?9?$AAA?$AAL@ 4005f0c0     libucrt:lcidtoname_downlevel.obj
 0002:000180cc       ??_C@_1M@GIAKDKJK@?$AAs?$AAv?$AA?9?$AAS?$AAE@ 4005f0cc     libucrt:lcidtoname_downlevel.obj
 0002:000180d8       ??_C@_1M@MKJKIKCL@?$AAt?$AAh?$AA?9?$AAT?$AAH@ 4005f0d8     libucrt:lcidtoname_downlevel.obj
 0002:000180e4       ??_C@_1M@MFLCCMPB@?$AAt?$AAr?$AA?9?$AAT?$AAR@ 4005f0e4     libucrt:lcidtoname_downlevel.obj
 0002:000180f0       ??_C@_1M@OIJHDKJN@?$AAu?$AAr?$AA?9?$AAP?$AAK@ 4005f0f0     libucrt:lcidtoname_downlevel.obj
 0002:000180fc       ??_C@_1M@LHIPCIEK@?$AAi?$AAd?$AA?9?$AAI?$AAD@ 4005f0fc     libucrt:lcidtoname_downlevel.obj
 0002:00018108       ??_C@_1M@MFMOBGI@?$AAu?$AAk?$AA?9?$AAU?$AAA@ 4005f108     libucrt:lcidtoname_downlevel.obj
 0002:00018114       ??_C@_1M@OBGLJIPL@?$AAb?$AAe?$AA?9?$AAB?$AAY@ 4005f114     libucrt:lcidtoname_downlevel.obj
 0002:00018120       ??_C@_1M@BCFAJEAD@?$AAs?$AAl?$AA?9?$AAS?$AAI@ 4005f120     libucrt:lcidtoname_downlevel.obj
 0002:0001812c       ??_C@_1M@FKFFEDDN@?$AAe?$AAt?$AA?9?$AAE?$AAE@ 4005f12c     libucrt:lcidtoname_downlevel.obj
 0002:00018138       ??_C@_1M@KGKKAACI@?$AAl?$AAv?$AA?9?$AAL?$AAV@ 4005f138     libucrt:lcidtoname_downlevel.obj
 0002:00018144       ??_C@_1M@IFGBIJO@?$AAl?$AAt?$AA?9?$AAL?$AAT@ 4005f144     libucrt:lcidtoname_downlevel.obj
 0002:00018150       ??_C@_1M@FGEAHEDM@?$AAf?$AAa?$AA?9?$AAI?$AAR@ 4005f150     libucrt:lcidtoname_downlevel.obj
 0002:0001815c       ??_C@_1M@KBMAIBFN@?$AAv?$AAi?$AA?9?$AAV?$AAN@ 4005f15c     libucrt:lcidtoname_downlevel.obj
 0002:00018168       ??_C@_1M@GPCBKDJK@?$AAh?$AAy?$AA?9?$AAA?$AAM@ 4005f168     libucrt:lcidtoname_downlevel.obj
 0002:00018174       ??_C@_1BG@BECMDDJB@?$AAa?$AAz?$AA?9?$AAA?$AAZ?$AA?9?$AAL?$AAa?$AAt?$AAn@ 4005f174     libucrt:lcidtoname_downlevel.obj
 0002:0001818c       ??_C@_1M@MAOFCAEA@?$AAe?$AAu?$AA?9?$AAE?$AAS@ 4005f18c     libucrt:lcidtoname_downlevel.obj
 0002:00018198       ??_C@_1M@IGHABKPI@?$AAm?$AAk?$AA?9?$AAM?$AAK@ 4005f198     libucrt:lcidtoname_downlevel.obj
 0002:000181a4       ??_C@_1M@IAIGNEJG@?$AAt?$AAn?$AA?9?$AAZ?$AAA@ 4005f1a4     libucrt:lcidtoname_downlevel.obj
 0002:000181b0       ??_C@_1M@IIJCOJFA@?$AAx?$AAh?$AA?9?$AAZ?$AAA@ 4005f1b0     libucrt:lcidtoname_downlevel.obj
 0002:000181bc       ??_C@_1M@LGPJHNJH@?$AAz?$AAu?$AA?9?$AAZ?$AAA@ 4005f1bc     libucrt:lcidtoname_downlevel.obj
 0002:000181c8       ??_C@_1M@HOKAOIO@?$AAa?$AAf?$AA?9?$AAZ?$AAA@ 4005f1c8     libucrt:lcidtoname_downlevel.obj
 0002:000181d4       ??_C@_1M@DPCLHLIE@?$AAk?$AAa?$AA?9?$AAG?$AAE@ 4005f1d4     libucrt:lcidtoname_downlevel.obj
 0002:000181e0       ??_C@_1M@BLKMHJBI@?$AAf?$AAo?$AA?9?$AAF?$AAO@ 4005f1e0     libucrt:lcidtoname_downlevel.obj
 0002:000181ec       ??_C@_1M@LGGJAPPB@?$AAh?$AAi?$AA?9?$AAI?$AAN@ 4005f1ec     libucrt:lcidtoname_downlevel.obj
 0002:000181f8       ??_C@_1M@FIKPIHFE@?$AAm?$AAt?$AA?9?$AAM?$AAT@ 4005f1f8     libucrt:lcidtoname_downlevel.obj
 0002:00018204       ??_C@_1M@HEGGPBFA@?$AAs?$AAe?$AA?9?$AAN?$AAO@ 4005f204     libucrt:lcidtoname_downlevel.obj
 0002:00018210       ??_C@_1M@EIBJEEPA@?$AAm?$AAs?$AA?9?$AAM?$AAY@ 4005f210     libucrt:lcidtoname_downlevel.obj
 0002:0001821c       ??_C@_1M@FHLBGMPP@?$AAk?$AAk?$AA?9?$AAK?$AAZ@ 4005f21c     libucrt:lcidtoname_downlevel.obj
 0002:00018228       ??_C@_1M@NGJJLCGI@?$AAk?$AAy?$AA?9?$AAK?$AAG@ 4005f228     libucrt:lcidtoname_downlevel.obj
 0002:00018234       ??_C@_1M@GIENNBFC@?$AAs?$AAw?$AA?9?$AAK?$AAE@ 4005f234     libucrt:lcidtoname_downlevel.obj
 0002:00018240       ??_C@_1BG@NDGMJIMJ@?$AAu?$AAz?$AA?9?$AAU?$AAZ?$AA?9?$AAL?$AAa?$AAt?$AAn@ 4005f240     libucrt:lcidtoname_downlevel.obj
 0002:00018258       ??_C@_1M@IDCCIHBC@?$AAt?$AAt?$AA?9?$AAR?$AAU@ 4005f258     libucrt:lcidtoname_downlevel.obj
 0002:00018264       ??_C@_1M@LOICPMOJ@?$AAb?$AAn?$AA?9?$AAI?$AAN@ 4005f264     libucrt:lcidtoname_downlevel.obj
 0002:00018270       ??_C@_1M@KPKKNEAH@?$AAp?$AAa?$AA?9?$AAI?$AAN@ 4005f270     libucrt:lcidtoname_downlevel.obj
 0002:0001827c       ??_C@_1M@PJGPPBOG@?$AAg?$AAu?$AA?9?$AAI?$AAN@ 4005f27c     libucrt:lcidtoname_downlevel.obj
 0002:00018288       ??_C@_1M@KMKMOPHI@?$AAt?$AAa?$AA?9?$AAI?$AAN@ 4005f288     libucrt:lcidtoname_downlevel.obj
 0002:00018294       ??_C@_1M@KFEHEPAC@?$AAt?$AAe?$AA?9?$AAI?$AAN@ 4005f294     libucrt:lcidtoname_downlevel.obj
 0002:000182a0       ??_C@_1M@CDCLMGHI@?$AAk?$AAn?$AA?9?$AAI?$AAN@ 4005f2a0     libucrt:lcidtoname_downlevel.obj
 0002:000182ac       ??_C@_1M@MIODLDKF@?$AAm?$AAl?$AA?9?$AAI?$AAN@ 4005f2ac     libucrt:lcidtoname_downlevel.obj
 0002:000182b8       ??_C@_1M@PBIEACPO@?$AAm?$AAr?$AA?9?$AAI?$AAN@ 4005f2b8     libucrt:lcidtoname_downlevel.obj
 0002:000182c4       ??_C@_1M@NIDEAGPH@?$AAs?$AAa?$AA?9?$AAI?$AAN@ 4005f2c4     libucrt:lcidtoname_downlevel.obj
 0002:000182d0       ??_C@_1M@FHIHCBIO@?$AAm?$AAn?$AA?9?$AAM?$AAN@ 4005f2d0     libucrt:lcidtoname_downlevel.obj
 0002:000182dc       ??_C@_1M@JAIJPENP@?$AAc?$AAy?$AA?9?$AAG?$AAB@ 4005f2dc     libucrt:lcidtoname_downlevel.obj
 0002:000182e8       ??_C@_1M@PHGFBEPN@?$AAg?$AAl?$AA?9?$AAE?$AAS@ 4005f2e8     libucrt:lcidtoname_downlevel.obj
 0002:000182f4       ??_C@_1O@KPIPDNCP@?$AAk?$AAo?$AAk?$AA?9?$AAI?$AAN@ 4005f2f4     libucrt:lcidtoname_downlevel.obj
 0002:00018304       ??_C@_1O@KNHJLDJA@?$AAs?$AAy?$AAr?$AA?9?$AAS?$AAY@ 4005f304     libucrt:lcidtoname_downlevel.obj
 0002:00018314       ??_C@_1O@MKEKBLAH@?$AAd?$AAi?$AAv?$AA?9?$AAM?$AAV@ 4005f314     libucrt:lcidtoname_downlevel.obj
 0002:00018324       ??_C@_1O@OHDCKDDF@?$AAq?$AAu?$AAz?$AA?9?$AAB?$AAO@ 4005f324     libucrt:lcidtoname_downlevel.obj
 0002:00018334       ??_C@_1M@LEPJNLFD@?$AAn?$AAs?$AA?9?$AAZ?$AAA@ 4005f334     libucrt:lcidtoname_downlevel.obj
 0002:00018340       ??_C@_1M@OMLEIIJB@?$AAm?$AAi?$AA?9?$AAN?$AAZ@ 4005f340     libucrt:lcidtoname_downlevel.obj
 0002:0001834c       ??_C@_1M@PMPEAILG@?$AAa?$AAr?$AA?9?$AAI?$AAQ@ 4005f34c     libucrt:lcidtoname_downlevel.obj
 0002:00018358       ??_C@_1M@CNKPNOEE@?$AAd?$AAe?$AA?9?$AAC?$AAH@ 4005f358     libucrt:lcidtoname_downlevel.obj
 0002:00018364       ??_C@_1M@LKMGMLKO@?$AAe?$AAn?$AA?9?$AAG?$AAB@ 4005f364     libucrt:lcidtoname_downlevel.obj
 0002:00018370       ??_C@_1M@PGKJFFGL@?$AAe?$AAs?$AA?9?$AAM?$AAX@ 4005f370     libucrt:lcidtoname_downlevel.obj
 0002:0001837c       ??_C@_1M@DNNANBDC@?$AAf?$AAr?$AA?9?$AAB?$AAE@ 4005f37c     libucrt:lcidtoname_downlevel.obj
 0002:00018388       ??_C@_1M@HLGMDFHM@?$AAi?$AAt?$AA?9?$AAC?$AAH@ 4005f388     libucrt:lcidtoname_downlevel.obj
 0002:00018394       ??_C@_1M@CLLBGJH@?$AAn?$AAl?$AA?9?$AAB?$AAE@ 4005f394     libucrt:lcidtoname_downlevel.obj
 0002:000183a0       ??_C@_1M@BODBOGLF@?$AAn?$AAn?$AA?9?$AAN?$AAO@ 4005f3a0     libucrt:lcidtoname_downlevel.obj
 0002:000183ac       ??_C@_1M@HFFAHKAD@?$AAp?$AAt?$AA?9?$AAP?$AAT@ 4005f3ac     libucrt:lcidtoname_downlevel.obj
 0002:000183b8       ??_C@_1BG@LNOAKHIE@?$AAs?$AAr?$AA?9?$AAS?$AAP?$AA?9?$AAL?$AAa?$AAt?$AAn@ 4005f3b8     libucrt:lcidtoname_downlevel.obj
 0002:000183d0       ??_C@_1M@HBMHBGAK@?$AAs?$AAv?$AA?9?$AAF?$AAI@ 4005f3d0     libucrt:lcidtoname_downlevel.obj
 0002:000183dc       ??_C@_1BG@DGCJGJBE@?$AAa?$AAz?$AA?9?$AAA?$AAZ?$AA?9?$AAC?$AAy?$AAr?$AAl@ 4005f3dc     libucrt:lcidtoname_downlevel.obj
 0002:000183f4       ??_C@_1M@KEJDAAHB@?$AAs?$AAe?$AA?9?$AAS?$AAE@ 4005f3f4     libucrt:lcidtoname_downlevel.obj
 0002:00018400       ??_C@_1M@HEIBJJAD@?$AAm?$AAs?$AA?9?$AAB?$AAN@ 4005f400     libucrt:lcidtoname_downlevel.obj
 0002:0001840c       ??_C@_1BG@PBGJMCEM@?$AAu?$AAz?$AA?9?$AAU?$AAZ?$AA?9?$AAC?$AAy?$AAr?$AAl@ 4005f40c     libucrt:lcidtoname_downlevel.obj
 0002:00018424       ??_C@_1O@LAOBCMDF@?$AAq?$AAu?$AAz?$AA?9?$AAE?$AAC@ 4005f424     libucrt:lcidtoname_downlevel.obj
 0002:00018434       ??_C@_1M@POEEMAIO@?$AAa?$AAr?$AA?9?$AAE?$AAG@ 4005f434     libucrt:lcidtoname_downlevel.obj
 0002:00018440       ??_C@_1M@EFAKDEDL@?$AAz?$AAh?$AA?9?$AAH?$AAK@ 4005f440     libucrt:lcidtoname_downlevel.obj
 0002:0001844c       ??_C@_1M@HKKIJHGI@?$AAd?$AAe?$AA?9?$AAA?$AAT@ 4005f44c     libucrt:lcidtoname_downlevel.obj
 0002:00018458       ??_C@_1M@KBFBEHJF@?$AAe?$AAn?$AA?9?$AAA?$AAU@ 4005f458     libucrt:lcidtoname_downlevel.obj
 0002:00018464       ??_C@_1M@MNPLFAAH@?$AAe?$AAs?$AA?9?$AAE?$AAS@ 4005f464     libucrt:lcidtoname_downlevel.obj
 0002:00018470       ??_C@_1M@HJOOJFMA@?$AAf?$AAr?$AA?9?$AAC?$AAA@ 4005f470     libucrt:lcidtoname_downlevel.obj
 0002:0001847c       ??_C@_1BG@JPOFPNAB@?$AAs?$AAr?$AA?9?$AAS?$AAP?$AA?9?$AAC?$AAy?$AAr?$AAl@ 4005f47c     libucrt:lcidtoname_downlevel.obj
 0002:00018494       ??_C@_1M@LNFOCMOB@?$AAs?$AAe?$AA?9?$AAF?$AAI@ 4005f494     libucrt:lcidtoname_downlevel.obj
 0002:000184a0       ??_C@_1O@MGJBOAMB@?$AAq?$AAu?$AAz?$AA?9?$AAP?$AAE@ 4005f4a0     libucrt:lcidtoname_downlevel.obj
 0002:000184b0       ??_C@_1M@GJINLBOK@?$AAa?$AAr?$AA?9?$AAL?$AAY@ 4005f4b0     libucrt:lcidtoname_downlevel.obj
 0002:000184bc       ??_C@_1M@GGMNHJNL@?$AAz?$AAh?$AA?9?$AAS?$AAG@ 4005f4bc     libucrt:lcidtoname_downlevel.obj
 0002:000184c8       ??_C@_1M@HOIKODND@?$AAd?$AAe?$AA?9?$AAL?$AAU@ 4005f4c8     libucrt:lcidtoname_downlevel.obj
 0002:000184d4       ??_C@_1M@DDOCCGFG@?$AAe?$AAn?$AA?9?$AAC?$AAA@ 4005f4d4     libucrt:lcidtoname_downlevel.obj
 0002:000184e0       ??_C@_1M@BNOEMJLF@?$AAe?$AAs?$AA?9?$AAG?$AAT@ 4005f4e0     libucrt:lcidtoname_downlevel.obj
 0002:000184ec       ??_C@_1M@EOGNKEK@?$AAf?$AAr?$AA?9?$AAC?$AAH@ 4005f4ec     libucrt:lcidtoname_downlevel.obj
 0002:000184f8       ??_C@_1M@FLIDJFHL@?$AAh?$AAr?$AA?9?$AAB?$AAA@ 4005f4f8     libucrt:lcidtoname_downlevel.obj
 0002:00018504       ??_C@_1O@FMCELNAJ@?$AAs?$AAm?$AAj?$AA?9?$AAN?$AAO@ 4005f504     libucrt:lcidtoname_downlevel.obj
 0002:00018514       ??_C@_1M@JHGLJMGJ@?$AAa?$AAr?$AA?9?$AAD?$AAZ@ 4005f514     libucrt:lcidtoname_downlevel.obj
 0002:00018520       ??_C@_1M@JKKFDCNP@?$AAz?$AAh?$AA?9?$AAM?$AAO@ 4005f520     libucrt:lcidtoname_downlevel.obj
 0002:0001852c       ??_C@_1M@GEEFALPE@?$AAd?$AAe?$AA?9?$AAL?$AAI@ 4005f52c     libucrt:lcidtoname_downlevel.obj
 0002:00018538       ??_C@_1M@IGEOFBG@?$AAe?$AAn?$AA?9?$AAN?$AAZ@ 4005f538     libucrt:lcidtoname_downlevel.obj
 0002:00018544       ??_C@_1M@KDBONEHP@?$AAe?$AAs?$AA?9?$AAC?$AAR@ 4005f544     libucrt:lcidtoname_downlevel.obj
 0002:00018550       ??_C@_1M@FHMDOHNN@?$AAf?$AAr?$AA?9?$AAL?$AAU@ 4005f550     libucrt:lcidtoname_downlevel.obj
 0002:0001855c       ??_C@_1BG@NFKKMAFG@?$AAb?$AAs?$AA?9?$AAB?$AAA?$AA?9?$AAL?$AAa?$AAt?$AAn@ 4005f55c     libucrt:lcidtoname_downlevel.obj
 0002:00018574       ??_C@_1O@IMNBEMCI@?$AAs?$AAm?$AAj?$AA?9?$AAS?$AAE@ 4005f574     libucrt:lcidtoname_downlevel.obj
 0002:00018584       ??_C@_1M@DHHMBNDP@?$AAa?$AAr?$AA?9?$AAM?$AAA@ 4005f584     libucrt:lcidtoname_downlevel.obj
 0002:00018590       ??_C@_1M@BNBLJCGH@?$AAe?$AAn?$AA?9?$AAI?$AAE@ 4005f590     libucrt:lcidtoname_downlevel.obj
 0002:0001859c       ??_C@_1M@GEPAFMDL@?$AAe?$AAs?$AA?9?$AAP?$AAA@ 4005f59c     libucrt:lcidtoname_downlevel.obj
 0002:000185a8       ??_C@_1M@OJONDMDL@?$AAf?$AAr?$AA?9?$AAM?$AAC@ 4005f5a8     libucrt:lcidtoname_downlevel.obj
 0002:000185b4       ??_C@_1BG@OBCNFJB@?$AAs?$AAr?$AA?9?$AAB?$AAA?$AA?9?$AAL?$AAa?$AAt?$AAn@ 4005f5b4     libucrt:lcidtoname_downlevel.obj
 0002:000185cc       ??_C@_1O@KEMEEGPO@?$AAs?$AAm?$AAa?$AA?9?$AAN?$AAO@ 4005f5cc     libucrt:lcidtoname_downlevel.obj
 0002:000185dc       ??_C@_1M@ELMGFODK@?$AAa?$AAr?$AA?9?$AAT?$AAN@ 4005f5dc     libucrt:lcidtoname_downlevel.obj
 0002:000185e8       ??_C@_1M@BHDLHFAF@?$AAe?$AAn?$AA?9?$AAZ?$AAA@ 4005f5e8     libucrt:lcidtoname_downlevel.obj
 0002:000185f4       ??_C@_1M@BMGIGLIF@?$AAe?$AAs?$AA?9?$AAD?$AAO@ 4005f5f4     libucrt:lcidtoname_downlevel.obj
 0002:00018600       ??_C@_1BG@CMBHIPBE@?$AAs?$AAr?$AA?9?$AAB?$AAA?$AA?9?$AAC?$AAy?$AAr?$AAl@ 4005f600     libucrt:lcidtoname_downlevel.obj
 0002:00018618       ??_C@_1O@HEDBLHNP@?$AAs?$AAm?$AAa?$AA?9?$AAS?$AAE@ 4005f618     libucrt:lcidtoname_downlevel.obj
 0002:00018628       ??_C@_1M@DAGCADIM@?$AAa?$AAr?$AA?9?$AAO?$AAM@ 4005f628     libucrt:lcidtoname_downlevel.obj
 0002:00018634       ??_C@_1M@FODLMICG@?$AAe?$AAn?$AA?9?$AAJ?$AAM@ 4005f634     libucrt:lcidtoname_downlevel.obj
 0002:00018640       ??_C@_1M@DNMLCIHB@?$AAe?$AAs?$AA?9?$AAV?$AAE@ 4005f640     libucrt:lcidtoname_downlevel.obj
 0002:0001864c       ??_C@_1O@EOKHMKJK@?$AAs?$AAm?$AAs?$AA?9?$AAF?$AAI@ 4005f64c     libucrt:lcidtoname_downlevel.obj
 0002:0001865c       ??_C@_1M@CAFJMKOF@?$AAa?$AAr?$AA?9?$AAY?$AAE@ 4005f65c     libucrt:lcidtoname_downlevel.obj
 0002:00018668       ??_C@_1M@CBFHIJLI@?$AAe?$AAn?$AA?9?$AAC?$AAB@ 4005f668     libucrt:lcidtoname_downlevel.obj
 0002:00018674       ??_C@_1M@BGNFLDN@?$AAe?$AAs?$AA?9?$AAC?$AAO@ 4005f674     libucrt:lcidtoname_downlevel.obj
 0002:00018680       ??_C@_1O@JMPHMAMC@?$AAs?$AAm?$AAn?$AA?9?$AAF?$AAI@ 4005f680     libucrt:lcidtoname_downlevel.obj
 0002:00018690       ??_C@_1M@JLANABKE@?$AAa?$AAr?$AA?9?$AAS?$AAY@ 4005f690     libucrt:lcidtoname_downlevel.obj
 0002:0001869c       ??_C@_1M@HPKGCFGN@?$AAe?$AAn?$AA?9?$AAB?$AAZ@ 4005f69c     libucrt:lcidtoname_downlevel.obj
 0002:000186a8       ??_C@_1M@OLJCMLGM@?$AAe?$AAs?$AA?9?$AAP?$AAE@ 4005f6a8     libucrt:lcidtoname_downlevel.obj
 0002:000186b4       ??_C@_1M@MKKGFKLE@?$AAa?$AAr?$AA?9?$AAJ?$AAO@ 4005f6b4     libucrt:lcidtoname_downlevel.obj
 0002:000186c0       ??_C@_1M@EKPGLDNI@?$AAe?$AAn?$AA?9?$AAT?$AAT@ 4005f6c0     libucrt:lcidtoname_downlevel.obj
 0002:000186cc       ??_C@_1M@OONGHFHE@?$AAe?$AAs?$AA?9?$AAA?$AAR@ 4005f6cc     libucrt:lcidtoname_downlevel.obj
 0002:000186d8       ??_C@_1M@OOJFGBHE@?$AAa?$AAr?$AA?9?$AAL?$AAB@ 4005f6d8     libucrt:lcidtoname_downlevel.obj
 0002:000186e4       ??_C@_1M@GCEJHNEG@?$AAe?$AAn?$AA?9?$AAZ?$AAW@ 4005f6e4     libucrt:lcidtoname_downlevel.obj
 0002:000186f0       ??_C@_1M@JNOCAHJI@?$AAe?$AAs?$AA?9?$AAE?$AAC@ 4005f6f0     libucrt:lcidtoname_downlevel.obj
 0002:000186fc       ??_C@_1M@JEFHPGGB@?$AAa?$AAr?$AA?9?$AAK?$AAW@ 4005f6fc     libucrt:lcidtoname_downlevel.obj
 0002:00018708       ??_C@_1M@MLKIBJOJ@?$AAe?$AAn?$AA?9?$AAP?$AAH@ 4005f708     libucrt:lcidtoname_downlevel.obj
 0002:00018714       ??_C@_1M@BDNIPEND@?$AAe?$AAs?$AA?9?$AAC?$AAL@ 4005f714     libucrt:lcidtoname_downlevel.obj
 0002:00018720       ??_C@_1M@MPNMEKBD@?$AAa?$AAr?$AA?9?$AAA?$AAE@ 4005f720     libucrt:lcidtoname_downlevel.obj
 0002:0001872c       ??_C@_1M@KBJALCPI@?$AAe?$AAs?$AA?9?$AAU?$AAY@ 4005f72c     libucrt:lcidtoname_downlevel.obj
 0002:00018738       ??_C@_1M@LLCCOAGA@?$AAa?$AAr?$AA?9?$AAB?$AAH@ 4005f738     libucrt:lcidtoname_downlevel.obj
 0002:00018744       ??_C@_1M@PBFNCDEL@?$AAe?$AAs?$AA?9?$AAP?$AAY@ 4005f744     libucrt:lcidtoname_downlevel.obj
 0002:00018750       ??_C@_1M@EDGINPNP@?$AAa?$AAr?$AA?9?$AAQ?$AAA@ 4005f750     libucrt:lcidtoname_downlevel.obj
 0002:0001875c       ??_C@_1M@MKDBIIJI@?$AAe?$AAs?$AA?9?$AAB?$AAO@ 4005f75c     libucrt:lcidtoname_downlevel.obj
 0002:00018768       ??_C@_1M@CPKKEBLD@?$AAe?$AAs?$AA?9?$AAS?$AAV@ 4005f768     libucrt:lcidtoname_downlevel.obj
 0002:00018774       ??_C@_1M@NDBGMMJL@?$AAe?$AAs?$AA?9?$AAH?$AAN@ 4005f774     libucrt:lcidtoname_downlevel.obj
 0002:00018780       ??_C@_1M@JIJIBHDP@?$AAe?$AAs?$AA?9?$AAN?$AAI@ 4005f780     libucrt:lcidtoname_downlevel.obj
 0002:0001878c       ??_C@_1M@CGFMKEEK@?$AAe?$AAs?$AA?9?$AAP?$AAR@ 4005f78c     libucrt:lcidtoname_downlevel.obj
 0002:00018798       ??_C@_1O@ICJHKIIK@?$AAz?$AAh?$AA?9?$AAC?$AAH?$AAT@ 4005f798     libucrt:lcidtoname_downlevel.obj
 0002:000187a8       ??_C@_15CLNEJCE@?$AAs?$AAr@ 4005f7a8     libucrt:lcidtoname_downlevel.obj
 0002:00018ed0       ??_C@_1M@KAHEKEIG@?$AAa?$AAf?$AA?9?$AAz?$AAa@ 4005fed0     libucrt:lcidtoname_downlevel.obj
 0002:00018edc       ??_C@_1M@GIECOABL@?$AAa?$AAr?$AA?9?$AAa?$AAe@ 4005fedc     libucrt:lcidtoname_downlevel.obj
 0002:00018ee8       ??_C@_1M@BMLMEKGI@?$AAa?$AAr?$AA?9?$AAb?$AAh@ 4005fee8     libucrt:lcidtoname_downlevel.obj
 0002:00018ef4       ??_C@_1M@DAPFDGGB@?$AAa?$AAr?$AA?9?$AAd?$AAz@ 4005fef4     libucrt:lcidtoname_downlevel.obj
 0002:00018f00       ??_C@_1M@FJNKGKIG@?$AAa?$AAr?$AA?9?$AAe?$AAg@ 4005ff00     libucrt:lcidtoname_downlevel.obj
 0002:00018f0c       ??_C@_1M@FLGKKCLO@?$AAa?$AAr?$AA?9?$AAi?$AAq@ 4005ff0c     libucrt:lcidtoname_downlevel.obj
 0002:00018f18       ??_C@_1M@GNDIPALM@?$AAa?$AAr?$AA?9?$AAj?$AAo@ 4005ff18     libucrt:lcidtoname_downlevel.obj
 0002:00018f24       ??_C@_1M@DDMJFMGJ@?$AAa?$AAr?$AA?9?$AAk?$AAw@ 4005ff24     libucrt:lcidtoname_downlevel.obj
 0002:00018f30       ??_C@_1M@EJALMLHM@?$AAa?$AAr?$AA?9?$AAl?$AAb@ 4005ff30     libucrt:lcidtoname_downlevel.obj
 0002:00018f3c       ??_C@_1M@MOBDBLOC@?$AAa?$AAr?$AA?9?$AAl?$AAy@ 4005ff3c     libucrt:lcidtoname_downlevel.obj
 0002:00018f48       ??_C@_1M@JAOCLHDH@?$AAa?$AAr?$AA?9?$AAm?$AAa@ 4005ff48     libucrt:lcidtoname_downlevel.obj
 0002:00018f54       ??_C@_1M@JHPMKJIE@?$AAa?$AAr?$AA?9?$AAo?$AAm@ 4005ff54     libucrt:lcidtoname_downlevel.obj
 0002:00018f60       ??_C@_1M@OEPGHFNH@?$AAa?$AAr?$AA?9?$AAq?$AAa@ 4005ff60     libucrt:lcidtoname_downlevel.obj
 0002:00018f6c       ??_C@_1M@KJDONENM@?$AAa?$AAr?$AA?9?$AAs?$AAa@ 4005ff6c     libucrt:lcidtoname_downlevel.obj
 0002:00018f78       ??_C@_1M@DMJDKLKM@?$AAa?$AAr?$AA?9?$AAs?$AAy@ 4005ff78     libucrt:lcidtoname_downlevel.obj
 0002:00018f84       ??_C@_1M@OMFIPEDC@?$AAa?$AAr?$AA?9?$AAt?$AAn@ 4005ff84     libucrt:lcidtoname_downlevel.obj
 0002:00018f90       ??_C@_1M@IHMHGAON@?$AAa?$AAr?$AA?9?$AAy?$AAe@ 4005ff90     libucrt:lcidtoname_downlevel.obj
 0002:00018f9c       ??_C@_1BG@KDCPGJGB@?$AAa?$AAz?$AA?9?$AAa?$AAz?$AA?9?$AAc?$AAy?$AAr?$AAl@ 4005ff9c     libucrt:lcidtoname_downlevel.obj
 0002:00018fb4       ??_C@_1BG@IBCKDDOE@?$AAa?$AAz?$AA?9?$AAa?$AAz?$AA?9?$AAl?$AAa?$AAt?$AAn@ 4005ffb4     libucrt:lcidtoname_downlevel.obj
 0002:00018fcc       ??_C@_1M@EGPFDCPD@?$AAb?$AAe?$AA?9?$AAb?$AAy@ 4005ffcc     libucrt:lcidtoname_downlevel.obj
 0002:00018fd8       ??_C@_1M@PCMGMCGC@?$AAb?$AAg?$AA?9?$AAb?$AAg@ 4005ffd8     libucrt:lcidtoname_downlevel.obj
 0002:00018fe4       ??_C@_1M@BJBMFGOB@?$AAb?$AAn?$AA?9?$AAi?$AAn@ 4005ffe4     libucrt:lcidtoname_downlevel.obj
 0002:00018ff0       ??_C@_1BG@EAKMMACD@?$AAb?$AAs?$AA?9?$AAb?$AAa?$AA?9?$AAl?$AAa?$AAt?$AAn@ 4005fff0     libucrt:lcidtoname_downlevel.obj
 0002:00019008       ??_C@_1M@KGADAODK@?$AAc?$AAa?$AA?9?$AAe?$AAs@ 40060008     libucrt:lcidtoname_downlevel.obj
 0002:00019014       ??_C@_1M@COAJPDHI@?$AAc?$AAs?$AA?9?$AAc?$AAz@ 40060014     libucrt:lcidtoname_downlevel.obj
 0002:00019020       ??_C@_1M@DHBHFONH@?$AAc?$AAy?$AA?9?$AAg?$AAb@ 40060020     libucrt:lcidtoname_downlevel.obj
 0002:0001902c       ??_C@_1M@IMGKELGA@?$AAd?$AAa?$AA?9?$AAd?$AAk@ 4006002c     libucrt:lcidtoname_downlevel.obj
 0002:00019038       ??_C@_1M@NNDGDNGA@?$AAd?$AAe?$AA?9?$AAa?$AAt@ 40060038     libucrt:lcidtoname_downlevel.obj
 0002:00019044       ??_C@_1M@IKDBHEEM@?$AAd?$AAe?$AA?9?$AAc?$AAh@ 40060044     libucrt:lcidtoname_downlevel.obj
 0002:00019050       ??_C@_1M@GFFOJMCJ@?$AAd?$AAe?$AA?9?$AAd?$AAe@ 40060050     libucrt:lcidtoname_downlevel.obj
 0002:0001905c       ??_C@_1M@MDNLKBPM@?$AAd?$AAe?$AA?9?$AAl?$AAi@ 4006005c     libucrt:lcidtoname_downlevel.obj
 0002:00019068       ??_C@_1M@NJBEEJNL@?$AAd?$AAe?$AA?9?$AAl?$AAu@ 40060068     libucrt:lcidtoname_downlevel.obj
 0002:00019074       ??_C@_1O@GNNELBAP@?$AAd?$AAi?$AAv?$AA?9?$AAm?$AAv@ 40060074     libucrt:lcidtoname_downlevel.obj
 0002:00019084       ??_C@_1M@EJLEOGAE@?$AAe?$AAl?$AA?9?$AAg?$AAr@ 40060084     libucrt:lcidtoname_downlevel.obj
 0002:00019090       ??_C@_1M@GMPONJN@?$AAe?$AAn?$AA?9?$AAa?$AAu@ 40060090     libucrt:lcidtoname_downlevel.obj
 0002:0001909c       ??_C@_1M@NIDIIPGF@?$AAe?$AAn?$AA?9?$AAb?$AAz@ 4006009c     libucrt:lcidtoname_downlevel.obj
 0002:000190a8       ??_C@_1M@JEHMIMFO@?$AAe?$AAn?$AA?9?$AAc?$AAa@ 400600a8     libucrt:lcidtoname_downlevel.obj
 0002:000190b4       ??_C@_1M@IGMJCDLA@?$AAe?$AAn?$AA?9?$AAc?$AAb@ 400600b4     libucrt:lcidtoname_downlevel.obj
 0002:000190c0       ??_C@_1M@BNFIGBKG@?$AAe?$AAn?$AA?9?$AAg?$AAb@ 400600c0     libucrt:lcidtoname_downlevel.obj
 0002:000190cc       ??_C@_1M@LKIFDIGP@?$AAe?$AAn?$AA?9?$AAi?$AAe@ 400600cc     libucrt:lcidtoname_downlevel.obj
 0002:000190d8       ??_C@_1M@PJKFGCCO@?$AAe?$AAn?$AA?9?$AAj?$AAm@ 400600d8     libucrt:lcidtoname_downlevel.obj
 0002:000190e4       ??_C@_1M@KPPKEPBO@?$AAe?$AAn?$AA?9?$AAn?$AAz@ 400600e4     libucrt:lcidtoname_downlevel.obj
 0002:000190f0       ??_C@_1M@GMDGLDOB@?$AAe?$AAn?$AA?9?$AAp?$AAh@ 400600f0     libucrt:lcidtoname_downlevel.obj
 0002:000190fc       ??_C@_1M@ONGIBJNA@?$AAe?$AAn?$AA?9?$AAt?$AAt@ 400600fc     libucrt:lcidtoname_downlevel.obj
 0002:00019108       ??_C@_1M@LLODPCMM@?$AAe?$AAn?$AA?9?$AAu?$AAs@ 40060108     libucrt:lcidtoname_downlevel.obj
 0002:00019114       ??_C@_1M@LAKFNPAN@?$AAe?$AAn?$AA?9?$AAz?$AAa@ 40060114     libucrt:lcidtoname_downlevel.obj
 0002:00019120       ??_C@_1M@MFNHNHEO@?$AAe?$AAn?$AA?9?$AAz?$AAw@ 40060120     libucrt:lcidtoname_downlevel.obj
 0002:0001912c       ??_C@_1M@EJEINPHM@?$AAe?$AAs?$AA?9?$AAa?$AAr@ 4006012c     libucrt:lcidtoname_downlevel.obj
 0002:00019138       ??_C@_1M@GNKPCCJA@?$AAe?$AAs?$AA?9?$AAb?$AAo@ 40060138     libucrt:lcidtoname_downlevel.obj
 0002:00019144       ??_C@_1M@LEEGFONL@?$AAe?$AAs?$AA?9?$AAc?$AAl@ 40060144     libucrt:lcidtoname_downlevel.obj
 0002:00019150       ??_C@_1M@KGPDPBDF@?$AAe?$AAs?$AA?9?$AAc?$AAo@ 40060150     libucrt:lcidtoname_downlevel.obj
 0002:0001915c       ??_C@_1M@EIAHOHH@?$AAe?$AAs?$AA?9?$AAc?$AAr@ 4006015c     libucrt:lcidtoname_downlevel.obj
 0002:00019168       ??_C@_1M@LLPGMBIN@?$AAe?$AAs?$AA?9?$AAd?$AAo@ 40060168     libucrt:lcidtoname_downlevel.obj
 0002:00019174       ??_C@_1M@DKHMKNJA@?$AAe?$AAs?$AA?9?$AAe?$AAc@ 40060174     libucrt:lcidtoname_downlevel.obj
 0002:00019180       ??_C@_1M@GKGFPKAP@?$AAe?$AAs?$AA?9?$AAe?$AAs@ 40060180     libucrt:lcidtoname_downlevel.obj
 0002:0001918c       ??_C@_1M@LKHKGDLN@?$AAe?$AAs?$AA?9?$AAg?$AAt@ 4006018c     libucrt:lcidtoname_downlevel.obj
 0002:00019198       ??_C@_1M@HEIIGGJD@?$AAe?$AAs?$AA?9?$AAh?$AAn@ 40060198     libucrt:lcidtoname_downlevel.obj
 0002:000191a4       ??_C@_1M@FBDHPPGD@?$AAe?$AAs?$AA?9?$AAm?$AAx@ 400601a4     libucrt:lcidtoname_downlevel.obj
 0002:000191b0       ??_C@_1M@DPAGLNDH@?$AAe?$AAs?$AA?9?$AAn?$AAi@ 400601b0     libucrt:lcidtoname_downlevel.obj
 0002:000191bc       ??_C@_1M@MDGOPGDD@?$AAe?$AAs?$AA?9?$AAp?$AAa@ 400601bc     libucrt:lcidtoname_downlevel.obj
 0002:000191c8       ??_C@_1M@EMAMGBGE@?$AAe?$AAs?$AA?9?$AAp?$AAe@ 400601c8     libucrt:lcidtoname_downlevel.obj
 0002:000191d4       ??_C@_1M@IBMCAOEC@?$AAe?$AAs?$AA?9?$AAp?$AAr@ 400601d4     libucrt:lcidtoname_downlevel.obj
 0002:000191e0       ??_C@_1M@FGMDIJED@?$AAe?$AAs?$AA?9?$AAp?$AAy@ 400601e0     libucrt:lcidtoname_downlevel.obj
 0002:000191ec       ??_C@_1M@IIDEOLLL@?$AAe?$AAs?$AA?9?$AAs?$AAv@ 400601ec     libucrt:lcidtoname_downlevel.obj
 0002:000191f8       ??_C@_1M@GAOBIPA@?$AAe?$AAs?$AA?9?$AAu?$AAy@ 400601f8     libucrt:lcidtoname_downlevel.obj
 0002:00019204       ??_C@_1M@JKFFICHJ@?$AAe?$AAs?$AA?9?$AAv?$AAe@ 40060204     libucrt:lcidtoname_downlevel.obj
 0002:00019210       ??_C@_1M@PNMLOJDF@?$AAe?$AAt?$AA?9?$AAe?$AAe@ 40060210     libucrt:lcidtoname_downlevel.obj
 0002:0001921c       ??_C@_1M@GHHLIKEI@?$AAe?$AAu?$AA?9?$AAe?$AAs@ 4006021c     libucrt:lcidtoname_downlevel.obj
 0002:00019228       ??_C@_1M@PBNONODE@?$AAf?$AAa?$AA?9?$AAi?$AAr@ 40060228     libucrt:lcidtoname_downlevel.obj
 0002:00019234       ??_C@_1M@JEEHPMIL@?$AAf?$AAi?$AA?9?$AAf?$AAi@ 40060234     libucrt:lcidtoname_downlevel.obj
 0002:00019240       ??_C@_1M@LMDCNDBA@?$AAf?$AAo?$AA?9?$AAf?$AAo@ 40060240     libucrt:lcidtoname_downlevel.obj
 0002:0001924c       ??_C@_1M@JKEOHLDK@?$AAf?$AAr?$AA?9?$AAb?$AAe@ 4006024c     libucrt:lcidtoname_downlevel.obj
 0002:00019258       ??_C@_1M@NOHADPMI@?$AAf?$AAr?$AA?9?$AAc?$AAa@ 40060258     libucrt:lcidtoname_downlevel.obj
 0002:00019264       ??_C@_1M@KDHIHAEC@?$AAf?$AAr?$AA?9?$AAc?$AAh@ 40060264     libucrt:lcidtoname_downlevel.obj
 0002:00019270       ??_C@_1M@MMBBFGAK@?$AAf?$AAr?$AA?9?$AAf?$AAr@ 40060270     libucrt:lcidtoname_downlevel.obj
 0002:0001927c       ??_C@_1M@PAFNENNF@?$AAf?$AAr?$AA?9?$AAl?$AAu@ 4006027c     libucrt:lcidtoname_downlevel.obj
 0002:00019288       ??_C@_1M@EOHDJGDD@?$AAf?$AAr?$AA?9?$AAm?$AAc@ 40060288     libucrt:lcidtoname_downlevel.obj
 0002:00019294       ??_C@_1M@FAPLLOPF@?$AAg?$AAl?$AA?9?$AAe?$AAs@ 40060294     libucrt:lcidtoname_downlevel.obj
 0002:000192a0       ??_C@_1M@FOPBFLOO@?$AAg?$AAu?$AA?9?$AAi?$AAn@ 400602a0     libucrt:lcidtoname_downlevel.obj
 0002:000192ac       ??_C@_1M@KBMCINPM@?$AAh?$AAe?$AA?9?$AAi?$AAl@ 400602ac     libucrt:lcidtoname_downlevel.obj
 0002:000192b8       ??_C@_1M@BBPHKFPJ@?$AAh?$AAi?$AA?9?$AAi?$AAn@ 400602b8     libucrt:lcidtoname_downlevel.obj
 0002:000192c4       ??_C@_1M@PMBNDPHD@?$AAh?$AAr?$AA?9?$AAb?$AAa@ 400602c4     libucrt:lcidtoname_downlevel.obj
 0002:000192d0       ??_C@_1M@BPCKOEGE@?$AAh?$AAr?$AA?9?$AAh?$AAr@ 400602d0     libucrt:lcidtoname_downlevel.obj
 0002:000192dc       ??_C@_1M@GACBMHKE@?$AAh?$AAu?$AA?9?$AAh?$AAu@ 400602dc     libucrt:lcidtoname_downlevel.obj
 0002:000192e8       ??_C@_1M@MILPAJJC@?$AAh?$AAy?$AA?9?$AAa?$AAm@ 400602e8     libucrt:lcidtoname_downlevel.obj
 0002:000192f4       ??_C@_1M@BABBICEC@?$AAi?$AAd?$AA?9?$AAi?$AAd@ 400602f4     libucrt:lcidtoname_downlevel.obj
 0002:00019300       ??_C@_1M@BIKNHHPF@?$AAi?$AAs?$AA?9?$AAi?$AAs@ 40060300     libucrt:lcidtoname_downlevel.obj
 0002:0001930c       ??_C@_1M@NMPCJPHE@?$AAi?$AAt?$AA?9?$AAc?$AAh@ 4006030c     libucrt:lcidtoname_downlevel.obj
 0002:00019318       ??_C@_1M@GHKGFEDF@?$AAi?$AAt?$AA?9?$AAi?$AAt@ 40060318     libucrt:lcidtoname_downlevel.obj
 0002:00019324       ??_C@_1M@NIEJCJJA@?$AAj?$AAa?$AA?9?$AAj?$AAp@ 40060324     libucrt:lcidtoname_downlevel.obj
 0002:00019330       ??_C@_1M@JILFNBIM@?$AAk?$AAa?$AA?9?$AAg?$AAe@ 40060330     libucrt:lcidtoname_downlevel.obj
 0002:0001933c       ??_C@_1M@PACPMGPH@?$AAk?$AAk?$AA?9?$AAk?$AAz@ 4006033c     libucrt:lcidtoname_downlevel.obj
 0002:00019348       ??_C@_1M@IELFGMHA@?$AAk?$AAn?$AA?9?$AAi?$AAn@ 40060348     libucrt:lcidtoname_downlevel.obj
 0002:00019354       ??_C@_1O@IBBJHCH@?$AAk?$AAo?$AAk?$AA?9?$AAi?$AAn@ 40060354     libucrt:lcidtoname_downlevel.obj
 0002:00019364       ??_C@_1M@DMHAEOGC@?$AAk?$AAo?$AA?9?$AAk?$AAr@ 40060364     libucrt:lcidtoname_downlevel.obj
 0002:00019370       ??_C@_1M@HBAHBIGA@?$AAk?$AAy?$AA?9?$AAk?$AAg@ 40060370     libucrt:lcidtoname_downlevel.obj
 0002:0001937c       ??_C@_1M@KPMILCJG@?$AAl?$AAt?$AA?9?$AAl?$AAt@ 4006037c     libucrt:lcidtoname_downlevel.obj
 0002:00019388       ??_C@_1M@BDEKKCA@?$AAl?$AAv?$AA?9?$AAl?$AAv@ 40060388     libucrt:lcidtoname_downlevel.obj
 0002:00019394       ??_C@_1M@ELCKCCJJ@?$AAm?$AAi?$AA?9?$AAn?$AAz@ 40060394     libucrt:lcidtoname_downlevel.obj
 0002:000193a0       ??_C@_1M@CBOOLAPA@?$AAm?$AAk?$AA?9?$AAm?$AAk@ 400603a0     libucrt:lcidtoname_downlevel.obj
 0002:000193ac       ??_C@_1M@GPHNBJKN@?$AAm?$AAl?$AA?9?$AAi?$AAn@ 400603ac     libucrt:lcidtoname_downlevel.obj
 0002:000193b8       ??_C@_1M@PABJILIG@?$AAm?$AAn?$AA?9?$AAm?$AAn@ 400603b8     libucrt:lcidtoname_downlevel.obj
 0002:000193c4       ??_C@_1M@FGBKKIPG@?$AAm?$AAr?$AA?9?$AAi?$AAn@ 400603c4     libucrt:lcidtoname_downlevel.obj
 0002:000193d0       ??_C@_1M@NDBPDDAL@?$AAm?$AAs?$AA?9?$AAb?$AAn@ 400603d0     libucrt:lcidtoname_downlevel.obj
 0002:000193dc       ??_C@_1M@OPIHOOPI@?$AAm?$AAs?$AA?9?$AAm?$AAy@ 400603dc     libucrt:lcidtoname_downlevel.obj
 0002:000193e8       ??_C@_1M@PPDBCNFM@?$AAm?$AAt?$AA?9?$AAm?$AAt@ 400603e8     libucrt:lcidtoname_downlevel.obj
 0002:000193f4       ??_C@_1M@KDJDKMDD@?$AAn?$AAb?$AA?9?$AAn?$AAo@ 400603f4     libucrt:lcidtoname_downlevel.obj
 0002:00019400       ??_C@_1M@KFCFLMJP@?$AAn?$AAl?$AA?9?$AAb?$AAe@ 40060400     libucrt:lcidtoname_downlevel.obj
 0002:0001940c       ??_C@_1M@KPOPDDGO@?$AAn?$AAl?$AA?9?$AAn?$AAl@ 4006040c     libucrt:lcidtoname_downlevel.obj
 0002:00019418       ??_C@_1M@LJKPEMLN@?$AAn?$AAn?$AA?9?$AAn?$AAo@ 40060418     libucrt:lcidtoname_downlevel.obj
 0002:00019424       ??_C@_1M@BDGHHBFL@?$AAn?$AAs?$AA?9?$AAz?$AAa@ 40060424     libucrt:lcidtoname_downlevel.obj
 0002:00019430       ??_C@_1M@IDEHOAP@?$AAp?$AAa?$AA?9?$AAi?$AAn@ 40060430     libucrt:lcidtoname_downlevel.obj
 0002:0001943c       ??_C@_1M@HDBKGOGH@?$AAp?$AAl?$AA?9?$AAp?$AAl@ 4006043c     libucrt:lcidtoname_downlevel.obj
 0002:00019448       ??_C@_1M@LJLLCMEH@?$AAp?$AAt?$AA?9?$AAb?$AAr@ 40060448     libucrt:lcidtoname_downlevel.obj
 0002:00019454       ??_C@_1M@NCMONAAL@?$AAp?$AAt?$AA?9?$AAp?$AAt@ 40060454     libucrt:lcidtoname_downlevel.obj
 0002:00019460       ??_C@_1O@EAKMAJDN@?$AAq?$AAu?$AAz?$AA?9?$AAb?$AAo@ 40060460     libucrt:lcidtoname_downlevel.obj
 0002:00019470       ??_C@_1O@BHHPIGDN@?$AAq?$AAu?$AAz?$AA?9?$AAe?$AAc@ 40060470     libucrt:lcidtoname_downlevel.obj
 0002:00019480       ??_C@_1O@GBAPEKMJ@?$AAq?$AAu?$AAz?$AA?9?$AAp?$AAe@ 40060480     libucrt:lcidtoname_downlevel.obj
 0002:00019490       ??_C@_1M@CLGLEFBO@?$AAr?$AAo?$AA?9?$AAr?$AAo@ 40060490     libucrt:lcidtoname_downlevel.obj
 0002:0001949c       ??_C@_1M@CEEDODME@?$AAr?$AAu?$AA?9?$AAr?$AAu@ 4006049c     libucrt:lcidtoname_downlevel.obj
 0002:000194a8       ??_C@_1M@HPKKKMPP@?$AAs?$AAa?$AA?9?$AAi?$AAn@ 400604a8     libucrt:lcidtoname_downlevel.obj
 0002:000194b4       ??_C@_1M@BKMAIGOJ@?$AAs?$AAe?$AA?9?$AAf?$AAi@ 400604b4     libucrt:lcidtoname_downlevel.obj
 0002:000194c0       ??_C@_1M@NDPIFLFI@?$AAs?$AAe?$AA?9?$AAn?$AAo@ 400604c0     libucrt:lcidtoname_downlevel.obj
 0002:000194cc       ??_C@_1M@DANKKHJ@?$AAs?$AAe?$AA?9?$AAs?$AAe@ 400604cc     libucrt:lcidtoname_downlevel.obj
 0002:000194d8       ??_C@_1M@PNBLONPJ@?$AAs?$AAk?$AA?9?$AAs?$AAk@ 400604d8     libucrt:lcidtoname_downlevel.obj
 0002:000194e4       ??_C@_1M@LFMODOAL@?$AAs?$AAl?$AA?9?$AAs?$AAi@ 400604e4     libucrt:lcidtoname_downlevel.obj
 0002:000194f0       ??_C@_1O@DFKOMPG@?$AAs?$AAm?$AAa?$AA?9?$AAn?$AAo@ 400604f0     libucrt:lcidtoname_downlevel.obj
 0002:00019500       ??_C@_1O@NDKPBNNH@?$AAs?$AAm?$AAa?$AA?9?$AAs?$AAe@ 40060500     libucrt:lcidtoname_downlevel.obj
 0002:00019510       ??_C@_1O@PLLKBHAB@?$AAs?$AAm?$AAj?$AA?9?$AAn?$AAo@ 40060510     libucrt:lcidtoname_downlevel.obj
 0002:00019520       ??_C@_1O@CLEPOGCA@?$AAs?$AAm?$AAj?$AA?9?$AAs?$AAe@ 40060520     libucrt:lcidtoname_downlevel.obj
 0002:00019530       ??_C@_1O@DLGJGKMK@?$AAs?$AAm?$AAn?$AA?9?$AAf?$AAi@ 40060530     libucrt:lcidtoname_downlevel.obj
 0002:00019540       ??_C@_1O@OJDJGAJC@?$AAs?$AAm?$AAs?$AA?9?$AAf?$AAi@ 40060540     libucrt:lcidtoname_downlevel.obj
 0002:00019550       ??_C@_1M@BOFOGHPB@?$AAs?$AAq?$AA?9?$AAa?$AAl@ 40060550     libucrt:lcidtoname_downlevel.obj
 0002:0001955c       ??_C@_1BG@LJBBIPGB@?$AAs?$AAr?$AA?9?$AAb?$AAa?$AA?9?$AAc?$AAy?$AAr?$AAl@ 4006055c     libucrt:lcidtoname_downlevel.obj
 0002:00019574       ??_C@_1BG@JLBENFOE@?$AAs?$AAr?$AA?9?$AAb?$AAa?$AA?9?$AAl?$AAa?$AAt?$AAn@ 40060574     libucrt:lcidtoname_downlevel.obj
 0002:0001958c       ??_C@_1BG@KODPNHE@?$AAs?$AAr?$AA?9?$AAs?$AAp?$AA?9?$AAc?$AAy?$AAr?$AAl@ 4006058c     libucrt:lcidtoname_downlevel.obj
 0002:000195a4       ??_C@_1BG@CIOGKHPB@?$AAs?$AAr?$AA?9?$AAs?$AAp?$AA?9?$AAl?$AAa?$AAt?$AAn@ 400605a4     libucrt:lcidtoname_downlevel.obj
 0002:000195bc       ??_C@_1M@NGFJLMAC@?$AAs?$AAv?$AA?9?$AAf?$AAi@ 400605bc     libucrt:lcidtoname_downlevel.obj
 0002:000195c8       ??_C@_1M@MPJEJAJC@?$AAs?$AAv?$AA?9?$AAs?$AAe@ 400605c8     libucrt:lcidtoname_downlevel.obj
 0002:000195d4       ??_C@_1M@MPNDHLFK@?$AAs?$AAw?$AA?9?$AAk?$AAe@ 400605d4     libucrt:lcidtoname_downlevel.obj
 0002:000195e0       ??_C@_1O@KOHBJJI@?$AAs?$AAy?$AAr?$AA?9?$AAs?$AAy@ 400605e0     libucrt:lcidtoname_downlevel.obj
 0002:000195f0       ??_C@_1M@LDCEFHA@?$AAt?$AAa?$AA?9?$AAi?$AAn@ 400605f0     libucrt:lcidtoname_downlevel.obj
 0002:000195fc       ??_C@_1M@CNJOFAK@?$AAt?$AAe?$AA?9?$AAi?$AAn@ 400605fc     libucrt:lcidtoname_downlevel.obj
 0002:00019608       ??_C@_1M@GNAECACD@?$AAt?$AAh?$AA?9?$AAt?$AAh@ 40060608     libucrt:lcidtoname_downlevel.obj
 0002:00019614       ??_C@_1M@CHBIHOJO@?$AAt?$AAn?$AA?9?$AAz?$AAa@ 40060614     libucrt:lcidtoname_downlevel.obj
 0002:00019620       ??_C@_1M@GCCMIGPJ@?$AAt?$AAr?$AA?9?$AAt?$AAr@ 40060620     libucrt:lcidtoname_downlevel.obj
 0002:0001962c       ??_C@_1M@CELMCNBK@?$AAt?$AAt?$AA?9?$AAr?$AAu@ 4006062c     libucrt:lcidtoname_downlevel.obj
 0002:00019638       ??_C@_1M@KLMCELGA@?$AAu?$AAk?$AA?9?$AAu?$AAa@ 40060638     libucrt:lcidtoname_downlevel.obj
 0002:00019644       ??_C@_1M@EPAJJAJF@?$AAu?$AAr?$AA?9?$AAp?$AAk@ 40060644     libucrt:lcidtoname_downlevel.obj
 0002:00019650       ??_C@_1BG@GEGPMCDJ@?$AAu?$AAz?$AA?9?$AAu?$AAz?$AA?9?$AAc?$AAy?$AAr?$AAl@ 40060650     libucrt:lcidtoname_downlevel.obj
 0002:00019668       ??_C@_1BG@EGGKJILM@?$AAu?$AAz?$AA?9?$AAu?$AAz?$AA?9?$AAl?$AAa?$AAt?$AAn@ 40060668     libucrt:lcidtoname_downlevel.obj
 0002:00019680       ??_C@_1M@GFOCLFF@?$AAv?$AAi?$AA?9?$AAv?$AAn@ 40060680     libucrt:lcidtoname_downlevel.obj
 0002:0001968c       ??_C@_1M@CPAMEDFI@?$AAx?$AAh?$AA?9?$AAz?$AAa@ 4006068c     libucrt:lcidtoname_downlevel.obj
 0002:00019698       ??_C@_1O@EBKIFIGN@?$AAz?$AAh?$AA?9?$AAc?$AAh?$AAs@ 40060698     libucrt:lcidtoname_downlevel.obj
 0002:000196a8       ??_C@_1O@NMHPGANE@?$AAz?$AAh?$AA?9?$AAc?$AAh?$AAt@ 400606a8     libucrt:lcidtoname_downlevel.obj
 0002:000196b8       ??_C@_1M@LPINJOMC@?$AAz?$AAh?$AA?9?$AAc?$AAn@ 400606b8     libucrt:lcidtoname_downlevel.obj
 0002:000196c4       ??_C@_1M@OCJEJODD@?$AAz?$AAh?$AA?9?$AAh?$AAk@ 400606c4     libucrt:lcidtoname_downlevel.obj
 0002:000196d0       ??_C@_1M@DNDLJINH@?$AAz?$AAh?$AA?9?$AAm?$AAo@ 400606d0     libucrt:lcidtoname_downlevel.obj
 0002:000196dc       ??_C@_1M@MBFDNDND@?$AAz?$AAh?$AA?9?$AAs?$AAg@ 400606dc     libucrt:lcidtoname_downlevel.obj
 0002:000196e8       ??_C@_1M@IMEPLEPE@?$AAz?$AAh?$AA?9?$AAt?$AAw@ 400606e8     libucrt:lcidtoname_downlevel.obj
 0002:000196f4       ??_C@_1M@BBGHNHJP@?$AAz?$AAu?$AA?9?$AAz?$AAa@ 400606f4     libucrt:lcidtoname_downlevel.obj
 0002:00019810       ___acrt_log10_table_t      40060810     libucrt:log10_tables.obj
 0002:00019c20       ___acrt_log10_table_cb     40060c20     libucrt:log10_tables.obj
 0002:0001a030       ??_C@_1BA@BALFACEM@?$AAC?$AAO?$AAN?$AAO?$AAU?$AAT?$AA$@ 40061030     libucrt:initcon.obj
 0002:0001a140       __infinity                 40061140     libucrt:87tran.obj
 0002:0001a14a       __minfinity                4006114a     libucrt:87tran.obj
 0002:0001a154       __logemax                  40061154     libucrt:87tran.obj
 0002:0001a17a       __OP_EXPjmptab             4006117a     libucrt:87tran.obj
 0002:0001a1a0       ??_7type_info@@6B@         400611a0     LIBCMT:std_type_info_static.obj
 0002:0001a1a8       __load_config_used         400611a8     LIBCMT:loadcfg.obj
 0002:0001a2c0       ??_R4exception@std@@6B@    400612c0     libvcruntime:frame.obj
 0002:0001a2d4       ??_R3exception@std@@8      400612d4     libvcruntime:frame.obj
 0002:0001a2e4       ??_R2exception@std@@8      400612e4     libvcruntime:frame.obj
 0002:0001a2ec       ??_R1A@?0A@EA@exception@std@@8 400612ec     libvcruntime:frame.obj
 0002:0001a308       ??_R4bad_exception@std@@6B@ 40061308     libvcruntime:frame.obj
 0002:0001a31c       ??_R3bad_exception@std@@8  4006131c     libvcruntime:frame.obj
 0002:0001a32c       ??_R2bad_exception@std@@8  4006132c     libvcruntime:frame.obj
 0002:0001a338       ??_R1A@?0A@EA@bad_exception@std@@8 40061338     libvcruntime:frame.obj
 0002:0001a354       ??_R4type_info@@6B@        40061354     LIBCMT:std_type_info_static.obj
 0002:0001a368       ??_R3type_info@@8          40061368     LIBCMT:std_type_info_static.obj
 0002:0001a378       ??_R2type_info@@8          40061378     LIBCMT:std_type_info_static.obj
 0002:0001a380       ??_R1A@?0A@EA@type_info@@8 40061380     LIBCMT:std_type_info_static.obj
 0002:0001a39c       ___safe_se_handler_table   4006139c     <linker-defined>
 0002:0001a3cc       ___volatile_metadata       400613cc     <linker-defined>
 0002:0001a75c       ___rtc_iaa                 4006175c     LIBCMT:initsect.obj
 0002:0001a760       ___rtc_izz                 40061760     LIBCMT:initsect.obj
 0002:0001a764       ___rtc_taa                 40061764     LIBCMT:initsect.obj
 0002:0001a768       ___rtc_tzz                 40061768     LIBCMT:initsect.obj
 0002:0001a8fc       __TI2?AVbad_exception@std@@ 400618fc     libvcruntime:frame.obj
 0002:0001a90c       __CTA2?AVbad_exception@std@@ 4006190c     libvcruntime:frame.obj
 0002:0001a918       __CT??_R0?AVbad_exception@std@@@8??0bad_exception@std@@QAE@ABV01@@Z12 40061918     libvcruntime:frame.obj
 0002:0001a934       __CT??_R0?AVexception@std@@@8??0exception@std@@QAE@ABV01@@Z12 40061934     libvcruntime:frame.obj
 0002:0001adb8       __IMPORT_DESCRIPTOR_KERNEL32 40061db8     kernel32:KERNEL32.dll
 0002:0001adcc       __NULL_IMPORT_DESCRIPTOR   40061dcc     kernel32:KERNEL32.dll
 0003:00000000       _bg_customSiegeSoundNames  40063000     bg_misc.obj
 0003:00000078       _bgToggleableSurfaces      40063078     bg_misc.obj
 0003:000000f4       _bg_numItems               400630f4     bg_misc.obj
 0003:000000f8       _forcePowerSorted          400630f8     bg_misc.obj
 0003:00000140       _forceMasteryLevels        40063140     bg_misc.obj
 0003:00000160       _forceMasteryPoints        40063160     bg_misc.obj
 0003:00000180       _bgForcePowerCost          40063180     bg_misc.obj
 0003:00000910       _bg_itemlist               40063910     bg_misc.obj
 0003:00001588       _WeaponReadyAnim           40064588     bg_misc.obj
 0003:000015d8       _WeaponAttackAnim          400645d8     bg_misc.obj
 0003:00001628       _WeaponReadyAnim3          40064628     bg_misc.obj
 0003:00001678       _WeaponAttackAnim3         40064678     bg_misc.obj
 0003:000016c8       _WeaponReadyAnim5          400646c8     bg_misc.obj
 0003:00001718       _WeaponAttackAnim5         40064718     bg_misc.obj
 0003:00001768       _WeaponReadyAnim7          40064768     bg_misc.obj
 0003:000017b8       _WeaponAttackAnim7         400647b8     bg_misc.obj
 0003:00001808       _WeaponReadyAnim9          40064808     bg_misc.obj
 0003:00001858       _WeaponAttackAnim9         40064858     bg_misc.obj
 0003:000018a8       _WeaponReadyAnim11         400648a8     bg_misc.obj
 0003:000018f8       _WeaponAttackAnim11        400648f8     bg_misc.obj
 0003:00001948       _WeaponReadyAnim2          40064948     bg_misc.obj
 0003:00001998       _WeaponAttackAnim2         40064998     bg_misc.obj
 0003:000019e8       _WeaponReadyAnim4          400649e8     bg_misc.obj
 0003:00001a38       _WeaponAttackAnim4         40064a38     bg_misc.obj
 0003:00001a88       _WeaponReadyAnim6          40064a88     bg_misc.obj
 0003:00001ad8       _WeaponAttackAnim6         40064ad8     bg_misc.obj
 0003:00001b28       _WeaponReadyAnim8          40064b28     bg_misc.obj
 0003:00001b78       _WeaponAttackAnim8         40064b78     bg_misc.obj
 0003:00001bc8       _WeaponReadyAnim10         40064bc8     bg_misc.obj
 0003:00001c18       _WeaponAttackAnim10        40064c18     bg_misc.obj
 0003:00001c68       _WeaponReadyAnim12         40064c68     bg_misc.obj
 0003:00001cb8       _WeaponAttackAnim12        40064cb8     bg_misc.obj
 0003:00001d08       _forcePowerDarkLight       40064d08     bg_misc.obj
 0003:00001d50       _WeaponReadyLegsAnim       40064d50     bg_misc.obj
 0003:00001da0       _WeaponReadyLegsAnim3      40064da0     bg_misc.obj
 0003:00001df0       _WeaponReadyLegsAnim5      40064df0     bg_misc.obj
 0003:00001e40       _WeaponReadyLegsAnim7      40064e40     bg_misc.obj
 0003:00001e90       _WeaponReadyLegsAnim9      40064e90     bg_misc.obj
 0003:00001ee0       _WeaponReadyLegsAnim11     40064ee0     bg_misc.obj
 0003:00001f30       _eventnames                40064f30     bg_misc.obj
 0003:00002148       _bgSiegeClassFlagNames     40065148     bg_saga.obj
 0003:00002190       _StanceTable               40065190     bg_saga.obj
 0003:000021d8       _WPTable                   400651d8     bg_saga.obj
 0003:00002288       _FPTable                   40065288     bg_saga.obj
 0003:00002320       _HoldableTable             40065320     bg_saga.obj
 0003:000023b0       _PowerupTable              400653b0     bg_saga.obj
 0003:00002438       _SKTable                   40065438     bg_saga.obj
 0003:00002778       _classTitles               40065778     bg_saga.obj
 0003:00002790       _WP_MuzzlePoint            40065790     bg_weapons.obj
 0003:00002878       _WP_MuzzlePoint2           40065878     bg_weapons.obj
 0003:00002960       _weaponData                40065960     bg_weapons.obj
 0003:00002d88       _ammoData                  40065d88     bg_weapons.obj
 0003:00002db0       _ammoPool                  40065db0     bg_weapons.obj
 0003:00002ee0       _weaponSlots               40065ee0     bg_weapons.obj
 0003:00002f80       _bytedirs                  40065f80     q_math.obj
 0003:00003718       _colorBlack                40066718     q_math.obj
 0003:00003728       _colorRed                  40066728     q_math.obj
 0003:00003738       _colorGreen                40066738     q_math.obj
 0003:00003748       _colorBlue                 40066748     q_math.obj
 0003:00003758       _colorYellow               40066758     q_math.obj
 0003:00003768       _colorMagenta              40066768     q_math.obj
 0003:00003778       _colorCyan                 40066778     q_math.obj
 0003:00003788       _colorWhite                40066788     q_math.obj
 0003:00003798       _colorLtGrey               40066798     q_math.obj
 0003:000037a8       _colorMdGrey               400667a8     q_math.obj
 0003:000037b8       _colorDkGrey               400667b8     q_math.obj
 0003:000037c8       _colorLtBlue               400667c8     q_math.obj
 0003:000037d8       _colorDkBlue               400667d8     q_math.obj
 0003:000037e8       _g_color_table             400667e8     q_math.obj
 0003:00003868       _axisDefault               40066868     q_math.obj
 0003:00003890       _uiForceSide               40066890     ui_force.obj
 0003:00003894       _uiJediNonJedi             40066894     ui_force.obj
 0003:00003898       _uiForceRank               40066898     ui_force.obj
 0003:0000389c       _uiMaxRank                 4006689c     ui_force.obj
 0003:000038a0       _uiMaxPoints               400668a0     ui_force.obj
 0003:000038a8       _gCustPowersRank           400668a8     ui_force.obj
 0003:000038f0       _serverStatusCvars         400668f0     ui_main.obj
 0003:00003940       _uiRank                    40066940     ui_main.obj
 0003:00004498       _animTable                 40067498     ui_main.obj
 0003:00007528       _HolocronIcons             4006a528     ui_main.obj
 0003:00007570       _HolocronIcons2            4006a570     ui_main.obj
 0003:000075b8       _forcepowerDesc            4006a5b8     ui_main.obj
 0003:00007600       _datapadMoveTitleData      4006a600     ui_main.obj
 0003:00007618       _datapadMoveTitleBaseAnims 4006a618     ui_main.obj
 0003:00007630       _g_UIGloballySelectedSiegeClass 4006a630     ui_main.obj
 0003:00007634       _uiNumAllAnims             4006a634     ui_main.obj
 0003:00008388       _menuParseKeywords         4006b388     ui_shared.obj
 0003:00008538       _itemFlags                 4006b538     ui_shared.obj
 0003:00008548       _styles                    4006b548     ui_shared.obj
 0003:00008564       _alignment                 4006b564     ui_shared.obj
 0003:00008574       _scriptCommandCount        4006b574     ui_shared.obj
 0003:00008578       _types                     4006b578     ui_shared.obj
 0003:000085c0       _commandList               4006b5c0     ui_shared.obj
 0003:000086b8       _itemParseKeywords         4006b6b8     ui_shared.obj
 0003:0000942c       __fltused                  4006c42c     LIBCMT:fltused.obj
 0003:00009430       ___isa_inverted            4006c430     LIBCMT:cpu_disp.obj
 0003:00009438       ___isa_enabled             4006c438     LIBCMT:cpu_disp.obj
 0003:0000943c       ___scrt_native_dllmain_reason 4006c43c     LIBCMT:utility.obj
 0003:00009440       ___security_cookie         4006c440     LIBCMT:gs_cookie.obj
 0003:00009480       ___security_cookie_complement 4006c480     LIBCMT:gs_cookie.obj
 0003:000094a0       __NLG_Destination          4006c4a0     libvcruntime:exsup.obj
 0003:000094b0       ___abort_behavior          4006c4b0     libucrt:abort.obj
 0003:000094d0       ___acrt_initial_locale_data 4006c4d0     libucrt:nlsdata.obj
 0003:00009588       ___acrt_initial_locale_pointers 4006c588     libucrt:nlsdata.obj
 0003:00009590       ___acrt_wide_c_locale_string 4006c590     libucrt:nlsdata.obj
 0003:000095a0       __iob                      4006c5a0     libucrt:_file.obj
 0003:00009650       ___acrt_initial_multibyte_data 4006c650     libucrt:mbctype.obj
 0003:00009b70       ___globallocalestatus      4006cb70     libucrt:glstatus.obj
 0003:00009b78       ___acrt_lconv_c            4006cb78     libucrt:localeconv.obj
 0003:00009bc8       ___acrt_lconv_static_decimal 4006cbc8     libucrt:localeconv.obj
 0003:00009bcc       ___acrt_lconv_static_W_decimal 4006cbcc     libucrt:localeconv.obj
 0003:00009be0       __lookuptrailbytes         4006cbe0     libucrt:read.obj
 0003:00009cf0       ??_R0?AVbad_exception@std@@@8 4006ccf0     libvcruntime:frame.obj
 0003:00009d10       ??_R0?AVexception@std@@@8  4006cd10     libvcruntime:frame.obj
 0003:00009d2c       ??_R0?AVtype_info@@@8      4006cd2c     LIBCMT:std_type_info_static.obj
 0003:00fa9d64       _team1Theme                4100cd64     bg_saga.obj
 0003:00fa9d68       _team2Theme                4100cd68     bg_saga.obj
 0003:00fa9d6c       _bgNumSiegeClasses         4100cd6c     bg_saga.obj
 0003:00fa9d70       _bgNumSiegeTeams           4100cd70     bg_saga.obj
 0003:00fa9d74       _siege_valid               4100cd74     bg_saga.obj
 0003:00fa9d78       _colorClear                4100cd78     q_math.obj
 0003:00fa9d88       _vec3_origin               4100cd88     q_math.obj
 0003:00fc03e0       _newUI                     410233e0     ui_atoms.obj
 0003:00fc0be8       _uiForceUsed               41023be8     ui_force.obj
 0003:00fc0bec       _uiForceAvailable          41023bec     ui_force.obj
 0003:00fc0bf0       _gTouchedForce             41023bf0     ui_force.obj
 0003:00fc0bf4       _gCustRank                 41023bf4     ui_force.obj
 0003:00fc0bf8       _gCustSide                 41023bf8     ui_force.obj
 0003:00fc4c08       _gUISelectedMap            41027c08     ui_main.obj
 0003:00fc4c0c       _g_siegedFeederForcedSet   41027c0c     ui_main.obj
 0003:00fc4c10       _siegeTeam1                41027c10     ui_main.obj
 0003:00fc4c14       _siegeTeam2                41027c14     ui_main.obj
 0003:00fc4c18       _UIPAFtextLoaded           41027c18     ui_main.obj
 0003:00fc4c1c       _uiSkinColor               41027c1c     ui_main.obj
 0003:00fc4c20       _holdSPString              41027c20     ui_main.obj
 0003:00fc5020       _holdSPString2             41028020     ui_main.obj
 0003:00fc5420       _uiHoldSkinColor           41028420     ui_main.obj
 0003:00fc5424       _frameCount                41028424     ui_main.obj
 0003:00fc5428       _defaultMenu               41028428     ui_main.obj
 0003:010263f8       _ui_saber_parms_parsed     410893f8     ui_saber.obj
 0003:01026400       _ScriptedColors            41089400     ui_saber.obj
 0003:010264f0       _ScriptedTimes             410894f0     ui_saber.obj
 0003:01026540       _ScriptedNum               41089540     ui_saber.obj
 0003:01026548       _ScriptedActualNum         41089548     ui_saber.obj
 0003:01026550       _ScriptedStartTime         41089550     ui_saber.obj
 0003:01026558       _ScriptedEndTime           41089558     ui_saber.obj
 0003:010265a8       _DC                        410895a8     ui_shared.obj
 0003:010265ac       _menuCount                 410895ac     ui_shared.obj
 0003:010265b0       _openMenuCount             410895b0     ui_shared.obj
 0003:010265b4       _ui_deferredScriptItem     410895b4     ui_shared.obj
 0003:010265b8       _ui_G2PtrTracker           410895b8     ui_shared.obj
 0003:0208a618       ___avx10_version           420ed618     LIBCMT:cpu_disp.obj
 0003:0208a61c       ___isa_available           420ed61c     LIBCMT:cpu_disp.obj
 0003:0208a620       ___favor                   420ed620     LIBCMT:cpu_disp.obj
 0003:0208a628       ?__type_info_root_node@@3U__type_info_node@@A 420ed628     LIBCMT:tncleanup.obj
 0003:0208a630       ___scrt_current_native_startup_state 420ed630     LIBCMT:utility.obj
 0003:0208a634       ___scrt_native_startup_lock 420ed634     LIBCMT:utility.obj
 0003:0208a654       ___scrt_debugger_hook_flag 420ed654     LIBCMT:utility_desktop.obj
 0003:0208a974       ?__WinRTOutOfMemoryExceptionCallback@@3P6GPAXXZA 420ed974     libvcruntime:ehhelpers.obj
 0003:0208a9dc       ___pPurecall               420ed9dc     libvcruntime:purevirt_data.obj
 0003:0208aaf8       __environ_table            420edaf8     libucrt:environment_initialization.obj
 0003:0208aafc       __wenviron_table           420edafc     libucrt:environment_initialization.obj
 0003:0208ab00       ___dcrt_initial_wide_environment 420edb00     libucrt:environment_initialization.obj
 0003:0208ab04       ___dcrt_initial_narrow_environment 420edb04     libucrt:environment_initialization.obj
 0003:0208ab08       ___acrt_atexit_table       420edb08     libucrt:onexit.obj
 0003:0208ab14       ___acrt_at_quick_exit_table 420edb14     libucrt:onexit.obj
 0003:0208ab24       ?__acrt_use_tls2_apis@@3_NA 420edb24     libucrt:per_thread_data.obj
 0003:0208ab28       ___acrt_locale_changed_data 420edb28     libucrt:wsetlocale.obj
 0003:0208ab2c       ___acrt_current_locale_data 420edb2c     libucrt:nlsdata.obj
 0003:0208ab4c       __nstream                  420edb4c     libucrt:_file.obj
 0003:0208ab50       ___piob                    420edb50     libucrt:_file.obj
 0003:0208ab58       ___acrt_stdout_buffer      420edb58     libucrt:_sftbuf.obj
 0003:0208ab5c       ___acrt_stderr_buffer      420edb5c     libucrt:_sftbuf.obj
 0003:0208ab60       ___pioinfo                 420edb60     libucrt:ioinit.obj
 0003:0208ad60       __nhandle                  420edd60     libucrt:ioinit.obj
 0003:0208aed4       __mbctype                  420eded4     libucrt:mbctype.obj
 0003:0208aed8       __mbcasemap                420eded8     libucrt:mbctype.obj
 0003:0208aedc       ___acrt_current_multibyte_data 420ededc     libucrt:mbctype.obj
 0003:0208aee8       __pgmptr                   420edee8     libucrt:argv_data.obj
 0003:0208aeec       ___argc                    420edeec     libucrt:argv_data.obj
 0003:0208aef0       ___argv                    420edef0     libucrt:argv_data.obj
 0003:0208aef4       ___wargv                   420edef4     libucrt:argv_data.obj
 0003:0208aef8       __acmdln                   420edef8     libucrt:argv_data.obj
 0003:0208aefc       __wcmdln                   420edefc     libucrt:argv_data.obj
 0003:0208af5c       ___acrt_heap               420edf5c     libucrt:heap_handle.obj
 0003:0208af78       ___acrt_lconv_static_null  420edf78     libucrt:localeconv.obj
 0003:0208af7c       ___acrt_lconv_static_W_null 420edf7c     libucrt:localeconv.obj
 0003:0208af80       ___fastflag                420edf80     libucrt:fp_flags.obj
 0003:0208afa0       _itemParseKeywordHash      420edfa0     <common>
 0003:0208b7a0       _currLanguage              420ee7a0     <common>
 0003:0208c7a0       _g_nameBind2               420ef7a0     <common>
 0003:0208c7c0       _g_nameBind1               420ef7c0     <common>
 0003:0208c7e0       _ui_deferredScript         420ef7e0     <common>
 0003:0208cfe0       _menuStack                 420effe0     <common>
 0003:0208d0e0       _Menus                     420f00e0     <common>
 0003:02116ae0       _menuParseKeywordHash      42179ae0     <common>
 0003:021172e0       _PimpColorTo               4217a2e0     <common>
 0003:02117300       _PimpColorFrom             4217a300     <common>
 0003:02117318       _PimpEndTime               4217a318     <common>
 0003:02117320       _PimpStartTime             4217a320     <common>
 0003:02117328       _saberStaffHiltInfo        4217a328     <common>
 0003:0211732c       _saberStaffHiltCount       4217a32c     <common>
 0003:02117330       _saberSingleHiltInfo       4217a330     <common>
 0003:02117334       _saberSingleHiltCount      4217a334     <common>
 0003:02117338       _SaberParms                4217a338     <common>
 0003:02117340       ?_OptionsStorage@?1??__local_stdio_scanf_options@@9@9 4217a340     <common>
 0003:02117360       _ui_rankChange             4217a360     <common>
 0003:02117480       _uiHumanoidAnimations      4217a480     <common>
 0003:02119f00       _g_UIClassDescriptions     4217cf00     <common>
 0003:02219f00       _ui_char_anim              4227cf00     <common>
 0003:0221a020       _ui_PrecacheModels         4227d020     <common>
 0003:0221a140       _ui_char_color_blue        4227d140     <common>
 0003:0221a260       _ui_char_color_green       4227d260     <common>
 0003:0221a380       _ui_char_color_red         4227d380     <common>
 0003:0221a4a0       _ui_initialized            4227d4a0     <common>
 0003:0221a5c0       _ui_debug                  4227d5c0     <common>
 0003:0221a6e0       _uiInfo                    4227d6e0     <common>
 0003:022c2f20       _se_language               42325f20     <common>
 0003:022c3040       _ui_realWarmUp             42326040     <common>
 0003:022c3160       _ui_realCaptureLimit       42326160     <common>
 0003:022c3280       _ui_recordSPDemo           42326280     <common>
 0003:022c33a0       _ui_findPlayer             423263a0     <common>
 0003:022c34c0       _ui_scoreCaptures          423264c0     <common>
 0003:022c35e0       _ui_blueteam8              423265e0     <common>
 0003:022c3700       _ui_blueteam7              42326700     <common>
 0003:022c3820       _ui_blueteam6              42326820     <common>
 0003:022c3940       _ui_blueteam5              42326940     <common>
 0003:022c3a60       _ui_blueteam4              42326a60     <common>
 0003:022c3b80       _ui_blueteam3              42326b80     <common>
 0003:022c3ca0       _ui_blueteam2              42326ca0     <common>
 0003:022c3dc0       _ui_blueteam1              42326dc0     <common>
 0003:022c3ee0       _ui_blueteam               42326ee0     <common>
 0003:022c4000       _ui_redteam8               42327000     <common>
 0003:022c4120       _ui_redteam7               42327120     <common>
 0003:022c4240       _ui_redteam6               42327240     <common>
 0003:022c4360       _ui_redteam5               42327360     <common>
 0003:022c4480       _ui_redteam4               42327480     <common>
 0003:022c45a0       _ui_redteam3               423275a0     <common>
 0003:022c46c0       _ui_redteam2               423276c0     <common>
 0003:022c47e0       _ui_redteam1               423277e0     <common>
 0003:022c4900       _ui_redteam                42327900     <common>
 0003:022c4a20       _ui_bottype                42327a20     <common>
 0003:022c4b40       _ui_spSkill                42327b40     <common>
 0003:022c4c60       _ui_saber2_color           42327c60     <common>
 0003:022c4d80       _ui_saber_color            42327d80     <common>
 0003:022c4ea0       _ui_saber2                 42327ea0     <common>
 0003:022c4fc0       _ui_saber                  42327fc0     <common>
 0003:022c50e0       _ui_saber_type             423280e0     <common>
 0003:022c5200       _ui_char_skin_legs         42328200     <common>
 0003:022c5320       _ui_char_skin_torso        42328320     <common>
 0003:022c5440       _ui_char_skin_head         42328440     <common>
 0003:022c5560       _ui_char_model             42328560     <common>
 0003:022c5680       _ui_sab2_b                 42328680     <common>
 0003:022c57a0       _ui_sab2_g                 423287a0     <common>
 0003:022c58c0       _ui_sab2_r                 423288c0     <common>
 0003:022c59e0       _ui_sab1_b                 423289e0     <common>
 0003:022c5b00       _ui_sab1_g                 42328b00     <common>
 0003:022c5c20       _ui_sab1_r                 42328c20     <common>
 0003:022c5d40       _ui_siegeStruct            42328d40     <common>
 0003:022c6d40       _ui_bypassMainMenuLoad     42329d40     <common>
 0003:022c6e60       _ui_serverStatusTimeOut    42329e60     <common>
 0003:022c6f80       _ui_scoreTime              42329f80     <common>
 0003:022c70a0       _ui_scoreShutoutBonus      4232a0a0     <common>
 0003:022c71c0       _ui_scoreSkillBonus        4232a1c0     <common>
 0003:022c72e0       _ui_scoreTimeBonus         4232a2e0     <common>
 0003:022c7400       _ui_scoreBase              4232a400     <common>
 0003:022c7520       _ui_scoreTeam              4232a520     <common>
 0003:022c7640       _ui_scorePerfect           4232a640     <common>
 0003:022c7760       _ui_scoreScore             4232a760     <common>
 0003:022c7880       _ui_scoreGauntlets         4232a880     <common>
 0003:022c79a0       _ui_scoreAssists           4232a9a0     <common>
 0003:022c7ac0       _ui_scoreDefends           4232aac0     <common>
 0003:022c7be0       _ui_scoreExcellents        4232abe0     <common>
 0003:022c7d00       _ui_scoreImpressives       4232ad00     <common>
 0003:022c7e20       _ui_scoreAccuracy          4232ae20     <common>
 0003:022c7f40       _ui_singlePlayerActive     4232af40     <common>
 0003:022c8060       _ui_lastServerRefresh_3    4232b060     <common>
 0003:022c8180       _ui_lastServerRefresh_2    4232b180     <common>
 0003:022c82a0       _ui_lastServerRefresh_1    4232b2a0     <common>
 0003:022c83c0       _ui_lastServerRefresh_0    4232b3c0     <common>
 0003:022c84e0       _ui_selectedPlayerName     4232b4e0     <common>
 0003:022c8600       _ui_selectedPlayer         4232b600     <common>
 0003:022c8720       _ui_currentOpponent        4232b720     <common>
 0003:022c8840       _ui_mapIndex               4232b840     <common>
 0003:022c8960       _ui_currentNetMap          4232b960     <common>
 0003:022c8a80       _ui_currentMap             4232ba80     <common>
 0003:022c8ba0       _ui_menuFiles              4232bba0     <common>
 0003:022c8cc0       _ui_opponentName           4232bcc0     <common>
 0003:022c8de0       _ui_dedicated              4232bde0     <common>
 0003:022c8f00       _ui_serverFilterType       4232bf00     <common>
 0003:022c9020       _ui_netSource              4232c020     <common>
 0003:022c9140       _ui_joinGameType           4232c140     <common>
 0003:022c9260       _ui_actualNetGameType      4232c260     <common>
 0003:022c9380       _ui_netGameType            4232c380     <common>
 0003:022c94a0       _ui_gameType               4232c4a0     <common>
 0003:022c95c0       _ui_fragLimit              4232c5c0     <common>
 0003:022c96e0       _ui_captureLimit           4232c6e0     <common>
 0003:022c9800       _ui_marks                  4232c800     <common>
 0003:022c9920       _ui_drawCrosshairNames     4232c920     <common>
 0003:022c9a40       _ui_drawCrosshair          4232ca40     <common>
 0003:022c9b60       _ui_browserShowEmpty       4232cb60     <common>
 0003:022c9c80       _ui_browserShowFull        4232cc80     <common>
 0003:022c9da0       _ui_browserSortKey         4232cda0     <common>
 0003:022c9ec0       _ui_browserGameType        4232cec0     <common>
 0003:022c9fe0       _ui_browserMaster          4232cfe0     <common>
 0003:022ca100       _ui_botsFile               4232d100     <common>
 0003:022ca220       _ui_ctf_friendly           4232d220     <common>
 0003:022ca340       _ui_ctf_timelimit          4232d340     <common>
 0003:022ca460       _ui_ctf_capturelimit       4232d460     <common>
 0003:022ca580       _ui_team_friendly          4232d580     <common>
 0003:022ca6a0       _ui_team_timelimit         4232d6a0     <common>
 0003:022ca7c0       _ui_team_fraglimit         4232d7c0     <common>
 0003:022ca8e0       _ui_selectedModelIndex     4232d8e0     <common>
 0003:022caa00       _ui_ffa_timelimit          4232da00     <common>
 0003:022cab20       _ui_ffa_fraglimit          4232db20     <common>
 0003:022cac40       _bgAllAnims                4232dc40     <common>
 0003:022cbd40       _ui_numBots                4232ed40     <common>
 0003:022cbd60       _prevRank                  4232ed60     <common>
 0003:022cc160       _uiForceStarShaders        4232f160     <common>
 0003:022cc1c0       _ui_forcePowerDisable      4232f1c0     <common>
 0003:022cc2e0       _ui_freeSaber              4232f2e0     <common>
 0003:022cc400       _uiSaberColorShaders       4232f400     <common>
 0003:022cc430       ?_OptionsStorage@?1??__local_stdio_printf_options@@9@9 4232f430     <common>
 0003:022cc440       _siege_info                4232f440     <common>
 0003:022d0440       _bgSiegeTeams              42333440     <common>
 0003:022d28c0       _bgSiegeClasses            423358c0     <common>
 0003:0234d0c0       ___scrt_ucrt_dll_is_in_use 423b00c0     <common>
 0003:0234d0c4       ___dyn_tls_init_callback   423b00c4     <common>
 0003:0234d0c8       ___use_sse2_mathfcns       423b00c8     <common>
 0003:0234d0cc       __pmatherr                 423b00cc     <common>

 entry point at        0001:0002c29a

 Static symbols

 0001:000033c0       _UI_CalcPostGameStats      400043c0 f   ui_atoms.obj
 0001:000083c0       _UI_LoadBotsFromFile       400093c0 f   ui_gameinfo.obj
 0001:00008e80       _GameType_Parse            40009e80 f   ui_main.obj
 0001:00008ff0       _GetCRDelineatedString     40009ff0 f   ui_main.obj
 0001:00009080       _GetNetSourceString        4000a080 f   ui_main.obj
 0001:000090b0       _MapList_Parse             4000a0b0 f   ui_main.obj
 0001:000092e4       $LN11                      4000a2e4     ui_main.obj
 0001:0000938c       $LN20                      4000a38c     ui_main.obj
 0001:0000939c       $LN21                      4000a39c     ui_main.obj
 0001:000094d8       $LN33                      4000a4d8     ui_main.obj
 0001:000094e8       $LN34                      4000a4e8     ui_main.obj
 0001:00009654       $LN17                      4000a654     ui_main.obj
 0001:00009670       _Text_Paint_Limit          4000a670 f   ui_main.obj
 0001:0000985c       $LN58                      4000a85c     ui_main.obj
 0001:0000986c       $LN59                      4000a86c     ui_main.obj
 0001:0000987c       $LN60                      4000a87c     ui_main.obj
 0001:000098d8       $LN11                      4000a8d8     ui_main.obj
 0001:000098f0       _UI_AIFromName             4000a8f0 f   ui_main.obj
 0001:00009940       _UI_AllForceDisabled       4000a940 f   ui_main.obj
 0001:00009990       _UI_BuildFindPlayerList    4000a990 f   ui_main.obj
 0001:00009e70       _UI_BuildPlayerList        4000ae70 f   ui_main.obj
 0001:0000a100       _UI_BuildPlayerModel_List  4000b100 f   ui_main.obj
 0001:0000a750       _UI_BuildQ3Model_List      4000b750 f   ui_main.obj
 0001:0000aa60       _UI_BuildServerDisplayList 4000ba60 f   ui_main.obj
 0001:0000add0       _UI_BuildServerStatus      4000bdd0 f   ui_main.obj
 0001:0000ae80       _UI_CheckPassword          4000be80 f   ui_main.obj
 0001:0000afa0       _UI_DeferMenuScript        4000bfa0 f   ui_main.obj
 0001:0000b090       _UI_DisplayDownloadInfo    4000c090 f   ui_main.obj
 0001:0000b750       _UI_DrawCinematic          4000c750 f   ui_main.obj
 0001:0000b780       _UI_DrawClanCinematic      4000c780 f   ui_main.obj
 0001:0000bd20       _UI_DrawForceMastery       4000cd20 f   ui_main.obj
 0001:0000be18       $LN36                      4000ce18     ui_main.obj
 0001:0000be28       $LN37                      4000ce28     ui_main.obj
 0001:0000be50       _UI_DrawForceSide          4000ce50 f   ui_main.obj
 0001:0000c090       _UI_DrawGLInfo             4000d090 f   ui_main.obj
 0001:0000c3a0       _UI_DrawMapCinematic       4000d3a0 f   ui_main.obj
 0001:0000c4b0       _UI_DrawMapPreview         4000d4b0 f   ui_main.obj
 0001:0000c580       _UI_DrawNetMapPreview      4000d580 f   ui_main.obj
 0001:0000c620       _UI_DrawServerMOTD         4000d620 f   ui_main.obj
 0001:0000c8a0       _UI_DrawTeamMember         4000d8a0 f   ui_main.obj
 0001:0000c9f0       _UI_DrawTeamName           4000d9f0 f   ui_main.obj
 0001:0000cb00       _UI_DrawTierMap            4000db00 f   ui_main.obj
 0001:0000cb80       _UI_FeederCount            4000db80 f   ui_main.obj
 0001:0000cfbc       $LN101                     4000dfbc     ui_main.obj
 0001:0000d02c       $LN100                     4000e02c     ui_main.obj
 0001:0000d060       _UI_FeederItemImage        4000e060 f   ui_main.obj
 0001:0000d680       _UI_FeederItemText         4000e680 f   ui_main.obj
 0001:0000df50       $LN134                     4000ef50     ui_main.obj
 0001:0000e9c0       _UI_GameType_HandleKey     4000f9c0 f   ui_main.obj
 0001:0000eaf0       _UI_GetCharacterCvars      4000faf0 f   ui_main.obj
 0001:0000ecf0       _UI_GetGameTypeName        4000fcf0 f   ui_main.obj
 0001:0000ee00       $LN17                      4000fe00     ui_main.obj
 0001:0000ee40       _UI_GetSaberCvars          4000fe40 f   ui_main.obj
 0001:0000f0f0       _UI_GetServerStatusInfo    400100f0 f   ui_main.obj
 0001:0000f4e0       _UI_GetTeamColor           400104e0 f   ui_main.obj
 0001:0000f4f0       _UI_GetValue               400104f0 f   ui_main.obj
 0001:0000f7e0       _UI_InsertServerIntoDisplayList 400107e0 f   ui_main.obj
 0001:0000f820       _UI_JoinServer             40010820 f   ui_main.obj
 0001:0000fbd0       _UI_MapCountByGameType     40010bd0 f   ui_main.obj
 0001:0000fc50       _UI_NetGameType_HandleKey  40010c50 f   ui_main.obj
 0001:0000fd60       _UI_OpponentName_HandleKey 40010d60 f   ui_main.obj
 0001:0000ff30       _UI_OwnerDraw              40010f30 f   ui_main.obj
 0001:00011240       $LN398                     40012240     ui_main.obj
 0001:0001131c       $LN397                     4001231c     ui_main.obj
 0001:000113f0       _UI_OwnerDrawHandleKey     400123f0 f   ui_main.obj
 0001:00011f18       $LN315                     40012f18     ui_main.obj
 0001:00011f98       $LN314                     40012f98     ui_main.obj
 0001:00012070       _UI_OwnerDrawVisible       40013070 f   ui_main.obj
 0001:00012310       _UI_OwnerDrawWidth         40013310 f   ui_main.obj
 0001:0001277c       $LN101                     4001377c     ui_main.obj
 0001:000127c0       $LN100                     400137c0     ui_main.obj
 0001:00012b10       _UI_ParseGameInfo          40013b10 f   ui_main.obj
 0001:00012d40       _UI_Pause                  40013d40 f   ui_main.obj
 0001:00012d90       _UI_PlayCinematic          40013d90 f   ui_main.obj
 0001:00012df0       _UI_ReadableSize           40013df0 f   ui_main.obj
 0001:00012f30       _UI_ResetCharacterListBoxes 40013f30 f   ui_main.obj
 0001:00013000       _UI_RunCinematicFrame      40014000 f   ui_main.obj
 0001:00013010       _UI_RunMenuScript          40014010 f   ui_main.obj
 0001:000156f0       _UI_SelectedMap            400166f0 f   ui_main.obj
 0001:00015740       _UI_SelectedTeamHead       40016740 f   ui_main.obj
 0001:000157d0       _UI_ServersQsortCompare    400167d0 f   ui_main.obj
 0001:00015800       _UI_SetBotButton           40016800 f   ui_main.obj
 0001:00015860       _UI_SetSaberBoxesandHilts  40016860 f   ui_main.obj
 0001:00015cf0       _UI_SiegeClassCnt          40016cf0 f   ui_main.obj
 0001:00016250       _UI_StartServerRefresh     40017250 f   ui_main.obj
 0001:000163f0       _UI_StartSkirmish          400173f0 f   ui_main.obj
 0001:00016d10       _UI_StopCinematic          40017d10 f   ui_main.obj
 0001:00016de0       _UI_StopServerRefresh      40017de0 f   ui_main.obj
 0001:00016e60       _UI_TeamIndexFromName      40017e60 f   ui_main.obj
 0001:00016eb0       _UI_TeamMember_HandleKey   40017eb0 f   ui_main.obj
 0001:00016fe0       _UI_TeamName_HandleKey     40017fe0 f   ui_main.obj
 0001:00017230       _UI_Update                 40018230 f   ui_main.obj
 0001:00017868       $LN43                      40018868     ui_main.obj
 0001:00017880       _UI_UpdateCharacter        40018880 f   ui_main.obj
 0001:00017950       _UI_UpdateCharacterCvars   40018950 f   ui_main.obj
 0001:00017c00       _UI_UpdateSaberColor       40018c00 f   ui_main.obj
 0001:00017c70       _UI_UpdateSaberCvars       40018c70 f   ui_main.obj
 0001:00017d20       _UI_UpdateSaberHilt        40018d20 f   ui_main.obj
 0001:00017e10       _UI_UpdateSaberType        40018e10 f   ui_main.obj
 0001:0001973c       $LN28                      4001a73c     ui_main.obj
 0001:00019bb4       $LN37                      4001abb4     ui_main.obj
 0001:0001a8cc       $LN64                      4001b8cc     ui_saber.obj
 0001:0001aaa0       $LN34                      4001baa0     ui_saber.obj
 0001:0001ba30       $LN133                     4001ca30     ui_saber.obj
 0001:0001ba5c       $LN134                     4001ca5c     ui_saber.obj
 0001:0001ba6c       $LN135                     4001ca6c     ui_saber.obj
 0001:0001ba84       $LN136                     4001ca84     ui_saber.obj
 0001:0001f518       $LN15                      40020518     ui_shared.obj
 0001:0001f520       $LN14                      40020520     ui_shared.obj
 0001:000202a0       _Display_CloseCinematics   400212a0 f   ui_shared.obj
 0001:000214f8       $LN77                      400224f8     ui_shared.obj
 0001:00024dac       $LN172                     40025dac     ui_shared.obj
 0001:00025608       $LN27                      40026608     ui_shared.obj
 0001:00025618       $LN26                      40026618     ui_shared.obj
 0001:00025fa0       _Item_TextScroll_BuildLines 40026fa0 f   ui_shared.obj
 0001:0002800c       $LN142                     4002900c     ui_shared.obj
 0001:0002802c       $LN141                     4002902c     ui_shared.obj
 0001:0002a3a0       _Scroll_ListBox_AutoFunc   4002b3a0 f   ui_shared.obj
 0001:0002a410       _Scroll_ListBox_ThumbFunc  4002b410 f   ui_shared.obj
 0001:0002a6b0       _Scroll_Slider_ThumbFunc   4002b6b0 f   ui_shared.obj
 0001:0002a790       _Scroll_TextScroll_AutoFunc 4002b790 f   ui_shared.obj
 0001:0002a800       _Scroll_TextScroll_ThumbFunc 4002b800 f   ui_shared.obj
 0001:0002be90       $$000000                   4002ce90     LIBCMT:chkstk.obj
 0001:0002bea4       cs10                       4002cea4     LIBCMT:chkstk.obj
 0001:0002beb2       cs20                       4002ceb2     LIBCMT:chkstk.obj
 0001:0002bec0       $$000000                   4002cec0     LIBCMT:ftol2.obj
 0001:0002bed0       $$000000                   4002ced0     LIBCMT:ftol2.obj
 0001:0002bee1       L3B                        4002cee1     LIBCMT:ftol2.obj
 0001:0002bf24       L3F                        4002cf24     LIBCMT:ftol2.obj
 0001:0002bf2c       L40                        4002cf2c     LIBCMT:ftol2.obj
 0001:0002bf3f       L41                        4002cf3f     LIBCMT:ftol2.obj
 0001:0002bf4c       ?dllmain_crt_dispatch@@YGHQAUHINSTANCE__@@KQAX@Z 4002cf4c f   LIBCMT:dll_dllmain.obj
 0001:0002bfa0       ?dllmain_crt_process_attach@@YAHQAUHINSTANCE__@@QAX@Z 4002cfa0 f   LIBCMT:dll_dllmain.obj
 0001:0002c0aa       ?dllmain_crt_process_detach@@YAH_N@Z 4002d0aa f   LIBCMT:dll_dllmain.obj
 0001:0002c161       ?dllmain_dispatch@@YAHQAUHINSTANCE__@@KQAX@Z 4002d161 f   LIBCMT:dll_dllmain.obj
 0001:0002c26f       ?dllmain_raw@@YGHQAUHINSTANCE__@@KQAX@Z 4002d26f f   LIBCMT:dll_dllmain.obj
 0001:0002c5d7       ___get_entropy             4002d5d7 f   LIBCMT:gs_support.obj
 0001:0002c6aa       ?find_pe_section@@YAPAU_IMAGE_SECTION_HEADER@@QAEI@Z 4002d6aa f   LIBCMT:utility.obj
 0001:0002cb10       $$000000                   4002db10     LIBCMT:sehprolg4.obj
 0001:0002cca0       $$000000                   4002dca0     libvcruntime:memset.obj
 0001:0002cce5       XMMMov                     4002dce5     libvcruntime:memset.obj
 0001:0002cd20       LargeRangeBytes            4002dd20     libvcruntime:memset.obj
 0001:0002cd5d       XmmMovSmall                4002dd5d     libvcruntime:memset.obj
 0001:0002cd70       XmmSmallLoop               4002dd70     libvcruntime:memset.obj
 0001:0002cd75       MidRangeBytes              4002dd75     libvcruntime:memset.obj
 0001:0002cd91       XMMTrailingBytes           4002dd91     libvcruntime:memset.obj
 0001:0002cda5       SmallMov                   4002dda5     libvcruntime:memset.obj
 0001:0002cdad       ByteLoop                   4002ddad     libvcruntime:memset.obj
 0001:0002cdbb       DwordTest                  4002ddbb     libvcruntime:memset.obj
 0001:0002cdcb       QwordTest                  4002ddcb     libvcruntime:memset.obj
 0001:0002cde0       QwordLoop                  4002dde0     libvcruntime:memset.obj
 0001:0002cdf3       toend                      4002ddf3     libvcruntime:memset.obj
 0001:0002ce00       $$000000                   4002de00     libvcruntime:strchr.obj
 0001:0002ce33       strchr_sse_loop            4002de33     libvcruntime:strchr.obj
 0001:0002ce57       strchr_sse_break           4002de57     libvcruntime:strchr.obj
 0001:0002ce68       strchr_no_sse2             4002de68     libvcruntime:strchr.obj
 0001:0002ce80       str_misaligned             4002de80     libvcruntime:strchr.obj
 0001:0002ce95       main_loop_start            4002de95     libvcruntime:strchr.obj
 0001:0002cea0       main_loop                  4002dea0     libvcruntime:strchr.obj
 0001:0002cedc       retnull                    4002dedc     libvcruntime:strchr.obj
 0001:0002cede       retnull_bx                 4002dede     libvcruntime:strchr.obj
 0001:0002cee2       found_bx                   4002dee2     libvcruntime:strchr.obj
 0001:0002cee7       chr_is_found               4002dee7     libvcruntime:strchr.obj
 0001:0002cf0f       byte_3                     4002df0f     libvcruntime:strchr.obj
 0001:0002cf16       byte_2                     4002df16     libvcruntime:strchr.obj
 0001:0002cf1d       byte_1                     4002df1d     libvcruntime:strchr.obj
 0001:0002cf24       byte_0                     4002df24     libvcruntime:strchr.obj
 0001:0002cf30       $$000000                   4002df30     libvcruntime:memcpy.obj
 0001:0002cf30       $$000000                   4002df30     libvcruntime:memmove.obj
 0001:0002cf50       CopyUp                     4002df50     libvcruntime:memcpy.obj
 0001:0002cf50       CopyUp                     4002df50     libvcruntime:memmove.obj
 0001:0002cf74       CopyUpLargeMov             4002df74     libvcruntime:memcpy.obj
 0001:0002cf74       CopyUpLargeMov             4002df74     libvcruntime:memmove.obj
 0001:0002cf87       CopyUpSSE2Check            4002df87     libvcruntime:memcpy.obj
 0001:0002cf87       CopyUpSSE2Check            4002df87     libvcruntime:memmove.obj
 0001:0002cfa0       AtomChk                    4002dfa0     libvcruntime:memcpy.obj
 0001:0002cfa0       AtomChk                    4002dfa0     libvcruntime:memmove.obj
 0001:0002cfc6       PalignHead4                4002dfc6     libvcruntime:memcpy.obj
 0001:0002cfc6       PalignHead4                4002dfc6     libvcruntime:memmove.obj
 0001:0002cfd9       PalignHead8                4002dfd9     libvcruntime:memcpy.obj
 0001:0002cfd9       PalignHead8                4002dfd9     libvcruntime:memmove.obj
 0001:0002cff0       PalignLoop                 4002dff0     libvcruntime:memcpy.obj
 0001:0002cff0       PalignLoop                 4002dff0     libvcruntime:memmove.obj
 0001:0002d002       MovPalign12                4002e002     libvcruntime:memcpy.obj
 0001:0002d002       MovPalign12                4002e002     libvcruntime:memmove.obj
 0001:0002d00c       PalignLoop12               4002e00c     libvcruntime:memcpy.obj
 0001:0002d00c       PalignLoop12               4002e00c     libvcruntime:memmove.obj
 0001:0002d05d       MovPalign8                 4002e05d     libvcruntime:memcpy.obj
 0001:0002d05d       MovPalign8                 4002e05d     libvcruntime:memmove.obj
 0001:0002d068       PalignLoop8                4002e068     libvcruntime:memcpy.obj
 0001:0002d068       PalignLoop8                4002e068     libvcruntime:memmove.obj
 0001:0002d0b6       MovPalign4                 4002e0b6     libvcruntime:memcpy.obj
 0001:0002d0b6       MovPalign4                 4002e0b6     libvcruntime:memmove.obj
 0001:0002d0c0       PalignLoop4                4002e0c0     libvcruntime:memcpy.obj
 0001:0002d0c0       PalignLoop4                4002e0c0     libvcruntime:memmove.obj
 0001:0002d10c       PalignTail                 4002e10c     libvcruntime:memcpy.obj
 0001:0002d10c       PalignTail                 4002e10c     libvcruntime:memmove.obj
 0001:0002d124       PalignTail4                4002e124     libvcruntime:memcpy.obj
 0001:0002d124       PalignTail4                4002e124     libvcruntime:memmove.obj
 0001:0002d137       PalignTail8                4002e137     libvcruntime:memcpy.obj
 0001:0002d137       PalignTail8                4002e137     libvcruntime:memmove.obj
 0001:0002d14e       PalignTailLE3              4002e14e     libvcruntime:memcpy.obj
 0001:0002d14e       PalignTailLE3              4002e14e     libvcruntime:memmove.obj
 0001:0002d157       Dword_align                4002e157     libvcruntime:memcpy.obj
 0001:0002d157       Dword_align                4002e157     libvcruntime:memmove.obj
 0001:0002d15f       Dword_up_align_loop        4002e15f     libvcruntime:memcpy.obj
 0001:0002d15f       Dword_up_align_loop        4002e15f     libvcruntime:memmove.obj
 0001:0002d172       Dword_align_Ok             4002e172     libvcruntime:memcpy.obj
 0001:0002d172       Dword_align_Ok             4002e172     libvcruntime:memmove.obj
 0001:0002d18c       ByteCopyUp                 4002e18c     libvcruntime:memcpy.obj
 0001:0002d18c       ByteCopyUp                 4002e18c     libvcruntime:memmove.obj
 0001:0002d194       TrailingUpVec              4002e194     libvcruntime:memcpy.obj
 0001:0002d194       TrailingUpVec              4002e194     libvcruntime:memmove.obj
 0001:0002d1a4       TrailingUp0                4002e1a4     libvcruntime:memcpy.obj
 0001:0002d1a4       TrailingUp0                4002e1a4     libvcruntime:memmove.obj
 0001:0002d1ac       TrailingUp1                4002e1ac     libvcruntime:memcpy.obj
 0001:0002d1ac       TrailingUp1                4002e1ac     libvcruntime:memmove.obj
 0001:0002d1b8       TrailingUp2                4002e1b8     libvcruntime:memcpy.obj
 0001:0002d1b8       TrailingUp2                4002e1b8     libvcruntime:memmove.obj
 0001:0002d1cc       TrailingUp3                4002e1cc     libvcruntime:memcpy.obj
 0001:0002d1cc       TrailingUp3                4002e1cc     libvcruntime:memmove.obj
 0001:0002d1e4       CopyDown                   4002e1e4     libvcruntime:memcpy.obj
 0001:0002d1e4       CopyDown                   4002e1e4     libvcruntime:memmove.obj
 0001:0002d209       CopyDownNotAligned         4002e209     libvcruntime:memcpy.obj
 0001:0002d209       CopyDownNotAligned         4002e209     libvcruntime:memmove.obj
 0001:0002d210       CopyDownAlignLoop          4002e210     libvcruntime:memcpy.obj
 0001:0002d210       CopyDownAlignLoop          4002e210     libvcruntime:memmove.obj
 0001:0002d21d       CopyDownAligned            4002e21d     libvcruntime:memcpy.obj
 0001:0002d21d       CopyDownAligned            4002e21d     libvcruntime:memmove.obj
 0001:0002d240       TrailingDownVec            4002e240     libvcruntime:memcpy.obj
 0001:0002d240       TrailingDownVec            4002e240     libvcruntime:memmove.obj
 0001:0002d250       TrailingDown0              4002e250     libvcruntime:memcpy.obj
 0001:0002d250       TrailingDown0              4002e250     libvcruntime:memmove.obj
 0001:0002d258       TrailingDown1              4002e258     libvcruntime:memcpy.obj
 0001:0002d258       TrailingDown1              4002e258     libvcruntime:memmove.obj
 0001:0002d268       TrailingDown2              4002e268     libvcruntime:memcpy.obj
 0001:0002d268       TrailingDown2              4002e268     libvcruntime:memmove.obj
 0001:0002d27c       TrailingDown3              4002e27c     libvcruntime:memcpy.obj
 0001:0002d27c       TrailingDown3              4002e27c     libvcruntime:memmove.obj
 0001:0002d295       XmmMovLargeAlignTest       4002e295     libvcruntime:memcpy.obj
 0001:0002d295       XmmMovLargeAlignTest       4002e295     libvcruntime:memmove.obj
 0001:0002d29d       XmmMovAlignLoop            4002e29d     libvcruntime:memcpy.obj
 0001:0002d29d       XmmMovAlignLoop            4002e29d     libvcruntime:memmove.obj
 0001:0002d2ac       XmmMovLargeLoop            4002e2ac     libvcruntime:memcpy.obj
 0001:0002d2ac       XmmMovLargeLoop            4002e2ac     libvcruntime:memmove.obj
 0001:0002d31c       XmmMovSmallTest            4002e31c     libvcruntime:memcpy.obj
 0001:0002d31c       XmmMovSmallTest            4002e31c     libvcruntime:memmove.obj
 0001:0002d321       XmmMovSmallLoop            4002e321     libvcruntime:memcpy.obj
 0001:0002d321       XmmMovSmallLoop            4002e321     libvcruntime:memmove.obj
 0001:0002d344       CopyDownSmall              4002e344     libvcruntime:memcpy.obj
 0001:0002d344       CopyDownSmall              4002e344     libvcruntime:memmove.obj
 0001:0002d34c       CopyDownDwordLoop          4002e34c     libvcruntime:memcpy.obj
 0001:0002d34c       CopyDownDwordLoop          4002e34c     libvcruntime:memmove.obj
 0001:0002d361       CopyDownByteTest           4002e361     libvcruntime:memcpy.obj
 0001:0002d361       CopyDownByteTest           4002e361     libvcruntime:memmove.obj
 0001:0002d365       CopyDownByteLoop           4002e365     libvcruntime:memcpy.obj
 0001:0002d365       CopyDownByteLoop           4002e365     libvcruntime:memmove.obj
 0001:0002d374       CopyDownReturn             4002e374     libvcruntime:memcpy.obj
 0001:0002d374       CopyDownReturn             4002e374     libvcruntime:memmove.obj
 0001:0002d380       XmmCopy                    4002e380     libvcruntime:memcpy.obj
 0001:0002d380       XmmCopy                    4002e380     libvcruntime:memmove.obj
 0001:0002d38d       XmmCopyAligned             4002e38d     libvcruntime:memcpy.obj
 0001:0002d38d       XmmCopyAligned             4002e38d     libvcruntime:memmove.obj
 0001:0002d3a0       XmmCopyLargeLoop           4002e3a0     libvcruntime:memcpy.obj
 0001:0002d3a0       XmmCopyLargeLoop           4002e3a0     libvcruntime:memmove.obj
 0001:0002d3fd       XmmCopySmallTest           4002e3fd     libvcruntime:memcpy.obj
 0001:0002d3fd       XmmCopySmallTest           4002e3fd     libvcruntime:memmove.obj
 0001:0002d410       XmmCopySmallLoop           4002e410     libvcruntime:memcpy.obj
 0001:0002d410       XmmCopySmallLoop           4002e410     libvcruntime:memmove.obj
 0001:0002d42b       CopyUpDwordMov             4002e42b     libvcruntime:memcpy.obj
 0001:0002d42b       CopyUpDwordMov             4002e42b     libvcruntime:memmove.obj
 0001:0002d430       CopyUpDwordTest            4002e430     libvcruntime:memcpy.obj
 0001:0002d430       CopyUpDwordTest            4002e430     libvcruntime:memmove.obj
 0001:0002d437       CopyUpDwordLoop            4002e437     libvcruntime:memcpy.obj
 0001:0002d437       CopyUpDwordLoop            4002e437     libvcruntime:memmove.obj
 0001:0002d446       CopyUpByteTest             4002e446     libvcruntime:memcpy.obj
 0001:0002d446       CopyUpByteTest             4002e446     libvcruntime:memmove.obj
 0001:0002d44d       CopyUpByteLoop             4002e44d     libvcruntime:memcpy.obj
 0001:0002d44d       CopyUpByteLoop             4002e44d     libvcruntime:memmove.obj
 0001:0002d460       CopyUpReturn               4002e460     libvcruntime:memcpy.obj
 0001:0002d460       CopyUpReturn               4002e460     libvcruntime:memmove.obj
 0001:0002d470       XmmCopyUnaligned           4002e470     libvcruntime:memcpy.obj
 0001:0002d470       XmmCopyUnaligned           4002e470     libvcruntime:memmove.obj
 0001:0002d483       XmmAlignByte               4002e483     libvcruntime:memcpy.obj
 0001:0002d483       XmmAlignByte               4002e483     libvcruntime:memmove.obj
 0001:0002d48c       XmmAlignDwordTest          4002e48c     libvcruntime:memcpy.obj
 0001:0002d48c       XmmAlignDwordTest          4002e48c     libvcruntime:memmove.obj
 0001:0002d491       XmmAlignDwordLoop          4002e491     libvcruntime:memcpy.obj
 0001:0002d491       XmmAlignDwordLoop          4002e491     libvcruntime:memmove.obj
 0001:0002d49e       XmmAlignAdjustCnt          4002e49e     libvcruntime:memcpy.obj
 0001:0002d49e       XmmAlignAdjustCnt          4002e49e     libvcruntime:memmove.obj
 0001:0002d4b0       $$000000                   4002e4b0     libvcruntime:strstr.obj
 0001:0002d4f3       strstr_sse_safeloop        4002e4f3     libvcruntime:strstr.obj
 0001:0002d51a       strstr_sse_search          4002e51a     libvcruntime:strstr.obj
 0001:0002d51a       strstr_sse_unsafe          4002e51a     libvcruntime:strstr.obj
 0001:0002d51e       strstr_sse_srchloop        4002e51e     libvcruntime:strstr.obj
 0001:0002d554       strstr_sse_srchchar        4002e554     libvcruntime:strstr.obj
 0001:0002d56b       strstr_sse_cmploop         4002e56b     libvcruntime:strstr.obj
 0001:0002d5a6       strstr_sse_cmpchars        4002e5a6     libvcruntime:strstr.obj
 0001:0002d5ad       strstr_sse_cmpunsafe       4002e5ad     libvcruntime:strstr.obj
 0001:0002d5c4       strstr_sse_match           4002e5c4     libvcruntime:strstr.obj
 0001:0002d5c9       strstr_sse_not_found       4002e5c9     libvcruntime:strstr.obj
 0001:0002d5cb       strstr_sse_exit            4002e5cb     libvcruntime:strstr.obj
 0001:0002d5cf       strstr_sttni               4002e5cf     libvcruntime:strstr.obj
 0001:0002d5eb       strstr_sttni_setchars      4002e5eb     libvcruntime:strstr.obj
 0001:0002d5f0       strstr_sttni_setloopchar   4002e5f0     libvcruntime:strstr.obj
 0001:0002d5f6       strstr_sttni_setloopnochar 4002e5f6     libvcruntime:strstr.obj
 0001:0002d60a       strstr_sttni_srchnext      4002e60a     libvcruntime:strstr.obj
 0001:0002d60d       strstr_sttni_srch          4002e60d     libvcruntime:strstr.obj
 0001:0002d611       strstr_sttni_srchloop      4002e611     libvcruntime:strstr.obj
 0001:0002d630       strstr_sttni_srchxmm       4002e630     libvcruntime:strstr.obj
 0001:0002d643       strstr_sttni_srchcheck     4002e643     libvcruntime:strstr.obj
 0001:0002d647       strstr_sttni_cmploop       4002e647     libvcruntime:strstr.obj
 0001:0002d67f       strstr_sttni_cmpchar       4002e67f     libvcruntime:strstr.obj
 0001:0002d69a       strstr_no_sse              4002e69a     libvcruntime:strstr.obj
 0001:0002d6ad       findnext                   4002e6ad     libvcruntime:strstr.obj
 0001:0002d6c0       loop_start                 4002e6c0     libvcruntime:strstr.obj
 0001:0002d6c5       in_loop                    4002e6c5     libvcruntime:strstr.obj
 0001:0002d6cd       not_found                  4002e6cd     libvcruntime:strstr.obj
 0001:0002d6d3       first_char_found           4002e6d3     libvcruntime:strstr.obj
 0001:0002d6dc       two_first_chars_equal      4002e6dc     libvcruntime:strstr.obj
 0001:0002d6df       compare_loop               4002e6df     libvcruntime:strstr.obj
 0001:0002d702       strchr_call                4002e702     libvcruntime:strstr.obj
 0001:0002d70e       match                      4002e70e     libvcruntime:strstr.obj
 0001:0002d715       empty_str2                 4002e715     libvcruntime:strstr.obj
 0001:0002d720       $$000000                   4002e720     libvcruntime:strrchr.obj
 0001:0002d75d       strrchr_sse_loop           4002e75d     libvcruntime:strrchr.obj
 0001:0002d78d       strrchr_sse_break          4002e78d     libvcruntime:strrchr.obj
 0001:0002d7ad       strrchr_sttni              4002e7ad     libvcruntime:strrchr.obj
 0001:0002d7bf       strrchr_sttni_chars        4002e7bf     libvcruntime:strrchr.obj
 0001:0002d7d4       strrchr_sttni_aligned      4002e7d4     libvcruntime:strrchr.obj
 0001:0002d7d8       strrchr_sttni_xmm          4002e7d8     libvcruntime:strrchr.obj
 0001:0002d7eb       exit                       4002e7eb     libvcruntime:strrchr.obj
 0001:0002d7ee       strrchr_zero               4002e7ee     libvcruntime:strrchr.obj
 0001:0002d813       strchr_zero_loop           4002e813     libvcruntime:strrchr.obj
 0001:0002d827       strchr_zero_result         4002e827     libvcruntime:strrchr.obj
 0001:0002d82e       strrchr_no_sse             4002e82e     libvcruntime:strrchr.obj
 0001:0002d851       returndi                   4002e851     libvcruntime:strrchr.obj
 0001:0002d853       toend                      4002e853     libvcruntime:strrchr.obj
 0001:0002d860       _ValidateLocalCookies      4002e860 f   libvcruntime:chandler4.obj
 0001:0002db63       ?_FilterSetCurrentException@@YAKPAU_EXCEPTION_POINTERS@@E@Z 4002eb63 f   libvcruntime:ehhelpers.obj
 0001:0002dc70       $$000000                   4002ec70     libvcruntime:exsup4.obj
 0001:0002dca2       _lu_top                    4002eca2     libvcruntime:exsup4.obj
 0001:0002dd01       _lu_done                   4002ed01     libvcruntime:exsup4.obj
 0001:0002dd10       $$000000                   4002ed10     libvcruntime:exsup4.obj
 0001:0002dd10       __unwind_handler4          4002ed10 f   libvcruntime:exsup4.obj
 0001:0002dd60       $$000000                   4002ed60     libvcruntime:exsup4.obj
 0001:0002dd80       $$000000                   4002ed80     libvcruntime:exsup4.obj
 0001:0002dda0       $$000000                   4002eda0     libvcruntime:exsup4.obj
 0001:0002ddb5       ReturnPoint                4002edb5     libvcruntime:exsup4.obj
 0001:0002ddc0       $$000000                   4002edc0     libvcruntime:exsup4.obj
 0001:0002dfb0       $$000000                   4002efb0     libvcruntime:exsup.obj
 0001:0002dfc0       $$000000                   4002efc0     libvcruntime:exsup.obj
 0001:0002dfcb       __NLG_Go                   4002efcb     libvcruntime:exsup.obj
 0001:0002dfe0       $$000000                   4002efe0     libvcruntime:exsup.obj
 0001:0002e3a7       ?try_get_function@@YAPAXW4function_id@?A0x14174aea@@QBDQBW4module_id@2@2@Z 4002f3a7 f   libvcruntime:winapi_downlevel.obj
 0001:0002e447       ?try_load_library_from_system_directory@@YAPAUHINSTANCE__@@QB_W@Z 4002f447 f   libvcruntime:winapi_downlevel.obj
 0001:0002e5c8       ??$BuildCatchObjectHelperInternal@V__FrameHandler3@@@@YAHPAUEHExceptionRecord@@PAXPBU_s_HandlerType@@PBU_s_CatchableType@@@Z 4002f5c8 f   libvcruntime:frame.obj
 0001:0002e706       ??$BuildCatchObjectInternal@V__FrameHandler3@@@@YAXPAUEHExceptionRecord@@PAXPBU_s_HandlerType@@PBU_s_CatchableType@@@Z 4002f706 f   libvcruntime:frame.obj
 0001:0002e7a2       ??$CatchIt@V__FrameHandler3@@@@YAXPAUEHExceptionRecord@@PAUEHRegistrationNode@@PAU_CONTEXT@@PAXPBU_s_FuncInfo@@PBU_s_HandlerType@@PBU_s_CatchableType@@PBU_s_TryBlockMapEntry@@H1EE@Z 4002f7a2 f   libvcruntime:frame.obj
 0001:0002e823       ??$FindHandler@V__FrameHandler3@@@@YAXPAUEHExceptionRecord@@PAUEHRegistrationNode@@PAU_CONTEXT@@PAXPBU_s_FuncInfo@@EH1@Z 4002f823 f   libvcruntime:frame.obj
 0001:0002ebc6       ??$FindHandlerForForeignException@V__FrameHandler3@@@@YAXPAUEHExceptionRecord@@PAUEHRegistrationNode@@PAU_CONTEXT@@PAXPBU_s_FuncInfo@@HH1@Z 4002fbc6 f   libvcruntime:frame.obj
 0001:0002ef5d       ?CallCatchBlock@@YAPAXPAUEHExceptionRecord@@PAUEHRegistrationNode@@PAU_CONTEXT@@PBU_s_FuncInfo@@PAXHK@Z 4002ff5d f   libvcruntime:frame.obj
 0001:0002f12c       ?CallUnexpected@@YAXPBU_s_ESTypeList@@@Z 4003012c f   libvcruntime:frame.obj
 0001:0002f14f       __catch$?CallUnexpected@@YAXPBU_s_ESTypeList@@@Z$0 4003014f f   libvcruntime:frame.obj
 0001:0002f16e       ?ExFilterRethrow@@YAHPAU_EXCEPTION_POINTERS@@@Z 4003016e f   libvcruntime:frame.obj
 0001:0002f2be       ?IsInExceptionSpec@@YAEPAUEHExceptionRecord@@PBU_s_ESTypeList@@@Z 400302be f   libvcruntime:frame.obj
 0001:0002f3a0       $$000000                   400303a0     libvcruntime:lowhelpr.obj
 0001:0002f3df       _NLG_Continue              400303df     libvcruntime:lowhelpr.obj
 0001:0002fd50       $$000000                   40030d50     libucrt:87ctriga.obj
 0001:0002fd60       $$000000                   40030d60     libucrt:cos_sse2_precise.obj
 0001:0002ff20       $$000000                   40030f20     libucrt:sin_sse2_precise.obj
 0001:0003018a       ??$common_atof_l@D@@YANQBDQAU__crt_locale_pointers@@@Z 4003118a f   libucrt:atof.obj
 0001:00030a75       $LN32                      40031a75     libucrt:atof.obj
 0001:00030b99       $LN30                      40031b99     libucrt:atof.obj
 0001:00033531       _memcpy_s                  40034531 f   libucrt:atof.obj
 0001:00033531       _memcpy_s                  40034531 f   libucrt:cfout.obj
 0001:00033531       _memcpy_s                  40034531 f   libucrt:mbctype.obj
 0001:000335c0       $$000000                   400345c0     libucrt:87fmod_impl.obj
 0001:000335e0       $$000000                   400345e0     libucrt:acos_sse2_precise.obj
 0001:00033b00       $$000000                   40034b00     libucrt:sqrt_sse2_precise.obj
 0001:00033c00       ??$common_vsprintf@Vstandard_base@__crt_stdio_output@@D@@YAH_KQADIQBDAAV__crt_cached_ptd_host@@1@Z 40034c00 f   libucrt:output.obj
 0001:00034cf1       $LN130                     40035cf1     libucrt:output.obj
 0001:000352dd       $LN18                      400362dd     libucrt:output.obj
 0001:000352f1       $LN17                      400362f1     libucrt:output.obj
 0001:000357c0       $$000000                   400367c0     libucrt:strncpy.obj
 0001:00035b67       ??$common_vsscanf@D@@YAH_KQBDI1QAU__crt_locale_pointers@@QAD@Z 40036b67 f   libucrt:input.obj
 0001:00036eb5       $LN16                      40037eb5     libucrt:input.obj
 0001:00036ec1       $LN15                      40037ec1     libucrt:input.obj
 0001:00036fb4       $LN15                      40037fb4     libucrt:input.obj
 0001:00037749       $LN17                      40038749     libucrt:input.obj
 0001:0003775d       $LN16                      4003875d     libucrt:input.obj
 0001:00037d80       $$000000                   40038d80     libucrt:ceil_pentium4.obj
 0001:00037ec0       $$000000                   40038ec0     libucrt:floor_pentium4.obj
 0001:00037ffe       ??$common_strtod_l@ND@@YANQBDQAPADQAU__crt_locale_pointers@@@Z 40038ffe f   libucrt:strtod.obj
 0001:000380b0       $$000000                   400390b0     libucrt:tan_sse2_precise.obj
 0001:000384df       ??$?RV<lambda_03b1d95aef87969028cfba75ccab2455>@@AAV<lambda_6e4b09c48022b2350581041d5f6b0c4c>@@V<lambda_22bdf7517842c4b3e53723af5aa32b9e>@@@?$__crt_seh_guarded_call@X@@QAEX$$QAV<lambda_03b1d95aef87969028cfba75ccab2455>@@AAV<lambda_6e4b09c48022b2350581041d5f6b0c4c>@@$$QAV<lambda_22bdf7517842c4b3e53723af5aa32b9e>@@@Z 400394df f   libucrt:exit.obj
 0001:00038547       ??R<lambda_6e4b09c48022b2350581041d5f6b0c4c>@@QBE@XZ 40039547 f   libucrt:exit.obj
 0001:0003862f       ?common_exit@@YAXHW4_crt_exit_cleanup_mode@@W4_crt_exit_return_mode@@@Z 4003962f f   libucrt:exit.obj
 0001:000386ed       ?exit_or_terminate_process@@YAXI_N@Z 400396ed f   libucrt:exit.obj
 0001:0003871b       ?is_managed_app@@YA_NXZ    4003971b f   libucrt:exit.obj
 0001:0003875d       ?try_cor_exit_process@@YAXI@Z 4003975d f   libucrt:exit.obj
 0001:0003881a       ??$common_configure_argv@D@@YAHW4_crt_argv_mode@@@Z 4003981a f   libucrt:argv_parsing.obj
 0001:00038957       ??$parse_command_line@D@@YAXPADPAPAD0PAI2@Z 40039957 f   libucrt:argv_parsing.obj
 0001:00038b23       ??$common_initialize_environment_nolock@D@@YAHXZ 40039b23 f   libucrt:environment_initialization.obj
 0001:00038b7d       ??$create_environment@D@@YAQAPADQAD@Z 40039b7d f   libucrt:environment_initialization.obj
 0001:00038c62       ??$free_environment@D@@YAXQAPAD@Z 40039c62 f   libucrt:environment_initialization.obj
 0001:00038c62       ??$free_environment@_W@@YAXQAPA_W@Z 40039c62 f   libucrt:environment_initialization.obj
 0001:00038c91       ??$uninitialize_environment_internal@D@@YAXAAPAPAD@Z 40039c91 f   libucrt:environment_initialization.obj
 0001:00038cac       ??$uninitialize_environment_internal@_W@@YAXAAPAPA_W@Z 40039cac f   libucrt:environment_initialization.obj
 0001:00038d1d       ??$?RV<lambda_69a2805e680e0e292e8ba93315fe43a8>@@AAV<lambda_f03950bc5685219e0bcd2087efbe011e>@@V<lambda_03fcd07e894ec930e3f35da366ca99d6>@@@?$__crt_seh_guarded_call@H@@QAEH$$QAV<lambda_69a2805e680e0e292e8ba93315fe43a8>@@AAV<lambda_f03950bc5685219e0bcd2087efbe011e>@@$$QAV<lambda_03fcd07e894ec930e3f35da366ca99d6>@@@Z 40039d1d f   libucrt:onexit.obj
 0001:00038d78       ??R<lambda_f03950bc5685219e0bcd2087efbe011e>@@QBE@XZ 40039d78 f   libucrt:onexit.obj
 0001:00038eb9       _initialize_global_variables 40039eb9 f   libucrt:initialization.obj
 0001:00038ec6       _initialize_c              40039ec6 f   libucrt:initialization.obj
 0001:00038ee0       _initialize_environment    40039ee0 f   libucrt:initialization.obj
 0001:00038ee0       _initialize_global_state_isolation 40039ee0 f   libucrt:initialization.obj
 0001:00038ee0       _report_memory_leaks       40039ee0 f   libucrt:initialization.obj
 0001:00038ee0       _uninitialize_c            40039ee0 f   libucrt:initialization.obj
 0001:00038ee0       _uninitialize_global_state_isolation 40039ee0 f   libucrt:initialization.obj
 0001:00038ee3       _uninitialize_environment  40039ee3 f   libucrt:initialization.obj
 0001:00038eeb       _initialize_pointers       40039eeb f   libucrt:initialization.obj
 0001:00038f19       _uninitialize_vcruntime    40039f19 f   libucrt:initialization.obj
 0001:00038f22       _uninitialize_allocated_memory 40039f22 f   libucrt:initialization.obj
 0001:00038f39       _uninitialize_allocated_io_buffers 40039f39 f   libucrt:initialization.obj
 0001:00038f89       ??R<lambda_af42a3ee9806e9a7305d451646e05244>@@QBE@AAPAU__crt_multibyte_data@@@Z 40039f89 f   libucrt:initialization.obj
 0001:00039140       $$000000                   4003a140     libucrt:strncmp.obj
 0001:0003957b       ?bsearch_errentry@@YAPBUerrentry@?A0x31fdb9ec@@KQBU12@I@Z 4003a57b f   libucrt:errno.obj
 0001:00039786       ??$?RV<lambda_15ade71b0218206bbe3333a0c9b79046>@@AAV<lambda_da44e0f8b0f19ba52fefafb335991732>@@V<lambda_207f2d024fc103971653565357d6cd41>@@@?$__crt_seh_guarded_call@X@@QAEX$$QAV<lambda_15ade71b0218206bbe3333a0c9b79046>@@AAV<lambda_da44e0f8b0f19ba52fefafb335991732>@@$$QAV<lambda_207f2d024fc103971653565357d6cd41>@@@Z 4003a786 f   libucrt:per_thread_data.obj
 0001:000397d8       ??$?RV<lambda_38edbb1296d33220d7e4dd0ed76b244a>@@AAV<lambda_5ce1d447e08cb34b2473517608e21441>@@V<lambda_fb385d3da700c9147fc39e65dd577a8c>@@@?$__crt_seh_guarded_call@X@@QAEX$$QAV<lambda_38edbb1296d33220d7e4dd0ed76b244a>@@AAV<lambda_5ce1d447e08cb34b2473517608e21441>@@$$QAV<lambda_fb385d3da700c9147fc39e65dd577a8c>@@@Z 4003a7d8 f   libucrt:per_thread_data.obj
 0001:00039843       ??$?RV<lambda_6affb1475c98b40b75cdec977db92e3c>@@AAV<lambda_b8d4b9c228a6ecc3f80208dbb4b4a104>@@V<lambda_608742c3c92a14382c1684fc64f96c88>@@@?$__crt_seh_guarded_call@X@@QAEX$$QAV<lambda_6affb1475c98b40b75cdec977db92e3c>@@AAV<lambda_b8d4b9c228a6ecc3f80208dbb4b4a104>@@$$QAV<lambda_608742c3c92a14382c1684fc64f96c88>@@@Z 4003a843 f   libucrt:per_thread_data.obj
 0001:00039898       ??$?RV<lambda_a7e850c220f1c8d1e6efeecdedd162c6>@@AAV<lambda_46720907175c18b6c9d2717bc0d2d362>@@V<lambda_9048902d66e8d99359bc9897bbb930a8>@@@?$__crt_seh_guarded_call@X@@QAEX$$QAV<lambda_a7e850c220f1c8d1e6efeecdedd162c6>@@AAV<lambda_46720907175c18b6c9d2717bc0d2d362>@@$$QAV<lambda_9048902d66e8d99359bc9897bbb930a8>@@@Z 4003a898 f   libucrt:per_thread_data.obj
 0001:000398f2       ?construct_ptd@@YAXQAU__acrt_ptd@@QAPAU__crt_locale_data@@@Z 4003a8f2 f   libucrt:per_thread_data.obj
 0001:0003998b       ?destroy_fls@@YGXPAX@Z     4003a98b f   libucrt:per_thread_data.obj
 0001:000399ac       ?destroy_ptd@@YAXQAU__acrt_ptd@@@Z 4003a9ac f   libucrt:per_thread_data.obj
 0001:00039b21       ?replace_current_thread_locale_nolock@@YAXQAU__acrt_ptd@@QAU__crt_locale_data@@@Z 4003ab21 f   libucrt:per_thread_data.obj
 0001:00039d26       ??$?RV<lambda_e5124f882df8998aaf41531e079ba474>@@AAV<lambda_3e16ef9562a7dcce91392c22ab16ea36>@@V<lambda_e25ca0880e6ef98be67edffd8c599615>@@@?$__crt_seh_guarded_call@X@@QAEX$$QAV<lambda_e5124f882df8998aaf41531e079ba474>@@AAV<lambda_3e16ef9562a7dcce91392c22ab16ea36>@@$$QAV<lambda_e25ca0880e6ef98be67edffd8c599615>@@@Z 4003ad26 f   libucrt:wsetlocale.obj
 0001:00039dd0       $$000000                   4003add0     libucrt:87triga.obj
 0001:00039e90       $$000000                   4003ae90     libucrt:87cdisp.obj
 0001:0003a130       $$000000                   4003b130     libucrt:cos_impl.obj
 0001:0003a220       $$000000                   4003b220     libucrt:sin_impl.obj
 0001:0003a320       $$000000                   4003b320     libucrt:87disp.obj
 0001:0003a79c       $LN38                      4003b79c     libucrt:libm_error.obj
 0001:0003a7d8       $LN37                      4003b7d8     libucrt:libm_error.obj
 0001:0003a820       $$000000                   4003b820     libucrt:acos_impl.obj
 0001:0003a930       $$000000                   4003b930     libucrt:sqrt.obj
 0001:0003a980       ?select_heap@@YAPAXQAX@Z   4003b980 f   libucrt:free_base.obj
 0001:0003ad87       ?fe_to_nearest@@YA_NQBN_KF@Z 4003bd87 f   libucrt:cvt.obj
 0001:0003ae39       ?fp_format_a@@YAHQBNPADIQADIH_NIW4__acrt_rounding_mode@@AAV__crt_cached_ptd_host@@@Z 4003be39 f   libucrt:cvt.obj
 0001:0003b175       ?fp_format_e@@YAHQBNQADI1IH_NIW4__acrt_rounding_mode@@AAV__crt_cached_ptd_host@@@Z 4003c175 f   libucrt:cvt.obj
 0001:0003b205       ?fp_format_e_internal@@YAHQADIH_NIQAU_strflt@@1AAV__crt_cached_ptd_host@@@Z 4003c205 f   libucrt:cvt.obj
 0001:0003b348       ?fp_format_f@@YAHQBNQADI1IHW4__acrt_rounding_mode@@AAV__crt_cached_ptd_host@@@Z 4003c348 f   libucrt:cvt.obj
 0001:0003b3d1       ?fp_format_f_internal@@YAHQADIHQAU_strflt@@_NAAV__crt_cached_ptd_host@@@Z 4003c3d1 f   libucrt:cvt.obj
 0001:0003b4b1       ?fp_format_g@@YAHQBNQADI1IH_NIW4__acrt_rounding_mode@@AAV__crt_cached_ptd_host@@@Z 4003c4b1 f   libucrt:cvt.obj
 0001:0003b578       ?fp_format_nan_or_infinity@@YAHW4__acrt_fp_class@@_NPADI1@Z 4003c578 f   libucrt:cvt.obj
 0001:0003b60d       ?shift_bytes@@YAXQADI0H@Z  4003c60d f   libucrt:cvt.obj
 0001:0003b641       ?should_round_up@@YA_NQBN_KFW4__acrt_rounding_mode@@@Z 4003c641 f   libucrt:cvt.obj
 0001:0003bdc5       ??R<lambda_e96123212306c92459f955e8e4eac55d>@@QBEIPBD@Z 4003cdc5 f   libucrt:mbrtowc.obj
 0001:0003c0bf       ?initialize_inherited_file_handles_nolock@@YAXXZ 4003d0bf f   libucrt:ioinit.obj
 0001:0003c16f       ?initialize_stdio_handles_nolock@@YAXXZ 4003d16f f   libucrt:ioinit.obj
 0001:0003c2ab       ?__acrt_LCMapStringA_stat@@YAHPAU__crt_locale_pointers@@PB_WKPBDHPADHHH@Z 4003d2ab f   libucrt:lcmapstringa.obj
 0001:0003c8d0       $$000000                   4003d8d0     libucrt:tan_impl.obj
 0001:0003caa2       ?<lambda_invoker_cdecl>@<lambda_838c7f62c73c983481e27c09e84b0b5d>@@CAHPBX0@Z 4003daa2 f   libucrt:argv_wildcards.obj
 0001:0003cc4f       ??$common_expand_argv_wildcards@D@@YAHQAPADQAPAPAD@Z 4003dc4f f   libucrt:argv_wildcards.obj
 0001:0003cdcc       ??$copy_and_add_argument_to_buffer@D@@YAHQBD0IAAV?$argument_list@D@?A0x5f5c8891@@@Z 4003ddcc f   libucrt:argv_wildcards.obj
 0001:0003ce7d       ??$expand_argument_wildcards@D@@YAHQAD0AAV?$argument_list@D@?A0x5f5c8891@@@Z 4003de7d f   libucrt:argv_wildcards.obj
 0001:0003d109       ??1?$argument_list@D@?A0x5f5c8891@@QAE@XZ 4003e109 f   libucrt:argv_wildcards.obj
 0001:0003d247       ?expand_if_necessary@?$argument_list@D@?A0x5f5c8891@@AAEHXZ 4003e247 f   libucrt:argv_wildcards.obj
 0001:0003d477       ??$?RV<lambda_ceb1ee4838e85a9d631eb091e2fbe199>@@AAV<lambda_ae742caa10f662c28703da3d2ea5e57e>@@V<lambda_cd08b5d6af4937fe54fc07d0c9bf6b37>@@@?$__crt_seh_guarded_call@X@@QAEX$$QAV<lambda_ceb1ee4838e85a9d631eb091e2fbe199>@@AAV<lambda_ae742caa10f662c28703da3d2ea5e57e>@@$$QAV<lambda_cd08b5d6af4937fe54fc07d0c9bf6b37>@@@Z 4003e477 f   libucrt:mbctype.obj
 0001:0003d4c4       ??R<lambda_ae742caa10f662c28703da3d2ea5e57e>@@QBE@XZ 4003e4c4 f   libucrt:mbctype.obj
 0001:0003d547       ?CPtoLocaleName@@YAPB_WH@Z 4003e547 f   libucrt:mbctype.obj
 0001:0003d585       ?getSystemCP@@YAHH@Z       4003e585 f   libucrt:mbctype.obj
 0001:0003d5f6       ?setSBCS@@YAXPAU__crt_multibyte_data@@@Z 4003e5f6 f   libucrt:mbctype.obj
 0001:0003d659       ?setSBUpLow@@YAXPAU__crt_multibyte_data@@@Z 4003e659 f   libucrt:mbctype.obj
 0001:0003d7fe       ?setmbcp_internal@@YAHH_NQAU__acrt_ptd@@QAPAU__crt_multibyte_data@@@Z 4003e7fe f   libucrt:mbctype.obj
 0001:0003d953       ?update_thread_multibyte_data_internal@@YAPAU__crt_multibyte_data@@QAU__acrt_ptd@@QAPAU1@@Z 4003e953 f   libucrt:mbctype.obj
 0001:0003dc53       ?x_ismbbtype_l@@YAHPAU__crt_locale_pointers@@IHH@Z 4003ec53 f   libucrt:ismbbyte.obj
 0001:0003dcd4       ?filter_mbtowcs_flags@@YAKIK@Z 4003ecd4 f   libucrt:multibytetowidechar.obj
 0001:0003dd96       ?filter_wcstomb_flags@@YAKIK@Z 4003ed96 f   libucrt:widechartomultibyte.obj
 0001:0003de90       ?find_end_of_double_null_terminated_sequence@@YAPB_WQB_W@Z 4003ee90 f   libucrt:get_environment_from_os.obj
 0001:0003dffb       ?try_get_AreFileApisANSI@@YAP6GHXZXZ 4003effb f   libucrt:winapi_thunks.obj
 0001:0003e025       ?try_get_LCMapStringEx@@YAP6GHPB_WK0HPA_WHPAU_nlsversioninfo@@PAXJ@ZXZ 4003f025 f   libucrt:winapi_thunks.obj
 0001:0003e050       ?try_get_LocaleNameToLCID@@YAP6GKPB_WK@ZXZ 4003f050 f   libucrt:winapi_thunks.obj
 0001:0003e07b       ?try_get_function_slow@@YAPAXW4function_id@?A0x391cf84c@@QBDQBW4module_id@2@2@Z 4003f07b f   libucrt:winapi_thunks.obj
 0001:0003e148       ?try_load_library_from_system_directory@@YAPAUHINSTANCE__@@QB_W@Z 4003f148 f   libucrt:winapi_thunks.obj
 0001:0003e5bc       ??$?RV<lambda_cbab9ec6f41b0180b23cc171c22676b0>@@AAV<lambda_44731a7d0e6d81c3e6aa82d741081786>@@V<lambda_4b292cb8dd18144e164572427af410ab>@@@?$__crt_seh_guarded_call@P6AXH@Z@@QAEP6AXH@Z$$QAV<lambda_cbab9ec6f41b0180b23cc171c22676b0>@@AAV<lambda_44731a7d0e6d81c3e6aa82d741081786>@@$$QAV<lambda_4b292cb8dd18144e164572427af410ab>@@@Z 4003f5bc f   libucrt:signal.obj
 0001:0003e624       ?get_global_action_nolock@@YAPAP6AXH@ZH@Z 4003f624 f   libucrt:signal.obj
 0001:0003e666       ?siglookup@@YAPAU__crt_signal_action_t@@HQAU1@@Z 4003f666 f   libucrt:signal.obj
 0001:0003e939       ??$?RV<lambda_2866be3712abc81a800a822484c830d8>@@AAV<lambda_39ca0ed439415581b5b15c265174cece>@@V<lambda_2b24c74d71094a6cd0cb82e44167d71b>@@@?$__crt_seh_guarded_call@X@@QAEX$$QAV<lambda_2866be3712abc81a800a822484c830d8>@@AAV<lambda_39ca0ed439415581b5b15c265174cece>@@$$QAV<lambda_2b24c74d71094a6cd0cb82e44167d71b>@@@Z 4003f939 f   libucrt:fflush.obj
 0001:0003e9c5       ??$?RV<lambda_2cc53f568c5a2bb6f192f930a45d44ea>@@AAV<lambda_ab61a845afdef5b7c387490eaf3616ee>@@V<lambda_c2ffc0b7726aa6be21d5f0026187e748>@@@?$__crt_seh_guarded_call@X@@QAEX$$QAV<lambda_2cc53f568c5a2bb6f192f930a45d44ea>@@AAV<lambda_ab61a845afdef5b7c387490eaf3616ee>@@$$QAV<lambda_c2ffc0b7726aa6be21d5f0026187e748>@@@Z 4003f9c5 f   libucrt:fflush.obj
 0001:0003ea71       ?common_flush_all@@YAH_N@Z 4003fa71 f   libucrt:fflush.obj
 0001:0003eabd       ?common_flush_all_should_try_to_flush_stream@@YA_NV__crt_stdio_stream@@QAH@Z 4003fabd f   libucrt:fflush.obj
 0001:0003eaee       ?is_stream_flushable_or_commitable@@YA_NJ@Z 4003faee f   libucrt:fflush.obj
 0001:0003f1e7       ?free_crt_array_internal@@YAXQAPBXI@Z 400401e7 f   libucrt:inittime.obj
 0001:0003f408       $LN24                      40040408     libucrt:87except.obj
 0001:0003f430       $$000000                   40040430     libucrt:cos_pentium4.obj
 0001:0003f5e0       $$000000                   400405e0     libucrt:common.obj
 0001:0003f770       $$000000                   40040770     libucrt:genexcep.obj
 0001:0003f7d0       $$000000                   400407d0     libucrt:sin_pentium4.obj
 0001:0003ffc0       $$000000                   40040fc0     libucrt:acos_pentium4.obj
 0001:00040520       $$000000                   40041520     libucrt:sqrt_impl.obj
 0001:0004061f       ?check_trailing@@YA_NPBDW4__acrt_has_trailing_digits@@@Z 4004161f f   libucrt:_fptostr.obj
 0001:00040642       ?should_round_up@@YA_NQBD0HW4__acrt_has_trailing_digits@@W4__acrt_rounding_mode@@@Z 40041642 f   libucrt:_fptostr.obj
 0001:00042944       $LN55                      40043944     libucrt:fpexcept.obj
 0001:00042de0       $$000000                   40043de0     libucrt:tan_pentium4.obj
 0001:00043140       $$000000                   40044140     libucrt:strpbrk.obj
 0001:00043224       ?initialize_multibyte@@YAHXZ 40044224 f   libucrt:multibyte_initializer.obj
 0001:0004327b       ?GetTableIndexFromLocaleName@@YAHPB_W@Z 4004427b f   libucrt:lcidtoname_downlevel.obj
 0001:000432fb       ??$?RV<lambda_9e9de3de5fa147e2223d7db92bc10aa6>@@AAV<lambda_38ce7e780aa69e748d6df282ebc68efe>@@V<lambda_8ca6da459f0f6780f1cff60fdc3d00e5>@@@?$__crt_seh_guarded_call@H@@QAEH$$QAV<lambda_9e9de3de5fa147e2223d7db92bc10aa6>@@AAV<lambda_38ce7e780aa69e748d6df282ebc68efe>@@$$QAV<lambda_8ca6da459f0f6780f1cff60fdc3d00e5>@@@Z 400442fb f   libucrt:commit.obj
 0001:0004341a       ?write_double_translated_ansi_nolock@@YA?AUwrite_result@?A0x17268360@@HQBDIAAV__crt_cached_ptd_host@@@Z 4004441a f   libucrt:write.obj
 0001:000437e5       ?write_double_translated_unicode_nolock@@YA?AUwrite_result@?A0x17268360@@QBDI@Z 400447e5 f   libucrt:write.obj
 0001:0004384d       ?write_requires_double_translation_nolock@@YA_NHAAV__crt_cached_ptd_host@@@Z 4004484d f   libucrt:write.obj
 0001:000438ca       ?write_text_ansi_nolock@@YA?AUwrite_result@?A0x17268360@@HQBDI@Z 400448ca f   libucrt:write.obj
 0001:000439a5       ?write_text_utf16le_nolock@@YA?AUwrite_result@?A0x17268360@@HQBDI@Z 400449a5 f   libucrt:write.obj
 0001:00043a8e       ?write_text_utf8_nolock@@YA?AUwrite_result@?A0x17268360@@HQBDI@Z 40044a8e f   libucrt:write.obj
 0001:000440b0       $$000000                   400450b0     libucrt:log10_sse2_precise.obj
 0001:00044360       ?_fclose_internal@@YAHQAU_iobuf@@AAV__crt_cached_ptd_host@@@Z 40045360 f   libucrt:fclose.obj
 0001:000443f7       ?_fclose_nolock_internal@@YAHQAU_iobuf@@AAV__crt_cached_ptd_host@@@Z 400453f7 f   libucrt:fclose.obj
 0001:000444b5       ??$common_lseek_nolock@_J@@YA_JH_JHAAV__crt_cached_ptd_host@@@Z 400454b5 f   libucrt:lseek.obj
 0001:00044590       ___hw_cw_sse2              40045590 f   libucrt:ieee87.obj
 0001:00044b10       __hw_cw                    40045b10 f   libucrt:ieee87.obj
 0001:00044c10       $$000000                   40045c10     libucrt:log10_impl.obj
 0001:00044d20       ??$?RV<lambda_d422a76eb4c3bf3ad751449ab71a6ea4>@@AAV<lambda_c9ba49e555ba839a7b07aa3fbecb7617>@@V<lambda_9476263c8ee91a25d21c55370bdb50de>@@@?$__crt_seh_guarded_call@H@@QAEH$$QAV<lambda_d422a76eb4c3bf3ad751449ab71a6ea4>@@AAV<lambda_c9ba49e555ba839a7b07aa3fbecb7617>@@$$QAV<lambda_9476263c8ee91a25d21c55370bdb50de>@@@Z 40045d20 f   libucrt:close.obj
 0001:00044f30       $$000000                   40045f30     libucrt:_strnicm.obj
 0001:00044f91       ?__dcrt_lowio_initialize_console_output@@YAXXZ 40045f91 f   libucrt:initcon.obj
 0001:00045040       $$000000                   40046040     libucrt:log10_pentium4.obj
 0001:000452d0       $$000000                   400462d0     libucrt:87tran.obj
 0001:000459a0       $$000000                   400469a0     LIBCMT:ulldvrm.obj
 0001:000459d1       L1                         400469d1     LIBCMT:ulldvrm.obj
 0001:000459df       L3                         400469df     LIBCMT:ulldvrm.obj
 0001:00045a0d       L4                         40046a0d     LIBCMT:ulldvrm.obj
 0001:00045a16       L5                         40046a16     LIBCMT:ulldvrm.obj
 0001:00045a18       L2                         40046a18     LIBCMT:ulldvrm.obj
 0001:00045a50       $$000000                   40046a50     LIBCMT:llmul.obj
 0001:00045a69       hard                       40046a69     LIBCMT:llmul.obj
 0001:00045a90       $$000000                   40046a90     LIBCMT:ulldiv.obj
 0001:00045ab2       L1                         40046ab2     LIBCMT:ulldiv.obj
 0001:00045ac0       L3                         40046ac0     LIBCMT:ulldiv.obj
 0001:00045aee       L4                         40046aee     LIBCMT:ulldiv.obj
 0001:00045aef       L5                         40046aef     LIBCMT:ulldiv.obj
 0001:00045af3       L2                         40046af3     LIBCMT:ulldiv.obj
 0001:00045b00       $$000000                   40046b00     LIBCMT:llshl.obj
 0001:00045b10       MORE32                     40046b10     LIBCMT:llshl.obj
 0001:00045b1a       RETZERO                    40046b1a     LIBCMT:llshl.obj
 0001:00045b20       $$000000                   40046b20     LIBCMT:ullrem.obj
 0001:00045b41       L1                         40046b41     LIBCMT:ullrem.obj
 0001:00045b4f       L3                         40046b4f     LIBCMT:ullrem.obj
 0001:00045b7a       L4                         40046b7a     LIBCMT:ullrem.obj
 0001:00045b82       L5                         40046b82     LIBCMT:ullrem.obj
 0001:00045b91       L2                         40046b91     LIBCMT:ullrem.obj
 0001:00045ba0       $$000000                   40046ba0     LIBCMT:ullshr.obj
 0001:00045bb0       MORE32                     40046bb0     LIBCMT:ullshr.obj
 0001:00045bba       RETZERO                    40046bba     LIBCMT:ullshr.obj
 0001:00045bc0       $$000000                   40046bc0     LIBCMT:lldiv.obj
 0001:00045be1       L1                         40046be1     LIBCMT:lldiv.obj
 0001:00045bfd       L2                         40046bfd     LIBCMT:lldiv.obj
 0001:00045c19       L3                         40046c19     LIBCMT:lldiv.obj
 0001:00045c27       L5                         40046c27     LIBCMT:lldiv.obj
 0001:00045c55       L6                         40046c55     LIBCMT:lldiv.obj
 0001:00045c56       L7                         40046c56     LIBCMT:lldiv.obj
 0001:00045c5a       L4                         40046c5a     LIBCMT:lldiv.obj
 0001:00045c64       L8                         40046c64     LIBCMT:lldiv.obj
 0001:00045c70       $$000000                   40046c70     LIBCMT:lldvrm.obj
 0001:00045c94       L1                         40046c94     LIBCMT:lldvrm.obj
 0001:00045cb0       L2                         40046cb0     LIBCMT:lldvrm.obj
 0001:00045cdc       L3                         40046cdc     LIBCMT:lldvrm.obj
 0001:00045cea       L5                         40046cea     LIBCMT:lldvrm.obj
 0001:00045d18       L6                         40046d18     LIBCMT:lldvrm.obj
 0001:00045d21       L7                         40046d21     LIBCMT:lldvrm.obj
 0001:00045d23       L4                         40046d23     LIBCMT:lldvrm.obj
 0001:00045d35       L9                         40046d35     LIBCMT:lldvrm.obj
 0001:00045d49       L8                         40046d49     LIBCMT:lldvrm.obj
 0001:00045d50       $$000000                   40046d50     LIBCMT:llrem.obj
 0001:00045d70       L1                         40046d70     LIBCMT:llrem.obj
 0001:00045d8b       L2                         40046d8b     LIBCMT:llrem.obj
 0001:00045daa       L3                         40046daa     LIBCMT:llrem.obj
 0001:00045db8       L5                         40046db8     LIBCMT:llrem.obj
 0001:00045de3       L6                         40046de3     LIBCMT:llrem.obj
 0001:00045deb       L7                         40046deb     LIBCMT:llrem.obj
 0001:00045df6       L4                         40046df6     LIBCMT:llrem.obj
 0001:00045dfd       L8                         40046dfd     LIBCMT:llrem.obj
 0001:00045e10       $$000000                   40046e10     LIBCMT:alloca16.obj
 0001:00045e26       alloca_8                   40046e26     LIBCMT:alloca16.obj
 0001:00045eb3       __ehhandler$?CallUnexpected@@YAXPBU_s_ESTypeList@@@Z 40046eb3 f   libvcruntime:frame.obj
 0001:00045ed0       __ehhandler$?state_case_type@?$output_processor@DV?$string_output_adapter@D@__crt_stdio_output@@V?$standard_base@DV?$string_output_adapter@D@__crt_stdio_output@@@2@@__crt_stdio_output@@AAE_NXZ 40046ed0 f   libucrt:output.obj
 0001:00045ef7       __ehhandler$?common_exit@@YAXHW4_crt_exit_cleanup_mode@@W4_crt_exit_return_mode@@@Z 40046ef7 f   libucrt:exit.obj
 0001:00045f14       __ehhandler$?try_cor_exit_process@@YAXI@Z 40046f14 f   libucrt:exit.obj
 0001:00045f31       __ehhandler$___dcrt_uninitialize_environments_nolock 40046f31 f   libucrt:environment_initialization.obj
 0001:00045f31       __ehhandler$___acrt_getptd_noexit 40046f31 f   libucrt:per_thread_data.obj
 0001:00045f4e       __ehhandler$__execute_onexit_table 40046f4e f   libucrt:onexit.obj
 0001:00045f6b       __ehhandler$___acrt_freeptd 40046f6b f   libucrt:per_thread_data.obj
 0001:00045f6b       __ehhandler$___acrt_getptd_head 40046f6b f   libucrt:per_thread_data.obj
 0001:00045f6b       __ehhandler$___acrt_getptd_noexit_explicit 40046f6b f   libucrt:per_thread_data.obj
 0001:00045f88       __ehhandler$?write_double_translated_ansi_nolock@@YA?AUwrite_result@?A0x17268360@@HQBDIAAV__crt_cached_ptd_host@@@Z 40046f88 f   libucrt:write.obj
 0002:0000c748       _serverFilters             40053748     ui_main.obj
 0002:00010208       _languageString            40057208     ui_shared.obj
 0002:00010a90       two32                      40057a90     LIBCMT:ftol2.obj
 0002:00010a94       two63                      40057a94     LIBCMT:ftol2.obj
 0002:00010a98       _NaN                       40057a98     LIBCMT:ftol2.obj
 0002:00010aa0       _GS_ExceptionPointers      40057aa0     LIBCMT:gs_report.obj
 0002:00010ab0       ?tokenTable@@3QBUStringLiteral@@B 40057ab0     libvcruntime:undname.obj
 0002:00010b38       ?nameTable@@3QBUStringLiteral@@B 40057b38     libvcruntime:undname.obj
 0002:00010dd0       ?rttiTable@@3QBUStringLiteral@@B 40057dd0     libvcruntime:undname.obj
 0002:00010df8       ?IndirectionName@@3QBUStringLiteral@@B 40057df8     libvcruntime:undname.obj
 0002:00010e28       ?PrefixName@@3QBUStringLiteral@@B 40057e28     libvcruntime:undname.obj
 0002:00011464       ?module_names@?A0x14174aea@@3QBQB_WB 40058464     libvcruntime:winapi_downlevel.obj
 0002:0001150c       ?candidate_modules@?1??try_get_FlsAlloc@@YAP6GKP6GXPAX@Z@ZXZ@4QBW4module_id@?A0x14174aea@@B 4005850c     libvcruntime:winapi_downlevel.obj
 0002:00011520       ?candidate_modules@?1??try_get_FlsFree@@YAP6GHK@ZXZ@4QBW4module_id@?A0x14174aea@@B 40058520     libvcruntime:winapi_downlevel.obj
 0002:00011530       ?candidate_modules@?1??try_get_FlsGetValue@@YAP6GPAXK@ZXZ@4QBW4module_id@?A0x14174aea@@B 40058530     libvcruntime:winapi_downlevel.obj
 0002:00011544       ?candidate_modules@?1??try_get_FlsSetValue@@YAP6GHKPAX@ZXZ@4QBW4module_id@?A0x14174aea@@B 40058544     libvcruntime:winapi_downlevel.obj
 0002:00011558       ?candidate_modules@?1??try_get_InitializeCriticalSectionEx@@YAP6GHPAU_RTL_CRITICAL_SECTION@@KK@ZXZ@4QBW4module_id@?A0x14174aea@@B 40058558     libvcruntime:winapi_downlevel.obj
 0002:000115c0       SC_1                       400585c0     libucrt:cos_sse2_precise.obj
 0002:000115d0       SC_2                       400585d0     libucrt:cos_sse2_precise.obj
 0002:000115e0       SC_3                       400585e0     libucrt:cos_sse2_precise.obj
 0002:000115f0       SC_4                       400585f0     libucrt:cos_sse2_precise.obj
 0002:00011600       PI32INV                    40058600     libucrt:cos_sse2_precise.obj
 0002:00011608       SHIFTER                    40058608     libucrt:cos_sse2_precise.obj
 0002:00011610       P_2                        40058610     libucrt:cos_sse2_precise.obj
 0002:00011620       P_1                        40058620     libucrt:cos_sse2_precise.obj
 0002:00011628       P_3                        40058628     libucrt:cos_sse2_precise.obj
 0002:00011630       TWO_POW_55                 40058630     libucrt:cos_sse2_precise.obj
 0002:00011638       TWO_POW_M55                40058638     libucrt:cos_sse2_precise.obj
 0002:00011640       ALL_ONES                   40058640     libucrt:cos_sse2_precise.obj
 0002:00011648       NEG_ZERO                   40058648     libucrt:cos_sse2_precise.obj
 0002:00011650       ONE                        40058650     libucrt:cos_sse2_precise.obj
 0002:00011660       SIGN_MASK                  40058660     libucrt:cos_sse2_precise.obj
 0002:00011670       SC_1                       40058670     libucrt:sin_sse2_precise.obj
 0002:00011680       SC_2                       40058680     libucrt:sin_sse2_precise.obj
 0002:00011690       SC_3                       40058690     libucrt:sin_sse2_precise.obj
 0002:000116a0       SC_4                       400586a0     libucrt:sin_sse2_precise.obj
 0002:000116b0       PI32INV                    400586b0     libucrt:sin_sse2_precise.obj
 0002:000116b8       SHIFTER                    400586b8     libucrt:sin_sse2_precise.obj
 0002:000116c0       P_2                        400586c0     libucrt:sin_sse2_precise.obj
 0002:000116d0       P_1                        400586d0     libucrt:sin_sse2_precise.obj
 0002:000116d8       P_3                        400586d8     libucrt:sin_sse2_precise.obj
 0002:000116e0       TWO_POW_55                 400586e0     libucrt:sin_sse2_precise.obj
 0002:000116e8       TWO_POW_M55                400586e8     libucrt:sin_sse2_precise.obj
 0002:000116f0       ALL_ONES                   400586f0     libucrt:sin_sse2_precise.obj
 0002:000116f8       NEG_ZERO                   400586f8     libucrt:sin_sse2_precise.obj
 0002:00011700       ONE                        40058700     libucrt:sin_sse2_precise.obj
 0002:000122c0       Shifter                    400592c0     libucrt:acos_sse2_precise.obj
 0002:000122d0       PI_BY_2                    400592d0     libucrt:acos_sse2_precise.obj
 0002:000122e0       NEG_PI                     400592e0     libucrt:acos_sse2_precise.obj
 0002:000122f0       PI                         400592f0     libucrt:acos_sse2_precise.obj
 0002:00012300       SIGNMASK                   40059300     libucrt:acos_sse2_precise.obj
 0002:00012310       HALFMASK                   40059310     libucrt:acos_sse2_precise.obj
 0002:00012320       HALFMASK2                  40059320     libucrt:acos_sse2_precise.obj
 0002:00012330       cv                         40059330     libucrt:acos_sse2_precise.obj
 0002:00012350       cv2                        40059350     libucrt:acos_sse2_precise.obj
 0002:00012390       ABSVALMASK                 40059390     libucrt:acos_sse2_precise.obj
 0002:00012398       TMASK                      40059398     libucrt:acos_sse2_precise.obj
 0002:000123a0       ONEMASK                    400593a0     libucrt:acos_sse2_precise.obj
 0002:000123a8       ONE_BY_2                   400593a8     libucrt:acos_sse2_precise.obj
 0002:000123b0       EMIN                       400593b0     libucrt:acos_sse2_precise.obj
 0002:000123b8       MAX_ARG                    400593b8     libucrt:acos_sse2_precise.obj
 0002:000123c0       MIN_ARG                    400593c0     libucrt:acos_sse2_precise.obj
 0002:000123c8       INF                        400593c8     libucrt:acos_sse2_precise.obj
 0002:000123d0       ZERO                       400593d0     libucrt:acos_sse2_precise.obj
 0002:000123d8       ALPHA                      400593d8     libucrt:acos_sse2_precise.obj
 0002:000125b0       _One                       400595b0     libucrt:ceil_pentium4.obj
 0002:000125c0       _Bns                       400595c0     libucrt:ceil_pentium4.obj
 0002:000125d0       _Zero                      400595d0     libucrt:ceil_pentium4.obj
 0002:000125e0       _S                         400595e0     libucrt:ceil_pentium4.obj
 0002:000125f0       _NegZero                   400595f0     libucrt:ceil_pentium4.obj
 0002:00012600       _One                       40059600     libucrt:floor_pentium4.obj
 0002:00012610       _Bns                       40059610     libucrt:floor_pentium4.obj
 0002:00012620       _NegOne                    40059620     libucrt:floor_pentium4.obj
 0002:00012630       _NegZero                   40059630     libucrt:floor_pentium4.obj
 0002:00012640       _S                         40059640     libucrt:floor_pentium4.obj
 0002:00012650       PI32INV                    40059650     libucrt:tan_sse2_precise.obj
 0002:00012660       SHIFTER                    40059660     libucrt:tan_sse2_precise.obj
 0002:00012670       P_1                        40059670     libucrt:tan_sse2_precise.obj
 0002:00012680       P_2                        40059680     libucrt:tan_sse2_precise.obj
 0002:00012690       P_3                        40059690     libucrt:tan_sse2_precise.obj
 0002:000126a0       QQ_2                       400596a0     libucrt:tan_sse2_precise.obj
 0002:000126a8       ONE                        400596a8     libucrt:tan_sse2_precise.obj
 0002:000126b0       MASK_35                    400596b0     libucrt:tan_sse2_precise.obj
 0002:000126c0       sign_mask                  400596c0     libucrt:tan_sse2_precise.obj
 0002:000126c8       TWO_POW_55                 400596c8     libucrt:tan_sse2_precise.obj
 0002:000126d0       TWO_POW_M55                400596d0     libucrt:tan_sse2_precise.obj
 0002:000126d8       TWO_POW_M53                400596d8     libucrt:tan_sse2_precise.obj
 0002:000126e0       INF                        400596e0     libucrt:tan_sse2_precise.obj
 0002:000127b8       ___acrt_initializers       400597b8     libucrt:initialization.obj
 0002:00012e38       ?errtable@@3QBUerrentry@?A0x31fdb9ec@@B 40059e38     libucrt:errno.obj
 0002:000134b0       DblMax                     4005a4b0     libucrt:87cdisp.obj
 0002:000134b8       DblMin                     4005a4b8     libucrt:87cdisp.obj
 0002:000134c0       IeeeAdjO                   4005a4c0     libucrt:87cdisp.obj
 0002:000134c8       IeeeAdjU                   4005a4c8     libucrt:87cdisp.obj
 0002:000134d0       _infinity                  4005a4d0     libucrt:87cdisp.obj
 0002:000134d8       _zero                      4005a4d8     libucrt:87cdisp.obj
 0002:000134e0       _NAME_                     4005a4e0     libucrt:cos_impl.obj
 0002:00013cf0       _NAME_                     4005acf0     libucrt:sin_impl.obj
 0002:00013d1e       One                        4005ad1e     libucrt:87disp.obj
 0002:00013d26       Three                      4005ad26     libucrt:87disp.obj
 0002:00013d2e       XAMtoTagTab                4005ad2e     libucrt:87disp.obj
 0002:00013d70       _NAME_                     4005ad70     libucrt:acos_impl.obj
 0002:00015480       ?strings@?1??fp_format_nan_or_infinity@@YAHW4__acrt_fp_class@@_NPADI1@Z@4QAY03QBDA 4005c480     libucrt:cvt.obj
 0002:00015510       _NAME_                     4005c510     libucrt:tan_impl.obj
 0002:00016b20       ?_mb_locale_names@@3QBQB_WB 4005db20     libucrt:mbctype.obj
 0002:00016b60       ?module_names@?A0x391cf84c@@3QBQB_WB 4005db60     libucrt:winapi_thunks.obj
 0002:000170b0       ?candidate_modules@?1??try_get_AreFileApisANSI@@YAP6GHXZXZ@4QBW4module_id@?A0x391cf84c@@B 4005e0b0     libucrt:winapi_thunks.obj
 0002:000170c4       ?candidate_modules@?1??try_get_FlsGetValue2@@YAP6GPAXK@ZXZ@4QBW4module_id@?A0x391cf84c@@B 4005e0c4     libucrt:winapi_thunks.obj
 0002:000170dc       ?candidate_modules@?1??try_get_LCMapStringEx@@YAP6GHPB_WK0HPA_WHPAU_nlsversioninfo@@PAXJ@ZXZ@4QBW4module_id@?A0x391cf84c@@B 4005e0dc     libucrt:winapi_thunks.obj
 0002:000170f4       ?candidate_modules@?1??try_get_LocaleNameToLCID@@YAP6GKPB_WK@ZXZ@4QBW4module_id@?A0x391cf84c@@B 4005e0f4     libucrt:winapi_thunks.obj
 0002:00017110       ?candidate_modules@?1??try_get_AppPolicyGetProcessTerminationMethod@@YAP6GJPAXPAW4AppPolicyProcessTerminationMethod@@@ZXZ@4QBW4module_id@?A0x391cf84c@@B 4005e110     libucrt:winapi_thunks.obj
 0002:00017150       SC_1                       4005e150     libucrt:cos_pentium4.obj
 0002:00017160       SC_2                       4005e160     libucrt:cos_pentium4.obj
 0002:00017170       SC_3                       4005e170     libucrt:cos_pentium4.obj
 0002:00017180       SC_4                       4005e180     libucrt:cos_pentium4.obj
 0002:00017190       PI32INV                    4005e190     libucrt:cos_pentium4.obj
 0002:00017198       SHIFTER                    4005e198     libucrt:cos_pentium4.obj
 0002:000171a0       P_2                        4005e1a0     libucrt:cos_pentium4.obj
 0002:000171b0       P_1                        4005e1b0     libucrt:cos_pentium4.obj
 0002:000171b8       P_3                        4005e1b8     libucrt:cos_pentium4.obj
 0002:000171c0       TWO_POW_55                 4005e1c0     libucrt:cos_pentium4.obj
 0002:000171c8       TWO_POW_M55                4005e1c8     libucrt:cos_pentium4.obj
 0002:000171d0       ALL_ONES                   4005e1d0     libucrt:cos_pentium4.obj
 0002:000171d8       NEG_ZERO                   4005e1d8     libucrt:cos_pentium4.obj
 0002:000171e0       ONE                        4005e1e0     libucrt:cos_pentium4.obj
 0002:000171f0       SIGN_MASK                  4005e1f0     libucrt:cos_pentium4.obj
 0002:00017200       One                        4005e200     libucrt:common.obj
 0002:00017214       DblMax                     4005e214     libucrt:common.obj
 0002:0001721c       DblMin                     4005e21c     libucrt:common.obj
 0002:00017224       IeeeAdjO                   4005e224     libucrt:common.obj
 0002:0001722c       IeeeAdjU                   4005e22c     libucrt:common.obj
 0002:00017234       _infinity                  4005e234     libucrt:common.obj
 0002:0001723c       _zero                      4005e23c     libucrt:common.obj
 0002:00017250       SC_1                       4005e250     libucrt:sin_pentium4.obj
 0002:00017260       SC_2                       4005e260     libucrt:sin_pentium4.obj
 0002:00017270       SC_3                       4005e270     libucrt:sin_pentium4.obj
 0002:00017280       SC_4                       4005e280     libucrt:sin_pentium4.obj
 0002:00017290       PI32INV                    4005e290     libucrt:sin_pentium4.obj
 0002:00017298       SHIFTER                    4005e298     libucrt:sin_pentium4.obj
 0002:000172a0       P_2                        4005e2a0     libucrt:sin_pentium4.obj
 0002:000172b0       P_1                        4005e2b0     libucrt:sin_pentium4.obj
 0002:000172b8       P_3                        4005e2b8     libucrt:sin_pentium4.obj
 0002:000172c0       TWO_POW_55                 4005e2c0     libucrt:sin_pentium4.obj
 0002:000172c8       TWO_POW_M55                4005e2c8     libucrt:sin_pentium4.obj
 0002:000172d0       ALL_ONES                   4005e2d0     libucrt:sin_pentium4.obj
 0002:000172d8       NEG_ZERO                   4005e2d8     libucrt:sin_pentium4.obj
 0002:000172e0       ONE                        4005e2e0     libucrt:sin_pentium4.obj
 0002:000172f0       Shifter                    4005e2f0     libucrt:acos_pentium4.obj
 0002:00017300       PI_BY_2                    4005e300     libucrt:acos_pentium4.obj
 0002:00017310       NEG_PI                     4005e310     libucrt:acos_pentium4.obj
 0002:00017320       PI                         4005e320     libucrt:acos_pentium4.obj
 0002:00017330       SIGNMASK                   4005e330     libucrt:acos_pentium4.obj
 0002:00017340       HALFMASK                   4005e340     libucrt:acos_pentium4.obj
 0002:00017350       HALFMASK2                  4005e350     libucrt:acos_pentium4.obj
 0002:00017360       cv                         4005e360     libucrt:acos_pentium4.obj
 0002:00017380       cv2                        4005e380     libucrt:acos_pentium4.obj
 0002:000173c0       ABSVALMASK                 4005e3c0     libucrt:acos_pentium4.obj
 0002:000173c8       TMASK                      4005e3c8     libucrt:acos_pentium4.obj
 0002:000173d0       ONEMASK                    4005e3d0     libucrt:acos_pentium4.obj
 0002:000173d8       ONE_BY_2                   4005e3d8     libucrt:acos_pentium4.obj
 0002:000173e0       EMIN                       4005e3e0     libucrt:acos_pentium4.obj
 0002:000173e8       MAX_ARG                    4005e3e8     libucrt:acos_pentium4.obj
 0002:000173f0       MIN_ARG                    4005e3f0     libucrt:acos_pentium4.obj
 0002:000173f8       INF                        4005e3f8     libucrt:acos_pentium4.obj
 0002:00017400       ZERO                       4005e400     libucrt:acos_pentium4.obj
 0002:00017408       ALPHA                      4005e408     libucrt:acos_pentium4.obj
 0002:00017410       _NAME_                     4005e410     libucrt:sqrt_impl.obj
 0002:00017438       ?_names@?1??_get_fname@@9@4QBU<unnamed-type-_names>@?1??1@YAPADI@Z@B 4005e438     libucrt:fpexcept.obj
 0002:000175d8       _over                      4005e5d8     libucrt:fpctrl.obj
 0002:000175e4       _under                     4005e5e4     libucrt:fpctrl.obj
 0002:000175f0       PI32INV                    4005e5f0     libucrt:tan_pentium4.obj
 0002:00017600       SHIFTER                    4005e600     libucrt:tan_pentium4.obj
 0002:00017610       P_1                        4005e610     libucrt:tan_pentium4.obj
 0002:00017620       P_2                        4005e620     libucrt:tan_pentium4.obj
 0002:00017630       P_3                        4005e630     libucrt:tan_pentium4.obj
 0002:00017640       QQ_2                       4005e640     libucrt:tan_pentium4.obj
 0002:00017648       ONE                        4005e648     libucrt:tan_pentium4.obj
 0002:00017650       MASK_35                    4005e650     libucrt:tan_pentium4.obj
 0002:00017660       sign_mask                  4005e660     libucrt:tan_pentium4.obj
 0002:00017668       TWO_POW_55                 4005e668     libucrt:tan_pentium4.obj
 0002:00017670       TWO_POW_M55                4005e670     libucrt:tan_pentium4.obj
 0002:00017678       TWO_POW_M53                4005e678     libucrt:tan_pentium4.obj
 0002:00017680       INF                        4005e680     libucrt:tan_pentium4.obj
 0002:00017690       ?LcidToLocaleNameTable@?A0x881e4c05@@3QBULcidToLocaleName@1@B 4005e690     libucrt:lcidtoname_downlevel.obj
 0002:000187b0       ?LocaleNameToIndexTable@?A0x881e4c05@@3QBULocaleNameIndex@1@B 4005f7b0     libucrt:lcidtoname_downlevel.obj
 0002:00019700       emask                      40060700     libucrt:log10_sse2_precise.obj
 0002:00019710       CC                         40060710     libucrt:log10_sse2_precise.obj
 0002:00019720       Magic                      40060720     libucrt:log10_sse2_precise.obj
 0002:00019730       hi_mask                    40060730     libucrt:log10_sse2_precise.obj
 0002:00019740       LOG10_2                    40060740     libucrt:log10_sse2_precise.obj
 0002:00019750       place_L                    40060750     libucrt:log10_sse2_precise.obj
 0002:00019770       One                        40060770     libucrt:log10_sse2_precise.obj
 0002:00019780       Zero                       40060780     libucrt:log10_sse2_precise.obj
 0002:00019790       Two52                      40060790     libucrt:log10_sse2_precise.obj
 0002:000197a0       Infs                       400607a0     libucrt:log10_sse2_precise.obj
 0002:000197b0       NaN                        400607b0     libucrt:log10_sse2_precise.obj
 0002:000197c0       coeff                      400607c0     libucrt:log10_sse2_precise.obj
 0002:00019800       LOG_name                   40060800     libucrt:log10_impl.obj
 0002:0001a040       emask                      40061040     libucrt:log10_pentium4.obj
 0002:0001a050       CC                         40061050     libucrt:log10_pentium4.obj
 0002:0001a060       Magic                      40061060     libucrt:log10_pentium4.obj
 0002:0001a070       hi_mask                    40061070     libucrt:log10_pentium4.obj
 0002:0001a080       LOG10_2                    40061080     libucrt:log10_pentium4.obj
 0002:0001a090       place_L                    40061090     libucrt:log10_pentium4.obj
 0002:0001a0b0       One                        400610b0     libucrt:log10_pentium4.obj
 0002:0001a0c0       Zero                       400610c0     libucrt:log10_pentium4.obj
 0002:0001a0d0       Two52                      400610d0     libucrt:log10_pentium4.obj
 0002:0001a0e0       Infs                       400610e0     libucrt:log10_pentium4.obj
 0002:0001a0f0       NaN                        400610f0     libucrt:log10_pentium4.obj
 0002:0001a100       coeff                      40061100     libucrt:log10_pentium4.obj
 0002:0001a15e       _log2max                   4006115e     libucrt:87tran.obj
 0002:0001a168       _smallarg                  40061168     libucrt:87tran.obj
 0002:0001a172       _half                      40061172     libucrt:87tran.obj
 0002:0001a770       __sehtable$?dllmain_crt_process_attach@@YAHQAUHINSTANCE__@@QAX@Z 40061770     LIBCMT:dll_dllmain.obj
 0002:0001a790       __sehtable$?dllmain_crt_process_detach@@YAH_N@Z 40061790     LIBCMT:dll_dllmain.obj
 0002:0001a7b8       __sehtable$?dllmain_dispatch@@YAHQAUHINSTANCE__@@KQAX@Z 400617b8     LIBCMT:dll_dllmain.obj
 0002:0001a7d8       __sehtable$___scrt_is_nonwritable_in_current_image 400617d8     LIBCMT:utility.obj
 0002:0001a7f8       __sehtable$___DestructExceptionObject 400617f8     libvcruntime:ehhelpers.obj
 0002:0001a818       __sehtable$?FrameUnwindToState@__FrameHandler3@@SAXPAUEHRegistrationNode@@PAXPBU_s_FuncInfo@@H@Z 40061818     libvcruntime:frame.obj
 0002:0001a840       __sehtable$?CallCatchBlock@@YAPAXPAUEHExceptionRecord@@PAUEHRegistrationNode@@PAU_CONTEXT@@PBU_s_FuncInfo@@PAXHK@Z 40061840     libvcruntime:frame.obj
 0002:0001a868       __catchsym$?CallUnexpected@@YAXPBU_s_ESTypeList@@@Z$2 40061868     libvcruntime:frame.obj
 0002:0001a878       __unwindtable$?CallUnexpected@@YAXPBU_s_ESTypeList@@@Z 40061878     libvcruntime:frame.obj
 0002:0001a888       __tryblocktable$?CallUnexpected@@YAXPBU_s_ESTypeList@@@Z 40061888     libvcruntime:frame.obj
 0002:0001a89c       __ehfuncinfo$?CallUnexpected@@YAXPBU_s_ESTypeList@@@Z 4006189c     libvcruntime:frame.obj
 0002:0001a8c0       __sehtable$??$BuildCatchObjectHelperInternal@V__FrameHandler3@@@@YAHPAUEHExceptionRecord@@PAXPBU_s_HandlerType@@PBU_s_CatchableType@@@Z 400618c0     libvcruntime:frame.obj
 0002:0001a8e0       __sehtable$??$BuildCatchObjectInternal@V__FrameHandler3@@@@YAXPAUEHExceptionRecord@@PAXPBU_s_HandlerType@@PBU_s_CatchableType@@@Z 400618e0     libvcruntime:frame.obj
 0002:0001a950       __unwindtable$?common_exit@@YAXHW4_crt_exit_cleanup_mode@@W4_crt_exit_return_mode@@@Z 40061950     libucrt:exit.obj
 0002:0001a950       __unwindtable$?state_case_type@?$output_processor@DV?$string_output_adapter@D@__crt_stdio_output@@V?$standard_base@DV?$string_output_adapter@D@__crt_stdio_output@@@2@@__crt_stdio_output@@AAE_NXZ 40061950     libucrt:output.obj
 0002:0001a958       __ehfuncinfo$?common_exit@@YAXHW4_crt_exit_cleanup_mode@@W4_crt_exit_return_mode@@@Z 40061958     libucrt:exit.obj
 0002:0001a958       __ehfuncinfo$?state_case_type@?$output_processor@DV?$string_output_adapter@D@__crt_stdio_output@@V?$standard_base@DV?$string_output_adapter@D@__crt_stdio_output@@@2@@__crt_stdio_output@@AAE_NXZ 40061958     libucrt:output.obj
 0002:0001a97c       __ehfuncinfo$?write_double_translated_ansi_nolock@@YA?AUwrite_result@?A0x17268360@@HQBDIAAV__crt_cached_ptd_host@@@Z 4006197c     libucrt:write.obj
 0002:0001a97c       __ehfuncinfo$?try_cor_exit_process@@YAXI@Z 4006197c     libucrt:exit.obj
 0002:0001a9a0       __sehtable$??R<lambda_6e4b09c48022b2350581041d5f6b0c4c>@@QBE@XZ 400619a0     libucrt:exit.obj
 0002:0001a9c0       __sehtable$??$?RV<lambda_03b1d95aef87969028cfba75ccab2455>@@AAV<lambda_6e4b09c48022b2350581041d5f6b0c4c>@@V<lambda_22bdf7517842c4b3e53723af5aa32b9e>@@@?$__crt_seh_guarded_call@X@@QAEX$$QAV<lambda_03b1d95aef87969028cfba75ccab2455>@@AAV<lambda_6e4b09c48022b2350581041d5f6b0c4c>@@$$QAV<lambda_22bdf7517842c4b3e53723af5aa32b9e>@@@Z 400619c0     libucrt:exit.obj
 0002:0001a9dc       __unwindtable$___dcrt_uninitialize_environments_nolock 400619dc     libucrt:environment_initialization.obj
 0002:0001a9dc       __unwindtable$___acrt_getptd_noexit 400619dc     libucrt:per_thread_data.obj
 0002:0001a9ec       __ehfuncinfo$___dcrt_uninitialize_environments_nolock 400619ec     libucrt:environment_initialization.obj
 0002:0001a9ec       __ehfuncinfo$___acrt_getptd_noexit 400619ec     libucrt:per_thread_data.obj
 0002:0001aa10       __unwindtable$___acrt_freeptd 40061a10     libucrt:per_thread_data.obj
 0002:0001aa10       __unwindtable$___acrt_getptd_head 40061a10     libucrt:per_thread_data.obj
 0002:0001aa10       __unwindtable$___acrt_getptd_noexit_explicit 40061a10     libucrt:per_thread_data.obj
 0002:0001aa10       __unwindtable$__execute_onexit_table 40061a10     libucrt:onexit.obj
 0002:0001aa18       __ehfuncinfo$___acrt_freeptd 40061a18     libucrt:per_thread_data.obj
 0002:0001aa18       __ehfuncinfo$___acrt_getptd_head 40061a18     libucrt:per_thread_data.obj
 0002:0001aa18       __ehfuncinfo$___acrt_getptd_noexit_explicit 40061a18     libucrt:per_thread_data.obj
 0002:0001aa18       __ehfuncinfo$__execute_onexit_table 40061a18     libucrt:onexit.obj
 0002:0001aa40       __sehtable$??$?RV<lambda_69a2805e680e0e292e8ba93315fe43a8>@@AAV<lambda_f03950bc5685219e0bcd2087efbe011e>@@V<lambda_03fcd07e894ec930e3f35da366ca99d6>@@@?$__crt_seh_guarded_call@H@@QAEH$$QAV<lambda_69a2805e680e0e292e8ba93315fe43a8>@@AAV<lambda_f03950bc5685219e0bcd2087efbe011e>@@$$QAV<lambda_03fcd07e894ec930e3f35da366ca99d6>@@@Z 40061a40     libucrt:onexit.obj
 0002:0001aa60       __sehtable$_terminate      40061a60     libucrt:terminate.obj
 0002:0001aa80       __sehtable$??$?RV<lambda_15ade71b0218206bbe3333a0c9b79046>@@AAV<lambda_da44e0f8b0f19ba52fefafb335991732>@@V<lambda_207f2d024fc103971653565357d6cd41>@@@?$__crt_seh_guarded_call@X@@QAEX$$QAV<lambda_15ade71b0218206bbe3333a0c9b79046>@@AAV<lambda_da44e0f8b0f19ba52fefafb335991732>@@$$QAV<lambda_207f2d024fc103971653565357d6cd41>@@@Z 40061a80     libucrt:per_thread_data.obj
 0002:0001aaa0       __sehtable$??$?RV<lambda_a7e850c220f1c8d1e6efeecdedd162c6>@@AAV<lambda_46720907175c18b6c9d2717bc0d2d362>@@V<lambda_9048902d66e8d99359bc9897bbb930a8>@@@?$__crt_seh_guarded_call@X@@QAEX$$QAV<lambda_a7e850c220f1c8d1e6efeecdedd162c6>@@AAV<lambda_46720907175c18b6c9d2717bc0d2d362>@@$$QAV<lambda_9048902d66e8d99359bc9897bbb930a8>@@@Z 40061aa0     libucrt:per_thread_data.obj
 0002:0001aac0       __sehtable$??$?RV<lambda_38edbb1296d33220d7e4dd0ed76b244a>@@AAV<lambda_5ce1d447e08cb34b2473517608e21441>@@V<lambda_fb385d3da700c9147fc39e65dd577a8c>@@@?$__crt_seh_guarded_call@X@@QAEX$$QAV<lambda_38edbb1296d33220d7e4dd0ed76b244a>@@AAV<lambda_5ce1d447e08cb34b2473517608e21441>@@$$QAV<lambda_fb385d3da700c9147fc39e65dd577a8c>@@@Z 40061ac0     libucrt:per_thread_data.obj
 0002:0001aae0       __sehtable$??$?RV<lambda_6affb1475c98b40b75cdec977db92e3c>@@AAV<lambda_b8d4b9c228a6ecc3f80208dbb4b4a104>@@V<lambda_608742c3c92a14382c1684fc64f96c88>@@@?$__crt_seh_guarded_call@X@@QAEX$$QAV<lambda_6affb1475c98b40b75cdec977db92e3c>@@AAV<lambda_b8d4b9c228a6ecc3f80208dbb4b4a104>@@$$QAV<lambda_608742c3c92a14382c1684fc64f96c88>@@@Z 40061ae0     libucrt:per_thread_data.obj
 0002:0001ab00       __sehtable$??$?RV<lambda_e5124f882df8998aaf41531e079ba474>@@AAV<lambda_3e16ef9562a7dcce91392c22ab16ea36>@@V<lambda_e25ca0880e6ef98be67edffd8c599615>@@@?$__crt_seh_guarded_call@X@@QAEX$$QAV<lambda_e5124f882df8998aaf41531e079ba474>@@AAV<lambda_3e16ef9562a7dcce91392c22ab16ea36>@@$$QAV<lambda_e25ca0880e6ef98be67edffd8c599615>@@@Z 40061b00     libucrt:wsetlocale.obj
 0002:0001ab20       __sehtable$___acrt_initialize_lowio 40061b20     libucrt:ioinit.obj
 0002:0001ab40       __sehtable$?update_thread_multibyte_data_internal@@YAPAU__crt_multibyte_data@@QAU__acrt_ptd@@QAPAU1@@Z 40061b40     libucrt:mbctype.obj
 0002:0001ab60       __sehtable$??$?RV<lambda_ceb1ee4838e85a9d631eb091e2fbe199>@@AAV<lambda_ae742caa10f662c28703da3d2ea5e57e>@@V<lambda_cd08b5d6af4937fe54fc07d0c9bf6b37>@@@?$__crt_seh_guarded_call@X@@QAEX$$QAV<lambda_ceb1ee4838e85a9d631eb091e2fbe199>@@AAV<lambda_ae742caa10f662c28703da3d2ea5e57e>@@$$QAV<lambda_cd08b5d6af4937fe54fc07d0c9bf6b37>@@@Z 40061b60     libucrt:mbctype.obj
 0002:0001ab80       __sehtable$__set_new_handler 40061b80     libucrt:new_handler.obj
 0002:0001aba0       __sehtable$__query_new_handler 40061ba0     libucrt:new_handler.obj
 0002:0001abc0       __sehtable$_raise          40061bc0     libucrt:signal.obj
 0002:0001abe0       __sehtable$??$?RV<lambda_cbab9ec6f41b0180b23cc171c22676b0>@@AAV<lambda_44731a7d0e6d81c3e6aa82d741081786>@@V<lambda_4b292cb8dd18144e164572427af410ab>@@@?$__crt_seh_guarded_call@P6AXH@Z@@QAEP6AXH@Z$$QAV<lambda_cbab9ec6f41b0180b23cc171c22676b0>@@AAV<lambda_44731a7d0e6d81c3e6aa82d741081786>@@$$QAV<lambda_4b292cb8dd18144e164572427af410ab>@@@Z 40061be0     libucrt:signal.obj
 0002:0001ac00       __sehtable$??$?RV<lambda_2866be3712abc81a800a822484c830d8>@@AAV<lambda_39ca0ed439415581b5b15c265174cece>@@V<lambda_2b24c74d71094a6cd0cb82e44167d71b>@@@?$__crt_seh_guarded_call@X@@QAEX$$QAV<lambda_2866be3712abc81a800a822484c830d8>@@AAV<lambda_39ca0ed439415581b5b15c265174cece>@@$$QAV<lambda_2b24c74d71094a6cd0cb82e44167d71b>@@@Z 40061c00     libucrt:fflush.obj
 0002:0001ac20       __sehtable$??$?RV<lambda_2cc53f568c5a2bb6f192f930a45d44ea>@@AAV<lambda_ab61a845afdef5b7c387490eaf3616ee>@@V<lambda_c2ffc0b7726aa6be21d5f0026187e748>@@@?$__crt_seh_guarded_call@X@@QAEX$$QAV<lambda_2cc53f568c5a2bb6f192f930a45d44ea>@@AAV<lambda_ab61a845afdef5b7c387490eaf3616ee>@@$$QAV<lambda_c2ffc0b7726aa6be21d5f0026187e748>@@@Z 40061c20     libucrt:fflush.obj
 0002:0001ac40       __sehtable$___acrt_update_thread_locale_data 40061c40     libucrt:locale_refcounting.obj
 0002:0001ac60       __sehtable$__fcloseall     40061c60     libucrt:closeall.obj
 0002:0001ac80       __sehtable$___acrt_lowio_ensure_fh_exists 40061c80     libucrt:osfinfo.obj
 0002:0001aca0       __sehtable$___set_fpsr_sse2 40061ca0     libucrt:fpctrl.obj
 0002:0001acc0       __sehtable$??$?RV<lambda_9e9de3de5fa147e2223d7db92bc10aa6>@@AAV<lambda_38ce7e780aa69e748d6df282ebc68efe>@@V<lambda_8ca6da459f0f6780f1cff60fdc3d00e5>@@@?$__crt_seh_guarded_call@H@@QAEH$$QAV<lambda_9e9de3de5fa147e2223d7db92bc10aa6>@@AAV<lambda_38ce7e780aa69e748d6df282ebc68efe>@@$$QAV<lambda_8ca6da459f0f6780f1cff60fdc3d00e5>@@@Z 40061cc0     libucrt:commit.obj
 0002:0001ace0       __sehtable$__write_internal 40061ce0     libucrt:write.obj
 0002:0001ad00       __sehtable$?_fclose_internal@@YAHQAU_iobuf@@AAV__crt_cached_ptd_host@@@Z 40061d00     libucrt:fclose.obj
 0002:0001ad20       __sehtable$??$?RV<lambda_d422a76eb4c3bf3ad751449ab71a6ea4>@@AAV<lambda_c9ba49e555ba839a7b07aa3fbecb7617>@@V<lambda_9476263c8ee91a25d21c55370bdb50de>@@@?$__crt_seh_guarded_call@H@@QAEH$$QAV<lambda_d422a76eb4c3bf3ad751449ab71a6ea4>@@AAV<lambda_c9ba49e555ba839a7b07aa3fbecb7617>@@$$QAV<lambda_9476263c8ee91a25d21c55370bdb50de>@@@Z 40061d20     libucrt:close.obj
 0002:0001ad40       __sehtable$__IsNonwritableInCurrentImage 40061d40     LIBCMT:pesect.obj
 0002:0001ad60       .edata                     40061d60     uix86.exp
 0002:0001ad88       rgpv                       40061d88     uix86.exp
 0002:0001ad90       rgszName                   40061d90     uix86.exp
 0002:0001ad98       rgwOrd                     40061d98     uix86.exp
 0002:0001ad9c       szName                     40061d9c     uix86.exp
 0002:0001ada6       $N00001                    40061da6     uix86.exp
 0002:0001adaf       $N00002                    40061daf     uix86.exp
 0002:0001b418       .idata$6                   40062418     kernel32:KERNEL32.dll
 0003:00002140       _bg_poolTail               40065140     bg_misc.obj
 0003:0000388c       _holdrand                  4006688c     q_math.obj
 0003:00007638       _datapadMoveData           4006a638     ui_main.obj
 0003:00007c38       _skillLevels               4006ac38     ui_main.obj
 0003:00007c4c       _teamArenaGameTypes        4006ac4c     ui_main.obj
 0003:00007c78       _netnames                  4006ac78     ui_main.obj
 0003:00007c88       _handicapValues            4006ac88     ui_main.obj
 0003:00007cdc       ?lastColumn@?1??UI_FeederItemText@@9@9 4006acdc     ui_main.obj
 0003:00007ce0       _cvarTable                 4006ace0     ui_main.obj
 0003:00008380       _cvarTableSize             4006b380     ui_main.obj
 0003:00008ac0       ?staticNULL@?1??String_Alloc@@9@9 4006bac0     ui_shared.obj
 0003:00008ac4       ?squiggy@?1??PC_String_Parse@@9@9 4006bac4     ui_shared.obj
 0003:00008ac8       _g_bindings                4006bac8     ui_shared.obj
 0003:00009428       _syscall                   4006c428     ui_syscalls.obj
 0003:00009490       ?__vcrt_flsindex@@3KA      4006c490     libvcruntime:per_thread_data.obj
 0003:000094c0       ?errno_no_memory@@3HA      4006c4c0     libucrt:errno.obj
 0003:000094c4       ?doserrno_no_memory@@3KA   4006c4c4     libucrt:errno.obj
 0003:000094c8       ?__acrt_flsindex@@3KA      4006c4c8     libucrt:per_thread_data.obj
 0003:00009870       __mbctypes                 4006c870     libucrt:mbctype.obj
 0003:00009978       __mbcasemaps               4006c978     libucrt:mbctype.obj
 0003:00009a78       ?__rgctypeflag@@3PADA      4006ca78     libucrt:mbctype.obj
 0003:00009a80       ?__rgcode_page_info@@3PAUcode_page_info@@A 4006ca80     libucrt:mbctype.obj
 0003:00009bd0       ?__DAZ_ENABLED@?1??__set_fpsr_sse2@@9@9 4006cbd0     libucrt:fpctrl.obj
 0003:00009ce0       ?__dcrt_lowio_console_output_handle@@3PAXA 4006cce0     libucrt:initcon.obj
 0003:00009d60       _bg_pool                   4006cd60     bg_misc.obj
 0003:00fa9d60       _bg_poolSize               4100cd60     bg_misc.obj
 0003:00fa9d94       ?bops_initialized@?1??BoxOnPlaneSide@@9@9 4100cd94     q_math.obj
 0003:00fa9d98       ?Ljmptab@?1??BoxOnPlaneSide@@9@9 4100cd98     q_math.obj
 0003:00fa9db8       ?sr@?1??AngleVectors@@9@9  4100cdb8     q_math.obj
 0003:00fa9dbc       ?sp@?1??AngleVectors@@9@9  4100cdbc     q_math.obj
 0003:00fa9dc0       ?sy@?1??AngleVectors@@9@9  4100cdc0     q_math.obj
 0003:00fa9dc4       ?cr@?1??AngleVectors@@9@9  4100cdc4     q_math.obj
 0003:00fa9dc8       ?cp@?1??AngleVectors@@9@9  4100cdc8     q_math.obj
 0003:00fa9dcc       ?cy@?1??AngleVectors@@9@9  4100cdcc     q_math.obj
 0003:00fa9dd0       _com_token                 4100cdd0     q_shared.obj
 0003:00faa1d0       _com_parsename             4100d1d0     q_shared.obj
 0003:00faa5d0       _com_lines                 4100d5d0     q_shared.obj
 0003:00faa5d4       ?index@?1??va@@9@9         4100d5d4     q_shared.obj
 0003:00faa5d8       ?string@?1??COM_ParseError@@9@9 4100d5d8     q_shared.obj
 0003:00fab5d8       ?string@?1??COM_ParseWarning@@9@9 4100e5d8     q_shared.obj
 0003:00fac5d8       ?final@?1??Q_StrReplace@@9@9 4100f5d8     q_shared.obj
 0003:00fac9d8       ?temp_buffer@?1??va@@9@9   4100f9d8     q_shared.obj
 0003:00fb46d8       ?string@?1??va@@9@9        410176d8     q_shared.obj
 0003:00fbc3d8       ?value@?1??Info_ValueForKey@@9@9 4101f3d8     q_shared.obj
 0003:00fc03d8       ?valueindex@?1??Info_ValueForKey@@9@9 410233d8     q_shared.obj
 0003:00fc03e8       ?buffer@?1??UI_Argv@@9@9   410233e8     ui_atoms.obj
 0003:00fc07e8       ?buffer@?1??UI_Cvar_VariableString@@9@9 410237e8     ui_atoms.obj
 0003:00fc0c00       _ui_botInfos               41023c00     ui_gameinfo.obj
 0003:00fc2c00       _ui_numArenas              41025c00     ui_gameinfo.obj
 0003:00fc2c08       _ui_arenaInfos             41025c08     ui_gameinfo.obj
 0003:00fc542c       ?cur@?1??siege_Str@@9@9    4102842c     ui_main.obj
 0003:00fc5430       ?strings@?1??siege_Str@@9@9 41028430     ui_main.obj
 0003:01005430       _UIPAFtext                 41068430     ui_main.obj
 0003:01013e90       ?sTemp@?1??GetCRDelineatedString@@9@9 41076e90     ui_main.obj
 0003:01013f90       ?text@?1??UI_GetStringEdString@@9@9 41076f90     ui_main.obj
 0003:01014390       ?index@?1??_UI_Refresh@@9@9 41077390     ui_main.obj
 0003:01014394       ?previousTimes@?1??_UI_Refresh@@9@9 41077394     ui_main.obj
 0003:010143a4       ?numinvisible@?1??UI_BuildServerDisplayList@@9@9 410773a4     ui_main.obj
 0003:010143a8       ?buf@?1??GetMenuBuffer@@9@9 410773a8     ui_main.obj
 0003:010243a8       ?info@?1??UI_CheckPassword@@9@9 410873a8     ui_main.obj
 0003:010247a8       ?numFound@?1??UI_BuildFindPlayerList@@9@9 410877a8     ui_main.obj
 0003:010247ac       ?numTimeOuts@?1??UI_BuildFindPlayerList@@9@9 410877ac     ui_main.obj
 0003:010247b0       ?info@?1??UI_FeederCount@@9@9 410877b0     ui_main.obj
 0003:01024bb0       ?info@?1??UI_FeederItemText@@9@9 41087bb0     ui_main.obj
 0003:01024fb0       ?hostname@?1??UI_FeederItemText@@9@9 41087fb0     ui_main.obj
 0003:010253b0       ?clientBuff@?1??UI_FeederItemText@@9@9 410883b0     ui_main.obj
 0003:010253d0       ?needPass@?1??UI_FeederItemText@@9@9 410883d0     ui_main.obj
 0003:010253f0       ?lastTime@?1??UI_FeederItemText@@9@9 410883f0     ui_main.obj
 0003:010253f4       _lastConnState             410883f4     ui_main.obj
 0003:010253f8       ?info@?1??UI_FeederItemImage@@9@9 410883f8     ui_main.obj
 0003:010257f8       ?info2@?CO@??UI_FeederItemImage@@9@9 410887f8     ui_main.obj
 0003:01025bf8       ?info@?1??UI_FeederSelection@@9@9 41088bf8     ui_main.obj
 0003:01025ff8       _lastLoadingText           41088ff8     ui_main.obj
 0003:01026560       _redSaberGlowShader        41089560     ui_saber.obj
 0003:01026564       _redSaberCoreShader        41089564     ui_saber.obj
 0003:01026568       _orangeSaberGlowShader     41089568     ui_saber.obj
 0003:0102656c       _orangeSaberCoreShader     4108956c     ui_saber.obj
 0003:01026570       _yellowSaberGlowShader     41089570     ui_saber.obj
 0003:01026574       _yellowSaberCoreShader     41089574     ui_saber.obj
 0003:01026578       _greenSaberGlowShader      41089578     ui_saber.obj
 0003:0102657c       _greenSaberCoreShader      4108957c     ui_saber.obj
 0003:01026580       _blueSaberGlowShader       41089580     ui_saber.obj
 0003:01026584       _blueSaberCoreShader       41089584     ui_saber.obj
 0003:01026588       _purpleSaberGlowShader     41089588     ui_saber.obj
 0003:0102658c       _purpleSaberCoreShader     4108958c     ui_saber.obj
 0003:01026590       _cyanSaberGlowShader       41089590     ui_saber.obj
 0003:01026594       _cyanSaberCoreShader       41089594     ui_saber.obj
 0003:01026598       _rgbSaberCoreShader        41089598     ui_saber.obj
 0003:0102659c       _rgbSaberGlowShader        4108959c     ui_saber.obj
 0003:010265a0       _rgbSaberCore2Shader       410895a0     ui_saber.obj
 0003:010265a4       _blackSaberGlowShader      410895a4     ui_saber.obj
 0003:010265bc       _scrollInfo                410895bc     ui_shared.obj
 0003:010265dc       _captureFunc               410895dc     ui_shared.obj
 0003:010265e0       _captureData               410895e0     ui_shared.obj
 0003:010265e4       _itemCapture               410895e4     ui_shared.obj
 0003:010265e8       _g_waitingForKey           410895e8     ui_shared.obj
 0003:010265ec       _g_editingField            410895ec     ui_shared.obj
 0003:010265f0       _g_bindItem                410895f0     ui_shared.obj
 0003:010265f4       _g_editItem                410895f4     ui_shared.obj
 0003:010265f8       _debugMode                 410895f8     ui_shared.obj
 0003:010265fc       _lastListBoxClickTime      410895fc     ui_shared.obj
 0003:01026600       _memoryPool                41089600     ui_shared.obj
 0003:02026600       _allocPoint                42089600     ui_shared.obj
 0003:02026604       _outOfMemory               42089604     ui_shared.obj
 0003:02026608       _strPoolIndex              42089608     ui_shared.obj
 0003:0202660c       _strHandleCount            4208960c     ui_shared.obj
 0003:02026610       _strPool                   42089610     ui_shared.obj
 0003:02086610       _strHandle                 420e9610     ui_shared.obj
 0003:02088610       ?string@?1??PC_SourceWarning@@9@9 420eb610     ui_shared.obj
 0003:02089610       ?string@?1??PC_SourceError@@9@9 420ec610     ui_shared.obj
 0003:0208a610       ?inHandleKey@?9??Menu_HandleKey@@9@9 420ed610     ui_shared.obj
 0003:0208a614       ?__proc_attached@@3HA      420ed614     LIBCMT:dll_dllmain.obj
 0003:0208a638       ?is_initialized_as_dll@@3_NA 420ed638     LIBCMT:utility.obj
 0003:0208a639       ?module_local_atexit_table_initialized@@3_NA 420ed639     LIBCMT:utility.obj
 0003:0208a63c       ?module_local_atexit_table@@3U_onexit_table_t@@A 420ed63c     LIBCMT:utility.obj
 0003:0208a648       ?module_local_at_quick_exit_table@@3U_onexit_table_t@@A 420ed648     LIBCMT:utility.obj
 0003:0208a658       _GS_ExceptionRecord        420ed658     LIBCMT:gs_report.obj
 0003:0208a6a8       _GS_ContextRecord          420ed6a8     LIBCMT:gs_report.obj
 0003:0208a978       ?__vcrt_startup_thread_ptd@@3U__vcrt_ptd@@A 420ed978     libvcruntime:per_thread_data.obj
 0003:0208a9a0       ___vcrt_lock_table         420ed9a0     libvcruntime:locks.obj
 0003:0208a9b8       ___vcrt_locks_initialized  420ed9b8     libvcruntime:locks.obj
 0003:0208a9bc       ?module_handles@@3PAPAUHINSTANCE__@@A 420ed9bc     libvcruntime:winapi_downlevel.obj
 0003:0208a9c8       ?function_pointers@@3PAPAXA 420ed9c8     libvcruntime:winapi_downlevel.obj
 0003:0208a9e0       ?c_termination_complete@@3JA 420ed9e0     libucrt:exit.obj
 0003:0208a9e4       ?thread_local_exit_callback_func@@3P6GXPAXK0@ZA 420ed9e4     libucrt:exit.obj
 0003:0208a9e8       ?c_exit_complete@?1???R<lambda_6e4b09c48022b2350581041d5f6b0c4c>@@QBE@XZ@4_NA 420ed9e8     libucrt:exit.obj
 0003:0208a9f0       ?program_name@?1???$common_configure_argv@D@@YAHW4_crt_argv_mode@@@Z@4PADA 420ed9f0     libucrt:argv_parsing.obj
 0003:0208ab20       ?__acrt_invalid_parameter_handler@@3V?$dual_state_global@P6AXPB_W00II@Z@__crt_state_management@@A 420edb20     libucrt:invalid_parameter.obj
 0003:0208ab30       __pmatherr_set             420edb30     libucrt:libm_error.obj
 0003:0208ab34       ?internal_state@?1??_mbtowc_internal@@9@4U_Mbstatet@@A 420edb34     libucrt:mbtowc.obj
 0003:0208ab3c       ?internal_pst@?1??__mbrtoc32_utf8@__crt_mbstring@@YAIPA_UPBDIPAU_Mbstatet@@AAV__crt_cached_ptd_host@@@Z@4U3@A 420edb3c     libucrt:mbrtoc32.obj
 0003:0208ab44       ?internal_pst@?1??__c16rtomb_utf8@__crt_mbstring@@YAIPAD_SPAU_Mbstatet@@AAV__crt_cached_ptd_host@@@Z@4U3@A 420edb44     libucrt:c16rtomb.obj
 0003:0208ab54       ?enable_percent_n@@3IA     420edb54     libucrt:printf_count_output.obj
 0003:0208ad68       ?__acrt_lock_table@@3PAU_RTL_CRITICAL_SECTION@@A 420edd68     libucrt:locks.obj
 0003:0208aed0       ?__acrt_locks_initialized@@3IA 420eded0     libucrt:locks.obj
 0003:0208aee0       ?fSystemSet@@3HA           420edee0     libucrt:mbctype.obj
 0003:0208aee4       ?initialized@?1??__acrt_initialize_multibyte@@9@4_NA 420edee4     libucrt:mbctype.obj
 0003:0208af00       ?module_handles@@3PAPAUHINSTANCE__@@A 420edf00     libucrt:winapi_thunks.obj
 0003:0208af60       ?__acrt_new_handler@@3V?$dual_state_global@P6AHI@Z@__crt_state_management@@A 420edf60     libucrt:new_handler.obj
 0003:0208af64       ?ctrlc_action@@3V?$dual_state_global@P6AXH@Z@__crt_state_management@@A 420edf64     libucrt:signal.obj
 0003:0208af68       ?ctrlbreak_action@@3V?$dual_state_global@P6AXH@Z@__crt_state_management@@A 420edf68     libucrt:signal.obj
 0003:0208af6c       ?abort_action@@3V?$dual_state_global@P6AXH@Z@__crt_state_management@@A 420edf6c     libucrt:signal.obj
 0003:0208af70       ?term_action@@3V?$dual_state_global@P6AXH@Z@__crt_state_management@@A 420edf70     libucrt:signal.obj
 0003:0208af74       ?user_matherr@@3V?$dual_state_global@P6AHPAU_exception@@@Z@__crt_state_management@@A 420edf74     libucrt:matherr.obj
 0003:0208af84       ?__acrt_global_new_mode@@3V?$dual_state_global@J@__crt_state_management@@A 420edf84     libucrt:new_mode.obj
 0003:0208af88       ?__acrt_app_type@@3W4_crt_app_type@@A 420edf88     libucrt:report_runtime_error.obj
 0004:00000000       ?function_pointers@@3PAPAXA 423b1000     libucrt:winapi_thunks.obj
 0005:00000060       $R000000                   423b2060     * linker generated manifest res *
